ARM GAS  C:\Users\benny\AppData\Local\Temp\cc9sISHT.s 			page 1


   1              		.cpu cortex-m7
   2              		.arch armv7e-m
   3              		.fpu fpv5-sp-d16
   4              		.eabi_attribute 27, 1
   5              		.eabi_attribute 28, 1
   6              		.eabi_attribute 20, 1
   7              		.eabi_attribute 21, 1
   8              		.eabi_attribute 23, 3
   9              		.eabi_attribute 24, 1
  10              		.eabi_attribute 25, 1
  11              		.eabi_attribute 26, 1
  12              		.eabi_attribute 30, 1
  13              		.eabi_attribute 34, 1
  14              		.eabi_attribute 18, 4
  15              		.file	"leg.c"
  16              		.text
  17              	.Ltext0:
  18              		.cfi_sections	.debug_frame
  19              		.file 1 "Core/Src/leg.c"
  20              		.global	__aeabi_f2d
  21              		.global	__aeabi_dsub
  22              		.global	__aeabi_dadd
  23              		.global	__aeabi_dmul
  24              		.global	__aeabi_d2f
  25              		.global	__aeabi_ddiv
  26              		.section	.text.IK,"ax",%progbits
  27              		.align	1
  28              		.global	IK
  29              		.syntax unified
  30              		.thumb
  31              		.thumb_func
  33              	IK:
  34              	.LVL0:
  35              	.LFB0:
   1:Core/Src/leg.c **** #include "leg.h"
   2:Core/Src/leg.c **** #include <stdlib.h>
   3:Core/Src/leg.c **** #include "utility.h"
   4:Core/Src/leg.c **** 
   5:Core/Src/leg.c **** //Leg Objects
   6:Core/Src/leg.c **** 
   7:Core/Src/leg.c **** 
   8:Core/Src/leg.c **** 
   9:Core/Src/leg.c **** 
  10:Core/Src/leg.c **** 
  11:Core/Src/leg.c **** void IK(leg_t *leg, float x, float y, float z){
  36              		.loc 1 11 47 view -0
  37              		.cfi_startproc
  38              		@ args = 0, pretend = 0, frame = 0
  39              		@ frame_needed = 0, uses_anonymous_args = 0
  40              		.loc 1 11 47 is_stmt 0 view .LVU1
  41 0000 2DE9D043 		push	{r4, r6, r7, r8, r9, lr}
  42              	.LCFI0:
  43              		.cfi_def_cfa_offset 24
  44              		.cfi_offset 4, -24
  45              		.cfi_offset 6, -20
  46              		.cfi_offset 7, -16
  47              		.cfi_offset 8, -12
ARM GAS  C:\Users\benny\AppData\Local\Temp\cc9sISHT.s 			page 2


  48              		.cfi_offset 9, -8
  49              		.cfi_offset 14, -4
  50 0004 2DED0A8B 		vpush.64	{d8, d9, d10, d11, d12}
  51              	.LCFI1:
  52              		.cfi_def_cfa_offset 64
  53              		.cfi_offset 80, -64
  54              		.cfi_offset 81, -60
  55              		.cfi_offset 82, -56
  56              		.cfi_offset 83, -52
  57              		.cfi_offset 84, -48
  58              		.cfi_offset 85, -44
  59              		.cfi_offset 86, -40
  60              		.cfi_offset 87, -36
  61              		.cfi_offset 88, -32
  62              		.cfi_offset 89, -28
  63 0008 0446     		mov	r4, r0
  64 000a F0EE408A 		vmov.f32	s17, s0
  65 000e F0EE609A 		vmov.f32	s19, s1
  66 0012 B0EE419A 		vmov.f32	s18, s2
  12:Core/Src/leg.c **** //Might want to put parameters here to calculate leg specific angles using l/w/h map;
  13:Core/Src/leg.c **** 
  14:Core/Src/leg.c **** //Calculate angles
  15:Core/Src/leg.c ****     float theta1_0 = 90 - (atan2((sqrt(z*z + y*y - d1*d1)),d1) - (M_PI/2) + atan2(z,y)) * (180.0/M_
  67              		.loc 1 15 5 is_stmt 1 view .LVU2
  68              		.loc 1 15 41 is_stmt 0 view .LVU3
  69 0016 21EE01AA 		vmul.f32	s20, s2, s2
  70              		.loc 1 15 47 view .LVU4
  71 001a 20EEA08A 		vmul.f32	s16, s1, s1
  72              		.loc 1 15 44 view .LVU5
  73 001e 7AEE087A 		vadd.f32	s15, s20, s16
  74              		.loc 1 15 50 view .LVU6
  75 0022 DFED8BAA 		vldr.32	s21, .L3+32
  76              		.loc 1 15 28 view .LVU7
  77 0026 77EEEA7A 		vsub.f32	s15, s15, s21
  78 002a 17EE900A 		vmov	r0, s15
  79              	.LVL1:
  80              		.loc 1 15 28 view .LVU8
  81 002e FFF7FEFF 		bl	__aeabi_f2d
  82              	.LVL2:
  83              		.loc 1 15 28 view .LVU9
  84 0032 41EC1B0B 		vmov	d11, r0, r1
  85 0036 B0EE4B0A 		vmov.f32	s0, s22
  86 003a F0EE6B0A 		vmov.f32	s1, s23
  87 003e FFF7FEFF 		bl	sqrt
  88              	.LVL3:
  89 0042 9FED7B1B 		vldr.64	d1, .L3
  90 0046 FFF7FEFF 		bl	atan2
  91              	.LVL4:
  92 004a 51EC100B 		vmov	r0, r1, d0
  93              		.loc 1 15 64 view .LVU10
  94 004e 7AA3     		adr	r3, .L3+8
  95 0050 D3E90023 		ldrd	r2, [r3]
  96 0054 FFF7FEFF 		bl	__aeabi_dsub
  97              	.LVL5:
  98 0058 0646     		mov	r6, r0
  99 005a 0F46     		mov	r7, r1
 100              		.loc 1 15 77 view .LVU11
ARM GAS  C:\Users\benny\AppData\Local\Temp\cc9sISHT.s 			page 3


 101 005c 19EE900A 		vmov	r0, s19
 102 0060 FFF7FEFF 		bl	__aeabi_f2d
 103              	.LVL6:
 104 0064 41EC1C0B 		vmov	d12, r0, r1
 105 0068 19EE100A 		vmov	r0, s18
 106 006c FFF7FEFF 		bl	__aeabi_f2d
 107              	.LVL7:
 108 0070 B0EE4C1A 		vmov.f32	s2, s24
 109 0074 F0EE6C1A 		vmov.f32	s3, s25
 110 0078 41EC100B 		vmov	d0, r0, r1
 111 007c FFF7FEFF 		bl	atan2
 112              	.LVL8:
 113 0080 53EC102B 		vmov	r2, r3, d0
 114              		.loc 1 15 75 view .LVU12
 115 0084 3046     		mov	r0, r6
 116 0086 3946     		mov	r1, r7
 117 0088 FFF7FEFF 		bl	__aeabi_dadd
 118              	.LVL9:
 119              		.loc 1 15 89 view .LVU13
 120 008c 6CA3     		adr	r3, .L3+16
 121 008e D3E90023 		ldrd	r2, [r3]
 122 0092 FFF7FEFF 		bl	__aeabi_dmul
 123              	.LVL10:
 124 0096 0246     		mov	r2, r0
 125 0098 0B46     		mov	r3, r1
 126              		.loc 1 15 25 view .LVU14
 127 009a 0020     		movs	r0, #0
 128 009c 6D49     		ldr	r1, .L3+36
 129 009e FFF7FEFF 		bl	__aeabi_dsub
 130              	.LVL11:
 131              		.loc 1 15 11 view .LVU15
 132 00a2 FFF7FEFF 		bl	__aeabi_d2f
 133              	.LVL12:
 134 00a6 09EE100A 		vmov	s18, r0
 135              	.LVL13:
  16:Core/Src/leg.c ****     float theta2_0 = (M_PI - atan2(sqrt(z*z + y*y -d1*d1),x) - acos( (l1*l1 - l2*l2 + (x*x + z*z + 
 136              		.loc 1 16 5 is_stmt 1 view .LVU16
 137              		.loc 1 16 30 is_stmt 0 view .LVU17
 138 00aa B0EE4B0A 		vmov.f32	s0, s22
 139 00ae F0EE6B0A 		vmov.f32	s1, s23
 140 00b2 FFF7FEFF 		bl	sqrt
 141              	.LVL14:
 142              		.loc 1 16 30 view .LVU18
 143 00b6 B0EE40BA 		vmov.f32	s22, s0
 144 00ba F0EE60BA 		vmov.f32	s23, s1
 145 00be 18EE900A 		vmov	r0, s17
 146 00c2 FFF7FEFF 		bl	__aeabi_f2d
 147              	.LVL15:
 148 00c6 41EC110B 		vmov	d1, r0, r1
 149 00ca B0EE4B0A 		vmov.f32	s0, s22
 150 00ce F0EE6B0A 		vmov.f32	s1, s23
 151 00d2 FFF7FEFF 		bl	atan2
 152              	.LVL16:
 153 00d6 53EC102B 		vmov	r2, r3, d0
 154              		.loc 1 16 28 view .LVU19
 155 00da 5BA1     		adr	r1, .L3+24
 156 00dc D1E90001 		ldrd	r0, [r1]
ARM GAS  C:\Users\benny\AppData\Local\Temp\cc9sISHT.s 			page 4


 157 00e0 FFF7FEFF 		bl	__aeabi_dsub
 158              	.LVL17:
 159 00e4 0646     		mov	r6, r0
 160 00e6 0F46     		mov	r7, r1
 161              		.loc 1 16 89 view .LVU20
 162 00e8 68EEA88A 		vmul.f32	s17, s17, s17
 163              	.LVL18:
 164              		.loc 1 16 92 view .LVU21
 165 00ec 3AEE28AA 		vadd.f32	s20, s20, s17
 166              		.loc 1 16 98 view .LVU22
 167 00f0 38EE0A8A 		vadd.f32	s16, s16, s20
 168              		.loc 1 16 104 view .LVU23
 169 00f4 38EE6A8A 		vsub.f32	s16, s16, s21
 170              		.loc 1 16 85 view .LVU24
 171 00f8 DFED577A 		vldr.32	s15, .L3+40
 172 00fc 78EE677A 		vsub.f32	s15, s16, s15
 173 0100 17EE900A 		vmov	r0, s15
 174 0104 FFF7FEFF 		bl	__aeabi_f2d
 175              	.LVL19:
 176 0108 8046     		mov	r8, r0
 177 010a 8946     		mov	r9, r1
 178              		.loc 1 16 120 view .LVU25
 179 010c 18EE100A 		vmov	r0, s16
 180 0110 FFF7FEFF 		bl	__aeabi_f2d
 181              	.LVL20:
 182 0114 41EC100B 		vmov	d0, r0, r1
 183 0118 FFF7FEFF 		bl	sqrt
 184              	.LVL21:
 185 011c 51EC100B 		vmov	r0, r1, d0
 186              		.loc 1 16 119 view .LVU26
 187 0120 0022     		movs	r2, #0
 188 0122 4E4B     		ldr	r3, .L3+44
 189 0124 FFF7FEFF 		bl	__aeabi_dmul
 190              	.LVL22:
 191 0128 0246     		mov	r2, r0
 192 012a 0B46     		mov	r3, r1
 193              		.loc 1 16 64 view .LVU27
 194 012c 4046     		mov	r0, r8
 195 012e 4946     		mov	r1, r9
 196 0130 FFF7FEFF 		bl	__aeabi_ddiv
 197              	.LVL23:
 198 0134 41EC100B 		vmov	d0, r0, r1
 199 0138 FFF7FEFF 		bl	acos
 200              	.LVL24:
 201 013c 53EC102B 		vmov	r2, r3, d0
 202              		.loc 1 16 62 view .LVU28
 203 0140 3046     		mov	r0, r6
 204 0142 3946     		mov	r1, r7
 205 0144 FFF7FEFF 		bl	__aeabi_dsub
 206              	.LVL25:
 207              		.loc 1 16 153 view .LVU29
 208 0148 3DA3     		adr	r3, .L3+16
 209 014a D3E90023 		ldrd	r2, [r3]
 210 014e FFF7FEFF 		bl	__aeabi_dmul
 211              	.LVL26:
 212              		.loc 1 16 11 view .LVU30
 213 0152 FFF7FEFF 		bl	__aeabi_d2f
ARM GAS  C:\Users\benny\AppData\Local\Temp\cc9sISHT.s 			page 5


 214              	.LVL27:
 215 0156 08EE900A 		vmov	s17, r0
 216              	.LVL28:
  17:Core/Src/leg.c ****     float theta3_0 = (M_PI - acos((x*x + z*z + y*y -d1*d1 - l1*l1 - l2*l2) / (-2*l1*l2))) * (180.0/
 217              		.loc 1 17 5 is_stmt 1 view .LVU31
 218              		.loc 1 17 59 is_stmt 0 view .LVU32
 219 015a DFED417A 		vldr.32	s15, .L3+48
 220 015e 38EE678A 		vsub.f32	s16, s16, s15
 221              		.loc 1 17 67 view .LVU33
 222 0162 DFED407A 		vldr.32	s15, .L3+52
 223 0166 38EE678A 		vsub.f32	s16, s16, s15
 224              		.loc 1 17 30 view .LVU34
 225 016a DFED3F7A 		vldr.32	s15, .L3+56
 226 016e C8EE277A 		vdiv.f32	s15, s16, s15
 227 0172 17EE900A 		vmov	r0, s15
 228              	.LVL29:
 229              		.loc 1 17 30 view .LVU35
 230 0176 FFF7FEFF 		bl	__aeabi_f2d
 231              	.LVL30:
 232 017a 41EC100B 		vmov	d0, r0, r1
 233 017e FFF7FEFF 		bl	acos
 234              	.LVL31:
 235 0182 53EC102B 		vmov	r2, r3, d0
 236              		.loc 1 17 28 view .LVU36
 237 0186 30A1     		adr	r1, .L3+24
 238 0188 D1E90001 		ldrd	r0, [r1]
 239 018c FFF7FEFF 		bl	__aeabi_dsub
 240              	.LVL32:
 241              		.loc 1 17 91 view .LVU37
 242 0190 2BA3     		adr	r3, .L3+16
 243 0192 D3E90023 		ldrd	r2, [r3]
 244 0196 FFF7FEFF 		bl	__aeabi_dmul
 245              	.LVL33:
 246              		.loc 1 17 11 view .LVU38
 247 019a FFF7FEFF 		bl	__aeabi_d2f
 248              	.LVL34:
 249 019e 05EE100A 		vmov	s10, r0
 250              	.LVL35:
  18:Core/Src/leg.c **** 
  19:Core/Src/leg.c **** //Update angles based on leg specific motor orientation
  20:Core/Src/leg.c ****     // theta1 = leg->reflectionMap[3] * fabs((leg->reflectionMap[0] * 180.0f - theta1));
  21:Core/Src/leg.c ****     // theta2 = fabs((leg->reflectionMap[1] * 180.0f - theta2_0 * leg->reflectionMap[4]));
  22:Core/Src/leg.c ****     // theta3 = fabs((leg->reflectionMap[2] * 180.0f - theta3 - theta2_0*leg->reflectionMap[5])); 
  23:Core/Src/leg.c **** 
  24:Core/Src/leg.c ****     float theta1 = fabs((leg->reflectionMap[0] * 180.0f - theta1_0));
 251              		.loc 1 24 5 is_stmt 1 view .LVU39
 252              		.loc 1 24 48 is_stmt 0 view .LVU40
 253 01a2 D4ED037A 		vldr.32	s15, [r4, #12]	@ int
 254 01a6 B8EEE77A 		vcvt.f32.s32	s14, s15
 255 01aa DFED306A 		vldr.32	s13, .L3+60
 256 01ae 27EE267A 		vmul.f32	s14, s14, s13
 257              		.loc 1 24 57 view .LVU41
 258 01b2 37EE497A 		vsub.f32	s14, s14, s18
 259              		.loc 1 24 11 view .LVU42
 260 01b6 B0EEC77A 		vabs.f32	s14, s14
 261              	.LVL36:
  25:Core/Src/leg.c ****     float theta2 = fabs((leg->reflectionMap[1] * 180.0f) - theta2_0 * leg->reflectionMap[4]);
ARM GAS  C:\Users\benny\AppData\Local\Temp\cc9sISHT.s 			page 6


 262              		.loc 1 25 5 is_stmt 1 view .LVU43
 263              		.loc 1 25 48 is_stmt 0 view .LVU44
 264 01ba D4ED047A 		vldr.32	s15, [r4, #16]	@ int
 265 01be F8EEE77A 		vcvt.f32.s32	s15, s15
 266 01c2 67EEA67A 		vmul.f32	s15, s15, s13
 267              		.loc 1 25 69 view .LVU45
 268 01c6 D4ED076A 		vldr.32	s13, [r4, #28]	@ int
 269 01ca B8EEE66A 		vcvt.f32.s32	s12, s13
 270 01ce 26EE286A 		vmul.f32	s12, s12, s17
 271              		.loc 1 25 58 view .LVU46
 272 01d2 77EEC67A 		vsub.f32	s15, s15, s12
 273              		.loc 1 25 11 view .LVU47
 274 01d6 F0EEE77A 		vabs.f32	s15, s15
 275              	.LVL37:
  26:Core/Src/leg.c ****     float theta3 = fabs(leg->reflectionMap[5] * ((leg->reflectionMap[2] * 180) - theta3_0 * leg->re
 276              		.loc 1 26 5 is_stmt 1 view .LVU48
 277              		.loc 1 26 47 is_stmt 0 view .LVU49
 278 01da D4ED086A 		vldr.32	s13, [r4, #32]	@ int
 279 01de F8EEE66A 		vcvt.f32.s32	s13, s13
 280              		.loc 1 26 69 view .LVU50
 281 01e2 6369     		ldr	r3, [r4, #20]
 282              		.loc 1 26 73 view .LVU51
 283 01e4 B422     		movs	r2, #180
 284 01e6 02FB03F3 		mul	r3, r2, r3
 285 01ea 05EE903A 		vmov	s11, r3	@ int
 286              		.loc 1 26 91 view .LVU52
 287 01ee 26EE855A 		vmul.f32	s10, s13, s10
 288              		.loc 1 26 80 view .LVU53
 289 01f2 F8EEE55A 		vcvt.f32.s32	s11, s11
 290 01f6 75EEC55A 		vsub.f32	s11, s11, s10
 291              		.loc 1 26 115 view .LVU54
 292 01fa 36EE256A 		vadd.f32	s12, s12, s11
 293              		.loc 1 26 47 view .LVU55
 294 01fe 66EE866A 		vmul.f32	s13, s13, s12
 295              		.loc 1 26 11 view .LVU56
 296 0202 F0EEE66A 		vabs.f32	s13, s13
 297              	.LVL38:
  27:Core/Src/leg.c **** //Store angles in leg motor object
  28:Core/Src/leg.c ****     leg->motorList[0]->motorAngle = theta1;
 298              		.loc 1 28 5 is_stmt 1 view .LVU57
 299              		.loc 1 28 19 is_stmt 0 view .LVU58
 300 0206 2368     		ldr	r3, [r4]
 301              		.loc 1 28 35 view .LVU59
 302 0208 BDEEC77A 		vcvt.s32.f32	s14, s14
 303              	.LVL39:
 304              		.loc 1 28 35 view .LVU60
 305 020c 83ED017A 		vstr.32	s14, [r3, #4]	@ int
 306              	.LVL40:
  29:Core/Src/leg.c ****     leg->motorList[1]->motorAngle = theta2;
 307              		.loc 1 29 5 is_stmt 1 view .LVU61
 308              		.loc 1 29 19 is_stmt 0 view .LVU62
 309 0210 6368     		ldr	r3, [r4, #4]
 310              		.loc 1 29 35 view .LVU63
 311 0212 FDEEE77A 		vcvt.s32.f32	s15, s15
 312              	.LVL41:
 313              		.loc 1 29 35 view .LVU64
 314 0216 C3ED017A 		vstr.32	s15, [r3, #4]	@ int
ARM GAS  C:\Users\benny\AppData\Local\Temp\cc9sISHT.s 			page 7


  30:Core/Src/leg.c ****     leg->motorList[2]->motorAngle = theta3;
 315              		.loc 1 30 5 is_stmt 1 view .LVU65
 316              		.loc 1 30 19 is_stmt 0 view .LVU66
 317 021a A368     		ldr	r3, [r4, #8]
 318              		.loc 1 30 35 view .LVU67
 319 021c FDEEE66A 		vcvt.s32.f32	s13, s13
 320              	.LVL42:
 321              		.loc 1 30 35 view .LVU68
 322 0220 C3ED016A 		vstr.32	s13, [r3, #4]	@ int
  31:Core/Src/leg.c **** } 
 323              		.loc 1 31 1 view .LVU69
 324 0224 BDEC0A8B 		vldm	sp!, {d8-d12}
 325              	.LCFI2:
 326              		.cfi_restore 88
 327              		.cfi_restore 89
 328              		.cfi_restore 86
 329              		.cfi_restore 87
 330              		.cfi_restore 84
 331              		.cfi_restore 85
 332              		.cfi_restore 82
 333              		.cfi_restore 83
 334              		.cfi_restore 80
 335              		.cfi_restore 81
 336              		.cfi_def_cfa_offset 24
 337              	.LVL43:
 338              		.loc 1 31 1 view .LVU70
 339 0228 BDE8D083 		pop	{r4, r6, r7, r8, r9, pc}
 340              	.LVL44:
 341              	.L4:
 342              		.loc 1 31 1 view .LVU71
 343 022c AFF30080 		.align	3
 344              	.L3:
 345 0230 00000020 		.word	536870912
 346 0234 DB694540 		.word	1078290907
 347 0238 182D4454 		.word	1413754136
 348 023c FB21F93F 		.word	1073291771
 349 0240 F8C1631A 		.word	442745336
 350 0244 DCA54C40 		.word	1078765020
 351 0248 182D4454 		.word	1413754136
 352 024c FB210940 		.word	1074340347
 353 0250 DC44E544 		.word	1155876060
 354 0254 00805640 		.word	1079410688
 355 0258 00E09244 		.word	1150476288
 356 025c 00C06CC0 		.word	-1066614784
 357 0260 00A44E46 		.word	1179558912
 358 0264 00006146 		.word	1180762112
 359 0268 00A0D7C6 		.word	-958947328
 360 026c 00003443 		.word	1127481344
 361              		.cfi_endproc
 362              	.LFE0:
 364              		.section	.text.legPositionIncrement,"ax",%progbits
 365              		.align	1
 366              		.global	legPositionIncrement
 367              		.syntax unified
 368              		.thumb
 369              		.thumb_func
 371              	legPositionIncrement:
ARM GAS  C:\Users\benny\AppData\Local\Temp\cc9sISHT.s 			page 8


 372              	.LVL45:
 373              	.LFB1:
  32:Core/Src/leg.c **** 
  33:Core/Src/leg.c **** 
  34:Core/Src/leg.c **** void legPositionIncrement(leg_t *leg, float dx, float dy, float dz, float maxDist){
 374              		.loc 1 34 83 is_stmt 1 view -0
 375              		.cfi_startproc
 376              		@ args = 0, pretend = 0, frame = 0
 377              		@ frame_needed = 0, uses_anonymous_args = 0
 378              		.loc 1 34 83 is_stmt 0 view .LVU73
 379 0000 10B5     		push	{r4, lr}
 380              	.LCFI3:
 381              		.cfi_def_cfa_offset 8
 382              		.cfi_offset 4, -8
 383              		.cfi_offset 14, -4
 384 0002 2DED048B 		vpush.64	{d8, d9}
 385              	.LCFI4:
 386              		.cfi_def_cfa_offset 24
 387              		.cfi_offset 80, -24
 388              		.cfi_offset 81, -20
 389              		.cfi_offset 82, -16
 390              		.cfi_offset 83, -12
 391 0006 0446     		mov	r4, r0
 392 0008 B0EE609A 		vmov.f32	s18, s1
 393 000c F0EE418A 		vmov.f32	s17, s2
 394 0010 B0EE618A 		vmov.f32	s16, s3
  35:Core/Src/leg.c **** 
  36:Core/Src/leg.c **** 
  37:Core/Src/leg.c ****     leg->x = clip(leg->x + dx, homeX - maxDist, homeX + maxDist);
 395              		.loc 1 37 5 is_stmt 1 view .LVU74
 396              		.loc 1 37 22 is_stmt 0 view .LVU75
 397 0014 D0ED0F7A 		vldr.32	s15, [r0, #60]
 398              		.loc 1 37 14 view .LVU76
 399 0018 DFED190A 		vldr.32	s1, .L7
 400              	.LVL46:
 401              		.loc 1 37 14 view .LVU77
 402 001c 31EEA01A 		vadd.f32	s2, s3, s1
 403              	.LVL47:
 404              		.loc 1 37 14 view .LVU78
 405 0020 70EEE10A 		vsub.f32	s1, s1, s3
 406 0024 37EE800A 		vadd.f32	s0, s15, s0
 407              	.LVL48:
 408              		.loc 1 37 14 view .LVU79
 409 0028 FFF7FEFF 		bl	clip
 410              	.LVL49:
 411              		.loc 1 37 12 view .LVU80
 412 002c 84ED0F0A 		vstr.32	s0, [r4, #60]
  38:Core/Src/leg.c ****     leg->y = clip(leg->y + dy, homeY - maxDist, homeY + maxDist);
 413              		.loc 1 38 5 is_stmt 1 view .LVU81
 414              		.loc 1 38 22 is_stmt 0 view .LVU82
 415 0030 94ED100A 		vldr.32	s0, [r4, #64]
 416              		.loc 1 38 14 view .LVU83
 417 0034 DFED130A 		vldr.32	s1, .L7+4
 418 0038 38EE201A 		vadd.f32	s2, s16, s1
 419 003c 70EEC80A 		vsub.f32	s1, s1, s16
 420 0040 30EE090A 		vadd.f32	s0, s0, s18
 421 0044 FFF7FEFF 		bl	clip
ARM GAS  C:\Users\benny\AppData\Local\Temp\cc9sISHT.s 			page 9


 422              	.LVL50:
 423              		.loc 1 38 12 view .LVU84
 424 0048 84ED100A 		vstr.32	s0, [r4, #64]
  39:Core/Src/leg.c ****     leg->z = clip(leg->z + dz, homeZ - maxDist, homeZ + maxDist);
 425              		.loc 1 39 5 is_stmt 1 view .LVU85
 426              		.loc 1 39 22 is_stmt 0 view .LVU86
 427 004c 94ED110A 		vldr.32	s0, [r4, #68]
 428              		.loc 1 39 14 view .LVU87
 429 0050 DFED0D0A 		vldr.32	s1, .L7+8
 430 0054 38EE201A 		vadd.f32	s2, s16, s1
 431 0058 70EEC80A 		vsub.f32	s1, s1, s16
 432 005c 30EE280A 		vadd.f32	s0, s0, s17
 433 0060 FFF7FEFF 		bl	clip
 434              	.LVL51:
 435 0064 B0EE401A 		vmov.f32	s2, s0
 436              		.loc 1 39 12 view .LVU88
 437 0068 84ED110A 		vstr.32	s0, [r4, #68]
  40:Core/Src/leg.c **** 
  41:Core/Src/leg.c **** 
  42:Core/Src/leg.c ****     IK(leg,leg->x,leg->y,leg->z);
 438              		.loc 1 42 5 is_stmt 1 view .LVU89
 439 006c D4ED100A 		vldr.32	s1, [r4, #64]
 440 0070 94ED0F0A 		vldr.32	s0, [r4, #60]
 441 0074 2046     		mov	r0, r4
 442 0076 FFF7FEFF 		bl	IK
 443              	.LVL52:
  43:Core/Src/leg.c **** }
 444              		.loc 1 43 1 is_stmt 0 view .LVU90
 445 007a BDEC048B 		vldm	sp!, {d8-d9}
 446              	.LCFI5:
 447              		.cfi_restore 82
 448              		.cfi_restore 83
 449              		.cfi_restore 80
 450              		.cfi_restore 81
 451              		.cfi_def_cfa_offset 8
 452              	.LVL53:
 453              		.loc 1 43 1 view .LVU91
 454 007e 10BD     		pop	{r4, pc}
 455              	.LVL54:
 456              	.L8:
 457              		.loc 1 43 1 view .LVU92
 458              		.align	2
 459              	.L7:
 460 0080 00000000 		.word	0
 461 0084 F6482143 		.word	1126254838
 462 0088 D94E2B42 		.word	1110134489
 463              		.cfi_endproc
 464              	.LFE1:
 466              		.section	.text.moveLeg,"ax",%progbits
 467              		.align	1
 468              		.global	moveLeg
 469              		.syntax unified
 470              		.thumb
 471              		.thumb_func
 473              	moveLeg:
 474              	.LVL55:
 475              	.LFB2:
ARM GAS  C:\Users\benny\AppData\Local\Temp\cc9sISHT.s 			page 10


  44:Core/Src/leg.c **** 
  45:Core/Src/leg.c **** void moveLeg(leg_t *leg){
 476              		.loc 1 45 25 is_stmt 1 view -0
 477              		.cfi_startproc
 478              		@ args = 0, pretend = 0, frame = 0
 479              		@ frame_needed = 0, uses_anonymous_args = 0
 480              		.loc 1 45 25 is_stmt 0 view .LVU94
 481 0000 38B5     		push	{r3, r4, r5, lr}
 482              	.LCFI6:
 483              		.cfi_def_cfa_offset 16
 484              		.cfi_offset 3, -16
 485              		.cfi_offset 4, -12
 486              		.cfi_offset 5, -8
 487              		.cfi_offset 14, -4
 488 0002 0546     		mov	r5, r0
  46:Core/Src/leg.c ****     for(int i = 0; i < 3; i++){
 489              		.loc 1 46 5 is_stmt 1 view .LVU95
 490              	.LBB2:
 491              		.loc 1 46 9 view .LVU96
 492              	.LVL56:
 493              		.loc 1 46 13 is_stmt 0 view .LVU97
 494 0004 0024     		movs	r4, #0
 495              		.loc 1 46 5 view .LVU98
 496 0006 05E0     		b	.L10
 497              	.LVL57:
 498              	.L11:
  47:Core/Src/leg.c ****         motorSetAngle(leg->motorList[i], leg->motorList[i]->motorAngle);
 499              		.loc 1 47 9 is_stmt 1 discriminator 3 view .LVU99
 500 0008 55F82400 		ldr	r0, [r5, r4, lsl #2]
 501 000c 8188     		ldrh	r1, [r0, #4]
 502 000e FFF7FEFF 		bl	motorSetAngle
 503              	.LVL58:
  46:Core/Src/leg.c ****     for(int i = 0; i < 3; i++){
 504              		.loc 1 46 28 discriminator 3 view .LVU100
 505 0012 0134     		adds	r4, r4, #1
 506              	.LVL59:
 507              	.L10:
  46:Core/Src/leg.c ****     for(int i = 0; i < 3; i++){
 508              		.loc 1 46 22 discriminator 1 view .LVU101
 509 0014 022C     		cmp	r4, #2
 510 0016 F7DD     		ble	.L11
 511              	.LBE2:
  48:Core/Src/leg.c ****     }
  49:Core/Src/leg.c **** }
 512              		.loc 1 49 1 is_stmt 0 view .LVU102
 513 0018 38BD     		pop	{r3, r4, r5, pc}
 514              		.loc 1 49 1 view .LVU103
 515              		.cfi_endproc
 516              	.LFE2:
 518              		.section	.text.home,"ax",%progbits
 519              		.align	1
 520              		.global	home
 521              		.syntax unified
 522              		.thumb
 523              		.thumb_func
 525              	home:
 526              	.LVL60:
ARM GAS  C:\Users\benny\AppData\Local\Temp\cc9sISHT.s 			page 11


 527              	.LFB3:
  50:Core/Src/leg.c **** 
  51:Core/Src/leg.c **** void home(leg_t *leg){
 528              		.loc 1 51 22 is_stmt 1 view -0
 529              		.cfi_startproc
 530              		@ args = 0, pretend = 0, frame = 0
 531              		@ frame_needed = 0, uses_anonymous_args = 0
 532              		.loc 1 51 22 is_stmt 0 view .LVU105
 533 0000 10B5     		push	{r4, lr}
 534              	.LCFI7:
 535              		.cfi_def_cfa_offset 8
 536              		.cfi_offset 4, -8
 537              		.cfi_offset 14, -4
 538 0002 0446     		mov	r4, r0
  52:Core/Src/leg.c ****     leg->x = homeX;
 539              		.loc 1 52 5 is_stmt 1 view .LVU106
 540              		.loc 1 52 12 is_stmt 0 view .LVU107
 541 0004 9FED080A 		vldr.32	s0, .L15
 542 0008 80ED0F0A 		vstr.32	s0, [r0, #60]
  53:Core/Src/leg.c ****     leg->y = homeY;
 543              		.loc 1 53 5 is_stmt 1 view .LVU108
 544              		.loc 1 53 12 is_stmt 0 view .LVU109
 545 000c DFED070A 		vldr.32	s1, .L15+4
 546 0010 C0ED100A 		vstr.32	s1, [r0, #64]
  54:Core/Src/leg.c ****     leg->z = homeZ;
 547              		.loc 1 54 5 is_stmt 1 view .LVU110
 548              		.loc 1 54 12 is_stmt 0 view .LVU111
 549 0014 9FED061A 		vldr.32	s2, .L15+8
 550 0018 80ED111A 		vstr.32	s2, [r0, #68]
  55:Core/Src/leg.c ****     IK(leg,leg->x,leg->y,leg->z);
 551              		.loc 1 55 5 is_stmt 1 view .LVU112
 552 001c FFF7FEFF 		bl	IK
 553              	.LVL61:
  56:Core/Src/leg.c **** 
  57:Core/Src/leg.c ****     moveLeg(leg);
 554              		.loc 1 57 5 view .LVU113
 555 0020 2046     		mov	r0, r4
 556 0022 FFF7FEFF 		bl	moveLeg
 557              	.LVL62:
  58:Core/Src/leg.c **** }
 558              		.loc 1 58 1 is_stmt 0 view .LVU114
 559 0026 10BD     		pop	{r4, pc}
 560              	.LVL63:
 561              	.L16:
 562              		.loc 1 58 1 view .LVU115
 563              		.align	2
 564              	.L15:
 565 0028 00000000 		.word	0
 566 002c F6482143 		.word	1126254838
 567 0030 D94E2B42 		.word	1110134489
 568              		.cfi_endproc
 569              	.LFE3:
 571              		.text
 572              	.Letext0:
 573              		.file 2 "C:\\ST\\STM32CubeCLT_1.17.0\\GNU-tools-for-STM32\\bin/../lib/gcc/arm-none-eabi/12.3.1/../
 574              		.file 3 "C:\\ST\\STM32CubeCLT_1.17.0\\GNU-tools-for-STM32\\bin/../lib/gcc/arm-none-eabi/12.3.1/../
 575              		.file 4 "Core/Inc/motor.h"
ARM GAS  C:\Users\benny\AppData\Local\Temp\cc9sISHT.s 			page 12


 576              		.file 5 "Core/Inc/leg.h"
 577              		.file 6 "Core/Inc/utility.h"
 578              		.file 7 "C:\\ST\\STM32CubeCLT_1.17.0\\GNU-tools-for-STM32\\bin/../lib/gcc/arm-none-eabi/12.3.1/../
ARM GAS  C:\Users\benny\AppData\Local\Temp\cc9sISHT.s 			page 13

