ARM GAS  C:\Users\benny\AppData\Local\Temp\ccjrekJt.s 			page 1


   1              		.cpu cortex-m7
   2              		.arch armv7e-m
   3              		.fpu fpv5-sp-d16
   4              		.eabi_attribute 27, 1
   5              		.eabi_attribute 28, 1
   6              		.eabi_attribute 20, 1
   7              		.eabi_attribute 21, 1
   8              		.eabi_attribute 23, 3
   9              		.eabi_attribute 24, 1
  10              		.eabi_attribute 25, 1
  11              		.eabi_attribute 26, 1
  12              		.eabi_attribute 30, 1
  13              		.eabi_attribute 34, 1
  14              		.eabi_attribute 18, 4
  15              		.file	"main.c"
  16              		.text
  17              	.Ltext0:
  18              		.cfi_sections	.debug_frame
  19              		.file 1 "Core/Src/main.c"
  20              		.section	.text.MX_GPIO_Init,"ax",%progbits
  21              		.align	1
  22              		.syntax unified
  23              		.thumb
  24              		.thumb_func
  26              	MX_GPIO_Init:
  27              	.LFB168:
   1:Core/Src/main.c **** /* USER CODE BEGIN Header */
   2:Core/Src/main.c **** /**
   3:Core/Src/main.c ****   ******************************************************************************
   4:Core/Src/main.c ****   * @file           : main.c
   5:Core/Src/main.c ****   * @brief          : Main program body
   6:Core/Src/main.c ****   ******************************************************************************
   7:Core/Src/main.c ****   * @attention
   8:Core/Src/main.c ****   *
   9:Core/Src/main.c ****   * Copyright (c) 2024 STMicroelectronics.
  10:Core/Src/main.c ****   * All rights reserved.
  11:Core/Src/main.c ****   *
  12:Core/Src/main.c ****   * This software is licensed under terms that can be found in the LICENSE file
  13:Core/Src/main.c ****   * in the root directory of this software component.
  14:Core/Src/main.c ****   * If no LICENSE file comes with this software, it is provided AS-IS.
  15:Core/Src/main.c ****   *
  16:Core/Src/main.c ****   ******************************************************************************
  17:Core/Src/main.c ****   */
  18:Core/Src/main.c **** /* USER CODE END Header */
  19:Core/Src/main.c **** /* Includes ------------------------------------------------------------------*/
  20:Core/Src/main.c **** #include "main.h"
  21:Core/Src/main.c **** #include "usb_host.h"
  22:Core/Src/main.c **** 
  23:Core/Src/main.c **** /* Private includes ----------------------------------------------------------*/
  24:Core/Src/main.c **** /* USER CODE BEGIN Includes */
  25:Core/Src/main.c **** #include "pca9685.h"
  26:Core/Src/main.c **** #include "motor.h"
  27:Core/Src/main.c **** #include "leg.h"
  28:Core/Src/main.c **** #include "quadruped.h"
  29:Core/Src/main.c **** #include "stdlib.h"
  30:Core/Src/main.c **** #include <stdio.h>
  31:Core/Src/main.c **** #include "string.h"
ARM GAS  C:\Users\benny\AppData\Local\Temp\ccjrekJt.s 			page 2


  32:Core/Src/main.c **** #include "input_functions.h"
  33:Core/Src/main.c **** #include "argos_parameters.h"
  34:Core/Src/main.c **** 
  35:Core/Src/main.c **** /* USER CODE END Includes */
  36:Core/Src/main.c **** 
  37:Core/Src/main.c **** /* Private typedef -----------------------------------------------------------*/
  38:Core/Src/main.c **** /* USER CODE BEGIN PTD */
  39:Core/Src/main.c **** 
  40:Core/Src/main.c **** /* USER CODE END PTD */
  41:Core/Src/main.c **** 
  42:Core/Src/main.c **** /* Private define ------------------------------------------------------------*/
  43:Core/Src/main.c **** /* USER CODE BEGIN PD */
  44:Core/Src/main.c **** 
  45:Core/Src/main.c **** /* USER CODE END PD */
  46:Core/Src/main.c **** 
  47:Core/Src/main.c **** /* Private macro -------------------------------------------------------------*/
  48:Core/Src/main.c **** /* USER CODE BEGIN PM */
  49:Core/Src/main.c **** 
  50:Core/Src/main.c **** /* USER CODE END PM */
  51:Core/Src/main.c **** 
  52:Core/Src/main.c **** /* Private variables ---------------------------------------------------------*/
  53:Core/Src/main.c **** ADC_HandleTypeDef hadc1;
  54:Core/Src/main.c **** ADC_HandleTypeDef hadc2;
  55:Core/Src/main.c **** ADC_HandleTypeDef hadc3;
  56:Core/Src/main.c **** 
  57:Core/Src/main.c **** I2C_HandleTypeDef hi2c1;
  58:Core/Src/main.c **** I2C_HandleTypeDef hi2c2;
  59:Core/Src/main.c **** I2C_HandleTypeDef hi2c3;
  60:Core/Src/main.c **** 
  61:Core/Src/main.c **** QSPI_HandleTypeDef hqspi;
  62:Core/Src/main.c **** 
  63:Core/Src/main.c **** SAI_HandleTypeDef hsai_BlockA2;
  64:Core/Src/main.c **** SAI_HandleTypeDef hsai_BlockB2;
  65:Core/Src/main.c **** 
  66:Core/Src/main.c **** SPI_HandleTypeDef hspi1;
  67:Core/Src/main.c **** SPI_HandleTypeDef hspi2;
  68:Core/Src/main.c **** 
  69:Core/Src/main.c **** TIM_HandleTypeDef htim2;
  70:Core/Src/main.c **** TIM_HandleTypeDef htim3;
  71:Core/Src/main.c **** TIM_HandleTypeDef htim5;
  72:Core/Src/main.c **** TIM_HandleTypeDef htim9;
  73:Core/Src/main.c **** TIM_HandleTypeDef htim12;
  74:Core/Src/main.c **** 
  75:Core/Src/main.c **** UART_HandleTypeDef huart4;
  76:Core/Src/main.c **** UART_HandleTypeDef huart5;
  77:Core/Src/main.c **** UART_HandleTypeDef huart7;
  78:Core/Src/main.c **** UART_HandleTypeDef huart2;
  79:Core/Src/main.c **** UART_HandleTypeDef huart6;
  80:Core/Src/main.c **** 
  81:Core/Src/main.c **** SRAM_HandleTypeDef hsram1;
  82:Core/Src/main.c **** SRAM_HandleTypeDef hsram2;
  83:Core/Src/main.c **** 
  84:Core/Src/main.c **** /* USER CODE BEGIN PV */
  85:Core/Src/main.c **** 
  86:Core/Src/main.c **** //Motor Set:
  87:Core/Src/main.c **** 
  88:Core/Src/main.c **** //Motor Definitions
ARM GAS  C:\Users\benny\AppData\Local\Temp\ccjrekJt.s 			page 3


  89:Core/Src/main.c **** 
  90:Core/Src/main.c **** //Leg1
  91:Core/Src/main.c ****   motor_t motor1 = {
  92:Core/Src/main.c ****     .motorPin = 0,
  93:Core/Src/main.c ****   };
  94:Core/Src/main.c **** 
  95:Core/Src/main.c ****   motor_t motor2 = {
  96:Core/Src/main.c ****     .motorPin = 1,
  97:Core/Src/main.c ****   };
  98:Core/Src/main.c **** 
  99:Core/Src/main.c ****   motor_t motor3 = {
 100:Core/Src/main.c ****     .motorPin = 2,
 101:Core/Src/main.c ****     };
 102:Core/Src/main.c **** 
 103:Core/Src/main.c **** //Leg2
 104:Core/Src/main.c ****   motor_t motor4 = {
 105:Core/Src/main.c ****     .motorPin = 3,
 106:Core/Src/main.c ****   };
 107:Core/Src/main.c **** 
 108:Core/Src/main.c ****   motor_t motor5 = {
 109:Core/Src/main.c ****     .motorPin = 4,
 110:Core/Src/main.c ****   };
 111:Core/Src/main.c **** 
 112:Core/Src/main.c ****   motor_t motor6 = {
 113:Core/Src/main.c ****     .motorPin = 5,
 114:Core/Src/main.c ****   };
 115:Core/Src/main.c **** 
 116:Core/Src/main.c **** //Leg3
 117:Core/Src/main.c ****    motor_t motor7 = {
 118:Core/Src/main.c ****     .motorPin = 6,
 119:Core/Src/main.c ****   };
 120:Core/Src/main.c **** 
 121:Core/Src/main.c ****   motor_t motor8 = {
 122:Core/Src/main.c ****     .motorPin = 7,
 123:Core/Src/main.c ****   };
 124:Core/Src/main.c **** 
 125:Core/Src/main.c ****   motor_t motor9 = {
 126:Core/Src/main.c ****     .motorPin = 8,
 127:Core/Src/main.c ****   };
 128:Core/Src/main.c **** 
 129:Core/Src/main.c **** //Leg3
 130:Core/Src/main.c ****   motor_t motor10 = {
 131:Core/Src/main.c ****   .motorPin = 9,
 132:Core/Src/main.c ****   };
 133:Core/Src/main.c **** 
 134:Core/Src/main.c ****   motor_t motor11 = {
 135:Core/Src/main.c ****     .motorPin = 10,
 136:Core/Src/main.c ****   };
 137:Core/Src/main.c **** 
 138:Core/Src/main.c ****   motor_t motor12 = {
 139:Core/Src/main.c ****     .motorPin = 11,
 140:Core/Src/main.c ****   };
 141:Core/Src/main.c **** 
 142:Core/Src/main.c **** 
 143:Core/Src/main.c **** //Leg Definitions
 144:Core/Src/main.c **** leg_t leg1 = {
 145:Core/Src/main.c ****   .motorList = {&motor1, &motor2, &motor3},
ARM GAS  C:\Users\benny\AppData\Local\Temp\ccjrekJt.s 			page 4


 146:Core/Src/main.c ****   .reflectionMap = {0, 0, 1, 1, 1, 1},
 147:Core/Src/main.c ****   .d_torso_foot = {xf1, yf, zf},
 148:Core/Src/main.c ****   .d_torso_hip = {L1, -height, width}
 149:Core/Src/main.c **** };
 150:Core/Src/main.c **** 
 151:Core/Src/main.c **** leg_t leg2 = {
 152:Core/Src/main.c ****   .motorList = {&motor4, &motor5, &motor6},
 153:Core/Src/main.c ****   .reflectionMap = {1,1 , 0, 1, -1, -1},
 154:Core/Src/main.c ****   .d_torso_foot = {xf1, yf, -zf},
 155:Core/Src/main.c ****   .d_torso_hip = {L1, -height, -width}
 156:Core/Src/main.c **** }; 
 157:Core/Src/main.c **** 
 158:Core/Src/main.c **** leg_t leg3 = {
 159:Core/Src/main.c ****   .motorList = {&motor7, &motor8, &motor9},
 160:Core/Src/main.c ****   .reflectionMap = {1, 0, 1, -1, 1, 1},
 161:Core/Src/main.c ****   .d_torso_foot = {-xf2, yf, zf},
 162:Core/Src/main.c ****   .d_torso_hip = {-L2, -height, width}
 163:Core/Src/main.c **** }; 
 164:Core/Src/main.c **** 
 165:Core/Src/main.c **** leg_t leg4 = {
 166:Core/Src/main.c ****   .motorList = {&motor10, &motor11, &motor12},
 167:Core/Src/main.c ****   .reflectionMap = {0, 1, 0, -1, -1, -1},
 168:Core/Src/main.c ****   .d_torso_foot = {-xf2, yf, -zf},
 169:Core/Src/main.c ****   .d_torso_hip = {-L2, -height, -width}
 170:Core/Src/main.c **** };
 171:Core/Src/main.c **** 
 172:Core/Src/main.c **** 
 173:Core/Src/main.c **** //Quadruped Definition
 174:Core/Src/main.c **** quadruped_t argos = {
 175:Core/Src/main.c ****   .legList = {&leg1, &leg2, &leg3, &leg4}
 176:Core/Src/main.c **** };
 177:Core/Src/main.c **** 
 178:Core/Src/main.c **** /* USER CODE END PV */
 179:Core/Src/main.c **** 
 180:Core/Src/main.c **** /* Private function prototypes -----------------------------------------------*/
 181:Core/Src/main.c **** void SystemClock_Config(void);
 182:Core/Src/main.c **** void PeriphCommonClock_Config(void);
 183:Core/Src/main.c **** static void MX_GPIO_Init(void);
 184:Core/Src/main.c **** static void MX_ADC1_Init(void);
 185:Core/Src/main.c **** static void MX_ADC2_Init(void);
 186:Core/Src/main.c **** static void MX_ADC3_Init(void);
 187:Core/Src/main.c **** static void MX_FMC_Init(void);
 188:Core/Src/main.c **** static void MX_I2C1_Init(void);
 189:Core/Src/main.c **** static void MX_I2C2_Init(void);
 190:Core/Src/main.c **** static void MX_I2C3_Init(void);
 191:Core/Src/main.c **** static void MX_QUADSPI_Init(void);
 192:Core/Src/main.c **** static void MX_SAI2_Init(void);
 193:Core/Src/main.c **** static void MX_SPI1_Init(void);
 194:Core/Src/main.c **** static void MX_SPI2_Init(void);
 195:Core/Src/main.c **** static void MX_TIM2_Init(void);
 196:Core/Src/main.c **** static void MX_TIM3_Init(void);
 197:Core/Src/main.c **** static void MX_TIM5_Init(void);
 198:Core/Src/main.c **** static void MX_TIM9_Init(void);
 199:Core/Src/main.c **** static void MX_TIM12_Init(void);
 200:Core/Src/main.c **** static void MX_UART4_Init(void);
 201:Core/Src/main.c **** static void MX_UART5_Init(void);
 202:Core/Src/main.c **** static void MX_UART7_Init(void);
ARM GAS  C:\Users\benny\AppData\Local\Temp\ccjrekJt.s 			page 5


 203:Core/Src/main.c **** static void MX_USART2_UART_Init(void);
 204:Core/Src/main.c **** static void MX_USART6_UART_Init(void);
 205:Core/Src/main.c **** void MX_USB_HOST_Process(void);
 206:Core/Src/main.c **** 
 207:Core/Src/main.c **** /* USER CODE BEGIN PFP */
 208:Core/Src/main.c **** /* USER CODE END PFP */
 209:Core/Src/main.c **** 
 210:Core/Src/main.c **** /* Private user code ---------------------------------------------------------*/
 211:Core/Src/main.c **** /* USER CODE BEGIN 0 */
 212:Core/Src/main.c **** 
 213:Core/Src/main.c **** 
 214:Core/Src/main.c **** 
 215:Core/Src/main.c **** 
 216:Core/Src/main.c **** /* USER CODE END 0 */
 217:Core/Src/main.c **** 
 218:Core/Src/main.c **** /**
 219:Core/Src/main.c ****   * @brief  The application entry point.
 220:Core/Src/main.c ****   * @retval int
 221:Core/Src/main.c ****   */
 222:Core/Src/main.c **** int main(void)
 223:Core/Src/main.c ****  
 224:Core/Src/main.c ****    {
 225:Core/Src/main.c **** 
 226:Core/Src/main.c ****   /* USER CODE BEGIN 1 */
 227:Core/Src/main.c **** 
 228:Core/Src/main.c ****   /* USER CODE END 1 */
 229:Core/Src/main.c **** 
 230:Core/Src/main.c ****   /* MCU Configuration--------------------------------------------------------*/
 231:Core/Src/main.c **** 
 232:Core/Src/main.c ****   /* Reset of all peripherals, Initializes the Flash interface and the Systick. */
 233:Core/Src/main.c ****   HAL_Init();
 234:Core/Src/main.c **** 
 235:Core/Src/main.c ****   /* USER CODE BEGIN Init */
 236:Core/Src/main.c **** 
 237:Core/Src/main.c ****   /* USER CODE END Init */
 238:Core/Src/main.c **** 
 239:Core/Src/main.c ****   /* Configure the system clock */
 240:Core/Src/main.c ****   SystemClock_Config();
 241:Core/Src/main.c **** 
 242:Core/Src/main.c ****   /* Configure the peripherals common clocks */
 243:Core/Src/main.c ****   PeriphCommonClock_Config();
 244:Core/Src/main.c **** 
 245:Core/Src/main.c ****   /* USER CODE BEGIN SysInit */
 246:Core/Src/main.c **** 
 247:Core/Src/main.c ****   /* USER CODE END SysInit */
 248:Core/Src/main.c **** 
 249:Core/Src/main.c ****   /* Initialize all configured peripherals */
 250:Core/Src/main.c ****   MX_GPIO_Init();
 251:Core/Src/main.c ****   MX_ADC1_Init();
 252:Core/Src/main.c ****   MX_ADC2_Init();
 253:Core/Src/main.c ****   MX_ADC3_Init();
 254:Core/Src/main.c ****   MX_FMC_Init();
 255:Core/Src/main.c ****   MX_I2C1_Init();
 256:Core/Src/main.c ****   MX_I2C2_Init();
 257:Core/Src/main.c ****   MX_I2C3_Init();
 258:Core/Src/main.c ****   MX_QUADSPI_Init();
 259:Core/Src/main.c ****   MX_SAI2_Init();
ARM GAS  C:\Users\benny\AppData\Local\Temp\ccjrekJt.s 			page 6


 260:Core/Src/main.c ****   MX_SPI1_Init();
 261:Core/Src/main.c ****   MX_SPI2_Init();
 262:Core/Src/main.c ****   MX_TIM2_Init();
 263:Core/Src/main.c ****   MX_TIM3_Init();
 264:Core/Src/main.c ****   MX_TIM5_Init();
 265:Core/Src/main.c ****   MX_TIM9_Init();
 266:Core/Src/main.c ****   MX_TIM12_Init();
 267:Core/Src/main.c ****   MX_UART4_Init();
 268:Core/Src/main.c ****   MX_UART5_Init();
 269:Core/Src/main.c ****   MX_UART7_Init();
 270:Core/Src/main.c ****   MX_USART2_UART_Init();
 271:Core/Src/main.c ****   MX_USART6_UART_Init();
 272:Core/Src/main.c ****   MX_USB_HOST_Init();
 273:Core/Src/main.c ****   /* USER CODE BEGIN 2 */
 274:Core/Src/main.c **** 
 275:Core/Src/main.c **** //Quad inits
 276:Core/Src/main.c ****   PCA9685_Init();
 277:Core/Src/main.c ****   PCA9685_SetPWMFrequency(50);
 278:Core/Src/main.c **** 
 279:Core/Src/main.c **** 
 280:Core/Src/main.c ****   quadHome(&argos);
 281:Core/Src/main.c ****   
 282:Core/Src/main.c **** 
 283:Core/Src/main.c ****   // quadWalk(&argos, 0.5);
 284:Core/Src/main.c ****   // quadRPYcontrol(&argos, 0,0,0);
 285:Core/Src/main.c **** 
 286:Core/Src/main.c ****   //Etc
 287:Core/Src/main.c **** 
 288:Core/Src/main.c **** 
 289:Core/Src/main.c **** // home(&leg1);
 290:Core/Src/main.c ****   // motorSetAngle(&motor1, 90);
 291:Core/Src/main.c ****   // motorSetAngle(&motor2, 90);
 292:Core/Src/main.c ****   // motorSetAngle(&motor3, 90);
 293:Core/Src/main.c **** 
 294:Core/Src/main.c **** 
 295:Core/Src/main.c **** 
 296:Core/Src/main.c ****   //   motorSetAngle(&motor7, 90);
 297:Core/Src/main.c ****   // motorSetAngle(&motor8, 90);
 298:Core/Src/main.c ****   // motorSetAngle(&motor9, 90);
 299:Core/Src/main.c **** 
 300:Core/Src/main.c ****   // motorSetAngle(&motor10, 90);
 301:Core/Src/main.c ****   // motorSetAngle(&motor11, 90);
 302:Core/Src/main.c ****   // motorSetAngle(&motor12, 90);
 303:Core/Src/main.c **** 
 304:Core/Src/main.c **** 
 305:Core/Src/main.c ****     HAL_ADC_Start(&hadc1);
 306:Core/Src/main.c **** 
 307:Core/Src/main.c **** 
 308:Core/Src/main.c **** //PRINT STATEMENTS
 309:Core/Src/main.c ****   //ADC Data Array Declarations
 310:Core/Src/main.c ****   uint16_t adcValues_raw[3];
 311:Core/Src/main.c ****   float adcValues_clipped[3];
 312:Core/Src/main.c **** 
 313:Core/Src/main.c **** 
 314:Core/Src/main.c **** float d_roll;
 315:Core/Src/main.c **** float d_pitch;
 316:Core/Src/main.c **** float d_yaw;
ARM GAS  C:\Users\benny\AppData\Local\Temp\ccjrekJt.s 			page 7


 317:Core/Src/main.c **** 
 318:Core/Src/main.c **** 
 319:Core/Src/main.c **** float dx; 
 320:Core/Src/main.c **** float dy; 
 321:Core/Src/main.c **** float dz; 
 322:Core/Src/main.c **** 
 323:Core/Src/main.c **** 
 324:Core/Src/main.c ****   //Serial Buffer
 325:Core/Src/main.c ****   char messageBuffer[100]; 
 326:Core/Src/main.c **** 
 327:Core/Src/main.c **** 
 328:Core/Src/main.c ****   /* USER CODE END 2 */
 329:Core/Src/main.c **** 
 330:Core/Src/main.c ****   /* Infinite loop */
 331:Core/Src/main.c ****   /* USER CODE BEGIN WHILE */
 332:Core/Src/main.c ****   while (1)
 333:Core/Src/main.c ****   { 
 334:Core/Src/main.c **** 
 335:Core/Src/main.c ****   //Recieve Data  
 336:Core/Src/main.c ****       HAL_ADC_Start(&hadc1);
 337:Core/Src/main.c ****     for (int i = 0; i < 3 ; i++){
 338:Core/Src/main.c ****       if (HAL_ADC_PollForConversion(&hadc1, 100) == HAL_OK){
 339:Core/Src/main.c ****         adcValues_raw[i] = HAL_ADC_GetValue(&hadc1);
 340:Core/Src/main.c ****       }
 341:Core/Src/main.c ****     }
 342:Core/Src/main.c ****   HAL_ADC_Stop(&hadc1);
 343:Core/Src/main.c **** 
 344:Core/Src/main.c **** //Clip/Scale
 345:Core/Src/main.c **** analogClipSet(adcValues_raw, adcValues_clipped, 50, 3,3.0); 
 346:Core/Src/main.c **** 
 347:Core/Src/main.c **** //Testing Values
 348:Core/Src/main.c **** // d_roll = adcValues_clipped[0] + d_roll; 
 349:Core/Src/main.c **** // d_pitch = adcValues_clipped[1] + d_pitch;
 350:Core/Src/main.c **** // d_yaw = adcValues_clipped[2] + d_yaw;
 351:Core/Src/main.c **** 
 352:Core/Src/main.c **** dx = adcValues_clipped[0]; 
 353:Core/Src/main.c **** dy = adcValues_clipped[1];
 354:Core/Src/main.c **** dz = 0;
 355:Core/Src/main.c **** 
 356:Core/Src/main.c **** // quadRPYcontrol(&argos, -d_roll, d_pitch, d_yaw);
 357:Core/Src/main.c **** // quadMove(&argos);
 358:Core/Src/main.c **** 
 359:Core/Src/main.c **** // quadWalk(&argos, 0.5);
 360:Core/Src/main.c **** 
 361:Core/Src/main.c **** 
 362:Core/Src/main.c **** // quadWalk(&argos, 0.9);
 363:Core/Src/main.c **** 
 364:Core/Src/main.c **** 
 365:Core/Src/main.c **** legPositionIncrement(&leg1,dy, 0, dx, 40);
 366:Core/Src/main.c **** moveLeg(&leg1);
 367:Core/Src/main.c **** 
 368:Core/Src/main.c ****   // sprintf(messageBuffer, "roll = %.2f          pitch = %.2f       raw = %.2f  \n\r", d_roll, d_p
 369:Core/Src/main.c **** 
 370:Core/Src/main.c **** 
 371:Core/Src/main.c **** //bunch of bs 
 372:Core/Src/main.c **** // Calculte and execute command;
 373:Core/Src/main.c **** 
ARM GAS  C:\Users\benny\AppData\Local\Temp\ccjrekJt.s 			page 8


 374:Core/Src/main.c **** 
 375:Core/Src/main.c **** // quadRPYcontrol(&argos, adcValues_clipped[0], adcValues_clipped[1], adcValues_clipped[2]);
 376:Core/Src/main.c **** // quadPositionIncrement(&argos, adcValues_clipped[0], adcValues_clipped[1], adcValues_clipped[2]);
 377:Core/Src/main.c **** // quadMove(&argos);
 378:Core/Src/main.c **** 
 379:Core/Src/main.c **** 
 380:Core/Src/main.c **** // // Serial Print dx /dy /dz 
 381:Core/Src/main.c ****   // sprintf(messageBuffer, "roll = %.2f          pitch = %.2f       raw = %.2f  \n\r", d_roll, d_p
 382:Core/Src/main.c ****   sprintf(messageBuffer, "dx = %.2f          dy = %.2f       dz = %.2f  \n\r", dx, dy, dz);
 383:Core/Src/main.c ****   HAL_UART_Transmit(&huart6,  (const uint8_t*)messageBuffer, strlen(messageBuffer), 10);
 384:Core/Src/main.c **** 
 385:Core/Src/main.c **** }
 386:Core/Src/main.c ****     /* USER CODE END WHILE */
 387:Core/Src/main.c ****     MX_USB_HOST_Process();
 388:Core/Src/main.c **** 
 389:Core/Src/main.c ****     /* USER CODE BEGIN 3 */
 390:Core/Src/main.c ****   /* USER CODE END 3 */
 391:Core/Src/main.c **** }
 392:Core/Src/main.c **** 
 393:Core/Src/main.c **** /**
 394:Core/Src/main.c ****   * @brief System Clock Configuration
 395:Core/Src/main.c ****   * @retval None
 396:Core/Src/main.c ****   */
 397:Core/Src/main.c **** void SystemClock_Config(void)
 398:Core/Src/main.c **** {
 399:Core/Src/main.c ****   RCC_OscInitTypeDef RCC_OscInitStruct = {0};
 400:Core/Src/main.c ****   RCC_ClkInitTypeDef RCC_ClkInitStruct = {0};
 401:Core/Src/main.c **** 
 402:Core/Src/main.c ****   /** Configure LSE Drive Capability
 403:Core/Src/main.c ****   */
 404:Core/Src/main.c ****   HAL_PWR_EnableBkUpAccess();
 405:Core/Src/main.c **** 
 406:Core/Src/main.c ****   /** Configure the main internal regulator output voltage
 407:Core/Src/main.c ****   */
 408:Core/Src/main.c ****   __HAL_RCC_PWR_CLK_ENABLE();
 409:Core/Src/main.c ****   __HAL_PWR_VOLTAGESCALING_CONFIG(PWR_REGULATOR_VOLTAGE_SCALE1);
 410:Core/Src/main.c **** 
 411:Core/Src/main.c ****   /** Initializes the RCC Oscillators according to the specified parameters
 412:Core/Src/main.c ****   * in the RCC_OscInitTypeDef structure.
 413:Core/Src/main.c ****   */
 414:Core/Src/main.c ****   RCC_OscInitStruct.OscillatorType = RCC_OSCILLATORTYPE_HSE;
 415:Core/Src/main.c ****   RCC_OscInitStruct.HSEState = RCC_HSE_ON;
 416:Core/Src/main.c ****   RCC_OscInitStruct.PLL.PLLState = RCC_PLL_ON;
 417:Core/Src/main.c ****   RCC_OscInitStruct.PLL.PLLSource = RCC_PLLSOURCE_HSE;
 418:Core/Src/main.c ****   RCC_OscInitStruct.PLL.PLLM = 25;
 419:Core/Src/main.c ****   RCC_OscInitStruct.PLL.PLLN = 432;
 420:Core/Src/main.c ****   RCC_OscInitStruct.PLL.PLLP = RCC_PLLP_DIV2;
 421:Core/Src/main.c ****   RCC_OscInitStruct.PLL.PLLQ = 9;
 422:Core/Src/main.c ****   if (HAL_RCC_OscConfig(&RCC_OscInitStruct) != HAL_OK)
 423:Core/Src/main.c ****   {
 424:Core/Src/main.c ****     Error_Handler();
 425:Core/Src/main.c ****   }
 426:Core/Src/main.c **** 
 427:Core/Src/main.c ****   /** Activate the Over-Drive mode
 428:Core/Src/main.c ****   */
 429:Core/Src/main.c ****   if (HAL_PWREx_EnableOverDrive() != HAL_OK)
 430:Core/Src/main.c ****   {
ARM GAS  C:\Users\benny\AppData\Local\Temp\ccjrekJt.s 			page 9


 431:Core/Src/main.c ****     Error_Handler();
 432:Core/Src/main.c ****   }
 433:Core/Src/main.c **** 
 434:Core/Src/main.c ****   /** Initializes the CPU, AHB and APB buses clocks
 435:Core/Src/main.c ****   */
 436:Core/Src/main.c ****   RCC_ClkInitStruct.ClockType = RCC_CLOCKTYPE_HCLK|RCC_CLOCKTYPE_SYSCLK
 437:Core/Src/main.c ****                               |RCC_CLOCKTYPE_PCLK1|RCC_CLOCKTYPE_PCLK2;
 438:Core/Src/main.c ****   RCC_ClkInitStruct.SYSCLKSource = RCC_SYSCLKSOURCE_PLLCLK;
 439:Core/Src/main.c ****   RCC_ClkInitStruct.AHBCLKDivider = RCC_SYSCLK_DIV1;
 440:Core/Src/main.c ****   RCC_ClkInitStruct.APB1CLKDivider = RCC_HCLK_DIV4;
 441:Core/Src/main.c ****   RCC_ClkInitStruct.APB2CLKDivider = RCC_HCLK_DIV2;
 442:Core/Src/main.c **** 
 443:Core/Src/main.c ****   if (HAL_RCC_ClockConfig(&RCC_ClkInitStruct, FLASH_LATENCY_7) != HAL_OK)
 444:Core/Src/main.c ****   {
 445:Core/Src/main.c ****     Error_Handler();
 446:Core/Src/main.c ****   }
 447:Core/Src/main.c **** }
 448:Core/Src/main.c **** 
 449:Core/Src/main.c **** /**
 450:Core/Src/main.c ****   * @brief Peripherals Common Clock Configuration
 451:Core/Src/main.c ****   * @retval None
 452:Core/Src/main.c ****   */
 453:Core/Src/main.c **** void PeriphCommonClock_Config(void)
 454:Core/Src/main.c **** {
 455:Core/Src/main.c ****   RCC_PeriphCLKInitTypeDef PeriphClkInitStruct = {0};
 456:Core/Src/main.c **** 
 457:Core/Src/main.c ****   /** Initializes the peripherals clock
 458:Core/Src/main.c ****   */
 459:Core/Src/main.c ****   PeriphClkInitStruct.PeriphClockSelection = RCC_PERIPHCLK_SAI2|RCC_PERIPHCLK_CLK48;
 460:Core/Src/main.c ****   PeriphClkInitStruct.PLLSAI.PLLSAIN = 192;
 461:Core/Src/main.c ****   PeriphClkInitStruct.PLLSAI.PLLSAIQ = 2;
 462:Core/Src/main.c ****   PeriphClkInitStruct.PLLSAI.PLLSAIP = RCC_PLLSAIP_DIV2;
 463:Core/Src/main.c ****   PeriphClkInitStruct.PLLSAIDivQ = 1;
 464:Core/Src/main.c ****   PeriphClkInitStruct.Sai2ClockSelection = RCC_SAI2CLKSOURCE_PLLSAI;
 465:Core/Src/main.c ****   if (HAL_RCCEx_PeriphCLKConfig(&PeriphClkInitStruct) != HAL_OK)
 466:Core/Src/main.c ****   {
 467:Core/Src/main.c ****     Error_Handler();
 468:Core/Src/main.c ****   }
 469:Core/Src/main.c **** }
 470:Core/Src/main.c **** 
 471:Core/Src/main.c **** /**
 472:Core/Src/main.c ****   * @brief ADC1 Initialization Function
 473:Core/Src/main.c ****   * @param None
 474:Core/Src/main.c ****   * @retval None
 475:Core/Src/main.c ****   */
 476:Core/Src/main.c **** static void MX_ADC1_Init(void)
 477:Core/Src/main.c **** {
 478:Core/Src/main.c **** 
 479:Core/Src/main.c ****   /* USER CODE BEGIN ADC1_Init 0 */
 480:Core/Src/main.c **** 
 481:Core/Src/main.c ****   /* USER CODE END ADC1_Init 0 */
 482:Core/Src/main.c **** 
 483:Core/Src/main.c ****   ADC_ChannelConfTypeDef sConfig = {0};
 484:Core/Src/main.c **** 
 485:Core/Src/main.c ****   /* USER CODE BEGIN ADC1_Init 1 */
 486:Core/Src/main.c **** 
 487:Core/Src/main.c ****   /* USER CODE END ADC1_Init 1 */
ARM GAS  C:\Users\benny\AppData\Local\Temp\ccjrekJt.s 			page 10


 488:Core/Src/main.c **** 
 489:Core/Src/main.c ****   /** Configure the global features of the ADC (Clock, Resolution, Data Alignment and number of con
 490:Core/Src/main.c ****   */
 491:Core/Src/main.c ****   hadc1.Instance = ADC1;
 492:Core/Src/main.c ****   hadc1.Init.ClockPrescaler = ADC_CLOCK_SYNC_PCLK_DIV4;
 493:Core/Src/main.c ****   hadc1.Init.Resolution = ADC_RESOLUTION_12B;
 494:Core/Src/main.c ****   hadc1.Init.ScanConvMode = ADC_SCAN_ENABLE;
 495:Core/Src/main.c ****   hadc1.Init.ContinuousConvMode = ENABLE;
 496:Core/Src/main.c ****   hadc1.Init.DiscontinuousConvMode = DISABLE;
 497:Core/Src/main.c ****   hadc1.Init.ExternalTrigConvEdge = ADC_EXTERNALTRIGCONVEDGE_NONE;
 498:Core/Src/main.c ****   hadc1.Init.ExternalTrigConv = ADC_SOFTWARE_START;
 499:Core/Src/main.c ****   hadc1.Init.DataAlign = ADC_DATAALIGN_RIGHT;
 500:Core/Src/main.c ****   hadc1.Init.NbrOfConversion = 3;
 501:Core/Src/main.c ****   hadc1.Init.DMAContinuousRequests = DISABLE;
 502:Core/Src/main.c ****   hadc1.Init.EOCSelection = ADC_EOC_SINGLE_CONV;
 503:Core/Src/main.c ****   if (HAL_ADC_Init(&hadc1) != HAL_OK)
 504:Core/Src/main.c ****   {
 505:Core/Src/main.c ****     Error_Handler();
 506:Core/Src/main.c ****   }
 507:Core/Src/main.c **** 
 508:Core/Src/main.c ****   /** Configure for the selected ADC regular channel its corresponding rank in the sequencer and it
 509:Core/Src/main.c ****   */
 510:Core/Src/main.c ****   sConfig.Channel = ADC_CHANNEL_6;
 511:Core/Src/main.c ****   sConfig.Rank = ADC_REGULAR_RANK_1;
 512:Core/Src/main.c ****   sConfig.SamplingTime = ADC_SAMPLETIME_480CYCLES;
 513:Core/Src/main.c ****   if (HAL_ADC_ConfigChannel(&hadc1, &sConfig) != HAL_OK)
 514:Core/Src/main.c ****   {
 515:Core/Src/main.c ****     Error_Handler();
 516:Core/Src/main.c ****   }
 517:Core/Src/main.c **** 
 518:Core/Src/main.c ****   /** Configure for the selected ADC regular channel its corresponding rank in the sequencer and it
 519:Core/Src/main.c ****   */
 520:Core/Src/main.c ****   sConfig.Channel = ADC_CHANNEL_4;
 521:Core/Src/main.c ****   sConfig.Rank = ADC_REGULAR_RANK_2;
 522:Core/Src/main.c ****   if (HAL_ADC_ConfigChannel(&hadc1, &sConfig) != HAL_OK)
 523:Core/Src/main.c ****   {
 524:Core/Src/main.c ****     Error_Handler();
 525:Core/Src/main.c ****   }
 526:Core/Src/main.c **** 
 527:Core/Src/main.c ****   /** Configure for the selected ADC regular channel its corresponding rank in the sequencer and it
 528:Core/Src/main.c ****   */
 529:Core/Src/main.c ****   sConfig.Channel = ADC_CHANNEL_14;
 530:Core/Src/main.c ****   sConfig.Rank = ADC_REGULAR_RANK_3;
 531:Core/Src/main.c ****   if (HAL_ADC_ConfigChannel(&hadc1, &sConfig) != HAL_OK)
 532:Core/Src/main.c ****   {
 533:Core/Src/main.c ****     Error_Handler();
 534:Core/Src/main.c ****   }
 535:Core/Src/main.c ****   /* USER CODE BEGIN ADC1_Init 2 */
 536:Core/Src/main.c **** 
 537:Core/Src/main.c ****   /* USER CODE END ADC1_Init 2 */
 538:Core/Src/main.c **** 
 539:Core/Src/main.c **** }
 540:Core/Src/main.c **** 
 541:Core/Src/main.c **** /**
 542:Core/Src/main.c ****   * @brief ADC2 Initialization Function
 543:Core/Src/main.c ****   * @param None
 544:Core/Src/main.c ****   * @retval None
ARM GAS  C:\Users\benny\AppData\Local\Temp\ccjrekJt.s 			page 11


 545:Core/Src/main.c ****   */
 546:Core/Src/main.c **** static void MX_ADC2_Init(void)
 547:Core/Src/main.c **** {
 548:Core/Src/main.c **** 
 549:Core/Src/main.c ****   /* USER CODE BEGIN ADC2_Init 0 */
 550:Core/Src/main.c **** 
 551:Core/Src/main.c ****   /* USER CODE END ADC2_Init 0 */
 552:Core/Src/main.c **** 
 553:Core/Src/main.c ****   ADC_ChannelConfTypeDef sConfig = {0};
 554:Core/Src/main.c **** 
 555:Core/Src/main.c ****   /* USER CODE BEGIN ADC2_Init 1 */
 556:Core/Src/main.c **** 
 557:Core/Src/main.c ****   /* USER CODE END ADC2_Init 1 */
 558:Core/Src/main.c **** 
 559:Core/Src/main.c ****   /** Configure the global features of the ADC (Clock, Resolution, Data Alignment and number of con
 560:Core/Src/main.c ****   */
 561:Core/Src/main.c ****   hadc2.Instance = ADC2;
 562:Core/Src/main.c ****   hadc2.Init.ClockPrescaler = ADC_CLOCK_SYNC_PCLK_DIV4;
 563:Core/Src/main.c ****   hadc2.Init.Resolution = ADC_RESOLUTION_12B;
 564:Core/Src/main.c ****   hadc2.Init.ScanConvMode = ADC_SCAN_DISABLE;
 565:Core/Src/main.c ****   hadc2.Init.ContinuousConvMode = DISABLE;
 566:Core/Src/main.c ****   hadc2.Init.DiscontinuousConvMode = DISABLE;
 567:Core/Src/main.c ****   hadc2.Init.ExternalTrigConvEdge = ADC_EXTERNALTRIGCONVEDGE_NONE;
 568:Core/Src/main.c ****   hadc2.Init.ExternalTrigConv = ADC_SOFTWARE_START;
 569:Core/Src/main.c ****   hadc2.Init.DataAlign = ADC_DATAALIGN_RIGHT;
 570:Core/Src/main.c ****   hadc2.Init.NbrOfConversion = 1;
 571:Core/Src/main.c ****   hadc2.Init.DMAContinuousRequests = DISABLE;
 572:Core/Src/main.c ****   hadc2.Init.EOCSelection = ADC_EOC_SINGLE_CONV;
 573:Core/Src/main.c ****   if (HAL_ADC_Init(&hadc2) != HAL_OK)
 574:Core/Src/main.c ****   {
 575:Core/Src/main.c ****     Error_Handler();
 576:Core/Src/main.c ****   }
 577:Core/Src/main.c **** 
 578:Core/Src/main.c ****   /** Configure for the selected ADC regular channel its corresponding rank in the sequencer and it
 579:Core/Src/main.c ****   */
 580:Core/Src/main.c ****   sConfig.Channel = ADC_CHANNEL_4;
 581:Core/Src/main.c ****   sConfig.Rank = ADC_REGULAR_RANK_1;
 582:Core/Src/main.c ****   sConfig.SamplingTime = ADC_SAMPLETIME_3CYCLES;
 583:Core/Src/main.c ****   if (HAL_ADC_ConfigChannel(&hadc2, &sConfig) != HAL_OK)
 584:Core/Src/main.c ****   {
 585:Core/Src/main.c ****     Error_Handler();
 586:Core/Src/main.c ****   }
 587:Core/Src/main.c ****   /* USER CODE BEGIN ADC2_Init 2 */
 588:Core/Src/main.c **** 
 589:Core/Src/main.c ****   /* USER CODE END ADC2_Init 2 */
 590:Core/Src/main.c **** 
 591:Core/Src/main.c **** }
 592:Core/Src/main.c **** 
 593:Core/Src/main.c **** /**
 594:Core/Src/main.c ****   * @brief ADC3 Initialization Function
 595:Core/Src/main.c ****   * @param None
 596:Core/Src/main.c ****   * @retval None
 597:Core/Src/main.c ****   */
 598:Core/Src/main.c **** static void MX_ADC3_Init(void)
 599:Core/Src/main.c **** {
 600:Core/Src/main.c **** 
 601:Core/Src/main.c ****   /* USER CODE BEGIN ADC3_Init 0 */
ARM GAS  C:\Users\benny\AppData\Local\Temp\ccjrekJt.s 			page 12


 602:Core/Src/main.c **** 
 603:Core/Src/main.c ****   /* USER CODE END ADC3_Init 0 */
 604:Core/Src/main.c **** 
 605:Core/Src/main.c ****   ADC_ChannelConfTypeDef sConfig = {0};
 606:Core/Src/main.c **** 
 607:Core/Src/main.c ****   /* USER CODE BEGIN ADC3_Init 1 */
 608:Core/Src/main.c **** 
 609:Core/Src/main.c ****   /* USER CODE END ADC3_Init 1 */
 610:Core/Src/main.c **** 
 611:Core/Src/main.c ****   /** Configure the global features of the ADC (Clock, Resolution, Data Alignment and number of con
 612:Core/Src/main.c ****   */
 613:Core/Src/main.c ****   hadc3.Instance = ADC3;
 614:Core/Src/main.c ****   hadc3.Init.ClockPrescaler = ADC_CLOCK_SYNC_PCLK_DIV4;
 615:Core/Src/main.c ****   hadc3.Init.Resolution = ADC_RESOLUTION_12B;
 616:Core/Src/main.c ****   hadc3.Init.ScanConvMode = ADC_SCAN_DISABLE;
 617:Core/Src/main.c ****   hadc3.Init.ContinuousConvMode = DISABLE;
 618:Core/Src/main.c ****   hadc3.Init.DiscontinuousConvMode = DISABLE;
 619:Core/Src/main.c ****   hadc3.Init.ExternalTrigConvEdge = ADC_EXTERNALTRIGCONVEDGE_NONE;
 620:Core/Src/main.c ****   hadc3.Init.ExternalTrigConv = ADC_SOFTWARE_START;
 621:Core/Src/main.c ****   hadc3.Init.DataAlign = ADC_DATAALIGN_RIGHT;
 622:Core/Src/main.c ****   hadc3.Init.NbrOfConversion = 1;
 623:Core/Src/main.c ****   hadc3.Init.DMAContinuousRequests = DISABLE;
 624:Core/Src/main.c ****   hadc3.Init.EOCSelection = ADC_EOC_SINGLE_CONV;
 625:Core/Src/main.c ****   if (HAL_ADC_Init(&hadc3) != HAL_OK)
 626:Core/Src/main.c ****   {
 627:Core/Src/main.c ****     Error_Handler();
 628:Core/Src/main.c ****   }
 629:Core/Src/main.c **** 
 630:Core/Src/main.c ****   /** Configure for the selected ADC regular channel its corresponding rank in the sequencer and it
 631:Core/Src/main.c ****   */
 632:Core/Src/main.c ****   sConfig.Channel = ADC_CHANNEL_8;
 633:Core/Src/main.c ****   sConfig.Rank = ADC_REGULAR_RANK_1;
 634:Core/Src/main.c ****   sConfig.SamplingTime = ADC_SAMPLETIME_3CYCLES;
 635:Core/Src/main.c ****   if (HAL_ADC_ConfigChannel(&hadc3, &sConfig) != HAL_OK)
 636:Core/Src/main.c ****   {
 637:Core/Src/main.c ****     Error_Handler();
 638:Core/Src/main.c ****   }
 639:Core/Src/main.c ****   /* USER CODE BEGIN ADC3_Init 2 */
 640:Core/Src/main.c **** 
 641:Core/Src/main.c ****   /* USER CODE END ADC3_Init 2 */
 642:Core/Src/main.c **** 
 643:Core/Src/main.c **** }
 644:Core/Src/main.c **** 
 645:Core/Src/main.c **** /**
 646:Core/Src/main.c ****   * @brief I2C1 Initialization Function
 647:Core/Src/main.c ****   * @param None
 648:Core/Src/main.c ****   * @retval None
 649:Core/Src/main.c ****   */
 650:Core/Src/main.c **** static void MX_I2C1_Init(void)
 651:Core/Src/main.c **** {
 652:Core/Src/main.c **** 
 653:Core/Src/main.c ****   /* USER CODE BEGIN I2C1_Init 0 */
 654:Core/Src/main.c **** 
 655:Core/Src/main.c ****   /* USER CODE END I2C1_Init 0 */
 656:Core/Src/main.c **** 
 657:Core/Src/main.c ****   /* USER CODE BEGIN I2C1_Init 1 */
 658:Core/Src/main.c **** 
ARM GAS  C:\Users\benny\AppData\Local\Temp\ccjrekJt.s 			page 13


 659:Core/Src/main.c ****   /* USER CODE END I2C1_Init 1 */
 660:Core/Src/main.c ****   hi2c1.Instance = I2C1;
 661:Core/Src/main.c ****   hi2c1.Init.Timing = 0x6000030D;
 662:Core/Src/main.c ****   hi2c1.Init.OwnAddress1 = 0;
 663:Core/Src/main.c ****   hi2c1.Init.AddressingMode = I2C_ADDRESSINGMODE_7BIT;
 664:Core/Src/main.c ****   hi2c1.Init.DualAddressMode = I2C_DUALADDRESS_DISABLE;
 665:Core/Src/main.c ****   hi2c1.Init.OwnAddress2 = 0;
 666:Core/Src/main.c ****   hi2c1.Init.OwnAddress2Masks = I2C_OA2_NOMASK;
 667:Core/Src/main.c ****   hi2c1.Init.GeneralCallMode = I2C_GENERALCALL_DISABLE;
 668:Core/Src/main.c ****   hi2c1.Init.NoStretchMode = I2C_NOSTRETCH_DISABLE;
 669:Core/Src/main.c ****   if (HAL_I2C_Init(&hi2c1) != HAL_OK)
 670:Core/Src/main.c ****   {
 671:Core/Src/main.c ****     Error_Handler();
 672:Core/Src/main.c ****   }
 673:Core/Src/main.c **** 
 674:Core/Src/main.c ****   /** Configure Analogue filter
 675:Core/Src/main.c ****   */
 676:Core/Src/main.c ****   if (HAL_I2CEx_ConfigAnalogFilter(&hi2c1, I2C_ANALOGFILTER_ENABLE) != HAL_OK)
 677:Core/Src/main.c ****   {
 678:Core/Src/main.c ****     Error_Handler();
 679:Core/Src/main.c ****   }
 680:Core/Src/main.c **** 
 681:Core/Src/main.c ****   /** Configure Digital filter
 682:Core/Src/main.c ****   */
 683:Core/Src/main.c ****   if (HAL_I2CEx_ConfigDigitalFilter(&hi2c1, 0) != HAL_OK)
 684:Core/Src/main.c ****   {
 685:Core/Src/main.c ****     Error_Handler();
 686:Core/Src/main.c ****   }
 687:Core/Src/main.c ****   /* USER CODE BEGIN I2C1_Init 2 */
 688:Core/Src/main.c **** 
 689:Core/Src/main.c ****   /* USER CODE END I2C1_Init 2 */
 690:Core/Src/main.c **** 
 691:Core/Src/main.c **** }
 692:Core/Src/main.c **** 
 693:Core/Src/main.c **** /**
 694:Core/Src/main.c ****   * @brief I2C2 Initialization Function
 695:Core/Src/main.c ****   * @param None
 696:Core/Src/main.c ****   * @retval None
 697:Core/Src/main.c ****   */
 698:Core/Src/main.c **** static void MX_I2C2_Init(void)
 699:Core/Src/main.c **** {
 700:Core/Src/main.c **** 
 701:Core/Src/main.c ****   /* USER CODE BEGIN I2C2_Init 0 */
 702:Core/Src/main.c **** 
 703:Core/Src/main.c ****   /* USER CODE END I2C2_Init 0 */
 704:Core/Src/main.c **** 
 705:Core/Src/main.c ****   /* USER CODE BEGIN I2C2_Init 1 */
 706:Core/Src/main.c **** 
 707:Core/Src/main.c ****   /* USER CODE END I2C2_Init 1 */
 708:Core/Src/main.c ****   hi2c2.Instance = I2C2;
 709:Core/Src/main.c ****   hi2c2.Init.Timing = 0x6000030D;
 710:Core/Src/main.c ****   hi2c2.Init.OwnAddress1 = 0;
 711:Core/Src/main.c ****   hi2c2.Init.AddressingMode = I2C_ADDRESSINGMODE_7BIT;
 712:Core/Src/main.c ****   hi2c2.Init.DualAddressMode = I2C_DUALADDRESS_DISABLE;
 713:Core/Src/main.c ****   hi2c2.Init.OwnAddress2 = 0;
 714:Core/Src/main.c ****   hi2c2.Init.OwnAddress2Masks = I2C_OA2_NOMASK;
 715:Core/Src/main.c ****   hi2c2.Init.GeneralCallMode = I2C_GENERALCALL_DISABLE;
ARM GAS  C:\Users\benny\AppData\Local\Temp\ccjrekJt.s 			page 14


 716:Core/Src/main.c ****   hi2c2.Init.NoStretchMode = I2C_NOSTRETCH_DISABLE;
 717:Core/Src/main.c ****   if (HAL_I2C_Init(&hi2c2) != HAL_OK)
 718:Core/Src/main.c ****   {
 719:Core/Src/main.c ****     Error_Handler();
 720:Core/Src/main.c ****   }
 721:Core/Src/main.c **** 
 722:Core/Src/main.c ****   /** Configure Analogue filter
 723:Core/Src/main.c ****   */
 724:Core/Src/main.c ****   if (HAL_I2CEx_ConfigAnalogFilter(&hi2c2, I2C_ANALOGFILTER_ENABLE) != HAL_OK)
 725:Core/Src/main.c ****   {
 726:Core/Src/main.c ****     Error_Handler();
 727:Core/Src/main.c ****   }
 728:Core/Src/main.c **** 
 729:Core/Src/main.c ****   /** Configure Digital filter
 730:Core/Src/main.c ****   */
 731:Core/Src/main.c ****   if (HAL_I2CEx_ConfigDigitalFilter(&hi2c2, 0) != HAL_OK)
 732:Core/Src/main.c ****   {
 733:Core/Src/main.c ****     Error_Handler();
 734:Core/Src/main.c ****   }
 735:Core/Src/main.c ****   /* USER CODE BEGIN I2C2_Init 2 */
 736:Core/Src/main.c **** 
 737:Core/Src/main.c ****   /* USER CODE END I2C2_Init 2 */
 738:Core/Src/main.c **** 
 739:Core/Src/main.c **** }
 740:Core/Src/main.c **** 
 741:Core/Src/main.c **** /**
 742:Core/Src/main.c ****   * @brief I2C3 Initialization Function
 743:Core/Src/main.c ****   * @param None
 744:Core/Src/main.c ****   * @retval None
 745:Core/Src/main.c ****   */
 746:Core/Src/main.c **** static void MX_I2C3_Init(void)
 747:Core/Src/main.c **** {
 748:Core/Src/main.c **** 
 749:Core/Src/main.c ****   /* USER CODE BEGIN I2C3_Init 0 */
 750:Core/Src/main.c **** 
 751:Core/Src/main.c ****   /* USER CODE END I2C3_Init 0 */
 752:Core/Src/main.c **** 
 753:Core/Src/main.c ****   /* USER CODE BEGIN I2C3_Init 1 */
 754:Core/Src/main.c **** 
 755:Core/Src/main.c ****   /* USER CODE END I2C3_Init 1 */
 756:Core/Src/main.c ****   hi2c3.Instance = I2C3;
 757:Core/Src/main.c ****   hi2c3.Init.Timing = 0x6000030D;
 758:Core/Src/main.c ****   hi2c3.Init.OwnAddress1 = 0;
 759:Core/Src/main.c ****   hi2c3.Init.AddressingMode = I2C_ADDRESSINGMODE_7BIT;
 760:Core/Src/main.c ****   hi2c3.Init.DualAddressMode = I2C_DUALADDRESS_DISABLE;
 761:Core/Src/main.c ****   hi2c3.Init.OwnAddress2 = 0;
 762:Core/Src/main.c ****   hi2c3.Init.OwnAddress2Masks = I2C_OA2_NOMASK;
 763:Core/Src/main.c ****   hi2c3.Init.GeneralCallMode = I2C_GENERALCALL_DISABLE;
 764:Core/Src/main.c ****   hi2c3.Init.NoStretchMode = I2C_NOSTRETCH_DISABLE;
 765:Core/Src/main.c ****   if (HAL_I2C_Init(&hi2c3) != HAL_OK)
 766:Core/Src/main.c ****   {
 767:Core/Src/main.c ****     Error_Handler();
 768:Core/Src/main.c ****   }
 769:Core/Src/main.c **** 
 770:Core/Src/main.c ****   /** Configure Analogue filter
 771:Core/Src/main.c ****   */
 772:Core/Src/main.c ****   if (HAL_I2CEx_ConfigAnalogFilter(&hi2c3, I2C_ANALOGFILTER_ENABLE) != HAL_OK)
ARM GAS  C:\Users\benny\AppData\Local\Temp\ccjrekJt.s 			page 15


 773:Core/Src/main.c ****   {
 774:Core/Src/main.c ****     Error_Handler();
 775:Core/Src/main.c ****   }
 776:Core/Src/main.c **** 
 777:Core/Src/main.c ****   /** Configure Digital filter
 778:Core/Src/main.c ****   */
 779:Core/Src/main.c ****   if (HAL_I2CEx_ConfigDigitalFilter(&hi2c3, 0) != HAL_OK)
 780:Core/Src/main.c ****   {
 781:Core/Src/main.c ****     Error_Handler();
 782:Core/Src/main.c ****   }
 783:Core/Src/main.c ****   /* USER CODE BEGIN I2C3_Init 2 */
 784:Core/Src/main.c **** 
 785:Core/Src/main.c ****   /* USER CODE END I2C3_Init 2 */
 786:Core/Src/main.c **** 
 787:Core/Src/main.c **** }
 788:Core/Src/main.c **** 
 789:Core/Src/main.c **** /**
 790:Core/Src/main.c ****   * @brief QUADSPI Initialization Function
 791:Core/Src/main.c ****   * @param None
 792:Core/Src/main.c ****   * @retval None
 793:Core/Src/main.c ****   */
 794:Core/Src/main.c **** static void MX_QUADSPI_Init(void)
 795:Core/Src/main.c **** {
 796:Core/Src/main.c **** 
 797:Core/Src/main.c ****   /* USER CODE BEGIN QUADSPI_Init 0 */
 798:Core/Src/main.c **** 
 799:Core/Src/main.c ****   /* USER CODE END QUADSPI_Init 0 */
 800:Core/Src/main.c **** 
 801:Core/Src/main.c ****   /* USER CODE BEGIN QUADSPI_Init 1 */
 802:Core/Src/main.c **** 
 803:Core/Src/main.c ****   /* USER CODE END QUADSPI_Init 1 */
 804:Core/Src/main.c ****   /* QUADSPI parameter configuration*/
 805:Core/Src/main.c ****   hqspi.Instance = QUADSPI;
 806:Core/Src/main.c ****   hqspi.Init.ClockPrescaler = 1;
 807:Core/Src/main.c ****   hqspi.Init.FifoThreshold = 16;
 808:Core/Src/main.c ****   hqspi.Init.SampleShifting = QSPI_SAMPLE_SHIFTING_HALFCYCLE;
 809:Core/Src/main.c ****   hqspi.Init.FlashSize = 26;
 810:Core/Src/main.c ****   hqspi.Init.ChipSelectHighTime = QSPI_CS_HIGH_TIME_4_CYCLE;
 811:Core/Src/main.c ****   hqspi.Init.ClockMode = QSPI_CLOCK_MODE_0;
 812:Core/Src/main.c ****   hqspi.Init.FlashID = QSPI_FLASH_ID_1;
 813:Core/Src/main.c ****   hqspi.Init.DualFlash = QSPI_DUALFLASH_DISABLE;
 814:Core/Src/main.c ****   if (HAL_QSPI_Init(&hqspi) != HAL_OK)
 815:Core/Src/main.c ****   {
 816:Core/Src/main.c ****     Error_Handler();
 817:Core/Src/main.c ****   }
 818:Core/Src/main.c ****   /* USER CODE BEGIN QUADSPI_Init 2 */
 819:Core/Src/main.c **** 
 820:Core/Src/main.c ****   /* USER CODE END QUADSPI_Init 2 */
 821:Core/Src/main.c **** 
 822:Core/Src/main.c **** }
 823:Core/Src/main.c **** 
 824:Core/Src/main.c **** /**
 825:Core/Src/main.c ****   * @brief SAI2 Initialization Function
 826:Core/Src/main.c ****   * @param None
 827:Core/Src/main.c ****   * @retval None
 828:Core/Src/main.c ****   */
 829:Core/Src/main.c **** static void MX_SAI2_Init(void)
ARM GAS  C:\Users\benny\AppData\Local\Temp\ccjrekJt.s 			page 16


 830:Core/Src/main.c **** {
 831:Core/Src/main.c **** 
 832:Core/Src/main.c ****   /* USER CODE BEGIN SAI2_Init 0 */
 833:Core/Src/main.c **** 
 834:Core/Src/main.c ****   /* USER CODE END SAI2_Init 0 */
 835:Core/Src/main.c **** 
 836:Core/Src/main.c ****   /* USER CODE BEGIN SAI2_Init 1 */
 837:Core/Src/main.c **** 
 838:Core/Src/main.c ****   /* USER CODE END SAI2_Init 1 */
 839:Core/Src/main.c ****   hsai_BlockA2.Instance = SAI2_Block_A;
 840:Core/Src/main.c ****   hsai_BlockA2.Init.Protocol = SAI_FREE_PROTOCOL;
 841:Core/Src/main.c ****   hsai_BlockA2.Init.AudioMode = SAI_MODEMASTER_TX;
 842:Core/Src/main.c ****   hsai_BlockA2.Init.DataSize = SAI_DATASIZE_8;
 843:Core/Src/main.c ****   hsai_BlockA2.Init.FirstBit = SAI_FIRSTBIT_MSB;
 844:Core/Src/main.c ****   hsai_BlockA2.Init.ClockStrobing = SAI_CLOCKSTROBING_FALLINGEDGE;
 845:Core/Src/main.c ****   hsai_BlockA2.Init.Synchro = SAI_ASYNCHRONOUS;
 846:Core/Src/main.c ****   hsai_BlockA2.Init.OutputDrive = SAI_OUTPUTDRIVE_DISABLE;
 847:Core/Src/main.c ****   hsai_BlockA2.Init.NoDivider = SAI_MASTERDIVIDER_ENABLE;
 848:Core/Src/main.c ****   hsai_BlockA2.Init.FIFOThreshold = SAI_FIFOTHRESHOLD_EMPTY;
 849:Core/Src/main.c ****   hsai_BlockA2.Init.AudioFrequency = SAI_AUDIO_FREQUENCY_192K;
 850:Core/Src/main.c ****   hsai_BlockA2.Init.SynchroExt = SAI_SYNCEXT_DISABLE;
 851:Core/Src/main.c ****   hsai_BlockA2.Init.MonoStereoMode = SAI_STEREOMODE;
 852:Core/Src/main.c ****   hsai_BlockA2.Init.CompandingMode = SAI_NOCOMPANDING;
 853:Core/Src/main.c ****   hsai_BlockA2.Init.TriState = SAI_OUTPUT_NOTRELEASED;
 854:Core/Src/main.c ****   hsai_BlockA2.FrameInit.FrameLength = 8;
 855:Core/Src/main.c ****   hsai_BlockA2.FrameInit.ActiveFrameLength = 1;
 856:Core/Src/main.c ****   hsai_BlockA2.FrameInit.FSDefinition = SAI_FS_STARTFRAME;
 857:Core/Src/main.c ****   hsai_BlockA2.FrameInit.FSPolarity = SAI_FS_ACTIVE_LOW;
 858:Core/Src/main.c ****   hsai_BlockA2.FrameInit.FSOffset = SAI_FS_FIRSTBIT;
 859:Core/Src/main.c ****   hsai_BlockA2.SlotInit.FirstBitOffset = 0;
 860:Core/Src/main.c ****   hsai_BlockA2.SlotInit.SlotSize = SAI_SLOTSIZE_DATASIZE;
 861:Core/Src/main.c ****   hsai_BlockA2.SlotInit.SlotNumber = 1;
 862:Core/Src/main.c ****   hsai_BlockA2.SlotInit.SlotActive = 0x00000000;
 863:Core/Src/main.c ****   if (HAL_SAI_Init(&hsai_BlockA2) != HAL_OK)
 864:Core/Src/main.c ****   {
 865:Core/Src/main.c ****     Error_Handler();
 866:Core/Src/main.c ****   }
 867:Core/Src/main.c ****   hsai_BlockB2.Instance = SAI2_Block_B;
 868:Core/Src/main.c ****   hsai_BlockB2.Init.Protocol = SAI_FREE_PROTOCOL;
 869:Core/Src/main.c ****   hsai_BlockB2.Init.AudioMode = SAI_MODESLAVE_RX;
 870:Core/Src/main.c ****   hsai_BlockB2.Init.DataSize = SAI_DATASIZE_8;
 871:Core/Src/main.c ****   hsai_BlockB2.Init.FirstBit = SAI_FIRSTBIT_MSB;
 872:Core/Src/main.c ****   hsai_BlockB2.Init.ClockStrobing = SAI_CLOCKSTROBING_FALLINGEDGE;
 873:Core/Src/main.c ****   hsai_BlockB2.Init.Synchro = SAI_SYNCHRONOUS;
 874:Core/Src/main.c ****   hsai_BlockB2.Init.OutputDrive = SAI_OUTPUTDRIVE_DISABLE;
 875:Core/Src/main.c ****   hsai_BlockB2.Init.FIFOThreshold = SAI_FIFOTHRESHOLD_EMPTY;
 876:Core/Src/main.c ****   hsai_BlockB2.Init.SynchroExt = SAI_SYNCEXT_DISABLE;
 877:Core/Src/main.c ****   hsai_BlockB2.Init.MonoStereoMode = SAI_STEREOMODE;
 878:Core/Src/main.c ****   hsai_BlockB2.Init.CompandingMode = SAI_NOCOMPANDING;
 879:Core/Src/main.c ****   hsai_BlockB2.Init.TriState = SAI_OUTPUT_NOTRELEASED;
 880:Core/Src/main.c ****   hsai_BlockB2.FrameInit.FrameLength = 8;
 881:Core/Src/main.c ****   hsai_BlockB2.FrameInit.ActiveFrameLength = 1;
 882:Core/Src/main.c ****   hsai_BlockB2.FrameInit.FSDefinition = SAI_FS_STARTFRAME;
 883:Core/Src/main.c ****   hsai_BlockB2.FrameInit.FSPolarity = SAI_FS_ACTIVE_LOW;
 884:Core/Src/main.c ****   hsai_BlockB2.FrameInit.FSOffset = SAI_FS_FIRSTBIT;
 885:Core/Src/main.c ****   hsai_BlockB2.SlotInit.FirstBitOffset = 0;
 886:Core/Src/main.c ****   hsai_BlockB2.SlotInit.SlotSize = SAI_SLOTSIZE_DATASIZE;
ARM GAS  C:\Users\benny\AppData\Local\Temp\ccjrekJt.s 			page 17


 887:Core/Src/main.c ****   hsai_BlockB2.SlotInit.SlotNumber = 1;
 888:Core/Src/main.c ****   hsai_BlockB2.SlotInit.SlotActive = 0x00000000;
 889:Core/Src/main.c ****   if (HAL_SAI_Init(&hsai_BlockB2) != HAL_OK)
 890:Core/Src/main.c ****   {
 891:Core/Src/main.c ****     Error_Handler();
 892:Core/Src/main.c ****   }
 893:Core/Src/main.c ****   /* USER CODE BEGIN SAI2_Init 2 */
 894:Core/Src/main.c **** 
 895:Core/Src/main.c ****   /* USER CODE END SAI2_Init 2 */
 896:Core/Src/main.c **** 
 897:Core/Src/main.c **** }
 898:Core/Src/main.c **** 
 899:Core/Src/main.c **** /**
 900:Core/Src/main.c ****   * @brief SPI1 Initialization Function
 901:Core/Src/main.c ****   * @param None
 902:Core/Src/main.c ****   * @retval None
 903:Core/Src/main.c ****   */
 904:Core/Src/main.c **** static void MX_SPI1_Init(void)
 905:Core/Src/main.c **** {
 906:Core/Src/main.c **** 
 907:Core/Src/main.c ****   /* USER CODE BEGIN SPI1_Init 0 */
 908:Core/Src/main.c **** 
 909:Core/Src/main.c ****   /* USER CODE END SPI1_Init 0 */
 910:Core/Src/main.c **** 
 911:Core/Src/main.c ****   /* USER CODE BEGIN SPI1_Init 1 */
 912:Core/Src/main.c **** 
 913:Core/Src/main.c ****   /* USER CODE END SPI1_Init 1 */
 914:Core/Src/main.c ****   /* SPI1 parameter configuration*/
 915:Core/Src/main.c ****   hspi1.Instance = SPI1;
 916:Core/Src/main.c ****   hspi1.Init.Mode = SPI_MODE_MASTER;
 917:Core/Src/main.c ****   hspi1.Init.Direction = SPI_DIRECTION_2LINES;
 918:Core/Src/main.c ****   hspi1.Init.DataSize = SPI_DATASIZE_4BIT;
 919:Core/Src/main.c ****   hspi1.Init.CLKPolarity = SPI_POLARITY_LOW;
 920:Core/Src/main.c ****   hspi1.Init.CLKPhase = SPI_PHASE_1EDGE;
 921:Core/Src/main.c ****   hspi1.Init.NSS = SPI_NSS_SOFT;
 922:Core/Src/main.c ****   hspi1.Init.BaudRatePrescaler = SPI_BAUDRATEPRESCALER_4;
 923:Core/Src/main.c ****   hspi1.Init.FirstBit = SPI_FIRSTBIT_MSB;
 924:Core/Src/main.c ****   hspi1.Init.TIMode = SPI_TIMODE_DISABLE;
 925:Core/Src/main.c ****   hspi1.Init.CRCCalculation = SPI_CRCCALCULATION_DISABLE;
 926:Core/Src/main.c ****   hspi1.Init.CRCPolynomial = 7;
 927:Core/Src/main.c ****   hspi1.Init.CRCLength = SPI_CRC_LENGTH_DATASIZE;
 928:Core/Src/main.c ****   hspi1.Init.NSSPMode = SPI_NSS_PULSE_ENABLE;
 929:Core/Src/main.c ****   if (HAL_SPI_Init(&hspi1) != HAL_OK)
 930:Core/Src/main.c ****   {
 931:Core/Src/main.c ****     Error_Handler();
 932:Core/Src/main.c ****   }
 933:Core/Src/main.c ****   /* USER CODE BEGIN SPI1_Init 2 */
 934:Core/Src/main.c **** 
 935:Core/Src/main.c ****   /* USER CODE END SPI1_Init 2 */
 936:Core/Src/main.c **** 
 937:Core/Src/main.c **** }
 938:Core/Src/main.c **** 
 939:Core/Src/main.c **** /**
 940:Core/Src/main.c ****   * @brief SPI2 Initialization Function
 941:Core/Src/main.c ****   * @param None
 942:Core/Src/main.c ****   * @retval None
 943:Core/Src/main.c ****   */
ARM GAS  C:\Users\benny\AppData\Local\Temp\ccjrekJt.s 			page 18


 944:Core/Src/main.c **** static void MX_SPI2_Init(void)
 945:Core/Src/main.c **** {
 946:Core/Src/main.c **** 
 947:Core/Src/main.c ****   /* USER CODE BEGIN SPI2_Init 0 */
 948:Core/Src/main.c **** 
 949:Core/Src/main.c ****   /* USER CODE END SPI2_Init 0 */
 950:Core/Src/main.c **** 
 951:Core/Src/main.c ****   /* USER CODE BEGIN SPI2_Init 1 */
 952:Core/Src/main.c **** 
 953:Core/Src/main.c ****   /* USER CODE END SPI2_Init 1 */
 954:Core/Src/main.c ****   /* SPI2 parameter configuration*/
 955:Core/Src/main.c ****   hspi2.Instance = SPI2;
 956:Core/Src/main.c ****   hspi2.Init.Mode = SPI_MODE_MASTER;
 957:Core/Src/main.c ****   hspi2.Init.Direction = SPI_DIRECTION_2LINES;
 958:Core/Src/main.c ****   hspi2.Init.DataSize = SPI_DATASIZE_4BIT;
 959:Core/Src/main.c ****   hspi2.Init.CLKPolarity = SPI_POLARITY_LOW;
 960:Core/Src/main.c ****   hspi2.Init.CLKPhase = SPI_PHASE_1EDGE;
 961:Core/Src/main.c ****   hspi2.Init.NSS = SPI_NSS_HARD_OUTPUT;
 962:Core/Src/main.c ****   hspi2.Init.BaudRatePrescaler = SPI_BAUDRATEPRESCALER_4;
 963:Core/Src/main.c ****   hspi2.Init.FirstBit = SPI_FIRSTBIT_MSB;
 964:Core/Src/main.c ****   hspi2.Init.TIMode = SPI_TIMODE_DISABLE;
 965:Core/Src/main.c ****   hspi2.Init.CRCCalculation = SPI_CRCCALCULATION_DISABLE;
 966:Core/Src/main.c ****   hspi2.Init.CRCPolynomial = 7;
 967:Core/Src/main.c ****   hspi2.Init.CRCLength = SPI_CRC_LENGTH_DATASIZE;
 968:Core/Src/main.c ****   hspi2.Init.NSSPMode = SPI_NSS_PULSE_ENABLE;
 969:Core/Src/main.c ****   if (HAL_SPI_Init(&hspi2) != HAL_OK)
 970:Core/Src/main.c ****   {
 971:Core/Src/main.c ****     Error_Handler();
 972:Core/Src/main.c ****   }
 973:Core/Src/main.c ****   /* USER CODE BEGIN SPI2_Init 2 */
 974:Core/Src/main.c **** 
 975:Core/Src/main.c ****   /* USER CODE END SPI2_Init 2 */
 976:Core/Src/main.c **** 
 977:Core/Src/main.c **** }
 978:Core/Src/main.c **** 
 979:Core/Src/main.c **** /**
 980:Core/Src/main.c ****   * @brief TIM2 Initialization Function
 981:Core/Src/main.c ****   * @param None
 982:Core/Src/main.c ****   * @retval None
 983:Core/Src/main.c ****   */
 984:Core/Src/main.c **** static void MX_TIM2_Init(void)
 985:Core/Src/main.c **** {
 986:Core/Src/main.c **** 
 987:Core/Src/main.c ****   /* USER CODE BEGIN TIM2_Init 0 */
 988:Core/Src/main.c **** 
 989:Core/Src/main.c ****   /* USER CODE END TIM2_Init 0 */
 990:Core/Src/main.c **** 
 991:Core/Src/main.c ****   TIM_MasterConfigTypeDef sMasterConfig = {0};
 992:Core/Src/main.c ****   TIM_OC_InitTypeDef sConfigOC = {0};
 993:Core/Src/main.c **** 
 994:Core/Src/main.c ****   /* USER CODE BEGIN TIM2_Init 1 */
 995:Core/Src/main.c **** 
 996:Core/Src/main.c ****   /* USER CODE END TIM2_Init 1 */
 997:Core/Src/main.c ****   htim2.Instance = TIM2;
 998:Core/Src/main.c ****   htim2.Init.Prescaler = 0;
 999:Core/Src/main.c ****   htim2.Init.CounterMode = TIM_COUNTERMODE_UP;
1000:Core/Src/main.c ****   htim2.Init.Period = 4294967295;
ARM GAS  C:\Users\benny\AppData\Local\Temp\ccjrekJt.s 			page 19


1001:Core/Src/main.c ****   htim2.Init.ClockDivision = TIM_CLOCKDIVISION_DIV1;
1002:Core/Src/main.c ****   htim2.Init.AutoReloadPreload = TIM_AUTORELOAD_PRELOAD_DISABLE;
1003:Core/Src/main.c ****   if (HAL_TIM_PWM_Init(&htim2) != HAL_OK)
1004:Core/Src/main.c ****   {
1005:Core/Src/main.c ****     Error_Handler();
1006:Core/Src/main.c ****   }
1007:Core/Src/main.c ****   sMasterConfig.MasterOutputTrigger = TIM_TRGO_RESET;
1008:Core/Src/main.c ****   sMasterConfig.MasterSlaveMode = TIM_MASTERSLAVEMODE_DISABLE;
1009:Core/Src/main.c ****   if (HAL_TIMEx_MasterConfigSynchronization(&htim2, &sMasterConfig) != HAL_OK)
1010:Core/Src/main.c ****   {
1011:Core/Src/main.c ****     Error_Handler();
1012:Core/Src/main.c ****   }
1013:Core/Src/main.c ****   sConfigOC.OCMode = TIM_OCMODE_PWM1;
1014:Core/Src/main.c ****   sConfigOC.Pulse = 0;
1015:Core/Src/main.c ****   sConfigOC.OCPolarity = TIM_OCPOLARITY_HIGH;
1016:Core/Src/main.c ****   sConfigOC.OCFastMode = TIM_OCFAST_DISABLE;
1017:Core/Src/main.c ****   if (HAL_TIM_PWM_ConfigChannel(&htim2, &sConfigOC, TIM_CHANNEL_1) != HAL_OK)
1018:Core/Src/main.c ****   {
1019:Core/Src/main.c ****     Error_Handler();
1020:Core/Src/main.c ****   }
1021:Core/Src/main.c ****   /* USER CODE BEGIN TIM2_Init 2 */
1022:Core/Src/main.c **** 
1023:Core/Src/main.c ****   /* USER CODE END TIM2_Init 2 */
1024:Core/Src/main.c ****   HAL_TIM_MspPostInit(&htim2);
1025:Core/Src/main.c **** 
1026:Core/Src/main.c **** }
1027:Core/Src/main.c **** 
1028:Core/Src/main.c **** /**
1029:Core/Src/main.c ****   * @brief TIM3 Initialization Function
1030:Core/Src/main.c ****   * @param None
1031:Core/Src/main.c ****   * @retval None
1032:Core/Src/main.c ****   */
1033:Core/Src/main.c **** static void MX_TIM3_Init(void)
1034:Core/Src/main.c **** {
1035:Core/Src/main.c **** 
1036:Core/Src/main.c ****   /* USER CODE BEGIN TIM3_Init 0 */
1037:Core/Src/main.c **** 
1038:Core/Src/main.c ****   /* USER CODE END TIM3_Init 0 */
1039:Core/Src/main.c **** 
1040:Core/Src/main.c ****   TIM_MasterConfigTypeDef sMasterConfig = {0};
1041:Core/Src/main.c ****   TIM_OC_InitTypeDef sConfigOC = {0};
1042:Core/Src/main.c **** 
1043:Core/Src/main.c ****   /* USER CODE BEGIN TIM3_Init 1 */
1044:Core/Src/main.c **** 
1045:Core/Src/main.c ****   /* USER CODE END TIM3_Init 1 */
1046:Core/Src/main.c ****   htim3.Instance = TIM3;
1047:Core/Src/main.c ****   htim3.Init.Prescaler = 0;
1048:Core/Src/main.c ****   htim3.Init.CounterMode = TIM_COUNTERMODE_UP;
1049:Core/Src/main.c ****   htim3.Init.Period = 65535;
1050:Core/Src/main.c ****   htim3.Init.ClockDivision = TIM_CLOCKDIVISION_DIV1;
1051:Core/Src/main.c ****   htim3.Init.AutoReloadPreload = TIM_AUTORELOAD_PRELOAD_DISABLE;
1052:Core/Src/main.c ****   if (HAL_TIM_PWM_Init(&htim3) != HAL_OK)
1053:Core/Src/main.c ****   {
1054:Core/Src/main.c ****     Error_Handler();
1055:Core/Src/main.c ****   }
1056:Core/Src/main.c ****   sMasterConfig.MasterOutputTrigger = TIM_TRGO_RESET;
1057:Core/Src/main.c ****   sMasterConfig.MasterSlaveMode = TIM_MASTERSLAVEMODE_DISABLE;
ARM GAS  C:\Users\benny\AppData\Local\Temp\ccjrekJt.s 			page 20


1058:Core/Src/main.c ****   if (HAL_TIMEx_MasterConfigSynchronization(&htim3, &sMasterConfig) != HAL_OK)
1059:Core/Src/main.c ****   {
1060:Core/Src/main.c ****     Error_Handler();
1061:Core/Src/main.c ****   }
1062:Core/Src/main.c ****   sConfigOC.OCMode = TIM_OCMODE_PWM1;
1063:Core/Src/main.c ****   sConfigOC.Pulse = 0;
1064:Core/Src/main.c ****   sConfigOC.OCPolarity = TIM_OCPOLARITY_HIGH;
1065:Core/Src/main.c ****   sConfigOC.OCFastMode = TIM_OCFAST_DISABLE;
1066:Core/Src/main.c ****   if (HAL_TIM_PWM_ConfigChannel(&htim3, &sConfigOC, TIM_CHANNEL_3) != HAL_OK)
1067:Core/Src/main.c ****   {
1068:Core/Src/main.c ****     Error_Handler();
1069:Core/Src/main.c ****   }
1070:Core/Src/main.c ****   /* USER CODE BEGIN TIM3_Init 2 */
1071:Core/Src/main.c **** 
1072:Core/Src/main.c ****   /* USER CODE END TIM3_Init 2 */
1073:Core/Src/main.c ****   HAL_TIM_MspPostInit(&htim3);
1074:Core/Src/main.c **** 
1075:Core/Src/main.c **** }
1076:Core/Src/main.c **** 
1077:Core/Src/main.c **** /**
1078:Core/Src/main.c ****   * @brief TIM5 Initialization Function
1079:Core/Src/main.c ****   * @param None
1080:Core/Src/main.c ****   * @retval None
1081:Core/Src/main.c ****   */
1082:Core/Src/main.c **** static void MX_TIM5_Init(void)
1083:Core/Src/main.c **** {
1084:Core/Src/main.c **** 
1085:Core/Src/main.c ****   /* USER CODE BEGIN TIM5_Init 0 */
1086:Core/Src/main.c **** 
1087:Core/Src/main.c ****   /* USER CODE END TIM5_Init 0 */
1088:Core/Src/main.c **** 
1089:Core/Src/main.c ****   TIM_ClockConfigTypeDef sClockSourceConfig = {0};
1090:Core/Src/main.c ****   TIM_MasterConfigTypeDef sMasterConfig = {0};
1091:Core/Src/main.c **** 
1092:Core/Src/main.c ****   /* USER CODE BEGIN TIM5_Init 1 */
1093:Core/Src/main.c **** 
1094:Core/Src/main.c ****   /* USER CODE END TIM5_Init 1 */
1095:Core/Src/main.c ****   htim5.Instance = TIM5;
1096:Core/Src/main.c ****   htim5.Init.Prescaler = 0;
1097:Core/Src/main.c ****   htim5.Init.CounterMode = TIM_COUNTERMODE_UP;
1098:Core/Src/main.c ****   htim5.Init.Period = 216000;
1099:Core/Src/main.c ****   htim5.Init.ClockDivision = TIM_CLOCKDIVISION_DIV1;
1100:Core/Src/main.c ****   htim5.Init.AutoReloadPreload = TIM_AUTORELOAD_PRELOAD_DISABLE;
1101:Core/Src/main.c ****   if (HAL_TIM_Base_Init(&htim5) != HAL_OK)
1102:Core/Src/main.c ****   {
1103:Core/Src/main.c ****     Error_Handler();
1104:Core/Src/main.c ****   }
1105:Core/Src/main.c ****   sClockSourceConfig.ClockSource = TIM_CLOCKSOURCE_INTERNAL;
1106:Core/Src/main.c ****   if (HAL_TIM_ConfigClockSource(&htim5, &sClockSourceConfig) != HAL_OK)
1107:Core/Src/main.c ****   {
1108:Core/Src/main.c ****     Error_Handler();
1109:Core/Src/main.c ****   }
1110:Core/Src/main.c ****   sMasterConfig.MasterOutputTrigger = TIM_TRGO_UPDATE;
1111:Core/Src/main.c ****   sMasterConfig.MasterSlaveMode = TIM_MASTERSLAVEMODE_DISABLE;
1112:Core/Src/main.c ****   if (HAL_TIMEx_MasterConfigSynchronization(&htim5, &sMasterConfig) != HAL_OK)
1113:Core/Src/main.c ****   {
1114:Core/Src/main.c ****     Error_Handler();
ARM GAS  C:\Users\benny\AppData\Local\Temp\ccjrekJt.s 			page 21


1115:Core/Src/main.c ****   }
1116:Core/Src/main.c ****   /* USER CODE BEGIN TIM5_Init 2 */
1117:Core/Src/main.c **** 
1118:Core/Src/main.c ****   /* USER CODE END TIM5_Init 2 */
1119:Core/Src/main.c **** 
1120:Core/Src/main.c **** }
1121:Core/Src/main.c **** 
1122:Core/Src/main.c **** /**
1123:Core/Src/main.c ****   * @brief TIM9 Initialization Function
1124:Core/Src/main.c ****   * @param None
1125:Core/Src/main.c ****   * @retval None
1126:Core/Src/main.c ****   */
1127:Core/Src/main.c **** static void MX_TIM9_Init(void)
1128:Core/Src/main.c **** {
1129:Core/Src/main.c **** 
1130:Core/Src/main.c ****   /* USER CODE BEGIN TIM9_Init 0 */
1131:Core/Src/main.c **** 
1132:Core/Src/main.c ****   /* USER CODE END TIM9_Init 0 */
1133:Core/Src/main.c **** 
1134:Core/Src/main.c ****   TIM_OC_InitTypeDef sConfigOC = {0};
1135:Core/Src/main.c **** 
1136:Core/Src/main.c ****   /* USER CODE BEGIN TIM9_Init 1 */
1137:Core/Src/main.c **** 
1138:Core/Src/main.c ****   /* USER CODE END TIM9_Init 1 */
1139:Core/Src/main.c ****   htim9.Instance = TIM9;
1140:Core/Src/main.c ****   htim9.Init.Prescaler = 0;
1141:Core/Src/main.c ****   htim9.Init.CounterMode = TIM_COUNTERMODE_UP;
1142:Core/Src/main.c ****   htim9.Init.Period = 65535;
1143:Core/Src/main.c ****   htim9.Init.ClockDivision = TIM_CLOCKDIVISION_DIV1;
1144:Core/Src/main.c ****   htim9.Init.AutoReloadPreload = TIM_AUTORELOAD_PRELOAD_DISABLE;
1145:Core/Src/main.c ****   if (HAL_TIM_PWM_Init(&htim9) != HAL_OK)
1146:Core/Src/main.c ****   {
1147:Core/Src/main.c ****     Error_Handler();
1148:Core/Src/main.c ****   }
1149:Core/Src/main.c ****   sConfigOC.OCMode = TIM_OCMODE_PWM1;
1150:Core/Src/main.c ****   sConfigOC.Pulse = 0;
1151:Core/Src/main.c ****   sConfigOC.OCPolarity = TIM_OCPOLARITY_HIGH;
1152:Core/Src/main.c ****   sConfigOC.OCFastMode = TIM_OCFAST_DISABLE;
1153:Core/Src/main.c ****   if (HAL_TIM_PWM_ConfigChannel(&htim9, &sConfigOC, TIM_CHANNEL_1) != HAL_OK)
1154:Core/Src/main.c ****   {
1155:Core/Src/main.c ****     Error_Handler();
1156:Core/Src/main.c ****   }
1157:Core/Src/main.c ****   if (HAL_TIM_PWM_ConfigChannel(&htim9, &sConfigOC, TIM_CHANNEL_2) != HAL_OK)
1158:Core/Src/main.c ****   {
1159:Core/Src/main.c ****     Error_Handler();
1160:Core/Src/main.c ****   }
1161:Core/Src/main.c ****   /* USER CODE BEGIN TIM9_Init 2 */
1162:Core/Src/main.c **** 
1163:Core/Src/main.c ****   /* USER CODE END TIM9_Init 2 */
1164:Core/Src/main.c ****   HAL_TIM_MspPostInit(&htim9);
1165:Core/Src/main.c **** 
1166:Core/Src/main.c **** }
1167:Core/Src/main.c **** 
1168:Core/Src/main.c **** /**
1169:Core/Src/main.c ****   * @brief TIM12 Initialization Function
1170:Core/Src/main.c ****   * @param None
1171:Core/Src/main.c ****   * @retval None
ARM GAS  C:\Users\benny\AppData\Local\Temp\ccjrekJt.s 			page 22


1172:Core/Src/main.c ****   */
1173:Core/Src/main.c **** static void MX_TIM12_Init(void)
1174:Core/Src/main.c **** {
1175:Core/Src/main.c **** 
1176:Core/Src/main.c ****   /* USER CODE BEGIN TIM12_Init 0 */
1177:Core/Src/main.c **** 
1178:Core/Src/main.c ****   /* USER CODE END TIM12_Init 0 */
1179:Core/Src/main.c **** 
1180:Core/Src/main.c ****   TIM_OC_InitTypeDef sConfigOC = {0};
1181:Core/Src/main.c **** 
1182:Core/Src/main.c ****   /* USER CODE BEGIN TIM12_Init 1 */
1183:Core/Src/main.c **** 
1184:Core/Src/main.c ****   /* USER CODE END TIM12_Init 1 */
1185:Core/Src/main.c ****   htim12.Instance = TIM12;
1186:Core/Src/main.c ****   htim12.Init.Prescaler = 0;
1187:Core/Src/main.c ****   htim12.Init.CounterMode = TIM_COUNTERMODE_UP;
1188:Core/Src/main.c ****   htim12.Init.Period = 65535;
1189:Core/Src/main.c ****   htim12.Init.ClockDivision = TIM_CLOCKDIVISION_DIV1;
1190:Core/Src/main.c ****   htim12.Init.AutoReloadPreload = TIM_AUTORELOAD_PRELOAD_DISABLE;
1191:Core/Src/main.c ****   if (HAL_TIM_PWM_Init(&htim12) != HAL_OK)
1192:Core/Src/main.c ****   {
1193:Core/Src/main.c ****     Error_Handler();
1194:Core/Src/main.c ****   }
1195:Core/Src/main.c ****   sConfigOC.OCMode = TIM_OCMODE_PWM1;
1196:Core/Src/main.c ****   sConfigOC.Pulse = 0;
1197:Core/Src/main.c ****   sConfigOC.OCPolarity = TIM_OCPOLARITY_HIGH;
1198:Core/Src/main.c ****   sConfigOC.OCFastMode = TIM_OCFAST_DISABLE;
1199:Core/Src/main.c ****   if (HAL_TIM_PWM_ConfigChannel(&htim12, &sConfigOC, TIM_CHANNEL_1) != HAL_OK)
1200:Core/Src/main.c ****   {
1201:Core/Src/main.c ****     Error_Handler();
1202:Core/Src/main.c ****   }
1203:Core/Src/main.c ****   /* USER CODE BEGIN TIM12_Init 2 */
1204:Core/Src/main.c **** 
1205:Core/Src/main.c ****   /* USER CODE END TIM12_Init 2 */
1206:Core/Src/main.c ****   HAL_TIM_MspPostInit(&htim12);
1207:Core/Src/main.c **** 
1208:Core/Src/main.c **** }
1209:Core/Src/main.c **** 
1210:Core/Src/main.c **** /**
1211:Core/Src/main.c ****   * @brief UART4 Initialization Function
1212:Core/Src/main.c ****   * @param None
1213:Core/Src/main.c ****   * @retval None
1214:Core/Src/main.c ****   */
1215:Core/Src/main.c **** static void MX_UART4_Init(void)
1216:Core/Src/main.c **** {
1217:Core/Src/main.c **** 
1218:Core/Src/main.c ****   /* USER CODE BEGIN UART4_Init 0 */
1219:Core/Src/main.c **** 
1220:Core/Src/main.c ****   /* USER CODE END UART4_Init 0 */
1221:Core/Src/main.c **** 
1222:Core/Src/main.c ****   /* USER CODE BEGIN UART4_Init 1 */
1223:Core/Src/main.c **** 
1224:Core/Src/main.c ****   /* USER CODE END UART4_Init 1 */
1225:Core/Src/main.c ****   huart4.Instance = UART4;
1226:Core/Src/main.c ****   huart4.Init.BaudRate = 115200;
1227:Core/Src/main.c ****   huart4.Init.WordLength = UART_WORDLENGTH_8B;
1228:Core/Src/main.c ****   huart4.Init.StopBits = UART_STOPBITS_1;
ARM GAS  C:\Users\benny\AppData\Local\Temp\ccjrekJt.s 			page 23


1229:Core/Src/main.c ****   huart4.Init.Parity = UART_PARITY_NONE;
1230:Core/Src/main.c ****   huart4.Init.Mode = UART_MODE_TX_RX;
1231:Core/Src/main.c ****   huart4.Init.HwFlowCtl = UART_HWCONTROL_NONE;
1232:Core/Src/main.c ****   huart4.Init.OverSampling = UART_OVERSAMPLING_16;
1233:Core/Src/main.c ****   huart4.Init.OneBitSampling = UART_ONE_BIT_SAMPLE_DISABLE;
1234:Core/Src/main.c ****   huart4.AdvancedInit.AdvFeatureInit = UART_ADVFEATURE_NO_INIT;
1235:Core/Src/main.c ****   if (HAL_UART_Init(&huart4) != HAL_OK)
1236:Core/Src/main.c ****   {
1237:Core/Src/main.c ****     Error_Handler();
1238:Core/Src/main.c ****   }
1239:Core/Src/main.c ****   /* USER CODE BEGIN UART4_Init 2 */
1240:Core/Src/main.c **** 
1241:Core/Src/main.c ****   /* USER CODE END UART4_Init 2 */
1242:Core/Src/main.c **** 
1243:Core/Src/main.c **** }
1244:Core/Src/main.c **** 
1245:Core/Src/main.c **** /**
1246:Core/Src/main.c ****   * @brief UART5 Initialization Function
1247:Core/Src/main.c ****   * @param None
1248:Core/Src/main.c ****   * @retval None
1249:Core/Src/main.c ****   */
1250:Core/Src/main.c **** static void MX_UART5_Init(void)
1251:Core/Src/main.c **** {
1252:Core/Src/main.c **** 
1253:Core/Src/main.c ****   /* USER CODE BEGIN UART5_Init 0 */
1254:Core/Src/main.c **** 
1255:Core/Src/main.c ****   /* USER CODE END UART5_Init 0 */
1256:Core/Src/main.c **** 
1257:Core/Src/main.c ****   /* USER CODE BEGIN UART5_Init 1 */
1258:Core/Src/main.c **** 
1259:Core/Src/main.c ****   /* USER CODE END UART5_Init 1 */
1260:Core/Src/main.c ****   huart5.Instance = UART5;
1261:Core/Src/main.c ****   huart5.Init.BaudRate = 115200;
1262:Core/Src/main.c ****   huart5.Init.WordLength = UART_WORDLENGTH_8B;
1263:Core/Src/main.c ****   huart5.Init.StopBits = UART_STOPBITS_1;
1264:Core/Src/main.c ****   huart5.Init.Parity = UART_PARITY_NONE;
1265:Core/Src/main.c ****   huart5.Init.Mode = UART_MODE_TX_RX;
1266:Core/Src/main.c ****   huart5.Init.HwFlowCtl = UART_HWCONTROL_NONE;
1267:Core/Src/main.c ****   huart5.Init.OverSampling = UART_OVERSAMPLING_16;
1268:Core/Src/main.c ****   huart5.Init.OneBitSampling = UART_ONE_BIT_SAMPLE_DISABLE;
1269:Core/Src/main.c ****   huart5.AdvancedInit.AdvFeatureInit = UART_ADVFEATURE_NO_INIT;
1270:Core/Src/main.c ****   if (HAL_UART_Init(&huart5) != HAL_OK)
1271:Core/Src/main.c ****   {
1272:Core/Src/main.c ****     Error_Handler();
1273:Core/Src/main.c ****   }
1274:Core/Src/main.c ****   /* USER CODE BEGIN UART5_Init 2 */
1275:Core/Src/main.c **** 
1276:Core/Src/main.c ****   /* USER CODE END UART5_Init 2 */
1277:Core/Src/main.c **** 
1278:Core/Src/main.c **** }
1279:Core/Src/main.c **** 
1280:Core/Src/main.c **** /**
1281:Core/Src/main.c ****   * @brief UART7 Initialization Function
1282:Core/Src/main.c ****   * @param None
1283:Core/Src/main.c ****   * @retval None
1284:Core/Src/main.c ****   */
1285:Core/Src/main.c **** static void MX_UART7_Init(void)
ARM GAS  C:\Users\benny\AppData\Local\Temp\ccjrekJt.s 			page 24


1286:Core/Src/main.c **** {
1287:Core/Src/main.c **** 
1288:Core/Src/main.c ****   /* USER CODE BEGIN UART7_Init 0 */
1289:Core/Src/main.c **** 
1290:Core/Src/main.c ****   /* USER CODE END UART7_Init 0 */
1291:Core/Src/main.c **** 
1292:Core/Src/main.c ****   /* USER CODE BEGIN UART7_Init 1 */
1293:Core/Src/main.c **** 
1294:Core/Src/main.c ****   /* USER CODE END UART7_Init 1 */
1295:Core/Src/main.c ****   huart7.Instance = UART7;
1296:Core/Src/main.c ****   huart7.Init.BaudRate = 115200;
1297:Core/Src/main.c ****   huart7.Init.WordLength = UART_WORDLENGTH_8B;
1298:Core/Src/main.c ****   huart7.Init.StopBits = UART_STOPBITS_1;
1299:Core/Src/main.c ****   huart7.Init.Parity = UART_PARITY_NONE;
1300:Core/Src/main.c ****   huart7.Init.Mode = UART_MODE_TX_RX;
1301:Core/Src/main.c ****   huart7.Init.HwFlowCtl = UART_HWCONTROL_RTS_CTS;
1302:Core/Src/main.c ****   huart7.Init.OverSampling = UART_OVERSAMPLING_16;
1303:Core/Src/main.c ****   huart7.Init.OneBitSampling = UART_ONE_BIT_SAMPLE_DISABLE;
1304:Core/Src/main.c ****   huart7.AdvancedInit.AdvFeatureInit = UART_ADVFEATURE_NO_INIT;
1305:Core/Src/main.c ****   if (HAL_UART_Init(&huart7) != HAL_OK)
1306:Core/Src/main.c ****   {
1307:Core/Src/main.c ****     Error_Handler();
1308:Core/Src/main.c ****   }
1309:Core/Src/main.c ****   /* USER CODE BEGIN UART7_Init 2 */
1310:Core/Src/main.c **** 
1311:Core/Src/main.c ****   /* USER CODE END UART7_Init 2 */
1312:Core/Src/main.c **** 
1313:Core/Src/main.c **** }
1314:Core/Src/main.c **** 
1315:Core/Src/main.c **** /**
1316:Core/Src/main.c ****   * @brief USART2 Initialization Function
1317:Core/Src/main.c ****   * @param None
1318:Core/Src/main.c ****   * @retval None
1319:Core/Src/main.c ****   */
1320:Core/Src/main.c **** static void MX_USART2_UART_Init(void)
1321:Core/Src/main.c **** {
1322:Core/Src/main.c **** 
1323:Core/Src/main.c ****   /* USER CODE BEGIN USART2_Init 0 */
1324:Core/Src/main.c **** 
1325:Core/Src/main.c ****   /* USER CODE END USART2_Init 0 */
1326:Core/Src/main.c **** 
1327:Core/Src/main.c ****   /* USER CODE BEGIN USART2_Init 1 */
1328:Core/Src/main.c **** 
1329:Core/Src/main.c ****   /* USER CODE END USART2_Init 1 */
1330:Core/Src/main.c ****   huart2.Instance = USART2;
1331:Core/Src/main.c ****   huart2.Init.BaudRate = 115200;
1332:Core/Src/main.c ****   huart2.Init.WordLength = UART_WORDLENGTH_8B;
1333:Core/Src/main.c ****   huart2.Init.StopBits = UART_STOPBITS_1;
1334:Core/Src/main.c ****   huart2.Init.Parity = UART_PARITY_NONE;
1335:Core/Src/main.c ****   huart2.Init.Mode = UART_MODE_TX_RX;
1336:Core/Src/main.c ****   huart2.Init.HwFlowCtl = UART_HWCONTROL_NONE;
1337:Core/Src/main.c ****   huart2.Init.OverSampling = UART_OVERSAMPLING_16;
1338:Core/Src/main.c ****   huart2.Init.OneBitSampling = UART_ONE_BIT_SAMPLE_DISABLE;
1339:Core/Src/main.c ****   huart2.AdvancedInit.AdvFeatureInit = UART_ADVFEATURE_NO_INIT;
1340:Core/Src/main.c ****   if (HAL_UART_Init(&huart2) != HAL_OK)
1341:Core/Src/main.c ****   {
1342:Core/Src/main.c ****     Error_Handler();
ARM GAS  C:\Users\benny\AppData\Local\Temp\ccjrekJt.s 			page 25


1343:Core/Src/main.c ****   }
1344:Core/Src/main.c ****   /* USER CODE BEGIN USART2_Init 2 */
1345:Core/Src/main.c **** 
1346:Core/Src/main.c ****   /* USER CODE END USART2_Init 2 */
1347:Core/Src/main.c **** 
1348:Core/Src/main.c **** }
1349:Core/Src/main.c **** 
1350:Core/Src/main.c **** /**
1351:Core/Src/main.c ****   * @brief USART6 Initialization Function
1352:Core/Src/main.c ****   * @param None
1353:Core/Src/main.c ****   * @retval None
1354:Core/Src/main.c ****   */
1355:Core/Src/main.c **** static void MX_USART6_UART_Init(void)
1356:Core/Src/main.c **** {
1357:Core/Src/main.c **** 
1358:Core/Src/main.c ****   /* USER CODE BEGIN USART6_Init 0 */
1359:Core/Src/main.c **** 
1360:Core/Src/main.c ****   /* USER CODE END USART6_Init 0 */
1361:Core/Src/main.c **** 
1362:Core/Src/main.c ****   /* USER CODE BEGIN USART6_Init 1 */
1363:Core/Src/main.c **** 
1364:Core/Src/main.c ****   /* USER CODE END USART6_Init 1 */
1365:Core/Src/main.c ****   huart6.Instance = USART6;
1366:Core/Src/main.c ****   huart6.Init.BaudRate = 115200;
1367:Core/Src/main.c ****   huart6.Init.WordLength = UART_WORDLENGTH_8B;
1368:Core/Src/main.c ****   huart6.Init.StopBits = UART_STOPBITS_1;
1369:Core/Src/main.c ****   huart6.Init.Parity = UART_PARITY_NONE;
1370:Core/Src/main.c ****   huart6.Init.Mode = UART_MODE_TX_RX;
1371:Core/Src/main.c ****   huart6.Init.HwFlowCtl = UART_HWCONTROL_NONE;
1372:Core/Src/main.c ****   huart6.Init.OverSampling = UART_OVERSAMPLING_16;
1373:Core/Src/main.c ****   huart6.Init.OneBitSampling = UART_ONE_BIT_SAMPLE_DISABLE;
1374:Core/Src/main.c ****   huart6.AdvancedInit.AdvFeatureInit = UART_ADVFEATURE_NO_INIT;
1375:Core/Src/main.c ****   if (HAL_UART_Init(&huart6) != HAL_OK)
1376:Core/Src/main.c ****   {
1377:Core/Src/main.c ****     Error_Handler();
1378:Core/Src/main.c ****   }
1379:Core/Src/main.c ****   /* USER CODE BEGIN USART6_Init 2 */
1380:Core/Src/main.c **** 
1381:Core/Src/main.c ****   /* USER CODE END USART6_Init 2 */
1382:Core/Src/main.c **** 
1383:Core/Src/main.c **** }
1384:Core/Src/main.c **** 
1385:Core/Src/main.c **** /* FMC initialization function */
1386:Core/Src/main.c **** static void MX_FMC_Init(void)
1387:Core/Src/main.c **** {
1388:Core/Src/main.c **** 
1389:Core/Src/main.c ****   /* USER CODE BEGIN FMC_Init 0 */
1390:Core/Src/main.c **** 
1391:Core/Src/main.c ****   /* USER CODE END FMC_Init 0 */
1392:Core/Src/main.c **** 
1393:Core/Src/main.c ****   FMC_NORSRAM_TimingTypeDef Timing = {0};
1394:Core/Src/main.c **** 
1395:Core/Src/main.c ****   /* USER CODE BEGIN FMC_Init 1 */
1396:Core/Src/main.c **** 
1397:Core/Src/main.c ****   /* USER CODE END FMC_Init 1 */
1398:Core/Src/main.c **** 
1399:Core/Src/main.c ****   /** Perform the SRAM1 memory initialization sequence
ARM GAS  C:\Users\benny\AppData\Local\Temp\ccjrekJt.s 			page 26


1400:Core/Src/main.c ****   */
1401:Core/Src/main.c ****   hsram1.Instance = FMC_NORSRAM_DEVICE;
1402:Core/Src/main.c ****   hsram1.Extended = FMC_NORSRAM_EXTENDED_DEVICE;
1403:Core/Src/main.c ****   /* hsram1.Init */
1404:Core/Src/main.c ****   hsram1.Init.NSBank = FMC_NORSRAM_BANK1;
1405:Core/Src/main.c ****   hsram1.Init.DataAddressMux = FMC_DATA_ADDRESS_MUX_DISABLE;
1406:Core/Src/main.c ****   hsram1.Init.MemoryType = FMC_MEMORY_TYPE_PSRAM;
1407:Core/Src/main.c ****   hsram1.Init.MemoryDataWidth = FMC_NORSRAM_MEM_BUS_WIDTH_16;
1408:Core/Src/main.c ****   hsram1.Init.BurstAccessMode = FMC_BURST_ACCESS_MODE_DISABLE;
1409:Core/Src/main.c ****   hsram1.Init.WaitSignalPolarity = FMC_WAIT_SIGNAL_POLARITY_LOW;
1410:Core/Src/main.c ****   hsram1.Init.WaitSignalActive = FMC_WAIT_TIMING_BEFORE_WS;
1411:Core/Src/main.c ****   hsram1.Init.WriteOperation = FMC_WRITE_OPERATION_ENABLE;
1412:Core/Src/main.c ****   hsram1.Init.WaitSignal = FMC_WAIT_SIGNAL_DISABLE;
1413:Core/Src/main.c ****   hsram1.Init.ExtendedMode = FMC_EXTENDED_MODE_DISABLE;
1414:Core/Src/main.c ****   hsram1.Init.AsynchronousWait = FMC_ASYNCHRONOUS_WAIT_DISABLE;
1415:Core/Src/main.c ****   hsram1.Init.WriteBurst = FMC_WRITE_BURST_DISABLE;
1416:Core/Src/main.c ****   hsram1.Init.ContinuousClock = FMC_CONTINUOUS_CLOCK_SYNC_ONLY;
1417:Core/Src/main.c ****   hsram1.Init.WriteFifo = FMC_WRITE_FIFO_ENABLE;
1418:Core/Src/main.c ****   hsram1.Init.PageSize = FMC_PAGE_SIZE_NONE;
1419:Core/Src/main.c ****   /* Timing */
1420:Core/Src/main.c ****   Timing.AddressSetupTime = 15;
1421:Core/Src/main.c ****   Timing.AddressHoldTime = 15;
1422:Core/Src/main.c ****   Timing.DataSetupTime = 255;
1423:Core/Src/main.c ****   Timing.BusTurnAroundDuration = 15;
1424:Core/Src/main.c ****   Timing.CLKDivision = 16;
1425:Core/Src/main.c ****   Timing.DataLatency = 17;
1426:Core/Src/main.c ****   Timing.AccessMode = FMC_ACCESS_MODE_A;
1427:Core/Src/main.c ****   /* ExtTiming */
1428:Core/Src/main.c **** 
1429:Core/Src/main.c ****   if (HAL_SRAM_Init(&hsram1, &Timing, NULL) != HAL_OK)
1430:Core/Src/main.c ****   {
1431:Core/Src/main.c ****     Error_Handler( );
1432:Core/Src/main.c ****   }
1433:Core/Src/main.c **** 
1434:Core/Src/main.c ****   /** Perform the SRAM2 memory initialization sequence
1435:Core/Src/main.c ****   */
1436:Core/Src/main.c ****   hsram2.Instance = FMC_NORSRAM_DEVICE;
1437:Core/Src/main.c ****   hsram2.Extended = FMC_NORSRAM_EXTENDED_DEVICE;
1438:Core/Src/main.c ****   /* hsram2.Init */
1439:Core/Src/main.c ****   hsram2.Init.NSBank = FMC_NORSRAM_BANK2;
1440:Core/Src/main.c ****   hsram2.Init.DataAddressMux = FMC_DATA_ADDRESS_MUX_DISABLE;
1441:Core/Src/main.c ****   hsram2.Init.MemoryType = FMC_MEMORY_TYPE_SRAM;
1442:Core/Src/main.c ****   hsram2.Init.MemoryDataWidth = FMC_NORSRAM_MEM_BUS_WIDTH_16;
1443:Core/Src/main.c ****   hsram2.Init.BurstAccessMode = FMC_BURST_ACCESS_MODE_DISABLE;
1444:Core/Src/main.c ****   hsram2.Init.WaitSignalPolarity = FMC_WAIT_SIGNAL_POLARITY_LOW;
1445:Core/Src/main.c ****   hsram2.Init.WaitSignalActive = FMC_WAIT_TIMING_BEFORE_WS;
1446:Core/Src/main.c ****   hsram2.Init.WriteOperation = FMC_WRITE_OPERATION_ENABLE;
1447:Core/Src/main.c ****   hsram2.Init.WaitSignal = FMC_WAIT_SIGNAL_DISABLE;
1448:Core/Src/main.c ****   hsram2.Init.ExtendedMode = FMC_EXTENDED_MODE_DISABLE;
1449:Core/Src/main.c ****   hsram2.Init.AsynchronousWait = FMC_ASYNCHRONOUS_WAIT_DISABLE;
1450:Core/Src/main.c ****   hsram2.Init.WriteBurst = FMC_WRITE_BURST_DISABLE;
1451:Core/Src/main.c ****   hsram2.Init.ContinuousClock = FMC_CONTINUOUS_CLOCK_SYNC_ONLY;
1452:Core/Src/main.c ****   hsram2.Init.WriteFifo = FMC_WRITE_FIFO_ENABLE;
1453:Core/Src/main.c ****   hsram2.Init.PageSize = FMC_PAGE_SIZE_NONE;
1454:Core/Src/main.c ****   /* Timing */
1455:Core/Src/main.c ****   Timing.AddressSetupTime = 15;
1456:Core/Src/main.c ****   Timing.AddressHoldTime = 15;
ARM GAS  C:\Users\benny\AppData\Local\Temp\ccjrekJt.s 			page 27


1457:Core/Src/main.c ****   Timing.DataSetupTime = 255;
1458:Core/Src/main.c ****   Timing.BusTurnAroundDuration = 15;
1459:Core/Src/main.c ****   Timing.CLKDivision = 16;
1460:Core/Src/main.c ****   Timing.DataLatency = 17;
1461:Core/Src/main.c ****   Timing.AccessMode = FMC_ACCESS_MODE_A;
1462:Core/Src/main.c ****   /* ExtTiming */
1463:Core/Src/main.c **** 
1464:Core/Src/main.c ****   if (HAL_SRAM_Init(&hsram2, &Timing, NULL) != HAL_OK)
1465:Core/Src/main.c ****   {
1466:Core/Src/main.c ****     Error_Handler( );
1467:Core/Src/main.c ****   }
1468:Core/Src/main.c **** 
1469:Core/Src/main.c ****   /* USER CODE BEGIN FMC_Init 2 */
1470:Core/Src/main.c **** 
1471:Core/Src/main.c ****   /* USER CODE END FMC_Init 2 */
1472:Core/Src/main.c **** }
1473:Core/Src/main.c **** 
1474:Core/Src/main.c **** /**
1475:Core/Src/main.c ****   * @brief GPIO Initialization Function
1476:Core/Src/main.c ****   * @param None
1477:Core/Src/main.c ****   * @retval None
1478:Core/Src/main.c ****   */
1479:Core/Src/main.c **** static void MX_GPIO_Init(void)
1480:Core/Src/main.c **** {
  28              		.loc 1 1480 1 view -0
  29              		.cfi_startproc
  30              		@ args = 0, pretend = 0, frame = 56
  31              		@ frame_needed = 0, uses_anonymous_args = 0
  32 0000 2DE9F04F 		push	{r4, r5, r6, r7, r8, r9, r10, fp, lr}
  33              	.LCFI0:
  34              		.cfi_def_cfa_offset 36
  35              		.cfi_offset 4, -36
  36              		.cfi_offset 5, -32
  37              		.cfi_offset 6, -28
  38              		.cfi_offset 7, -24
  39              		.cfi_offset 8, -20
  40              		.cfi_offset 9, -16
  41              		.cfi_offset 10, -12
  42              		.cfi_offset 11, -8
  43              		.cfi_offset 14, -4
  44 0004 8FB0     		sub	sp, sp, #60
  45              	.LCFI1:
  46              		.cfi_def_cfa_offset 96
1481:Core/Src/main.c ****   GPIO_InitTypeDef GPIO_InitStruct = {0};
  47              		.loc 1 1481 3 view .LVU1
  48              		.loc 1 1481 20 is_stmt 0 view .LVU2
  49 0006 0024     		movs	r4, #0
  50 0008 0994     		str	r4, [sp, #36]
  51 000a 0A94     		str	r4, [sp, #40]
  52 000c 0B94     		str	r4, [sp, #44]
  53 000e 0C94     		str	r4, [sp, #48]
  54 0010 0D94     		str	r4, [sp, #52]
1482:Core/Src/main.c **** /* USER CODE BEGIN MX_GPIO_Init_1 */
1483:Core/Src/main.c **** /* USER CODE END MX_GPIO_Init_1 */
1484:Core/Src/main.c **** 
1485:Core/Src/main.c ****   /* GPIO Ports Clock Enable */
1486:Core/Src/main.c ****   __HAL_RCC_GPIOE_CLK_ENABLE();
ARM GAS  C:\Users\benny\AppData\Local\Temp\ccjrekJt.s 			page 28


  55              		.loc 1 1486 3 is_stmt 1 view .LVU3
  56              	.LBB4:
  57              		.loc 1 1486 3 view .LVU4
  58              		.loc 1 1486 3 view .LVU5
  59 0012 8D4B     		ldr	r3, .L3
  60 0014 1A6B     		ldr	r2, [r3, #48]
  61 0016 42F01002 		orr	r2, r2, #16
  62 001a 1A63     		str	r2, [r3, #48]
  63              		.loc 1 1486 3 view .LVU6
  64 001c 1A6B     		ldr	r2, [r3, #48]
  65 001e 02F01002 		and	r2, r2, #16
  66 0022 0092     		str	r2, [sp]
  67              		.loc 1 1486 3 view .LVU7
  68 0024 009A     		ldr	r2, [sp]
  69              	.LBE4:
  70              		.loc 1 1486 3 view .LVU8
1487:Core/Src/main.c ****   __HAL_RCC_GPIOB_CLK_ENABLE();
  71              		.loc 1 1487 3 view .LVU9
  72              	.LBB5:
  73              		.loc 1 1487 3 view .LVU10
  74              		.loc 1 1487 3 view .LVU11
  75 0026 1A6B     		ldr	r2, [r3, #48]
  76 0028 42F00202 		orr	r2, r2, #2
  77 002c 1A63     		str	r2, [r3, #48]
  78              		.loc 1 1487 3 view .LVU12
  79 002e 1A6B     		ldr	r2, [r3, #48]
  80 0030 02F00202 		and	r2, r2, #2
  81 0034 0192     		str	r2, [sp, #4]
  82              		.loc 1 1487 3 view .LVU13
  83 0036 019A     		ldr	r2, [sp, #4]
  84              	.LBE5:
  85              		.loc 1 1487 3 view .LVU14
1488:Core/Src/main.c ****   __HAL_RCC_GPIOG_CLK_ENABLE();
  86              		.loc 1 1488 3 view .LVU15
  87              	.LBB6:
  88              		.loc 1 1488 3 view .LVU16
  89              		.loc 1 1488 3 view .LVU17
  90 0038 1A6B     		ldr	r2, [r3, #48]
  91 003a 42F04002 		orr	r2, r2, #64
  92 003e 1A63     		str	r2, [r3, #48]
  93              		.loc 1 1488 3 view .LVU18
  94 0040 1A6B     		ldr	r2, [r3, #48]
  95 0042 02F04002 		and	r2, r2, #64
  96 0046 0292     		str	r2, [sp, #8]
  97              		.loc 1 1488 3 view .LVU19
  98 0048 029A     		ldr	r2, [sp, #8]
  99              	.LBE6:
 100              		.loc 1 1488 3 view .LVU20
1489:Core/Src/main.c ****   __HAL_RCC_GPIOD_CLK_ENABLE();
 101              		.loc 1 1489 3 view .LVU21
 102              	.LBB7:
 103              		.loc 1 1489 3 view .LVU22
 104              		.loc 1 1489 3 view .LVU23
 105 004a 1A6B     		ldr	r2, [r3, #48]
 106 004c 42F00802 		orr	r2, r2, #8
 107 0050 1A63     		str	r2, [r3, #48]
 108              		.loc 1 1489 3 view .LVU24
ARM GAS  C:\Users\benny\AppData\Local\Temp\ccjrekJt.s 			page 29


 109 0052 1A6B     		ldr	r2, [r3, #48]
 110 0054 02F00802 		and	r2, r2, #8
 111 0058 0392     		str	r2, [sp, #12]
 112              		.loc 1 1489 3 view .LVU25
 113 005a 039A     		ldr	r2, [sp, #12]
 114              	.LBE7:
 115              		.loc 1 1489 3 view .LVU26
1490:Core/Src/main.c ****   __HAL_RCC_GPIOC_CLK_ENABLE();
 116              		.loc 1 1490 3 view .LVU27
 117              	.LBB8:
 118              		.loc 1 1490 3 view .LVU28
 119              		.loc 1 1490 3 view .LVU29
 120 005c 1A6B     		ldr	r2, [r3, #48]
 121 005e 42F00402 		orr	r2, r2, #4
 122 0062 1A63     		str	r2, [r3, #48]
 123              		.loc 1 1490 3 view .LVU30
 124 0064 1A6B     		ldr	r2, [r3, #48]
 125 0066 02F00402 		and	r2, r2, #4
 126 006a 0492     		str	r2, [sp, #16]
 127              		.loc 1 1490 3 view .LVU31
 128 006c 049A     		ldr	r2, [sp, #16]
 129              	.LBE8:
 130              		.loc 1 1490 3 view .LVU32
1491:Core/Src/main.c ****   __HAL_RCC_GPIOA_CLK_ENABLE();
 131              		.loc 1 1491 3 view .LVU33
 132              	.LBB9:
 133              		.loc 1 1491 3 view .LVU34
 134              		.loc 1 1491 3 view .LVU35
 135 006e 1A6B     		ldr	r2, [r3, #48]
 136 0070 42F00102 		orr	r2, r2, #1
 137 0074 1A63     		str	r2, [r3, #48]
 138              		.loc 1 1491 3 view .LVU36
 139 0076 1A6B     		ldr	r2, [r3, #48]
 140 0078 02F00102 		and	r2, r2, #1
 141 007c 0592     		str	r2, [sp, #20]
 142              		.loc 1 1491 3 view .LVU37
 143 007e 059A     		ldr	r2, [sp, #20]
 144              	.LBE9:
 145              		.loc 1 1491 3 view .LVU38
1492:Core/Src/main.c ****   __HAL_RCC_GPIOI_CLK_ENABLE();
 146              		.loc 1 1492 3 view .LVU39
 147              	.LBB10:
 148              		.loc 1 1492 3 view .LVU40
 149              		.loc 1 1492 3 view .LVU41
 150 0080 1A6B     		ldr	r2, [r3, #48]
 151 0082 42F48072 		orr	r2, r2, #256
 152 0086 1A63     		str	r2, [r3, #48]
 153              		.loc 1 1492 3 view .LVU42
 154 0088 1A6B     		ldr	r2, [r3, #48]
 155 008a 02F48072 		and	r2, r2, #256
 156 008e 0692     		str	r2, [sp, #24]
 157              		.loc 1 1492 3 view .LVU43
 158 0090 069A     		ldr	r2, [sp, #24]
 159              	.LBE10:
 160              		.loc 1 1492 3 view .LVU44
1493:Core/Src/main.c ****   __HAL_RCC_GPIOH_CLK_ENABLE();
 161              		.loc 1 1493 3 view .LVU45
ARM GAS  C:\Users\benny\AppData\Local\Temp\ccjrekJt.s 			page 30


 162              	.LBB11:
 163              		.loc 1 1493 3 view .LVU46
 164              		.loc 1 1493 3 view .LVU47
 165 0092 1A6B     		ldr	r2, [r3, #48]
 166 0094 42F08002 		orr	r2, r2, #128
 167 0098 1A63     		str	r2, [r3, #48]
 168              		.loc 1 1493 3 view .LVU48
 169 009a 1A6B     		ldr	r2, [r3, #48]
 170 009c 02F08002 		and	r2, r2, #128
 171 00a0 0792     		str	r2, [sp, #28]
 172              		.loc 1 1493 3 view .LVU49
 173 00a2 079A     		ldr	r2, [sp, #28]
 174              	.LBE11:
 175              		.loc 1 1493 3 view .LVU50
1494:Core/Src/main.c ****   __HAL_RCC_GPIOF_CLK_ENABLE();
 176              		.loc 1 1494 3 view .LVU51
 177              	.LBB12:
 178              		.loc 1 1494 3 view .LVU52
 179              		.loc 1 1494 3 view .LVU53
 180 00a4 1A6B     		ldr	r2, [r3, #48]
 181 00a6 42F02002 		orr	r2, r2, #32
 182 00aa 1A63     		str	r2, [r3, #48]
 183              		.loc 1 1494 3 view .LVU54
 184 00ac 1B6B     		ldr	r3, [r3, #48]
 185 00ae 03F02003 		and	r3, r3, #32
 186 00b2 0893     		str	r3, [sp, #32]
 187              		.loc 1 1494 3 view .LVU55
 188 00b4 089B     		ldr	r3, [sp, #32]
 189              	.LBE12:
 190              		.loc 1 1494 3 view .LVU56
1495:Core/Src/main.c **** 
1496:Core/Src/main.c ****   /*Configure GPIO pin Output Level */
1497:Core/Src/main.c ****   HAL_GPIO_WritePin(GPIOE, ARD_D7_GPIO_Pin|GPIO_PIN_4, GPIO_PIN_RESET);
 191              		.loc 1 1497 3 view .LVU57
 192 00b6 654E     		ldr	r6, .L3+4
 193 00b8 2246     		mov	r2, r4
 194 00ba 1821     		movs	r1, #24
 195 00bc 3046     		mov	r0, r6
 196 00be FFF7FEFF 		bl	HAL_GPIO_WritePin
 197              	.LVL0:
1498:Core/Src/main.c **** 
1499:Core/Src/main.c ****   /*Configure GPIO pin Output Level */
1500:Core/Src/main.c ****   HAL_GPIO_WritePin(GPIOG, WIFI_RST_Pin|WIFI_GPIO_0_Pin|PMOD_GPIO_0_Pin|USB_OTGFS_PPWR_EN_Pin, GPIO
 198              		.loc 1 1500 3 view .LVU58
 199 00c2 DFF89CB1 		ldr	fp, .L3+24
 200 00c6 2246     		mov	r2, r4
 201 00c8 4FF4E241 		mov	r1, #28928
 202 00cc 5846     		mov	r0, fp
 203 00ce FFF7FEFF 		bl	HAL_GPIO_WritePin
 204              	.LVL1:
1501:Core/Src/main.c **** 
1502:Core/Src/main.c ****   /*Configure GPIO pin Output Level */
1503:Core/Src/main.c ****   HAL_GPIO_WritePin(GPIOD, WIFI_GPIO_2_Pin|WIFI_CH_PD_Pin, GPIO_PIN_RESET);
 205              		.loc 1 1503 3 view .LVU59
 206 00d2 2246     		mov	r2, r4
 207 00d4 4821     		movs	r1, #72
 208 00d6 5E48     		ldr	r0, .L3+8
ARM GAS  C:\Users\benny\AppData\Local\Temp\ccjrekJt.s 			page 31


 209 00d8 FFF7FEFF 		bl	HAL_GPIO_WritePin
 210              	.LVL2:
1504:Core/Src/main.c **** 
1505:Core/Src/main.c ****   /*Configure GPIO pin Output Level */
1506:Core/Src/main.c ****   HAL_GPIO_WritePin(GPIOC, STMOD_UART4_RXD_s_Pin|ARD_D2_GPIO_Pin, GPIO_PIN_RESET);
 211              		.loc 1 1506 3 view .LVU60
 212 00dc DFF88491 		ldr	r9, .L3+28
 213 00e0 2246     		mov	r2, r4
 214 00e2 4FF40261 		mov	r1, #2080
 215 00e6 4846     		mov	r0, r9
 216 00e8 FFF7FEFF 		bl	HAL_GPIO_WritePin
 217              	.LVL3:
1507:Core/Src/main.c **** 
1508:Core/Src/main.c ****   /*Configure GPIO pin Output Level */
1509:Core/Src/main.c ****   HAL_GPIO_WritePin(GPIOI, PMOD_SPI2_MOSI_Pin|PMOD_SPI2_MISO_Pin|GPIO_PIN_10, GPIO_PIN_RESET);
 218              		.loc 1 1509 3 view .LVU61
 219 00ec DFF878A1 		ldr	r10, .L3+32
 220 00f0 2246     		mov	r2, r4
 221 00f2 40F20C41 		movw	r1, #1036
 222 00f6 5046     		mov	r0, r10
 223 00f8 FFF7FEFF 		bl	HAL_GPIO_WritePin
 224              	.LVL4:
1510:Core/Src/main.c **** 
1511:Core/Src/main.c ****   /*Configure GPIO pin Output Level */
1512:Core/Src/main.c ****   HAL_GPIO_WritePin(PMOD_SEL_0_GPIO_Port, PMOD_SEL_0_Pin, GPIO_PIN_SET);
 225              		.loc 1 1512 3 view .LVU62
 226 00fc 554F     		ldr	r7, .L3+12
 227 00fe 0122     		movs	r2, #1
 228 0100 4FF40041 		mov	r1, #32768
 229 0104 3846     		mov	r0, r7
 230 0106 FFF7FEFF 		bl	HAL_GPIO_WritePin
 231              	.LVL5:
1513:Core/Src/main.c **** 
1514:Core/Src/main.c ****   /*Configure GPIO pin Output Level */
1515:Core/Src/main.c ****   HAL_GPIO_WritePin(GPIOA, USB_OTG_FS_ID_Pin|SYS_LD_USER1_Pin, GPIO_PIN_RESET);
 232              		.loc 1 1515 3 view .LVU63
 233 010a 2246     		mov	r2, r4
 234 010c 4FF49061 		mov	r1, #1152
 235 0110 5148     		ldr	r0, .L3+16
 236 0112 FFF7FEFF 		bl	HAL_GPIO_WritePin
 237              	.LVL6:
1516:Core/Src/main.c **** 
1517:Core/Src/main.c ****   /*Configure GPIO pin Output Level */
1518:Core/Src/main.c ****   HAL_GPIO_WritePin(GPIOH, PMOD_GPIO_1_Pin|ARD_D4_GPIO_Pin|USB_OTGHS_PPWR_EN_Pin|CTP_RST_Pin
 238              		.loc 1 1518 3 view .LVU64
 239 0116 2246     		mov	r2, r4
 240 0118 41F28C21 		movw	r1, #4748
 241 011c 3846     		mov	r0, r7
 242 011e FFF7FEFF 		bl	HAL_GPIO_WritePin
 243              	.LVL7:
1519:Core/Src/main.c ****                           |LCD_RST_Pin, GPIO_PIN_RESET);
1520:Core/Src/main.c **** 
1521:Core/Src/main.c ****   /*Configure GPIO pin Output Level */
1522:Core/Src/main.c ****   HAL_GPIO_WritePin(GPIOB, USB_OTG_HS_ID_Pin|SYS_LD_USER2_Pin, GPIO_PIN_RESET);
 244              		.loc 1 1522 3 view .LVU65
 245 0122 DFF84881 		ldr	r8, .L3+36
 246 0126 2246     		mov	r2, r4
ARM GAS  C:\Users\benny\AppData\Local\Temp\ccjrekJt.s 			page 32


 247 0128 41F20201 		movw	r1, #4098
 248 012c 4046     		mov	r0, r8
 249 012e FFF7FEFF 		bl	HAL_GPIO_WritePin
 250              	.LVL8:
1523:Core/Src/main.c **** 
1524:Core/Src/main.c ****   /*Configure GPIO pins : ARD_D7_GPIO_Pin PE4 */
1525:Core/Src/main.c ****   GPIO_InitStruct.Pin = ARD_D7_GPIO_Pin|GPIO_PIN_4;
 251              		.loc 1 1525 3 view .LVU66
 252              		.loc 1 1525 23 is_stmt 0 view .LVU67
 253 0132 1823     		movs	r3, #24
 254 0134 0993     		str	r3, [sp, #36]
1526:Core/Src/main.c ****   GPIO_InitStruct.Mode = GPIO_MODE_OUTPUT_PP;
 255              		.loc 1 1526 3 is_stmt 1 view .LVU68
 256              		.loc 1 1526 24 is_stmt 0 view .LVU69
 257 0136 0125     		movs	r5, #1
 258 0138 0A95     		str	r5, [sp, #40]
1527:Core/Src/main.c ****   GPIO_InitStruct.Pull = GPIO_NOPULL;
 259              		.loc 1 1527 3 is_stmt 1 view .LVU70
 260              		.loc 1 1527 24 is_stmt 0 view .LVU71
 261 013a 0B94     		str	r4, [sp, #44]
1528:Core/Src/main.c ****   GPIO_InitStruct.Speed = GPIO_SPEED_FREQ_LOW;
 262              		.loc 1 1528 3 is_stmt 1 view .LVU72
 263              		.loc 1 1528 25 is_stmt 0 view .LVU73
 264 013c 0C94     		str	r4, [sp, #48]
1529:Core/Src/main.c ****   HAL_GPIO_Init(GPIOE, &GPIO_InitStruct);
 265              		.loc 1 1529 3 is_stmt 1 view .LVU74
 266 013e 09A9     		add	r1, sp, #36
 267 0140 3046     		mov	r0, r6
 268 0142 FFF7FEFF 		bl	HAL_GPIO_Init
 269              	.LVL9:
1530:Core/Src/main.c **** 
1531:Core/Src/main.c ****   /*Configure GPIO pins : WIFI_RST_Pin WIFI_GPIO_0_Pin PMOD_GPIO_0_Pin USB_OTGFS_PPWR_EN_Pin */
1532:Core/Src/main.c ****   GPIO_InitStruct.Pin = WIFI_RST_Pin|WIFI_GPIO_0_Pin|PMOD_GPIO_0_Pin|USB_OTGFS_PPWR_EN_Pin;
 270              		.loc 1 1532 3 view .LVU75
 271              		.loc 1 1532 23 is_stmt 0 view .LVU76
 272 0146 4FF4E243 		mov	r3, #28928
 273 014a 0993     		str	r3, [sp, #36]
1533:Core/Src/main.c ****   GPIO_InitStruct.Mode = GPIO_MODE_OUTPUT_PP;
 274              		.loc 1 1533 3 is_stmt 1 view .LVU77
 275              		.loc 1 1533 24 is_stmt 0 view .LVU78
 276 014c 0A95     		str	r5, [sp, #40]
1534:Core/Src/main.c ****   GPIO_InitStruct.Pull = GPIO_NOPULL;
 277              		.loc 1 1534 3 is_stmt 1 view .LVU79
 278              		.loc 1 1534 24 is_stmt 0 view .LVU80
 279 014e 0B94     		str	r4, [sp, #44]
1535:Core/Src/main.c ****   GPIO_InitStruct.Speed = GPIO_SPEED_FREQ_LOW;
 280              		.loc 1 1535 3 is_stmt 1 view .LVU81
 281              		.loc 1 1535 25 is_stmt 0 view .LVU82
 282 0150 0C94     		str	r4, [sp, #48]
1536:Core/Src/main.c ****   HAL_GPIO_Init(GPIOG, &GPIO_InitStruct);
 283              		.loc 1 1536 3 is_stmt 1 view .LVU83
 284 0152 09A9     		add	r1, sp, #36
 285 0154 5846     		mov	r0, fp
 286 0156 FFF7FEFF 		bl	HAL_GPIO_Init
 287              	.LVL10:
1537:Core/Src/main.c **** 
1538:Core/Src/main.c ****   /*Configure GPIO pin : SAI2_INT_Pin */
ARM GAS  C:\Users\benny\AppData\Local\Temp\ccjrekJt.s 			page 33


1539:Core/Src/main.c ****   GPIO_InitStruct.Pin = SAI2_INT_Pin;
 288              		.loc 1 1539 3 view .LVU84
 289              		.loc 1 1539 23 is_stmt 0 view .LVU85
 290 015a 4FF40043 		mov	r3, #32768
 291 015e 0993     		str	r3, [sp, #36]
1540:Core/Src/main.c ****   GPIO_InitStruct.Mode = GPIO_MODE_IT_RISING;
 292              		.loc 1 1540 3 is_stmt 1 view .LVU86
 293              		.loc 1 1540 24 is_stmt 0 view .LVU87
 294 0160 4FF48816 		mov	r6, #1114112
 295 0164 0A96     		str	r6, [sp, #40]
1541:Core/Src/main.c ****   GPIO_InitStruct.Pull = GPIO_NOPULL;
 296              		.loc 1 1541 3 is_stmt 1 view .LVU88
 297              		.loc 1 1541 24 is_stmt 0 view .LVU89
 298 0166 0B94     		str	r4, [sp, #44]
1542:Core/Src/main.c ****   HAL_GPIO_Init(SAI2_INT_GPIO_Port, &GPIO_InitStruct);
 299              		.loc 1 1542 3 is_stmt 1 view .LVU90
 300 0168 09A9     		add	r1, sp, #36
 301 016a 5846     		mov	r0, fp
 302 016c FFF7FEFF 		bl	HAL_GPIO_Init
 303              	.LVL11:
1543:Core/Src/main.c **** 
1544:Core/Src/main.c ****   /*Configure GPIO pins : WIFI_GPIO_2_Pin WIFI_CH_PD_Pin */
1545:Core/Src/main.c ****   GPIO_InitStruct.Pin = WIFI_GPIO_2_Pin|WIFI_CH_PD_Pin;
 304              		.loc 1 1545 3 view .LVU91
 305              		.loc 1 1545 23 is_stmt 0 view .LVU92
 306 0170 4823     		movs	r3, #72
 307 0172 0993     		str	r3, [sp, #36]
1546:Core/Src/main.c ****   GPIO_InitStruct.Mode = GPIO_MODE_OUTPUT_PP;
 308              		.loc 1 1546 3 is_stmt 1 view .LVU93
 309              		.loc 1 1546 24 is_stmt 0 view .LVU94
 310 0174 0A95     		str	r5, [sp, #40]
1547:Core/Src/main.c ****   GPIO_InitStruct.Pull = GPIO_NOPULL;
 311              		.loc 1 1547 3 is_stmt 1 view .LVU95
 312              		.loc 1 1547 24 is_stmt 0 view .LVU96
 313 0176 0B94     		str	r4, [sp, #44]
1548:Core/Src/main.c ****   GPIO_InitStruct.Speed = GPIO_SPEED_FREQ_LOW;
 314              		.loc 1 1548 3 is_stmt 1 view .LVU97
 315              		.loc 1 1548 25 is_stmt 0 view .LVU98
 316 0178 0C94     		str	r4, [sp, #48]
1549:Core/Src/main.c ****   HAL_GPIO_Init(GPIOD, &GPIO_InitStruct);
 317              		.loc 1 1549 3 is_stmt 1 view .LVU99
 318 017a 09A9     		add	r1, sp, #36
 319 017c 3448     		ldr	r0, .L3+8
 320 017e FFF7FEFF 		bl	HAL_GPIO_Init
 321              	.LVL12:
1550:Core/Src/main.c **** 
1551:Core/Src/main.c ****   /*Configure GPIO pins : STMOD_UART4_RXD_s_Pin ARD_D2_GPIO_Pin */
1552:Core/Src/main.c ****   GPIO_InitStruct.Pin = STMOD_UART4_RXD_s_Pin|ARD_D2_GPIO_Pin;
 322              		.loc 1 1552 3 view .LVU100
 323              		.loc 1 1552 23 is_stmt 0 view .LVU101
 324 0182 4FF40263 		mov	r3, #2080
 325 0186 0993     		str	r3, [sp, #36]
1553:Core/Src/main.c ****   GPIO_InitStruct.Mode = GPIO_MODE_OUTPUT_PP;
 326              		.loc 1 1553 3 is_stmt 1 view .LVU102
 327              		.loc 1 1553 24 is_stmt 0 view .LVU103
 328 0188 0A95     		str	r5, [sp, #40]
1554:Core/Src/main.c ****   GPIO_InitStruct.Pull = GPIO_NOPULL;
ARM GAS  C:\Users\benny\AppData\Local\Temp\ccjrekJt.s 			page 34


 329              		.loc 1 1554 3 is_stmt 1 view .LVU104
 330              		.loc 1 1554 24 is_stmt 0 view .LVU105
 331 018a 0B94     		str	r4, [sp, #44]
1555:Core/Src/main.c ****   GPIO_InitStruct.Speed = GPIO_SPEED_FREQ_LOW;
 332              		.loc 1 1555 3 is_stmt 1 view .LVU106
 333              		.loc 1 1555 25 is_stmt 0 view .LVU107
 334 018c 0C94     		str	r4, [sp, #48]
1556:Core/Src/main.c ****   HAL_GPIO_Init(GPIOC, &GPIO_InitStruct);
 335              		.loc 1 1556 3 is_stmt 1 view .LVU108
 336 018e 09A9     		add	r1, sp, #36
 337 0190 4846     		mov	r0, r9
 338 0192 FFF7FEFF 		bl	HAL_GPIO_Init
 339              	.LVL13:
1557:Core/Src/main.c **** 
1558:Core/Src/main.c ****   /*Configure GPIO pins : PMOD_SPI2_MOSI_Pin PMOD_SPI2_MISO_Pin PI10 */
1559:Core/Src/main.c ****   GPIO_InitStruct.Pin = PMOD_SPI2_MOSI_Pin|PMOD_SPI2_MISO_Pin|GPIO_PIN_10;
 340              		.loc 1 1559 3 view .LVU109
 341              		.loc 1 1559 23 is_stmt 0 view .LVU110
 342 0196 40F20C43 		movw	r3, #1036
 343 019a 0993     		str	r3, [sp, #36]
1560:Core/Src/main.c ****   GPIO_InitStruct.Mode = GPIO_MODE_OUTPUT_PP;
 344              		.loc 1 1560 3 is_stmt 1 view .LVU111
 345              		.loc 1 1560 24 is_stmt 0 view .LVU112
 346 019c 0A95     		str	r5, [sp, #40]
1561:Core/Src/main.c ****   GPIO_InitStruct.Pull = GPIO_NOPULL;
 347              		.loc 1 1561 3 is_stmt 1 view .LVU113
 348              		.loc 1 1561 24 is_stmt 0 view .LVU114
 349 019e 0B94     		str	r4, [sp, #44]
1562:Core/Src/main.c ****   GPIO_InitStruct.Speed = GPIO_SPEED_FREQ_LOW;
 350              		.loc 1 1562 3 is_stmt 1 view .LVU115
 351              		.loc 1 1562 25 is_stmt 0 view .LVU116
 352 01a0 0C94     		str	r4, [sp, #48]
1563:Core/Src/main.c ****   HAL_GPIO_Init(GPIOI, &GPIO_InitStruct);
 353              		.loc 1 1563 3 is_stmt 1 view .LVU117
 354 01a2 09A9     		add	r1, sp, #36
 355 01a4 5046     		mov	r0, r10
 356 01a6 FFF7FEFF 		bl	HAL_GPIO_Init
 357              	.LVL14:
1564:Core/Src/main.c **** 
1565:Core/Src/main.c ****   /*Configure GPIO pin : CTP_INT_Pin */
1566:Core/Src/main.c ****   GPIO_InitStruct.Pin = CTP_INT_Pin;
 358              		.loc 1 1566 3 view .LVU118
 359              		.loc 1 1566 23 is_stmt 0 view .LVU119
 360 01aa 4FF40073 		mov	r3, #512
 361 01ae 0993     		str	r3, [sp, #36]
1567:Core/Src/main.c ****   GPIO_InitStruct.Mode = GPIO_MODE_IT_RISING;
 362              		.loc 1 1567 3 is_stmt 1 view .LVU120
 363              		.loc 1 1567 24 is_stmt 0 view .LVU121
 364 01b0 0A96     		str	r6, [sp, #40]
1568:Core/Src/main.c ****   GPIO_InitStruct.Pull = GPIO_NOPULL;
 365              		.loc 1 1568 3 is_stmt 1 view .LVU122
 366              		.loc 1 1568 24 is_stmt 0 view .LVU123
 367 01b2 0B94     		str	r4, [sp, #44]
1569:Core/Src/main.c ****   HAL_GPIO_Init(CTP_INT_GPIO_Port, &GPIO_InitStruct);
 368              		.loc 1 1569 3 is_stmt 1 view .LVU124
 369 01b4 09A9     		add	r1, sp, #36
 370 01b6 5046     		mov	r0, r10
ARM GAS  C:\Users\benny\AppData\Local\Temp\ccjrekJt.s 			page 35


 371 01b8 FFF7FEFF 		bl	HAL_GPIO_Init
 372              	.LVL15:
1570:Core/Src/main.c **** 
1571:Core/Src/main.c ****   /*Configure GPIO pins : PMOD_SEL_0_Pin PMOD_GPIO_1_Pin ARD_D4_GPIO_Pin USB_OTGHS_PPWR_EN_Pin
1572:Core/Src/main.c ****                            CTP_RST_Pin LCD_RST_Pin */
1573:Core/Src/main.c ****   GPIO_InitStruct.Pin = PMOD_SEL_0_Pin|PMOD_GPIO_1_Pin|ARD_D4_GPIO_Pin|USB_OTGHS_PPWR_EN_Pin
 373              		.loc 1 1573 3 view .LVU125
 374              		.loc 1 1573 23 is_stmt 0 view .LVU126
 375 01bc 49F28C23 		movw	r3, #37516
 376 01c0 0993     		str	r3, [sp, #36]
1574:Core/Src/main.c ****                           |CTP_RST_Pin|LCD_RST_Pin;
1575:Core/Src/main.c ****   GPIO_InitStruct.Mode = GPIO_MODE_OUTPUT_PP;
 377              		.loc 1 1575 3 is_stmt 1 view .LVU127
 378              		.loc 1 1575 24 is_stmt 0 view .LVU128
 379 01c2 0A95     		str	r5, [sp, #40]
1576:Core/Src/main.c ****   GPIO_InitStruct.Pull = GPIO_NOPULL;
 380              		.loc 1 1576 3 is_stmt 1 view .LVU129
 381              		.loc 1 1576 24 is_stmt 0 view .LVU130
 382 01c4 0B94     		str	r4, [sp, #44]
1577:Core/Src/main.c ****   GPIO_InitStruct.Speed = GPIO_SPEED_FREQ_LOW;
 383              		.loc 1 1577 3 is_stmt 1 view .LVU131
 384              		.loc 1 1577 25 is_stmt 0 view .LVU132
 385 01c6 0C94     		str	r4, [sp, #48]
1578:Core/Src/main.c ****   HAL_GPIO_Init(GPIOH, &GPIO_InitStruct);
 386              		.loc 1 1578 3 is_stmt 1 view .LVU133
 387 01c8 09A9     		add	r1, sp, #36
 388 01ca 3846     		mov	r0, r7
 389 01cc FFF7FEFF 		bl	HAL_GPIO_Init
 390              	.LVL16:
1579:Core/Src/main.c **** 
1580:Core/Src/main.c ****   /*Configure GPIO pins : USB_OTG_FS_ID_Pin SYS_LD_USER1_Pin */
1581:Core/Src/main.c ****   GPIO_InitStruct.Pin = USB_OTG_FS_ID_Pin|SYS_LD_USER1_Pin;
 391              		.loc 1 1581 3 view .LVU134
 392              		.loc 1 1581 23 is_stmt 0 view .LVU135
 393 01d0 4FF49063 		mov	r3, #1152
 394 01d4 0993     		str	r3, [sp, #36]
1582:Core/Src/main.c ****   GPIO_InitStruct.Mode = GPIO_MODE_OUTPUT_PP;
 395              		.loc 1 1582 3 is_stmt 1 view .LVU136
 396              		.loc 1 1582 24 is_stmt 0 view .LVU137
 397 01d6 0A95     		str	r5, [sp, #40]
1583:Core/Src/main.c ****   GPIO_InitStruct.Pull = GPIO_NOPULL;
 398              		.loc 1 1583 3 is_stmt 1 view .LVU138
 399              		.loc 1 1583 24 is_stmt 0 view .LVU139
 400 01d8 0B94     		str	r4, [sp, #44]
1584:Core/Src/main.c ****   GPIO_InitStruct.Speed = GPIO_SPEED_FREQ_LOW;
 401              		.loc 1 1584 3 is_stmt 1 view .LVU140
 402              		.loc 1 1584 25 is_stmt 0 view .LVU141
 403 01da 0C94     		str	r4, [sp, #48]
1585:Core/Src/main.c ****   HAL_GPIO_Init(GPIOA, &GPIO_InitStruct);
 404              		.loc 1 1585 3 is_stmt 1 view .LVU142
 405 01dc 09A9     		add	r1, sp, #36
 406 01de 1E48     		ldr	r0, .L3+16
 407 01e0 FFF7FEFF 		bl	HAL_GPIO_Init
 408              	.LVL17:
1586:Core/Src/main.c **** 
1587:Core/Src/main.c ****   /*Configure GPIO pin : LCD_TE_INT_Pin */
1588:Core/Src/main.c ****   GPIO_InitStruct.Pin = LCD_TE_INT_Pin;
ARM GAS  C:\Users\benny\AppData\Local\Temp\ccjrekJt.s 			page 36


 409              		.loc 1 1588 3 view .LVU143
 410              		.loc 1 1588 23 is_stmt 0 view .LVU144
 411 01e4 4FF48073 		mov	r3, #256
 412 01e8 0993     		str	r3, [sp, #36]
1589:Core/Src/main.c ****   GPIO_InitStruct.Mode = GPIO_MODE_IT_RISING;
 413              		.loc 1 1589 3 is_stmt 1 view .LVU145
 414              		.loc 1 1589 24 is_stmt 0 view .LVU146
 415 01ea 0A96     		str	r6, [sp, #40]
1590:Core/Src/main.c ****   GPIO_InitStruct.Pull = GPIO_NOPULL;
 416              		.loc 1 1590 3 is_stmt 1 view .LVU147
 417              		.loc 1 1590 24 is_stmt 0 view .LVU148
 418 01ec 0B94     		str	r4, [sp, #44]
1591:Core/Src/main.c ****   HAL_GPIO_Init(LCD_TE_INT_GPIO_Port, &GPIO_InitStruct);
 419              		.loc 1 1591 3 is_stmt 1 view .LVU149
 420 01ee 09A9     		add	r1, sp, #36
 421 01f0 4846     		mov	r0, r9
 422 01f2 FFF7FEFF 		bl	HAL_GPIO_Init
 423              	.LVL18:
1592:Core/Src/main.c **** 
1593:Core/Src/main.c ****   /*Configure GPIO pin : USB_OTGHS_OVCR_INT_Pin */
1594:Core/Src/main.c ****   GPIO_InitStruct.Pin = USB_OTGHS_OVCR_INT_Pin;
 424              		.loc 1 1594 3 view .LVU150
 425              		.loc 1 1594 23 is_stmt 0 view .LVU151
 426 01f6 4FF48063 		mov	r3, #1024
 427 01fa 0993     		str	r3, [sp, #36]
1595:Core/Src/main.c ****   GPIO_InitStruct.Mode = GPIO_MODE_INPUT;
 428              		.loc 1 1595 3 is_stmt 1 view .LVU152
 429              		.loc 1 1595 24 is_stmt 0 view .LVU153
 430 01fc 0A94     		str	r4, [sp, #40]
1596:Core/Src/main.c ****   GPIO_InitStruct.Pull = GPIO_NOPULL;
 431              		.loc 1 1596 3 is_stmt 1 view .LVU154
 432              		.loc 1 1596 24 is_stmt 0 view .LVU155
 433 01fe 0B94     		str	r4, [sp, #44]
1597:Core/Src/main.c ****   HAL_GPIO_Init(USB_OTGHS_OVCR_INT_GPIO_Port, &GPIO_InitStruct);
 434              		.loc 1 1597 3 is_stmt 1 view .LVU156
 435 0200 09A9     		add	r1, sp, #36
 436 0202 3846     		mov	r0, r7
 437 0204 FFF7FEFF 		bl	HAL_GPIO_Init
 438              	.LVL19:
1598:Core/Src/main.c **** 
1599:Core/Src/main.c ****   /*Configure GPIO pins : USB_OTG_HS_ID_Pin SYS_LD_USER2_Pin */
1600:Core/Src/main.c ****   GPIO_InitStruct.Pin = USB_OTG_HS_ID_Pin|SYS_LD_USER2_Pin;
 439              		.loc 1 1600 3 view .LVU157
 440              		.loc 1 1600 23 is_stmt 0 view .LVU158
 441 0208 41F20203 		movw	r3, #4098
 442 020c 0993     		str	r3, [sp, #36]
1601:Core/Src/main.c ****   GPIO_InitStruct.Mode = GPIO_MODE_OUTPUT_PP;
 443              		.loc 1 1601 3 is_stmt 1 view .LVU159
 444              		.loc 1 1601 24 is_stmt 0 view .LVU160
 445 020e 0A95     		str	r5, [sp, #40]
1602:Core/Src/main.c ****   GPIO_InitStruct.Pull = GPIO_NOPULL;
 446              		.loc 1 1602 3 is_stmt 1 view .LVU161
 447              		.loc 1 1602 24 is_stmt 0 view .LVU162
 448 0210 0B94     		str	r4, [sp, #44]
1603:Core/Src/main.c ****   GPIO_InitStruct.Speed = GPIO_SPEED_FREQ_LOW;
 449              		.loc 1 1603 3 is_stmt 1 view .LVU163
 450              		.loc 1 1603 25 is_stmt 0 view .LVU164
ARM GAS  C:\Users\benny\AppData\Local\Temp\ccjrekJt.s 			page 37


 451 0212 0C94     		str	r4, [sp, #48]
1604:Core/Src/main.c ****   HAL_GPIO_Init(GPIOB, &GPIO_InitStruct);
 452              		.loc 1 1604 3 is_stmt 1 view .LVU165
 453 0214 09A9     		add	r1, sp, #36
 454 0216 4046     		mov	r0, r8
 455 0218 FFF7FEFF 		bl	HAL_GPIO_Init
 456              	.LVL20:
1605:Core/Src/main.c **** 
1606:Core/Src/main.c ****   /*Configure GPIO pins : USB_OTG_HS_VBUS_Pin USB_OTGFS_OVCR_INT_Pin PMOD_INT_Pin */
1607:Core/Src/main.c ****   GPIO_InitStruct.Pin = USB_OTG_HS_VBUS_Pin|USB_OTGFS_OVCR_INT_Pin|PMOD_INT_Pin;
 457              		.loc 1 1607 3 view .LVU166
 458              		.loc 1 1607 23 is_stmt 0 view .LVU167
 459 021c 4FF43053 		mov	r3, #11264
 460 0220 0993     		str	r3, [sp, #36]
1608:Core/Src/main.c ****   GPIO_InitStruct.Mode = GPIO_MODE_IT_RISING;
 461              		.loc 1 1608 3 is_stmt 1 view .LVU168
 462              		.loc 1 1608 24 is_stmt 0 view .LVU169
 463 0222 0A96     		str	r6, [sp, #40]
1609:Core/Src/main.c ****   GPIO_InitStruct.Pull = GPIO_NOPULL;
 464              		.loc 1 1609 3 is_stmt 1 view .LVU170
 465              		.loc 1 1609 24 is_stmt 0 view .LVU171
 466 0224 0B94     		str	r4, [sp, #44]
1610:Core/Src/main.c ****   HAL_GPIO_Init(GPIOB, &GPIO_InitStruct);
 467              		.loc 1 1610 3 is_stmt 1 view .LVU172
 468 0226 09A9     		add	r1, sp, #36
 469 0228 4046     		mov	r0, r8
 470 022a FFF7FEFF 		bl	HAL_GPIO_Init
 471              	.LVL21:
1611:Core/Src/main.c **** 
1612:Core/Src/main.c ****   /*Configure GPIO pin : PMOD_RESET_Pin */
1613:Core/Src/main.c ****   GPIO_InitStruct.Pin = PMOD_RESET_Pin;
 472              		.loc 1 1613 3 view .LVU173
 473              		.loc 1 1613 23 is_stmt 0 view .LVU174
 474 022e 4FF40063 		mov	r3, #2048
 475 0232 0993     		str	r3, [sp, #36]
1614:Core/Src/main.c ****   GPIO_InitStruct.Mode = GPIO_MODE_INPUT;
 476              		.loc 1 1614 3 is_stmt 1 view .LVU175
 477              		.loc 1 1614 24 is_stmt 0 view .LVU176
 478 0234 0A94     		str	r4, [sp, #40]
1615:Core/Src/main.c ****   GPIO_InitStruct.Pull = GPIO_NOPULL;
 479              		.loc 1 1615 3 is_stmt 1 view .LVU177
 480              		.loc 1 1615 24 is_stmt 0 view .LVU178
 481 0236 0B94     		str	r4, [sp, #44]
1616:Core/Src/main.c ****   HAL_GPIO_Init(PMOD_RESET_GPIO_Port, &GPIO_InitStruct);
 482              		.loc 1 1616 3 is_stmt 1 view .LVU179
 483 0238 09A9     		add	r1, sp, #36
 484 023a 0848     		ldr	r0, .L3+20
 485 023c FFF7FEFF 		bl	HAL_GPIO_Init
 486              	.LVL22:
1617:Core/Src/main.c **** 
1618:Core/Src/main.c **** /* USER CODE BEGIN MX_GPIO_Init_2 */
1619:Core/Src/main.c **** /* USER CODE END MX_GPIO_Init_2 */
1620:Core/Src/main.c **** }
 487              		.loc 1 1620 1 is_stmt 0 view .LVU180
 488 0240 0FB0     		add	sp, sp, #60
 489              	.LCFI2:
 490              		.cfi_def_cfa_offset 36
ARM GAS  C:\Users\benny\AppData\Local\Temp\ccjrekJt.s 			page 38


 491              		@ sp needed
 492 0242 BDE8F08F 		pop	{r4, r5, r6, r7, r8, r9, r10, fp, pc}
 493              	.L4:
 494 0246 00BF     		.align	2
 495              	.L3:
 496 0248 00380240 		.word	1073887232
 497 024c 00100240 		.word	1073876992
 498 0250 000C0240 		.word	1073875968
 499 0254 001C0240 		.word	1073880064
 500 0258 00000240 		.word	1073872896
 501 025c 00140240 		.word	1073878016
 502 0260 00180240 		.word	1073879040
 503 0264 00080240 		.word	1073874944
 504 0268 00200240 		.word	1073881088
 505 026c 00040240 		.word	1073873920
 506              		.cfi_endproc
 507              	.LFE168:
 509              		.section	.text.HAL_TIM_PeriodElapsedCallback,"ax",%progbits
 510              		.align	1
 511              		.global	HAL_TIM_PeriodElapsedCallback
 512              		.syntax unified
 513              		.thumb
 514              		.thumb_func
 516              	HAL_TIM_PeriodElapsedCallback:
 517              	.LVL23:
 518              	.LFB169:
1621:Core/Src/main.c **** 
1622:Core/Src/main.c **** /* USER CODE BEGIN 4 */
1623:Core/Src/main.c **** 
1624:Core/Src/main.c **** /* USER CODE END 4 */
1625:Core/Src/main.c **** 
1626:Core/Src/main.c **** /**
1627:Core/Src/main.c ****   * @brief  Period elapsed callback in non blocking mode
1628:Core/Src/main.c ****   * @note   This function is called  when TIM1 interrupt took place, inside
1629:Core/Src/main.c ****   * HAL_TIM_IRQHandler(). It makes a direct call to HAL_IncTick() to increment
1630:Core/Src/main.c ****   * a global variable "uwTick" used as application time base.
1631:Core/Src/main.c ****   * @param  htim : TIM handle
1632:Core/Src/main.c ****   * @retval None
1633:Core/Src/main.c ****   */
1634:Core/Src/main.c **** void HAL_TIM_PeriodElapsedCallback(TIM_HandleTypeDef *htim)
1635:Core/Src/main.c **** {
 519              		.loc 1 1635 1 is_stmt 1 view -0
 520              		.cfi_startproc
 521              		@ args = 0, pretend = 0, frame = 0
 522              		@ frame_needed = 0, uses_anonymous_args = 0
 523              		.loc 1 1635 1 is_stmt 0 view .LVU182
 524 0000 08B5     		push	{r3, lr}
 525              	.LCFI3:
 526              		.cfi_def_cfa_offset 8
 527              		.cfi_offset 3, -8
 528              		.cfi_offset 14, -4
1636:Core/Src/main.c ****   /* USER CODE BEGIN Callback 0 */
1637:Core/Src/main.c **** 
1638:Core/Src/main.c ****   /* USER CODE END Callback 0 */
1639:Core/Src/main.c ****   if (htim->Instance == TIM1) {
 529              		.loc 1 1639 3 is_stmt 1 view .LVU183
 530              		.loc 1 1639 11 is_stmt 0 view .LVU184
ARM GAS  C:\Users\benny\AppData\Local\Temp\ccjrekJt.s 			page 39


 531 0002 0268     		ldr	r2, [r0]
 532              		.loc 1 1639 6 view .LVU185
 533 0004 034B     		ldr	r3, .L9
 534 0006 9A42     		cmp	r2, r3
 535 0008 00D0     		beq	.L8
 536              	.LVL24:
 537              	.L5:
1640:Core/Src/main.c ****     HAL_IncTick();
1641:Core/Src/main.c ****   }
1642:Core/Src/main.c ****   /* USER CODE BEGIN Callback 1 */
1643:Core/Src/main.c **** 
1644:Core/Src/main.c ****   /* USER CODE END Callback 1 */
1645:Core/Src/main.c **** }
 538              		.loc 1 1645 1 view .LVU186
 539 000a 08BD     		pop	{r3, pc}
 540              	.LVL25:
 541              	.L8:
1640:Core/Src/main.c ****     HAL_IncTick();
 542              		.loc 1 1640 5 is_stmt 1 view .LVU187
 543 000c FFF7FEFF 		bl	HAL_IncTick
 544              	.LVL26:
 545              		.loc 1 1645 1 is_stmt 0 view .LVU188
 546 0010 FBE7     		b	.L5
 547              	.L10:
 548 0012 00BF     		.align	2
 549              	.L9:
 550 0014 00000140 		.word	1073807360
 551              		.cfi_endproc
 552              	.LFE169:
 554              		.section	.text.Error_Handler,"ax",%progbits
 555              		.align	1
 556              		.global	Error_Handler
 557              		.syntax unified
 558              		.thumb
 559              		.thumb_func
 561              	Error_Handler:
 562              	.LFB170:
1646:Core/Src/main.c **** 
1647:Core/Src/main.c **** /**
1648:Core/Src/main.c ****   * @brief  This function is executed in case of error occurrence.
1649:Core/Src/main.c ****   * @retval None
1650:Core/Src/main.c ****   */
1651:Core/Src/main.c **** void Error_Handler(void)
1652:Core/Src/main.c **** {
 563              		.loc 1 1652 1 is_stmt 1 view -0
 564              		.cfi_startproc
 565              		@ Volatile: function does not return.
 566              		@ args = 0, pretend = 0, frame = 0
 567              		@ frame_needed = 0, uses_anonymous_args = 0
 568              		@ link register save eliminated.
1653:Core/Src/main.c ****   /* USER CODE BEGIN Error_Handler_Debug */
1654:Core/Src/main.c ****   /* User can add his own implementation to report the HAL error return state */
1655:Core/Src/main.c ****   __disable_irq();
 569              		.loc 1 1655 3 view .LVU190
 570              	.LBB13:
 571              	.LBI13:
 572              		.file 2 "Drivers/CMSIS/Include/cmsis_gcc.h"
ARM GAS  C:\Users\benny\AppData\Local\Temp\ccjrekJt.s 			page 40


   1:Drivers/CMSIS/Include/cmsis_gcc.h **** /**************************************************************************//**
   2:Drivers/CMSIS/Include/cmsis_gcc.h ****  * @file     cmsis_gcc.h
   3:Drivers/CMSIS/Include/cmsis_gcc.h ****  * @brief    CMSIS compiler GCC header file
   4:Drivers/CMSIS/Include/cmsis_gcc.h ****  * @version  V5.0.4
   5:Drivers/CMSIS/Include/cmsis_gcc.h ****  * @date     09. April 2018
   6:Drivers/CMSIS/Include/cmsis_gcc.h ****  ******************************************************************************/
   7:Drivers/CMSIS/Include/cmsis_gcc.h **** /*
   8:Drivers/CMSIS/Include/cmsis_gcc.h ****  * Copyright (c) 2009-2018 Arm Limited. All rights reserved.
   9:Drivers/CMSIS/Include/cmsis_gcc.h ****  *
  10:Drivers/CMSIS/Include/cmsis_gcc.h ****  * SPDX-License-Identifier: Apache-2.0
  11:Drivers/CMSIS/Include/cmsis_gcc.h ****  *
  12:Drivers/CMSIS/Include/cmsis_gcc.h ****  * Licensed under the Apache License, Version 2.0 (the License); you may
  13:Drivers/CMSIS/Include/cmsis_gcc.h ****  * not use this file except in compliance with the License.
  14:Drivers/CMSIS/Include/cmsis_gcc.h ****  * You may obtain a copy of the License at
  15:Drivers/CMSIS/Include/cmsis_gcc.h ****  *
  16:Drivers/CMSIS/Include/cmsis_gcc.h ****  * www.apache.org/licenses/LICENSE-2.0
  17:Drivers/CMSIS/Include/cmsis_gcc.h ****  *
  18:Drivers/CMSIS/Include/cmsis_gcc.h ****  * Unless required by applicable law or agreed to in writing, software
  19:Drivers/CMSIS/Include/cmsis_gcc.h ****  * distributed under the License is distributed on an AS IS BASIS, WITHOUT
  20:Drivers/CMSIS/Include/cmsis_gcc.h ****  * WARRANTIES OR CONDITIONS OF ANY KIND, either express or implied.
  21:Drivers/CMSIS/Include/cmsis_gcc.h ****  * See the License for the specific language governing permissions and
  22:Drivers/CMSIS/Include/cmsis_gcc.h ****  * limitations under the License.
  23:Drivers/CMSIS/Include/cmsis_gcc.h ****  */
  24:Drivers/CMSIS/Include/cmsis_gcc.h **** 
  25:Drivers/CMSIS/Include/cmsis_gcc.h **** #ifndef __CMSIS_GCC_H
  26:Drivers/CMSIS/Include/cmsis_gcc.h **** #define __CMSIS_GCC_H
  27:Drivers/CMSIS/Include/cmsis_gcc.h **** 
  28:Drivers/CMSIS/Include/cmsis_gcc.h **** /* ignore some GCC warnings */
  29:Drivers/CMSIS/Include/cmsis_gcc.h **** #pragma GCC diagnostic push
  30:Drivers/CMSIS/Include/cmsis_gcc.h **** #pragma GCC diagnostic ignored "-Wsign-conversion"
  31:Drivers/CMSIS/Include/cmsis_gcc.h **** #pragma GCC diagnostic ignored "-Wconversion"
  32:Drivers/CMSIS/Include/cmsis_gcc.h **** #pragma GCC diagnostic ignored "-Wunused-parameter"
  33:Drivers/CMSIS/Include/cmsis_gcc.h **** 
  34:Drivers/CMSIS/Include/cmsis_gcc.h **** /* Fallback for __has_builtin */
  35:Drivers/CMSIS/Include/cmsis_gcc.h **** #ifndef __has_builtin
  36:Drivers/CMSIS/Include/cmsis_gcc.h ****   #define __has_builtin(x) (0)
  37:Drivers/CMSIS/Include/cmsis_gcc.h **** #endif
  38:Drivers/CMSIS/Include/cmsis_gcc.h **** 
  39:Drivers/CMSIS/Include/cmsis_gcc.h **** /* CMSIS compiler specific defines */
  40:Drivers/CMSIS/Include/cmsis_gcc.h **** #ifndef   __ASM
  41:Drivers/CMSIS/Include/cmsis_gcc.h ****   #define __ASM                                  __asm
  42:Drivers/CMSIS/Include/cmsis_gcc.h **** #endif
  43:Drivers/CMSIS/Include/cmsis_gcc.h **** #ifndef   __INLINE
  44:Drivers/CMSIS/Include/cmsis_gcc.h ****   #define __INLINE                               inline
  45:Drivers/CMSIS/Include/cmsis_gcc.h **** #endif
  46:Drivers/CMSIS/Include/cmsis_gcc.h **** #ifndef   __STATIC_INLINE
  47:Drivers/CMSIS/Include/cmsis_gcc.h ****   #define __STATIC_INLINE                        static inline
  48:Drivers/CMSIS/Include/cmsis_gcc.h **** #endif
  49:Drivers/CMSIS/Include/cmsis_gcc.h **** #ifndef   __STATIC_FORCEINLINE                 
  50:Drivers/CMSIS/Include/cmsis_gcc.h ****   #define __STATIC_FORCEINLINE                   __attribute__((always_inline)) static inline
  51:Drivers/CMSIS/Include/cmsis_gcc.h **** #endif                                           
  52:Drivers/CMSIS/Include/cmsis_gcc.h **** #ifndef   __NO_RETURN
  53:Drivers/CMSIS/Include/cmsis_gcc.h ****   #define __NO_RETURN                            __attribute__((__noreturn__))
  54:Drivers/CMSIS/Include/cmsis_gcc.h **** #endif
  55:Drivers/CMSIS/Include/cmsis_gcc.h **** #ifndef   __USED
  56:Drivers/CMSIS/Include/cmsis_gcc.h ****   #define __USED                                 __attribute__((used))
  57:Drivers/CMSIS/Include/cmsis_gcc.h **** #endif
ARM GAS  C:\Users\benny\AppData\Local\Temp\ccjrekJt.s 			page 41


  58:Drivers/CMSIS/Include/cmsis_gcc.h **** #ifndef   __WEAK
  59:Drivers/CMSIS/Include/cmsis_gcc.h ****   #define __WEAK                                 __attribute__((weak))
  60:Drivers/CMSIS/Include/cmsis_gcc.h **** #endif
  61:Drivers/CMSIS/Include/cmsis_gcc.h **** #ifndef   __PACKED
  62:Drivers/CMSIS/Include/cmsis_gcc.h ****   #define __PACKED                               __attribute__((packed, aligned(1)))
  63:Drivers/CMSIS/Include/cmsis_gcc.h **** #endif
  64:Drivers/CMSIS/Include/cmsis_gcc.h **** #ifndef   __PACKED_STRUCT
  65:Drivers/CMSIS/Include/cmsis_gcc.h ****   #define __PACKED_STRUCT                        struct __attribute__((packed, aligned(1)))
  66:Drivers/CMSIS/Include/cmsis_gcc.h **** #endif
  67:Drivers/CMSIS/Include/cmsis_gcc.h **** #ifndef   __PACKED_UNION
  68:Drivers/CMSIS/Include/cmsis_gcc.h ****   #define __PACKED_UNION                         union __attribute__((packed, aligned(1)))
  69:Drivers/CMSIS/Include/cmsis_gcc.h **** #endif
  70:Drivers/CMSIS/Include/cmsis_gcc.h **** #ifndef   __UNALIGNED_UINT32        /* deprecated */
  71:Drivers/CMSIS/Include/cmsis_gcc.h ****   #pragma GCC diagnostic push
  72:Drivers/CMSIS/Include/cmsis_gcc.h ****   #pragma GCC diagnostic ignored "-Wpacked"
  73:Drivers/CMSIS/Include/cmsis_gcc.h ****   #pragma GCC diagnostic ignored "-Wattributes"
  74:Drivers/CMSIS/Include/cmsis_gcc.h ****   struct __attribute__((packed)) T_UINT32 { uint32_t v; };
  75:Drivers/CMSIS/Include/cmsis_gcc.h ****   #pragma GCC diagnostic pop
  76:Drivers/CMSIS/Include/cmsis_gcc.h ****   #define __UNALIGNED_UINT32(x)                  (((struct T_UINT32 *)(x))->v)
  77:Drivers/CMSIS/Include/cmsis_gcc.h **** #endif
  78:Drivers/CMSIS/Include/cmsis_gcc.h **** #ifndef   __UNALIGNED_UINT16_WRITE
  79:Drivers/CMSIS/Include/cmsis_gcc.h ****   #pragma GCC diagnostic push
  80:Drivers/CMSIS/Include/cmsis_gcc.h ****   #pragma GCC diagnostic ignored "-Wpacked"
  81:Drivers/CMSIS/Include/cmsis_gcc.h ****   #pragma GCC diagnostic ignored "-Wattributes"
  82:Drivers/CMSIS/Include/cmsis_gcc.h ****   __PACKED_STRUCT T_UINT16_WRITE { uint16_t v; };
  83:Drivers/CMSIS/Include/cmsis_gcc.h ****   #pragma GCC diagnostic pop
  84:Drivers/CMSIS/Include/cmsis_gcc.h ****   #define __UNALIGNED_UINT16_WRITE(addr, val)    (void)((((struct T_UINT16_WRITE *)(void *)(addr))-
  85:Drivers/CMSIS/Include/cmsis_gcc.h **** #endif
  86:Drivers/CMSIS/Include/cmsis_gcc.h **** #ifndef   __UNALIGNED_UINT16_READ
  87:Drivers/CMSIS/Include/cmsis_gcc.h ****   #pragma GCC diagnostic push
  88:Drivers/CMSIS/Include/cmsis_gcc.h ****   #pragma GCC diagnostic ignored "-Wpacked"
  89:Drivers/CMSIS/Include/cmsis_gcc.h ****   #pragma GCC diagnostic ignored "-Wattributes"
  90:Drivers/CMSIS/Include/cmsis_gcc.h ****   __PACKED_STRUCT T_UINT16_READ { uint16_t v; };
  91:Drivers/CMSIS/Include/cmsis_gcc.h ****   #pragma GCC diagnostic pop
  92:Drivers/CMSIS/Include/cmsis_gcc.h ****   #define __UNALIGNED_UINT16_READ(addr)          (((const struct T_UINT16_READ *)(const void *)(add
  93:Drivers/CMSIS/Include/cmsis_gcc.h **** #endif
  94:Drivers/CMSIS/Include/cmsis_gcc.h **** #ifndef   __UNALIGNED_UINT32_WRITE
  95:Drivers/CMSIS/Include/cmsis_gcc.h ****   #pragma GCC diagnostic push
  96:Drivers/CMSIS/Include/cmsis_gcc.h ****   #pragma GCC diagnostic ignored "-Wpacked"
  97:Drivers/CMSIS/Include/cmsis_gcc.h ****   #pragma GCC diagnostic ignored "-Wattributes"
  98:Drivers/CMSIS/Include/cmsis_gcc.h ****   __PACKED_STRUCT T_UINT32_WRITE { uint32_t v; };
  99:Drivers/CMSIS/Include/cmsis_gcc.h ****   #pragma GCC diagnostic pop
 100:Drivers/CMSIS/Include/cmsis_gcc.h ****   #define __UNALIGNED_UINT32_WRITE(addr, val)    (void)((((struct T_UINT32_WRITE *)(void *)(addr))-
 101:Drivers/CMSIS/Include/cmsis_gcc.h **** #endif
 102:Drivers/CMSIS/Include/cmsis_gcc.h **** #ifndef   __UNALIGNED_UINT32_READ
 103:Drivers/CMSIS/Include/cmsis_gcc.h ****   #pragma GCC diagnostic push
 104:Drivers/CMSIS/Include/cmsis_gcc.h ****   #pragma GCC diagnostic ignored "-Wpacked"
 105:Drivers/CMSIS/Include/cmsis_gcc.h ****   #pragma GCC diagnostic ignored "-Wattributes"
 106:Drivers/CMSIS/Include/cmsis_gcc.h ****   __PACKED_STRUCT T_UINT32_READ { uint32_t v; };
 107:Drivers/CMSIS/Include/cmsis_gcc.h ****   #pragma GCC diagnostic pop
 108:Drivers/CMSIS/Include/cmsis_gcc.h ****   #define __UNALIGNED_UINT32_READ(addr)          (((const struct T_UINT32_READ *)(const void *)(add
 109:Drivers/CMSIS/Include/cmsis_gcc.h **** #endif
 110:Drivers/CMSIS/Include/cmsis_gcc.h **** #ifndef   __ALIGNED
 111:Drivers/CMSIS/Include/cmsis_gcc.h ****   #define __ALIGNED(x)                           __attribute__((aligned(x)))
 112:Drivers/CMSIS/Include/cmsis_gcc.h **** #endif
 113:Drivers/CMSIS/Include/cmsis_gcc.h **** #ifndef   __RESTRICT
 114:Drivers/CMSIS/Include/cmsis_gcc.h ****   #define __RESTRICT                             __restrict
ARM GAS  C:\Users\benny\AppData\Local\Temp\ccjrekJt.s 			page 42


 115:Drivers/CMSIS/Include/cmsis_gcc.h **** #endif
 116:Drivers/CMSIS/Include/cmsis_gcc.h **** 
 117:Drivers/CMSIS/Include/cmsis_gcc.h **** 
 118:Drivers/CMSIS/Include/cmsis_gcc.h **** /* ###########################  Core Function Access  ########################### */
 119:Drivers/CMSIS/Include/cmsis_gcc.h **** /** \ingroup  CMSIS_Core_FunctionInterface
 120:Drivers/CMSIS/Include/cmsis_gcc.h ****     \defgroup CMSIS_Core_RegAccFunctions CMSIS Core Register Access Functions
 121:Drivers/CMSIS/Include/cmsis_gcc.h ****   @{
 122:Drivers/CMSIS/Include/cmsis_gcc.h ****  */
 123:Drivers/CMSIS/Include/cmsis_gcc.h **** 
 124:Drivers/CMSIS/Include/cmsis_gcc.h **** /**
 125:Drivers/CMSIS/Include/cmsis_gcc.h ****   \brief   Enable IRQ Interrupts
 126:Drivers/CMSIS/Include/cmsis_gcc.h ****   \details Enables IRQ interrupts by clearing the I-bit in the CPSR.
 127:Drivers/CMSIS/Include/cmsis_gcc.h ****            Can only be executed in Privileged modes.
 128:Drivers/CMSIS/Include/cmsis_gcc.h ****  */
 129:Drivers/CMSIS/Include/cmsis_gcc.h **** __STATIC_FORCEINLINE void __enable_irq(void)
 130:Drivers/CMSIS/Include/cmsis_gcc.h **** {
 131:Drivers/CMSIS/Include/cmsis_gcc.h ****   __ASM volatile ("cpsie i" : : : "memory");
 132:Drivers/CMSIS/Include/cmsis_gcc.h **** }
 133:Drivers/CMSIS/Include/cmsis_gcc.h **** 
 134:Drivers/CMSIS/Include/cmsis_gcc.h **** 
 135:Drivers/CMSIS/Include/cmsis_gcc.h **** /**
 136:Drivers/CMSIS/Include/cmsis_gcc.h ****   \brief   Disable IRQ Interrupts
 137:Drivers/CMSIS/Include/cmsis_gcc.h ****   \details Disables IRQ interrupts by setting the I-bit in the CPSR.
 138:Drivers/CMSIS/Include/cmsis_gcc.h ****            Can only be executed in Privileged modes.
 139:Drivers/CMSIS/Include/cmsis_gcc.h ****  */
 140:Drivers/CMSIS/Include/cmsis_gcc.h **** __STATIC_FORCEINLINE void __disable_irq(void)
 573              		.loc 2 140 27 view .LVU191
 574              	.LBB14:
 141:Drivers/CMSIS/Include/cmsis_gcc.h **** {
 142:Drivers/CMSIS/Include/cmsis_gcc.h ****   __ASM volatile ("cpsid i" : : : "memory");
 575              		.loc 2 142 3 view .LVU192
 576              		.syntax unified
 577              	@ 142 "Drivers/CMSIS/Include/cmsis_gcc.h" 1
 578 0000 72B6     		cpsid i
 579              	@ 0 "" 2
 580              		.thumb
 581              		.syntax unified
 582              	.L12:
 583              	.LBE14:
 584              	.LBE13:
1656:Core/Src/main.c ****   while (1)
 585              		.loc 1 1656 3 discriminator 1 view .LVU193
1657:Core/Src/main.c ****   {
1658:Core/Src/main.c ****   }
 586              		.loc 1 1658 3 discriminator 1 view .LVU194
1656:Core/Src/main.c ****   while (1)
 587              		.loc 1 1656 9 discriminator 1 view .LVU195
 588 0002 FEE7     		b	.L12
 589              		.cfi_endproc
 590              	.LFE170:
 592              		.section	.text.MX_ADC1_Init,"ax",%progbits
 593              		.align	1
 594              		.syntax unified
 595              		.thumb
 596              		.thumb_func
 598              	MX_ADC1_Init:
 599              	.LFB147:
ARM GAS  C:\Users\benny\AppData\Local\Temp\ccjrekJt.s 			page 43


 477:Core/Src/main.c **** 
 600              		.loc 1 477 1 view -0
 601              		.cfi_startproc
 602              		@ args = 0, pretend = 0, frame = 16
 603              		@ frame_needed = 0, uses_anonymous_args = 0
 604 0000 00B5     		push	{lr}
 605              	.LCFI4:
 606              		.cfi_def_cfa_offset 4
 607              		.cfi_offset 14, -4
 608 0002 85B0     		sub	sp, sp, #20
 609              	.LCFI5:
 610              		.cfi_def_cfa_offset 24
 483:Core/Src/main.c **** 
 611              		.loc 1 483 3 view .LVU197
 483:Core/Src/main.c **** 
 612              		.loc 1 483 26 is_stmt 0 view .LVU198
 613 0004 0023     		movs	r3, #0
 614 0006 0093     		str	r3, [sp]
 615 0008 0193     		str	r3, [sp, #4]
 616 000a 0293     		str	r3, [sp, #8]
 617 000c 0393     		str	r3, [sp, #12]
 491:Core/Src/main.c ****   hadc1.Init.ClockPrescaler = ADC_CLOCK_SYNC_PCLK_DIV4;
 618              		.loc 1 491 3 is_stmt 1 view .LVU199
 491:Core/Src/main.c ****   hadc1.Init.ClockPrescaler = ADC_CLOCK_SYNC_PCLK_DIV4;
 619              		.loc 1 491 18 is_stmt 0 view .LVU200
 620 000e 2048     		ldr	r0, .L23
 621 0010 204A     		ldr	r2, .L23+4
 622 0012 0260     		str	r2, [r0]
 492:Core/Src/main.c ****   hadc1.Init.Resolution = ADC_RESOLUTION_12B;
 623              		.loc 1 492 3 is_stmt 1 view .LVU201
 492:Core/Src/main.c ****   hadc1.Init.Resolution = ADC_RESOLUTION_12B;
 624              		.loc 1 492 29 is_stmt 0 view .LVU202
 625 0014 4FF48032 		mov	r2, #65536
 626 0018 4260     		str	r2, [r0, #4]
 493:Core/Src/main.c ****   hadc1.Init.ScanConvMode = ADC_SCAN_ENABLE;
 627              		.loc 1 493 3 is_stmt 1 view .LVU203
 493:Core/Src/main.c ****   hadc1.Init.ScanConvMode = ADC_SCAN_ENABLE;
 628              		.loc 1 493 25 is_stmt 0 view .LVU204
 629 001a 8360     		str	r3, [r0, #8]
 494:Core/Src/main.c ****   hadc1.Init.ContinuousConvMode = ENABLE;
 630              		.loc 1 494 3 is_stmt 1 view .LVU205
 494:Core/Src/main.c ****   hadc1.Init.ContinuousConvMode = ENABLE;
 631              		.loc 1 494 27 is_stmt 0 view .LVU206
 632 001c 0122     		movs	r2, #1
 633 001e 0261     		str	r2, [r0, #16]
 495:Core/Src/main.c ****   hadc1.Init.DiscontinuousConvMode = DISABLE;
 634              		.loc 1 495 3 is_stmt 1 view .LVU207
 495:Core/Src/main.c ****   hadc1.Init.DiscontinuousConvMode = DISABLE;
 635              		.loc 1 495 33 is_stmt 0 view .LVU208
 636 0020 8261     		str	r2, [r0, #24]
 496:Core/Src/main.c ****   hadc1.Init.ExternalTrigConvEdge = ADC_EXTERNALTRIGCONVEDGE_NONE;
 637              		.loc 1 496 3 is_stmt 1 view .LVU209
 496:Core/Src/main.c ****   hadc1.Init.ExternalTrigConvEdge = ADC_EXTERNALTRIGCONVEDGE_NONE;
 638              		.loc 1 496 36 is_stmt 0 view .LVU210
 639 0022 80F82030 		strb	r3, [r0, #32]
 497:Core/Src/main.c ****   hadc1.Init.ExternalTrigConv = ADC_SOFTWARE_START;
 640              		.loc 1 497 3 is_stmt 1 view .LVU211
ARM GAS  C:\Users\benny\AppData\Local\Temp\ccjrekJt.s 			page 44


 497:Core/Src/main.c ****   hadc1.Init.ExternalTrigConv = ADC_SOFTWARE_START;
 641              		.loc 1 497 35 is_stmt 0 view .LVU212
 642 0026 C362     		str	r3, [r0, #44]
 498:Core/Src/main.c ****   hadc1.Init.DataAlign = ADC_DATAALIGN_RIGHT;
 643              		.loc 1 498 3 is_stmt 1 view .LVU213
 498:Core/Src/main.c ****   hadc1.Init.DataAlign = ADC_DATAALIGN_RIGHT;
 644              		.loc 1 498 31 is_stmt 0 view .LVU214
 645 0028 1B49     		ldr	r1, .L23+8
 646 002a 8162     		str	r1, [r0, #40]
 499:Core/Src/main.c ****   hadc1.Init.NbrOfConversion = 3;
 647              		.loc 1 499 3 is_stmt 1 view .LVU215
 499:Core/Src/main.c ****   hadc1.Init.NbrOfConversion = 3;
 648              		.loc 1 499 24 is_stmt 0 view .LVU216
 649 002c C360     		str	r3, [r0, #12]
 500:Core/Src/main.c ****   hadc1.Init.DMAContinuousRequests = DISABLE;
 650              		.loc 1 500 3 is_stmt 1 view .LVU217
 500:Core/Src/main.c ****   hadc1.Init.DMAContinuousRequests = DISABLE;
 651              		.loc 1 500 30 is_stmt 0 view .LVU218
 652 002e 0321     		movs	r1, #3
 653 0030 C161     		str	r1, [r0, #28]
 501:Core/Src/main.c ****   hadc1.Init.EOCSelection = ADC_EOC_SINGLE_CONV;
 654              		.loc 1 501 3 is_stmt 1 view .LVU219
 501:Core/Src/main.c ****   hadc1.Init.EOCSelection = ADC_EOC_SINGLE_CONV;
 655              		.loc 1 501 36 is_stmt 0 view .LVU220
 656 0032 80F83030 		strb	r3, [r0, #48]
 502:Core/Src/main.c ****   if (HAL_ADC_Init(&hadc1) != HAL_OK)
 657              		.loc 1 502 3 is_stmt 1 view .LVU221
 502:Core/Src/main.c ****   if (HAL_ADC_Init(&hadc1) != HAL_OK)
 658              		.loc 1 502 27 is_stmt 0 view .LVU222
 659 0036 4261     		str	r2, [r0, #20]
 503:Core/Src/main.c ****   {
 660              		.loc 1 503 3 is_stmt 1 view .LVU223
 503:Core/Src/main.c ****   {
 661              		.loc 1 503 7 is_stmt 0 view .LVU224
 662 0038 FFF7FEFF 		bl	HAL_ADC_Init
 663              	.LVL27:
 503:Core/Src/main.c ****   {
 664              		.loc 1 503 6 view .LVU225
 665 003c F8B9     		cbnz	r0, .L19
 510:Core/Src/main.c ****   sConfig.Rank = ADC_REGULAR_RANK_1;
 666              		.loc 1 510 3 is_stmt 1 view .LVU226
 510:Core/Src/main.c ****   sConfig.Rank = ADC_REGULAR_RANK_1;
 667              		.loc 1 510 19 is_stmt 0 view .LVU227
 668 003e 0623     		movs	r3, #6
 669 0040 0093     		str	r3, [sp]
 511:Core/Src/main.c ****   sConfig.SamplingTime = ADC_SAMPLETIME_480CYCLES;
 670              		.loc 1 511 3 is_stmt 1 view .LVU228
 511:Core/Src/main.c ****   sConfig.SamplingTime = ADC_SAMPLETIME_480CYCLES;
 671              		.loc 1 511 16 is_stmt 0 view .LVU229
 672 0042 0123     		movs	r3, #1
 673 0044 0193     		str	r3, [sp, #4]
 512:Core/Src/main.c ****   if (HAL_ADC_ConfigChannel(&hadc1, &sConfig) != HAL_OK)
 674              		.loc 1 512 3 is_stmt 1 view .LVU230
 512:Core/Src/main.c ****   if (HAL_ADC_ConfigChannel(&hadc1, &sConfig) != HAL_OK)
 675              		.loc 1 512 24 is_stmt 0 view .LVU231
 676 0046 0723     		movs	r3, #7
 677 0048 0293     		str	r3, [sp, #8]
ARM GAS  C:\Users\benny\AppData\Local\Temp\ccjrekJt.s 			page 45


 513:Core/Src/main.c ****   {
 678              		.loc 1 513 3 is_stmt 1 view .LVU232
 513:Core/Src/main.c ****   {
 679              		.loc 1 513 7 is_stmt 0 view .LVU233
 680 004a 6946     		mov	r1, sp
 681 004c 1048     		ldr	r0, .L23
 682 004e FFF7FEFF 		bl	HAL_ADC_ConfigChannel
 683              	.LVL28:
 513:Core/Src/main.c ****   {
 684              		.loc 1 513 6 view .LVU234
 685 0052 B0B9     		cbnz	r0, .L20
 520:Core/Src/main.c ****   sConfig.Rank = ADC_REGULAR_RANK_2;
 686              		.loc 1 520 3 is_stmt 1 view .LVU235
 520:Core/Src/main.c ****   sConfig.Rank = ADC_REGULAR_RANK_2;
 687              		.loc 1 520 19 is_stmt 0 view .LVU236
 688 0054 0423     		movs	r3, #4
 689 0056 0093     		str	r3, [sp]
 521:Core/Src/main.c ****   if (HAL_ADC_ConfigChannel(&hadc1, &sConfig) != HAL_OK)
 690              		.loc 1 521 3 is_stmt 1 view .LVU237
 521:Core/Src/main.c ****   if (HAL_ADC_ConfigChannel(&hadc1, &sConfig) != HAL_OK)
 691              		.loc 1 521 16 is_stmt 0 view .LVU238
 692 0058 0223     		movs	r3, #2
 693 005a 0193     		str	r3, [sp, #4]
 522:Core/Src/main.c ****   {
 694              		.loc 1 522 3 is_stmt 1 view .LVU239
 522:Core/Src/main.c ****   {
 695              		.loc 1 522 7 is_stmt 0 view .LVU240
 696 005c 6946     		mov	r1, sp
 697 005e 0C48     		ldr	r0, .L23
 698 0060 FFF7FEFF 		bl	HAL_ADC_ConfigChannel
 699              	.LVL29:
 522:Core/Src/main.c ****   {
 700              		.loc 1 522 6 view .LVU241
 701 0064 78B9     		cbnz	r0, .L21
 529:Core/Src/main.c ****   sConfig.Rank = ADC_REGULAR_RANK_3;
 702              		.loc 1 529 3 is_stmt 1 view .LVU242
 529:Core/Src/main.c ****   sConfig.Rank = ADC_REGULAR_RANK_3;
 703              		.loc 1 529 19 is_stmt 0 view .LVU243
 704 0066 0E23     		movs	r3, #14
 705 0068 0093     		str	r3, [sp]
 530:Core/Src/main.c ****   if (HAL_ADC_ConfigChannel(&hadc1, &sConfig) != HAL_OK)
 706              		.loc 1 530 3 is_stmt 1 view .LVU244
 530:Core/Src/main.c ****   if (HAL_ADC_ConfigChannel(&hadc1, &sConfig) != HAL_OK)
 707              		.loc 1 530 16 is_stmt 0 view .LVU245
 708 006a 0323     		movs	r3, #3
 709 006c 0193     		str	r3, [sp, #4]
 531:Core/Src/main.c ****   {
 710              		.loc 1 531 3 is_stmt 1 view .LVU246
 531:Core/Src/main.c ****   {
 711              		.loc 1 531 7 is_stmt 0 view .LVU247
 712 006e 6946     		mov	r1, sp
 713 0070 0748     		ldr	r0, .L23
 714 0072 FFF7FEFF 		bl	HAL_ADC_ConfigChannel
 715              	.LVL30:
 531:Core/Src/main.c ****   {
 716              		.loc 1 531 6 view .LVU248
 717 0076 40B9     		cbnz	r0, .L22
ARM GAS  C:\Users\benny\AppData\Local\Temp\ccjrekJt.s 			page 46


 539:Core/Src/main.c **** 
 718              		.loc 1 539 1 view .LVU249
 719 0078 05B0     		add	sp, sp, #20
 720              	.LCFI6:
 721              		.cfi_remember_state
 722              		.cfi_def_cfa_offset 4
 723              		@ sp needed
 724 007a 5DF804FB 		ldr	pc, [sp], #4
 725              	.L19:
 726              	.LCFI7:
 727              		.cfi_restore_state
 505:Core/Src/main.c ****   }
 728              		.loc 1 505 5 is_stmt 1 view .LVU250
 729 007e FFF7FEFF 		bl	Error_Handler
 730              	.LVL31:
 731              	.L20:
 515:Core/Src/main.c ****   }
 732              		.loc 1 515 5 view .LVU251
 733 0082 FFF7FEFF 		bl	Error_Handler
 734              	.LVL32:
 735              	.L21:
 524:Core/Src/main.c ****   }
 736              		.loc 1 524 5 view .LVU252
 737 0086 FFF7FEFF 		bl	Error_Handler
 738              	.LVL33:
 739              	.L22:
 533:Core/Src/main.c ****   }
 740              		.loc 1 533 5 view .LVU253
 741 008a FFF7FEFF 		bl	Error_Handler
 742              	.LVL34:
 743              	.L24:
 744 008e 00BF     		.align	2
 745              	.L23:
 746 0090 00000000 		.word	hadc1
 747 0094 00200140 		.word	1073815552
 748 0098 0100000F 		.word	251658241
 749              		.cfi_endproc
 750              	.LFE147:
 752              		.section	.text.MX_ADC2_Init,"ax",%progbits
 753              		.align	1
 754              		.syntax unified
 755              		.thumb
 756              		.thumb_func
 758              	MX_ADC2_Init:
 759              	.LFB148:
 547:Core/Src/main.c **** 
 760              		.loc 1 547 1 view -0
 761              		.cfi_startproc
 762              		@ args = 0, pretend = 0, frame = 16
 763              		@ frame_needed = 0, uses_anonymous_args = 0
 764 0000 00B5     		push	{lr}
 765              	.LCFI8:
 766              		.cfi_def_cfa_offset 4
 767              		.cfi_offset 14, -4
 768 0002 85B0     		sub	sp, sp, #20
 769              	.LCFI9:
 770              		.cfi_def_cfa_offset 24
ARM GAS  C:\Users\benny\AppData\Local\Temp\ccjrekJt.s 			page 47


 553:Core/Src/main.c **** 
 771              		.loc 1 553 3 view .LVU255
 553:Core/Src/main.c **** 
 772              		.loc 1 553 26 is_stmt 0 view .LVU256
 773 0004 0023     		movs	r3, #0
 774 0006 0093     		str	r3, [sp]
 775 0008 0193     		str	r3, [sp, #4]
 776 000a 0293     		str	r3, [sp, #8]
 777 000c 0393     		str	r3, [sp, #12]
 561:Core/Src/main.c ****   hadc2.Init.ClockPrescaler = ADC_CLOCK_SYNC_PCLK_DIV4;
 778              		.loc 1 561 3 is_stmt 1 view .LVU257
 561:Core/Src/main.c ****   hadc2.Init.ClockPrescaler = ADC_CLOCK_SYNC_PCLK_DIV4;
 779              		.loc 1 561 18 is_stmt 0 view .LVU258
 780 000e 1448     		ldr	r0, .L31
 781 0010 144A     		ldr	r2, .L31+4
 782 0012 0260     		str	r2, [r0]
 562:Core/Src/main.c ****   hadc2.Init.Resolution = ADC_RESOLUTION_12B;
 783              		.loc 1 562 3 is_stmt 1 view .LVU259
 562:Core/Src/main.c ****   hadc2.Init.Resolution = ADC_RESOLUTION_12B;
 784              		.loc 1 562 29 is_stmt 0 view .LVU260
 785 0014 4FF48032 		mov	r2, #65536
 786 0018 4260     		str	r2, [r0, #4]
 563:Core/Src/main.c ****   hadc2.Init.ScanConvMode = ADC_SCAN_DISABLE;
 787              		.loc 1 563 3 is_stmt 1 view .LVU261
 563:Core/Src/main.c ****   hadc2.Init.ScanConvMode = ADC_SCAN_DISABLE;
 788              		.loc 1 563 25 is_stmt 0 view .LVU262
 789 001a 8360     		str	r3, [r0, #8]
 564:Core/Src/main.c ****   hadc2.Init.ContinuousConvMode = DISABLE;
 790              		.loc 1 564 3 is_stmt 1 view .LVU263
 564:Core/Src/main.c ****   hadc2.Init.ContinuousConvMode = DISABLE;
 791              		.loc 1 564 27 is_stmt 0 view .LVU264
 792 001c 0361     		str	r3, [r0, #16]
 565:Core/Src/main.c ****   hadc2.Init.DiscontinuousConvMode = DISABLE;
 793              		.loc 1 565 3 is_stmt 1 view .LVU265
 565:Core/Src/main.c ****   hadc2.Init.DiscontinuousConvMode = DISABLE;
 794              		.loc 1 565 33 is_stmt 0 view .LVU266
 795 001e 8361     		str	r3, [r0, #24]
 566:Core/Src/main.c ****   hadc2.Init.ExternalTrigConvEdge = ADC_EXTERNALTRIGCONVEDGE_NONE;
 796              		.loc 1 566 3 is_stmt 1 view .LVU267
 566:Core/Src/main.c ****   hadc2.Init.ExternalTrigConvEdge = ADC_EXTERNALTRIGCONVEDGE_NONE;
 797              		.loc 1 566 36 is_stmt 0 view .LVU268
 798 0020 80F82030 		strb	r3, [r0, #32]
 567:Core/Src/main.c ****   hadc2.Init.ExternalTrigConv = ADC_SOFTWARE_START;
 799              		.loc 1 567 3 is_stmt 1 view .LVU269
 567:Core/Src/main.c ****   hadc2.Init.ExternalTrigConv = ADC_SOFTWARE_START;
 800              		.loc 1 567 35 is_stmt 0 view .LVU270
 801 0024 C362     		str	r3, [r0, #44]
 568:Core/Src/main.c ****   hadc2.Init.DataAlign = ADC_DATAALIGN_RIGHT;
 802              		.loc 1 568 3 is_stmt 1 view .LVU271
 568:Core/Src/main.c ****   hadc2.Init.DataAlign = ADC_DATAALIGN_RIGHT;
 803              		.loc 1 568 31 is_stmt 0 view .LVU272
 804 0026 104A     		ldr	r2, .L31+8
 805 0028 8262     		str	r2, [r0, #40]
 569:Core/Src/main.c ****   hadc2.Init.NbrOfConversion = 1;
 806              		.loc 1 569 3 is_stmt 1 view .LVU273
 569:Core/Src/main.c ****   hadc2.Init.NbrOfConversion = 1;
 807              		.loc 1 569 24 is_stmt 0 view .LVU274
ARM GAS  C:\Users\benny\AppData\Local\Temp\ccjrekJt.s 			page 48


 808 002a C360     		str	r3, [r0, #12]
 570:Core/Src/main.c ****   hadc2.Init.DMAContinuousRequests = DISABLE;
 809              		.loc 1 570 3 is_stmt 1 view .LVU275
 570:Core/Src/main.c ****   hadc2.Init.DMAContinuousRequests = DISABLE;
 810              		.loc 1 570 30 is_stmt 0 view .LVU276
 811 002c 0122     		movs	r2, #1
 812 002e C261     		str	r2, [r0, #28]
 571:Core/Src/main.c ****   hadc2.Init.EOCSelection = ADC_EOC_SINGLE_CONV;
 813              		.loc 1 571 3 is_stmt 1 view .LVU277
 571:Core/Src/main.c ****   hadc2.Init.EOCSelection = ADC_EOC_SINGLE_CONV;
 814              		.loc 1 571 36 is_stmt 0 view .LVU278
 815 0030 80F83030 		strb	r3, [r0, #48]
 572:Core/Src/main.c ****   if (HAL_ADC_Init(&hadc2) != HAL_OK)
 816              		.loc 1 572 3 is_stmt 1 view .LVU279
 572:Core/Src/main.c ****   if (HAL_ADC_Init(&hadc2) != HAL_OK)
 817              		.loc 1 572 27 is_stmt 0 view .LVU280
 818 0034 4261     		str	r2, [r0, #20]
 573:Core/Src/main.c ****   {
 819              		.loc 1 573 3 is_stmt 1 view .LVU281
 573:Core/Src/main.c ****   {
 820              		.loc 1 573 7 is_stmt 0 view .LVU282
 821 0036 FFF7FEFF 		bl	HAL_ADC_Init
 822              	.LVL35:
 573:Core/Src/main.c ****   {
 823              		.loc 1 573 6 view .LVU283
 824 003a 68B9     		cbnz	r0, .L29
 580:Core/Src/main.c ****   sConfig.Rank = ADC_REGULAR_RANK_1;
 825              		.loc 1 580 3 is_stmt 1 view .LVU284
 580:Core/Src/main.c ****   sConfig.Rank = ADC_REGULAR_RANK_1;
 826              		.loc 1 580 19 is_stmt 0 view .LVU285
 827 003c 0423     		movs	r3, #4
 828 003e 0093     		str	r3, [sp]
 581:Core/Src/main.c ****   sConfig.SamplingTime = ADC_SAMPLETIME_3CYCLES;
 829              		.loc 1 581 3 is_stmt 1 view .LVU286
 581:Core/Src/main.c ****   sConfig.SamplingTime = ADC_SAMPLETIME_3CYCLES;
 830              		.loc 1 581 16 is_stmt 0 view .LVU287
 831 0040 0123     		movs	r3, #1
 832 0042 0193     		str	r3, [sp, #4]
 582:Core/Src/main.c ****   if (HAL_ADC_ConfigChannel(&hadc2, &sConfig) != HAL_OK)
 833              		.loc 1 582 3 is_stmt 1 view .LVU288
 582:Core/Src/main.c ****   if (HAL_ADC_ConfigChannel(&hadc2, &sConfig) != HAL_OK)
 834              		.loc 1 582 24 is_stmt 0 view .LVU289
 835 0044 0023     		movs	r3, #0
 836 0046 0293     		str	r3, [sp, #8]
 583:Core/Src/main.c ****   {
 837              		.loc 1 583 3 is_stmt 1 view .LVU290
 583:Core/Src/main.c ****   {
 838              		.loc 1 583 7 is_stmt 0 view .LVU291
 839 0048 6946     		mov	r1, sp
 840 004a 0548     		ldr	r0, .L31
 841 004c FFF7FEFF 		bl	HAL_ADC_ConfigChannel
 842              	.LVL36:
 583:Core/Src/main.c ****   {
 843              		.loc 1 583 6 view .LVU292
 844 0050 20B9     		cbnz	r0, .L30
 591:Core/Src/main.c **** 
 845              		.loc 1 591 1 view .LVU293
ARM GAS  C:\Users\benny\AppData\Local\Temp\ccjrekJt.s 			page 49


 846 0052 05B0     		add	sp, sp, #20
 847              	.LCFI10:
 848              		.cfi_remember_state
 849              		.cfi_def_cfa_offset 4
 850              		@ sp needed
 851 0054 5DF804FB 		ldr	pc, [sp], #4
 852              	.L29:
 853              	.LCFI11:
 854              		.cfi_restore_state
 575:Core/Src/main.c ****   }
 855              		.loc 1 575 5 is_stmt 1 view .LVU294
 856 0058 FFF7FEFF 		bl	Error_Handler
 857              	.LVL37:
 858              	.L30:
 585:Core/Src/main.c ****   }
 859              		.loc 1 585 5 view .LVU295
 860 005c FFF7FEFF 		bl	Error_Handler
 861              	.LVL38:
 862              	.L32:
 863              		.align	2
 864              	.L31:
 865 0060 00000000 		.word	hadc2
 866 0064 00210140 		.word	1073815808
 867 0068 0100000F 		.word	251658241
 868              		.cfi_endproc
 869              	.LFE148:
 871              		.section	.text.MX_ADC3_Init,"ax",%progbits
 872              		.align	1
 873              		.syntax unified
 874              		.thumb
 875              		.thumb_func
 877              	MX_ADC3_Init:
 878              	.LFB149:
 599:Core/Src/main.c **** 
 879              		.loc 1 599 1 view -0
 880              		.cfi_startproc
 881              		@ args = 0, pretend = 0, frame = 16
 882              		@ frame_needed = 0, uses_anonymous_args = 0
 883 0000 00B5     		push	{lr}
 884              	.LCFI12:
 885              		.cfi_def_cfa_offset 4
 886              		.cfi_offset 14, -4
 887 0002 85B0     		sub	sp, sp, #20
 888              	.LCFI13:
 889              		.cfi_def_cfa_offset 24
 605:Core/Src/main.c **** 
 890              		.loc 1 605 3 view .LVU297
 605:Core/Src/main.c **** 
 891              		.loc 1 605 26 is_stmt 0 view .LVU298
 892 0004 0023     		movs	r3, #0
 893 0006 0093     		str	r3, [sp]
 894 0008 0193     		str	r3, [sp, #4]
 895 000a 0293     		str	r3, [sp, #8]
 896 000c 0393     		str	r3, [sp, #12]
 613:Core/Src/main.c ****   hadc3.Init.ClockPrescaler = ADC_CLOCK_SYNC_PCLK_DIV4;
 897              		.loc 1 613 3 is_stmt 1 view .LVU299
 613:Core/Src/main.c ****   hadc3.Init.ClockPrescaler = ADC_CLOCK_SYNC_PCLK_DIV4;
ARM GAS  C:\Users\benny\AppData\Local\Temp\ccjrekJt.s 			page 50


 898              		.loc 1 613 18 is_stmt 0 view .LVU300
 899 000e 1448     		ldr	r0, .L39
 900 0010 144A     		ldr	r2, .L39+4
 901 0012 0260     		str	r2, [r0]
 614:Core/Src/main.c ****   hadc3.Init.Resolution = ADC_RESOLUTION_12B;
 902              		.loc 1 614 3 is_stmt 1 view .LVU301
 614:Core/Src/main.c ****   hadc3.Init.Resolution = ADC_RESOLUTION_12B;
 903              		.loc 1 614 29 is_stmt 0 view .LVU302
 904 0014 4FF48032 		mov	r2, #65536
 905 0018 4260     		str	r2, [r0, #4]
 615:Core/Src/main.c ****   hadc3.Init.ScanConvMode = ADC_SCAN_DISABLE;
 906              		.loc 1 615 3 is_stmt 1 view .LVU303
 615:Core/Src/main.c ****   hadc3.Init.ScanConvMode = ADC_SCAN_DISABLE;
 907              		.loc 1 615 25 is_stmt 0 view .LVU304
 908 001a 8360     		str	r3, [r0, #8]
 616:Core/Src/main.c ****   hadc3.Init.ContinuousConvMode = DISABLE;
 909              		.loc 1 616 3 is_stmt 1 view .LVU305
 616:Core/Src/main.c ****   hadc3.Init.ContinuousConvMode = DISABLE;
 910              		.loc 1 616 27 is_stmt 0 view .LVU306
 911 001c 0361     		str	r3, [r0, #16]
 617:Core/Src/main.c ****   hadc3.Init.DiscontinuousConvMode = DISABLE;
 912              		.loc 1 617 3 is_stmt 1 view .LVU307
 617:Core/Src/main.c ****   hadc3.Init.DiscontinuousConvMode = DISABLE;
 913              		.loc 1 617 33 is_stmt 0 view .LVU308
 914 001e 8361     		str	r3, [r0, #24]
 618:Core/Src/main.c ****   hadc3.Init.ExternalTrigConvEdge = ADC_EXTERNALTRIGCONVEDGE_NONE;
 915              		.loc 1 618 3 is_stmt 1 view .LVU309
 618:Core/Src/main.c ****   hadc3.Init.ExternalTrigConvEdge = ADC_EXTERNALTRIGCONVEDGE_NONE;
 916              		.loc 1 618 36 is_stmt 0 view .LVU310
 917 0020 80F82030 		strb	r3, [r0, #32]
 619:Core/Src/main.c ****   hadc3.Init.ExternalTrigConv = ADC_SOFTWARE_START;
 918              		.loc 1 619 3 is_stmt 1 view .LVU311
 619:Core/Src/main.c ****   hadc3.Init.ExternalTrigConv = ADC_SOFTWARE_START;
 919              		.loc 1 619 35 is_stmt 0 view .LVU312
 920 0024 C362     		str	r3, [r0, #44]
 620:Core/Src/main.c ****   hadc3.Init.DataAlign = ADC_DATAALIGN_RIGHT;
 921              		.loc 1 620 3 is_stmt 1 view .LVU313
 620:Core/Src/main.c ****   hadc3.Init.DataAlign = ADC_DATAALIGN_RIGHT;
 922              		.loc 1 620 31 is_stmt 0 view .LVU314
 923 0026 104A     		ldr	r2, .L39+8
 924 0028 8262     		str	r2, [r0, #40]
 621:Core/Src/main.c ****   hadc3.Init.NbrOfConversion = 1;
 925              		.loc 1 621 3 is_stmt 1 view .LVU315
 621:Core/Src/main.c ****   hadc3.Init.NbrOfConversion = 1;
 926              		.loc 1 621 24 is_stmt 0 view .LVU316
 927 002a C360     		str	r3, [r0, #12]
 622:Core/Src/main.c ****   hadc3.Init.DMAContinuousRequests = DISABLE;
 928              		.loc 1 622 3 is_stmt 1 view .LVU317
 622:Core/Src/main.c ****   hadc3.Init.DMAContinuousRequests = DISABLE;
 929              		.loc 1 622 30 is_stmt 0 view .LVU318
 930 002c 0122     		movs	r2, #1
 931 002e C261     		str	r2, [r0, #28]
 623:Core/Src/main.c ****   hadc3.Init.EOCSelection = ADC_EOC_SINGLE_CONV;
 932              		.loc 1 623 3 is_stmt 1 view .LVU319
 623:Core/Src/main.c ****   hadc3.Init.EOCSelection = ADC_EOC_SINGLE_CONV;
 933              		.loc 1 623 36 is_stmt 0 view .LVU320
 934 0030 80F83030 		strb	r3, [r0, #48]
ARM GAS  C:\Users\benny\AppData\Local\Temp\ccjrekJt.s 			page 51


 624:Core/Src/main.c ****   if (HAL_ADC_Init(&hadc3) != HAL_OK)
 935              		.loc 1 624 3 is_stmt 1 view .LVU321
 624:Core/Src/main.c ****   if (HAL_ADC_Init(&hadc3) != HAL_OK)
 936              		.loc 1 624 27 is_stmt 0 view .LVU322
 937 0034 4261     		str	r2, [r0, #20]
 625:Core/Src/main.c ****   {
 938              		.loc 1 625 3 is_stmt 1 view .LVU323
 625:Core/Src/main.c ****   {
 939              		.loc 1 625 7 is_stmt 0 view .LVU324
 940 0036 FFF7FEFF 		bl	HAL_ADC_Init
 941              	.LVL39:
 625:Core/Src/main.c ****   {
 942              		.loc 1 625 6 view .LVU325
 943 003a 68B9     		cbnz	r0, .L37
 632:Core/Src/main.c ****   sConfig.Rank = ADC_REGULAR_RANK_1;
 944              		.loc 1 632 3 is_stmt 1 view .LVU326
 632:Core/Src/main.c ****   sConfig.Rank = ADC_REGULAR_RANK_1;
 945              		.loc 1 632 19 is_stmt 0 view .LVU327
 946 003c 0823     		movs	r3, #8
 947 003e 0093     		str	r3, [sp]
 633:Core/Src/main.c ****   sConfig.SamplingTime = ADC_SAMPLETIME_3CYCLES;
 948              		.loc 1 633 3 is_stmt 1 view .LVU328
 633:Core/Src/main.c ****   sConfig.SamplingTime = ADC_SAMPLETIME_3CYCLES;
 949              		.loc 1 633 16 is_stmt 0 view .LVU329
 950 0040 0123     		movs	r3, #1
 951 0042 0193     		str	r3, [sp, #4]
 634:Core/Src/main.c ****   if (HAL_ADC_ConfigChannel(&hadc3, &sConfig) != HAL_OK)
 952              		.loc 1 634 3 is_stmt 1 view .LVU330
 634:Core/Src/main.c ****   if (HAL_ADC_ConfigChannel(&hadc3, &sConfig) != HAL_OK)
 953              		.loc 1 634 24 is_stmt 0 view .LVU331
 954 0044 0023     		movs	r3, #0
 955 0046 0293     		str	r3, [sp, #8]
 635:Core/Src/main.c ****   {
 956              		.loc 1 635 3 is_stmt 1 view .LVU332
 635:Core/Src/main.c ****   {
 957              		.loc 1 635 7 is_stmt 0 view .LVU333
 958 0048 6946     		mov	r1, sp
 959 004a 0548     		ldr	r0, .L39
 960 004c FFF7FEFF 		bl	HAL_ADC_ConfigChannel
 961              	.LVL40:
 635:Core/Src/main.c ****   {
 962              		.loc 1 635 6 view .LVU334
 963 0050 20B9     		cbnz	r0, .L38
 643:Core/Src/main.c **** 
 964              		.loc 1 643 1 view .LVU335
 965 0052 05B0     		add	sp, sp, #20
 966              	.LCFI14:
 967              		.cfi_remember_state
 968              		.cfi_def_cfa_offset 4
 969              		@ sp needed
 970 0054 5DF804FB 		ldr	pc, [sp], #4
 971              	.L37:
 972              	.LCFI15:
 973              		.cfi_restore_state
 627:Core/Src/main.c ****   }
 974              		.loc 1 627 5 is_stmt 1 view .LVU336
 975 0058 FFF7FEFF 		bl	Error_Handler
ARM GAS  C:\Users\benny\AppData\Local\Temp\ccjrekJt.s 			page 52


 976              	.LVL41:
 977              	.L38:
 637:Core/Src/main.c ****   }
 978              		.loc 1 637 5 view .LVU337
 979 005c FFF7FEFF 		bl	Error_Handler
 980              	.LVL42:
 981              	.L40:
 982              		.align	2
 983              	.L39:
 984 0060 00000000 		.word	hadc3
 985 0064 00220140 		.word	1073816064
 986 0068 0100000F 		.word	251658241
 987              		.cfi_endproc
 988              	.LFE149:
 990              		.section	.text.MX_FMC_Init,"ax",%progbits
 991              		.align	1
 992              		.syntax unified
 993              		.thumb
 994              		.thumb_func
 996              	MX_FMC_Init:
 997              	.LFB167:
1387:Core/Src/main.c **** 
 998              		.loc 1 1387 1 view -0
 999              		.cfi_startproc
 1000              		@ args = 0, pretend = 0, frame = 32
 1001              		@ frame_needed = 0, uses_anonymous_args = 0
 1002 0000 10B5     		push	{r4, lr}
 1003              	.LCFI16:
 1004              		.cfi_def_cfa_offset 8
 1005              		.cfi_offset 4, -8
 1006              		.cfi_offset 14, -4
 1007 0002 88B0     		sub	sp, sp, #32
 1008              	.LCFI17:
 1009              		.cfi_def_cfa_offset 40
1393:Core/Src/main.c **** 
 1010              		.loc 1 1393 3 view .LVU339
1393:Core/Src/main.c **** 
 1011              		.loc 1 1393 29 is_stmt 0 view .LVU340
 1012 0004 0022     		movs	r2, #0
 1013 0006 0192     		str	r2, [sp, #4]
 1014 0008 0292     		str	r2, [sp, #8]
 1015 000a 0392     		str	r2, [sp, #12]
 1016 000c 0492     		str	r2, [sp, #16]
 1017 000e 0592     		str	r2, [sp, #20]
 1018 0010 0692     		str	r2, [sp, #24]
 1019 0012 0792     		str	r2, [sp, #28]
1401:Core/Src/main.c ****   hsram1.Extended = FMC_NORSRAM_EXTENDED_DEVICE;
 1020              		.loc 1 1401 3 is_stmt 1 view .LVU341
1401:Core/Src/main.c ****   hsram1.Extended = FMC_NORSRAM_EXTENDED_DEVICE;
 1021              		.loc 1 1401 19 is_stmt 0 view .LVU342
 1022 0014 2B48     		ldr	r0, .L47
 1023 0016 4FF02043 		mov	r3, #-1610612736
 1024 001a 0360     		str	r3, [r0]
1402:Core/Src/main.c ****   /* hsram1.Init */
 1025              		.loc 1 1402 3 is_stmt 1 view .LVU343
1402:Core/Src/main.c ****   /* hsram1.Init */
 1026              		.loc 1 1402 19 is_stmt 0 view .LVU344
ARM GAS  C:\Users\benny\AppData\Local\Temp\ccjrekJt.s 			page 53


 1027 001c 03F58273 		add	r3, r3, #260
 1028 0020 4360     		str	r3, [r0, #4]
1404:Core/Src/main.c ****   hsram1.Init.DataAddressMux = FMC_DATA_ADDRESS_MUX_DISABLE;
 1029              		.loc 1 1404 3 is_stmt 1 view .LVU345
1404:Core/Src/main.c ****   hsram1.Init.DataAddressMux = FMC_DATA_ADDRESS_MUX_DISABLE;
 1030              		.loc 1 1404 22 is_stmt 0 view .LVU346
 1031 0022 8260     		str	r2, [r0, #8]
1405:Core/Src/main.c ****   hsram1.Init.MemoryType = FMC_MEMORY_TYPE_PSRAM;
 1032              		.loc 1 1405 3 is_stmt 1 view .LVU347
1405:Core/Src/main.c ****   hsram1.Init.MemoryType = FMC_MEMORY_TYPE_PSRAM;
 1033              		.loc 1 1405 30 is_stmt 0 view .LVU348
 1034 0024 C260     		str	r2, [r0, #12]
1406:Core/Src/main.c ****   hsram1.Init.MemoryDataWidth = FMC_NORSRAM_MEM_BUS_WIDTH_16;
 1035              		.loc 1 1406 3 is_stmt 1 view .LVU349
1406:Core/Src/main.c ****   hsram1.Init.MemoryDataWidth = FMC_NORSRAM_MEM_BUS_WIDTH_16;
 1036              		.loc 1 1406 26 is_stmt 0 view .LVU350
 1037 0026 0423     		movs	r3, #4
 1038 0028 0361     		str	r3, [r0, #16]
1407:Core/Src/main.c ****   hsram1.Init.BurstAccessMode = FMC_BURST_ACCESS_MODE_DISABLE;
 1039              		.loc 1 1407 3 is_stmt 1 view .LVU351
1407:Core/Src/main.c ****   hsram1.Init.BurstAccessMode = FMC_BURST_ACCESS_MODE_DISABLE;
 1040              		.loc 1 1407 31 is_stmt 0 view .LVU352
 1041 002a 1021     		movs	r1, #16
 1042 002c 4161     		str	r1, [r0, #20]
1408:Core/Src/main.c ****   hsram1.Init.WaitSignalPolarity = FMC_WAIT_SIGNAL_POLARITY_LOW;
 1043              		.loc 1 1408 3 is_stmt 1 view .LVU353
1408:Core/Src/main.c ****   hsram1.Init.WaitSignalPolarity = FMC_WAIT_SIGNAL_POLARITY_LOW;
 1044              		.loc 1 1408 31 is_stmt 0 view .LVU354
 1045 002e 8261     		str	r2, [r0, #24]
1409:Core/Src/main.c ****   hsram1.Init.WaitSignalActive = FMC_WAIT_TIMING_BEFORE_WS;
 1046              		.loc 1 1409 3 is_stmt 1 view .LVU355
1409:Core/Src/main.c ****   hsram1.Init.WaitSignalActive = FMC_WAIT_TIMING_BEFORE_WS;
 1047              		.loc 1 1409 34 is_stmt 0 view .LVU356
 1048 0030 C261     		str	r2, [r0, #28]
1410:Core/Src/main.c ****   hsram1.Init.WriteOperation = FMC_WRITE_OPERATION_ENABLE;
 1049              		.loc 1 1410 3 is_stmt 1 view .LVU357
1410:Core/Src/main.c ****   hsram1.Init.WriteOperation = FMC_WRITE_OPERATION_ENABLE;
 1050              		.loc 1 1410 32 is_stmt 0 view .LVU358
 1051 0032 0262     		str	r2, [r0, #32]
1411:Core/Src/main.c ****   hsram1.Init.WaitSignal = FMC_WAIT_SIGNAL_DISABLE;
 1052              		.loc 1 1411 3 is_stmt 1 view .LVU359
1411:Core/Src/main.c ****   hsram1.Init.WaitSignal = FMC_WAIT_SIGNAL_DISABLE;
 1053              		.loc 1 1411 30 is_stmt 0 view .LVU360
 1054 0034 4FF48053 		mov	r3, #4096
 1055 0038 4362     		str	r3, [r0, #36]
1412:Core/Src/main.c ****   hsram1.Init.ExtendedMode = FMC_EXTENDED_MODE_DISABLE;
 1056              		.loc 1 1412 3 is_stmt 1 view .LVU361
1412:Core/Src/main.c ****   hsram1.Init.ExtendedMode = FMC_EXTENDED_MODE_DISABLE;
 1057              		.loc 1 1412 26 is_stmt 0 view .LVU362
 1058 003a 8262     		str	r2, [r0, #40]
1413:Core/Src/main.c ****   hsram1.Init.AsynchronousWait = FMC_ASYNCHRONOUS_WAIT_DISABLE;
 1059              		.loc 1 1413 3 is_stmt 1 view .LVU363
1413:Core/Src/main.c ****   hsram1.Init.AsynchronousWait = FMC_ASYNCHRONOUS_WAIT_DISABLE;
 1060              		.loc 1 1413 28 is_stmt 0 view .LVU364
 1061 003c C262     		str	r2, [r0, #44]
1414:Core/Src/main.c ****   hsram1.Init.WriteBurst = FMC_WRITE_BURST_DISABLE;
 1062              		.loc 1 1414 3 is_stmt 1 view .LVU365
ARM GAS  C:\Users\benny\AppData\Local\Temp\ccjrekJt.s 			page 54


1414:Core/Src/main.c ****   hsram1.Init.WriteBurst = FMC_WRITE_BURST_DISABLE;
 1063              		.loc 1 1414 32 is_stmt 0 view .LVU366
 1064 003e 0263     		str	r2, [r0, #48]
1415:Core/Src/main.c ****   hsram1.Init.ContinuousClock = FMC_CONTINUOUS_CLOCK_SYNC_ONLY;
 1065              		.loc 1 1415 3 is_stmt 1 view .LVU367
1415:Core/Src/main.c ****   hsram1.Init.ContinuousClock = FMC_CONTINUOUS_CLOCK_SYNC_ONLY;
 1066              		.loc 1 1415 26 is_stmt 0 view .LVU368
 1067 0040 4263     		str	r2, [r0, #52]
1416:Core/Src/main.c ****   hsram1.Init.WriteFifo = FMC_WRITE_FIFO_ENABLE;
 1068              		.loc 1 1416 3 is_stmt 1 view .LVU369
1416:Core/Src/main.c ****   hsram1.Init.WriteFifo = FMC_WRITE_FIFO_ENABLE;
 1069              		.loc 1 1416 31 is_stmt 0 view .LVU370
 1070 0042 8263     		str	r2, [r0, #56]
1417:Core/Src/main.c ****   hsram1.Init.PageSize = FMC_PAGE_SIZE_NONE;
 1071              		.loc 1 1417 3 is_stmt 1 view .LVU371
1417:Core/Src/main.c ****   hsram1.Init.PageSize = FMC_PAGE_SIZE_NONE;
 1072              		.loc 1 1417 25 is_stmt 0 view .LVU372
 1073 0044 C263     		str	r2, [r0, #60]
1418:Core/Src/main.c ****   /* Timing */
 1074              		.loc 1 1418 3 is_stmt 1 view .LVU373
1418:Core/Src/main.c ****   /* Timing */
 1075              		.loc 1 1418 24 is_stmt 0 view .LVU374
 1076 0046 0264     		str	r2, [r0, #64]
1420:Core/Src/main.c ****   Timing.AddressHoldTime = 15;
 1077              		.loc 1 1420 3 is_stmt 1 view .LVU375
1420:Core/Src/main.c ****   Timing.AddressHoldTime = 15;
 1078              		.loc 1 1420 27 is_stmt 0 view .LVU376
 1079 0048 0F23     		movs	r3, #15
 1080 004a 0193     		str	r3, [sp, #4]
1421:Core/Src/main.c ****   Timing.DataSetupTime = 255;
 1081              		.loc 1 1421 3 is_stmt 1 view .LVU377
1421:Core/Src/main.c ****   Timing.DataSetupTime = 255;
 1082              		.loc 1 1421 26 is_stmt 0 view .LVU378
 1083 004c 0293     		str	r3, [sp, #8]
1422:Core/Src/main.c ****   Timing.BusTurnAroundDuration = 15;
 1084              		.loc 1 1422 3 is_stmt 1 view .LVU379
1422:Core/Src/main.c ****   Timing.BusTurnAroundDuration = 15;
 1085              		.loc 1 1422 24 is_stmt 0 view .LVU380
 1086 004e FF24     		movs	r4, #255
 1087 0050 0394     		str	r4, [sp, #12]
1423:Core/Src/main.c ****   Timing.CLKDivision = 16;
 1088              		.loc 1 1423 3 is_stmt 1 view .LVU381
1423:Core/Src/main.c ****   Timing.CLKDivision = 16;
 1089              		.loc 1 1423 32 is_stmt 0 view .LVU382
 1090 0052 0493     		str	r3, [sp, #16]
1424:Core/Src/main.c ****   Timing.DataLatency = 17;
 1091              		.loc 1 1424 3 is_stmt 1 view .LVU383
1424:Core/Src/main.c ****   Timing.DataLatency = 17;
 1092              		.loc 1 1424 22 is_stmt 0 view .LVU384
 1093 0054 0591     		str	r1, [sp, #20]
1425:Core/Src/main.c ****   Timing.AccessMode = FMC_ACCESS_MODE_A;
 1094              		.loc 1 1425 3 is_stmt 1 view .LVU385
1425:Core/Src/main.c ****   Timing.AccessMode = FMC_ACCESS_MODE_A;
 1095              		.loc 1 1425 22 is_stmt 0 view .LVU386
 1096 0056 1123     		movs	r3, #17
 1097 0058 0693     		str	r3, [sp, #24]
1426:Core/Src/main.c ****   /* ExtTiming */
ARM GAS  C:\Users\benny\AppData\Local\Temp\ccjrekJt.s 			page 55


 1098              		.loc 1 1426 3 is_stmt 1 view .LVU387
1429:Core/Src/main.c ****   {
 1099              		.loc 1 1429 3 view .LVU388
1429:Core/Src/main.c ****   {
 1100              		.loc 1 1429 7 is_stmt 0 view .LVU389
 1101 005a 01A9     		add	r1, sp, #4
 1102 005c FFF7FEFF 		bl	HAL_SRAM_Init
 1103              	.LVL43:
1429:Core/Src/main.c ****   {
 1104              		.loc 1 1429 6 view .LVU390
 1105 0060 0028     		cmp	r0, #0
 1106 0062 2AD1     		bne	.L45
1436:Core/Src/main.c ****   hsram2.Extended = FMC_NORSRAM_EXTENDED_DEVICE;
 1107              		.loc 1 1436 3 is_stmt 1 view .LVU391
1436:Core/Src/main.c ****   hsram2.Extended = FMC_NORSRAM_EXTENDED_DEVICE;
 1108              		.loc 1 1436 19 is_stmt 0 view .LVU392
 1109 0064 1848     		ldr	r0, .L47+4
 1110 0066 4FF02043 		mov	r3, #-1610612736
 1111 006a 0360     		str	r3, [r0]
1437:Core/Src/main.c ****   /* hsram2.Init */
 1112              		.loc 1 1437 3 is_stmt 1 view .LVU393
1437:Core/Src/main.c ****   /* hsram2.Init */
 1113              		.loc 1 1437 19 is_stmt 0 view .LVU394
 1114 006c 03F58273 		add	r3, r3, #260
 1115 0070 4360     		str	r3, [r0, #4]
1439:Core/Src/main.c ****   hsram2.Init.DataAddressMux = FMC_DATA_ADDRESS_MUX_DISABLE;
 1116              		.loc 1 1439 3 is_stmt 1 view .LVU395
1439:Core/Src/main.c ****   hsram2.Init.DataAddressMux = FMC_DATA_ADDRESS_MUX_DISABLE;
 1117              		.loc 1 1439 22 is_stmt 0 view .LVU396
 1118 0072 0223     		movs	r3, #2
 1119 0074 8360     		str	r3, [r0, #8]
1440:Core/Src/main.c ****   hsram2.Init.MemoryType = FMC_MEMORY_TYPE_SRAM;
 1120              		.loc 1 1440 3 is_stmt 1 view .LVU397
1440:Core/Src/main.c ****   hsram2.Init.MemoryType = FMC_MEMORY_TYPE_SRAM;
 1121              		.loc 1 1440 30 is_stmt 0 view .LVU398
 1122 0076 0022     		movs	r2, #0
 1123 0078 C260     		str	r2, [r0, #12]
1441:Core/Src/main.c ****   hsram2.Init.MemoryDataWidth = FMC_NORSRAM_MEM_BUS_WIDTH_16;
 1124              		.loc 1 1441 3 is_stmt 1 view .LVU399
1441:Core/Src/main.c ****   hsram2.Init.MemoryDataWidth = FMC_NORSRAM_MEM_BUS_WIDTH_16;
 1125              		.loc 1 1441 26 is_stmt 0 view .LVU400
 1126 007a 0261     		str	r2, [r0, #16]
1442:Core/Src/main.c ****   hsram2.Init.BurstAccessMode = FMC_BURST_ACCESS_MODE_DISABLE;
 1127              		.loc 1 1442 3 is_stmt 1 view .LVU401
1442:Core/Src/main.c ****   hsram2.Init.BurstAccessMode = FMC_BURST_ACCESS_MODE_DISABLE;
 1128              		.loc 1 1442 31 is_stmt 0 view .LVU402
 1129 007c 1021     		movs	r1, #16
 1130 007e 4161     		str	r1, [r0, #20]
1443:Core/Src/main.c ****   hsram2.Init.WaitSignalPolarity = FMC_WAIT_SIGNAL_POLARITY_LOW;
 1131              		.loc 1 1443 3 is_stmt 1 view .LVU403
1443:Core/Src/main.c ****   hsram2.Init.WaitSignalPolarity = FMC_WAIT_SIGNAL_POLARITY_LOW;
 1132              		.loc 1 1443 31 is_stmt 0 view .LVU404
 1133 0080 8261     		str	r2, [r0, #24]
1444:Core/Src/main.c ****   hsram2.Init.WaitSignalActive = FMC_WAIT_TIMING_BEFORE_WS;
 1134              		.loc 1 1444 3 is_stmt 1 view .LVU405
1444:Core/Src/main.c ****   hsram2.Init.WaitSignalActive = FMC_WAIT_TIMING_BEFORE_WS;
 1135              		.loc 1 1444 34 is_stmt 0 view .LVU406
ARM GAS  C:\Users\benny\AppData\Local\Temp\ccjrekJt.s 			page 56


 1136 0082 C261     		str	r2, [r0, #28]
1445:Core/Src/main.c ****   hsram2.Init.WriteOperation = FMC_WRITE_OPERATION_ENABLE;
 1137              		.loc 1 1445 3 is_stmt 1 view .LVU407
1445:Core/Src/main.c ****   hsram2.Init.WriteOperation = FMC_WRITE_OPERATION_ENABLE;
 1138              		.loc 1 1445 32 is_stmt 0 view .LVU408
 1139 0084 0262     		str	r2, [r0, #32]
1446:Core/Src/main.c ****   hsram2.Init.WaitSignal = FMC_WAIT_SIGNAL_DISABLE;
 1140              		.loc 1 1446 3 is_stmt 1 view .LVU409
1446:Core/Src/main.c ****   hsram2.Init.WaitSignal = FMC_WAIT_SIGNAL_DISABLE;
 1141              		.loc 1 1446 30 is_stmt 0 view .LVU410
 1142 0086 4FF48053 		mov	r3, #4096
 1143 008a 4362     		str	r3, [r0, #36]
1447:Core/Src/main.c ****   hsram2.Init.ExtendedMode = FMC_EXTENDED_MODE_DISABLE;
 1144              		.loc 1 1447 3 is_stmt 1 view .LVU411
1447:Core/Src/main.c ****   hsram2.Init.ExtendedMode = FMC_EXTENDED_MODE_DISABLE;
 1145              		.loc 1 1447 26 is_stmt 0 view .LVU412
 1146 008c 8262     		str	r2, [r0, #40]
1448:Core/Src/main.c ****   hsram2.Init.AsynchronousWait = FMC_ASYNCHRONOUS_WAIT_DISABLE;
 1147              		.loc 1 1448 3 is_stmt 1 view .LVU413
1448:Core/Src/main.c ****   hsram2.Init.AsynchronousWait = FMC_ASYNCHRONOUS_WAIT_DISABLE;
 1148              		.loc 1 1448 28 is_stmt 0 view .LVU414
 1149 008e C262     		str	r2, [r0, #44]
1449:Core/Src/main.c ****   hsram2.Init.WriteBurst = FMC_WRITE_BURST_DISABLE;
 1150              		.loc 1 1449 3 is_stmt 1 view .LVU415
1449:Core/Src/main.c ****   hsram2.Init.WriteBurst = FMC_WRITE_BURST_DISABLE;
 1151              		.loc 1 1449 32 is_stmt 0 view .LVU416
 1152 0090 0263     		str	r2, [r0, #48]
1450:Core/Src/main.c ****   hsram2.Init.ContinuousClock = FMC_CONTINUOUS_CLOCK_SYNC_ONLY;
 1153              		.loc 1 1450 3 is_stmt 1 view .LVU417
1450:Core/Src/main.c ****   hsram2.Init.ContinuousClock = FMC_CONTINUOUS_CLOCK_SYNC_ONLY;
 1154              		.loc 1 1450 26 is_stmt 0 view .LVU418
 1155 0092 4263     		str	r2, [r0, #52]
1451:Core/Src/main.c ****   hsram2.Init.WriteFifo = FMC_WRITE_FIFO_ENABLE;
 1156              		.loc 1 1451 3 is_stmt 1 view .LVU419
1451:Core/Src/main.c ****   hsram2.Init.WriteFifo = FMC_WRITE_FIFO_ENABLE;
 1157              		.loc 1 1451 31 is_stmt 0 view .LVU420
 1158 0094 8263     		str	r2, [r0, #56]
1452:Core/Src/main.c ****   hsram2.Init.PageSize = FMC_PAGE_SIZE_NONE;
 1159              		.loc 1 1452 3 is_stmt 1 view .LVU421
1452:Core/Src/main.c ****   hsram2.Init.PageSize = FMC_PAGE_SIZE_NONE;
 1160              		.loc 1 1452 25 is_stmt 0 view .LVU422
 1161 0096 C263     		str	r2, [r0, #60]
1453:Core/Src/main.c ****   /* Timing */
 1162              		.loc 1 1453 3 is_stmt 1 view .LVU423
1453:Core/Src/main.c ****   /* Timing */
 1163              		.loc 1 1453 24 is_stmt 0 view .LVU424
 1164 0098 0264     		str	r2, [r0, #64]
1455:Core/Src/main.c ****   Timing.AddressHoldTime = 15;
 1165              		.loc 1 1455 3 is_stmt 1 view .LVU425
1455:Core/Src/main.c ****   Timing.AddressHoldTime = 15;
 1166              		.loc 1 1455 27 is_stmt 0 view .LVU426
 1167 009a 0F23     		movs	r3, #15
 1168 009c 0193     		str	r3, [sp, #4]
1456:Core/Src/main.c ****   Timing.DataSetupTime = 255;
 1169              		.loc 1 1456 3 is_stmt 1 view .LVU427
1456:Core/Src/main.c ****   Timing.DataSetupTime = 255;
 1170              		.loc 1 1456 26 is_stmt 0 view .LVU428
ARM GAS  C:\Users\benny\AppData\Local\Temp\ccjrekJt.s 			page 57


 1171 009e 0293     		str	r3, [sp, #8]
1457:Core/Src/main.c ****   Timing.BusTurnAroundDuration = 15;
 1172              		.loc 1 1457 3 is_stmt 1 view .LVU429
1457:Core/Src/main.c ****   Timing.BusTurnAroundDuration = 15;
 1173              		.loc 1 1457 24 is_stmt 0 view .LVU430
 1174 00a0 FF24     		movs	r4, #255
 1175 00a2 0394     		str	r4, [sp, #12]
1458:Core/Src/main.c ****   Timing.CLKDivision = 16;
 1176              		.loc 1 1458 3 is_stmt 1 view .LVU431
1458:Core/Src/main.c ****   Timing.CLKDivision = 16;
 1177              		.loc 1 1458 32 is_stmt 0 view .LVU432
 1178 00a4 0493     		str	r3, [sp, #16]
1459:Core/Src/main.c ****   Timing.DataLatency = 17;
 1179              		.loc 1 1459 3 is_stmt 1 view .LVU433
1459:Core/Src/main.c ****   Timing.DataLatency = 17;
 1180              		.loc 1 1459 22 is_stmt 0 view .LVU434
 1181 00a6 0591     		str	r1, [sp, #20]
1460:Core/Src/main.c ****   Timing.AccessMode = FMC_ACCESS_MODE_A;
 1182              		.loc 1 1460 3 is_stmt 1 view .LVU435
1460:Core/Src/main.c ****   Timing.AccessMode = FMC_ACCESS_MODE_A;
 1183              		.loc 1 1460 22 is_stmt 0 view .LVU436
 1184 00a8 1123     		movs	r3, #17
 1185 00aa 0693     		str	r3, [sp, #24]
1461:Core/Src/main.c ****   /* ExtTiming */
 1186              		.loc 1 1461 3 is_stmt 1 view .LVU437
1461:Core/Src/main.c ****   /* ExtTiming */
 1187              		.loc 1 1461 21 is_stmt 0 view .LVU438
 1188 00ac 0792     		str	r2, [sp, #28]
1464:Core/Src/main.c ****   {
 1189              		.loc 1 1464 3 is_stmt 1 view .LVU439
1464:Core/Src/main.c ****   {
 1190              		.loc 1 1464 7 is_stmt 0 view .LVU440
 1191 00ae 01A9     		add	r1, sp, #4
 1192 00b0 FFF7FEFF 		bl	HAL_SRAM_Init
 1193              	.LVL44:
1464:Core/Src/main.c ****   {
 1194              		.loc 1 1464 6 view .LVU441
 1195 00b4 18B9     		cbnz	r0, .L46
1472:Core/Src/main.c **** 
 1196              		.loc 1 1472 1 view .LVU442
 1197 00b6 08B0     		add	sp, sp, #32
 1198              	.LCFI18:
 1199              		.cfi_remember_state
 1200              		.cfi_def_cfa_offset 8
 1201              		@ sp needed
 1202 00b8 10BD     		pop	{r4, pc}
 1203              	.L45:
 1204              	.LCFI19:
 1205              		.cfi_restore_state
1431:Core/Src/main.c ****   }
 1206              		.loc 1 1431 5 is_stmt 1 view .LVU443
 1207 00ba FFF7FEFF 		bl	Error_Handler
 1208              	.LVL45:
 1209              	.L46:
1466:Core/Src/main.c ****   }
 1210              		.loc 1 1466 5 view .LVU444
 1211 00be FFF7FEFF 		bl	Error_Handler
ARM GAS  C:\Users\benny\AppData\Local\Temp\ccjrekJt.s 			page 58


 1212              	.LVL46:
 1213              	.L48:
 1214 00c2 00BF     		.align	2
 1215              	.L47:
 1216 00c4 00000000 		.word	hsram1
 1217 00c8 00000000 		.word	hsram2
 1218              		.cfi_endproc
 1219              	.LFE167:
 1221              		.section	.text.MX_I2C1_Init,"ax",%progbits
 1222              		.align	1
 1223              		.syntax unified
 1224              		.thumb
 1225              		.thumb_func
 1227              	MX_I2C1_Init:
 1228              	.LFB150:
 651:Core/Src/main.c **** 
 1229              		.loc 1 651 1 view -0
 1230              		.cfi_startproc
 1231              		@ args = 0, pretend = 0, frame = 0
 1232              		@ frame_needed = 0, uses_anonymous_args = 0
 1233 0000 08B5     		push	{r3, lr}
 1234              	.LCFI20:
 1235              		.cfi_def_cfa_offset 8
 1236              		.cfi_offset 3, -8
 1237              		.cfi_offset 14, -4
 660:Core/Src/main.c ****   hi2c1.Init.Timing = 0x6000030D;
 1238              		.loc 1 660 3 view .LVU446
 660:Core/Src/main.c ****   hi2c1.Init.Timing = 0x6000030D;
 1239              		.loc 1 660 18 is_stmt 0 view .LVU447
 1240 0002 1148     		ldr	r0, .L57
 1241 0004 114B     		ldr	r3, .L57+4
 1242 0006 0360     		str	r3, [r0]
 661:Core/Src/main.c ****   hi2c1.Init.OwnAddress1 = 0;
 1243              		.loc 1 661 3 is_stmt 1 view .LVU448
 661:Core/Src/main.c ****   hi2c1.Init.OwnAddress1 = 0;
 1244              		.loc 1 661 21 is_stmt 0 view .LVU449
 1245 0008 114B     		ldr	r3, .L57+8
 1246 000a 4360     		str	r3, [r0, #4]
 662:Core/Src/main.c ****   hi2c1.Init.AddressingMode = I2C_ADDRESSINGMODE_7BIT;
 1247              		.loc 1 662 3 is_stmt 1 view .LVU450
 662:Core/Src/main.c ****   hi2c1.Init.AddressingMode = I2C_ADDRESSINGMODE_7BIT;
 1248              		.loc 1 662 26 is_stmt 0 view .LVU451
 1249 000c 0023     		movs	r3, #0
 1250 000e 8360     		str	r3, [r0, #8]
 663:Core/Src/main.c ****   hi2c1.Init.DualAddressMode = I2C_DUALADDRESS_DISABLE;
 1251              		.loc 1 663 3 is_stmt 1 view .LVU452
 663:Core/Src/main.c ****   hi2c1.Init.DualAddressMode = I2C_DUALADDRESS_DISABLE;
 1252              		.loc 1 663 29 is_stmt 0 view .LVU453
 1253 0010 0122     		movs	r2, #1
 1254 0012 C260     		str	r2, [r0, #12]
 664:Core/Src/main.c ****   hi2c1.Init.OwnAddress2 = 0;
 1255              		.loc 1 664 3 is_stmt 1 view .LVU454
 664:Core/Src/main.c ****   hi2c1.Init.OwnAddress2 = 0;
 1256              		.loc 1 664 30 is_stmt 0 view .LVU455
 1257 0014 0361     		str	r3, [r0, #16]
 665:Core/Src/main.c ****   hi2c1.Init.OwnAddress2Masks = I2C_OA2_NOMASK;
 1258              		.loc 1 665 3 is_stmt 1 view .LVU456
ARM GAS  C:\Users\benny\AppData\Local\Temp\ccjrekJt.s 			page 59


 665:Core/Src/main.c ****   hi2c1.Init.OwnAddress2Masks = I2C_OA2_NOMASK;
 1259              		.loc 1 665 26 is_stmt 0 view .LVU457
 1260 0016 4361     		str	r3, [r0, #20]
 666:Core/Src/main.c ****   hi2c1.Init.GeneralCallMode = I2C_GENERALCALL_DISABLE;
 1261              		.loc 1 666 3 is_stmt 1 view .LVU458
 666:Core/Src/main.c ****   hi2c1.Init.GeneralCallMode = I2C_GENERALCALL_DISABLE;
 1262              		.loc 1 666 31 is_stmt 0 view .LVU459
 1263 0018 8361     		str	r3, [r0, #24]
 667:Core/Src/main.c ****   hi2c1.Init.NoStretchMode = I2C_NOSTRETCH_DISABLE;
 1264              		.loc 1 667 3 is_stmt 1 view .LVU460
 667:Core/Src/main.c ****   hi2c1.Init.NoStretchMode = I2C_NOSTRETCH_DISABLE;
 1265              		.loc 1 667 30 is_stmt 0 view .LVU461
 1266 001a C361     		str	r3, [r0, #28]
 668:Core/Src/main.c ****   if (HAL_I2C_Init(&hi2c1) != HAL_OK)
 1267              		.loc 1 668 3 is_stmt 1 view .LVU462
 668:Core/Src/main.c ****   if (HAL_I2C_Init(&hi2c1) != HAL_OK)
 1268              		.loc 1 668 28 is_stmt 0 view .LVU463
 1269 001c 0362     		str	r3, [r0, #32]
 669:Core/Src/main.c ****   {
 1270              		.loc 1 669 3 is_stmt 1 view .LVU464
 669:Core/Src/main.c ****   {
 1271              		.loc 1 669 7 is_stmt 0 view .LVU465
 1272 001e FFF7FEFF 		bl	HAL_I2C_Init
 1273              	.LVL47:
 669:Core/Src/main.c ****   {
 1274              		.loc 1 669 6 view .LVU466
 1275 0022 50B9     		cbnz	r0, .L54
 676:Core/Src/main.c ****   {
 1276              		.loc 1 676 3 is_stmt 1 view .LVU467
 676:Core/Src/main.c ****   {
 1277              		.loc 1 676 7 is_stmt 0 view .LVU468
 1278 0024 0021     		movs	r1, #0
 1279 0026 0848     		ldr	r0, .L57
 1280 0028 FFF7FEFF 		bl	HAL_I2CEx_ConfigAnalogFilter
 1281              	.LVL48:
 676:Core/Src/main.c ****   {
 1282              		.loc 1 676 6 view .LVU469
 1283 002c 38B9     		cbnz	r0, .L55
 683:Core/Src/main.c ****   {
 1284              		.loc 1 683 3 is_stmt 1 view .LVU470
 683:Core/Src/main.c ****   {
 1285              		.loc 1 683 7 is_stmt 0 view .LVU471
 1286 002e 0021     		movs	r1, #0
 1287 0030 0548     		ldr	r0, .L57
 1288 0032 FFF7FEFF 		bl	HAL_I2CEx_ConfigDigitalFilter
 1289              	.LVL49:
 683:Core/Src/main.c ****   {
 1290              		.loc 1 683 6 view .LVU472
 1291 0036 20B9     		cbnz	r0, .L56
 691:Core/Src/main.c **** 
 1292              		.loc 1 691 1 view .LVU473
 1293 0038 08BD     		pop	{r3, pc}
 1294              	.L54:
 671:Core/Src/main.c ****   }
 1295              		.loc 1 671 5 is_stmt 1 view .LVU474
 1296 003a FFF7FEFF 		bl	Error_Handler
 1297              	.LVL50:
ARM GAS  C:\Users\benny\AppData\Local\Temp\ccjrekJt.s 			page 60


 1298              	.L55:
 678:Core/Src/main.c ****   }
 1299              		.loc 1 678 5 view .LVU475
 1300 003e FFF7FEFF 		bl	Error_Handler
 1301              	.LVL51:
 1302              	.L56:
 685:Core/Src/main.c ****   }
 1303              		.loc 1 685 5 view .LVU476
 1304 0042 FFF7FEFF 		bl	Error_Handler
 1305              	.LVL52:
 1306              	.L58:
 1307 0046 00BF     		.align	2
 1308              	.L57:
 1309 0048 00000000 		.word	hi2c1
 1310 004c 00540040 		.word	1073763328
 1311 0050 0D030060 		.word	1610613517
 1312              		.cfi_endproc
 1313              	.LFE150:
 1315              		.section	.text.MX_I2C2_Init,"ax",%progbits
 1316              		.align	1
 1317              		.syntax unified
 1318              		.thumb
 1319              		.thumb_func
 1321              	MX_I2C2_Init:
 1322              	.LFB151:
 699:Core/Src/main.c **** 
 1323              		.loc 1 699 1 view -0
 1324              		.cfi_startproc
 1325              		@ args = 0, pretend = 0, frame = 0
 1326              		@ frame_needed = 0, uses_anonymous_args = 0
 1327 0000 08B5     		push	{r3, lr}
 1328              	.LCFI21:
 1329              		.cfi_def_cfa_offset 8
 1330              		.cfi_offset 3, -8
 1331              		.cfi_offset 14, -4
 708:Core/Src/main.c ****   hi2c2.Init.Timing = 0x6000030D;
 1332              		.loc 1 708 3 view .LVU478
 708:Core/Src/main.c ****   hi2c2.Init.Timing = 0x6000030D;
 1333              		.loc 1 708 18 is_stmt 0 view .LVU479
 1334 0002 1148     		ldr	r0, .L67
 1335 0004 114B     		ldr	r3, .L67+4
 1336 0006 0360     		str	r3, [r0]
 709:Core/Src/main.c ****   hi2c2.Init.OwnAddress1 = 0;
 1337              		.loc 1 709 3 is_stmt 1 view .LVU480
 709:Core/Src/main.c ****   hi2c2.Init.OwnAddress1 = 0;
 1338              		.loc 1 709 21 is_stmt 0 view .LVU481
 1339 0008 114B     		ldr	r3, .L67+8
 1340 000a 4360     		str	r3, [r0, #4]
 710:Core/Src/main.c ****   hi2c2.Init.AddressingMode = I2C_ADDRESSINGMODE_7BIT;
 1341              		.loc 1 710 3 is_stmt 1 view .LVU482
 710:Core/Src/main.c ****   hi2c2.Init.AddressingMode = I2C_ADDRESSINGMODE_7BIT;
 1342              		.loc 1 710 26 is_stmt 0 view .LVU483
 1343 000c 0023     		movs	r3, #0
 1344 000e 8360     		str	r3, [r0, #8]
 711:Core/Src/main.c ****   hi2c2.Init.DualAddressMode = I2C_DUALADDRESS_DISABLE;
 1345              		.loc 1 711 3 is_stmt 1 view .LVU484
 711:Core/Src/main.c ****   hi2c2.Init.DualAddressMode = I2C_DUALADDRESS_DISABLE;
ARM GAS  C:\Users\benny\AppData\Local\Temp\ccjrekJt.s 			page 61


 1346              		.loc 1 711 29 is_stmt 0 view .LVU485
 1347 0010 0122     		movs	r2, #1
 1348 0012 C260     		str	r2, [r0, #12]
 712:Core/Src/main.c ****   hi2c2.Init.OwnAddress2 = 0;
 1349              		.loc 1 712 3 is_stmt 1 view .LVU486
 712:Core/Src/main.c ****   hi2c2.Init.OwnAddress2 = 0;
 1350              		.loc 1 712 30 is_stmt 0 view .LVU487
 1351 0014 0361     		str	r3, [r0, #16]
 713:Core/Src/main.c ****   hi2c2.Init.OwnAddress2Masks = I2C_OA2_NOMASK;
 1352              		.loc 1 713 3 is_stmt 1 view .LVU488
 713:Core/Src/main.c ****   hi2c2.Init.OwnAddress2Masks = I2C_OA2_NOMASK;
 1353              		.loc 1 713 26 is_stmt 0 view .LVU489
 1354 0016 4361     		str	r3, [r0, #20]
 714:Core/Src/main.c ****   hi2c2.Init.GeneralCallMode = I2C_GENERALCALL_DISABLE;
 1355              		.loc 1 714 3 is_stmt 1 view .LVU490
 714:Core/Src/main.c ****   hi2c2.Init.GeneralCallMode = I2C_GENERALCALL_DISABLE;
 1356              		.loc 1 714 31 is_stmt 0 view .LVU491
 1357 0018 8361     		str	r3, [r0, #24]
 715:Core/Src/main.c ****   hi2c2.Init.NoStretchMode = I2C_NOSTRETCH_DISABLE;
 1358              		.loc 1 715 3 is_stmt 1 view .LVU492
 715:Core/Src/main.c ****   hi2c2.Init.NoStretchMode = I2C_NOSTRETCH_DISABLE;
 1359              		.loc 1 715 30 is_stmt 0 view .LVU493
 1360 001a C361     		str	r3, [r0, #28]
 716:Core/Src/main.c ****   if (HAL_I2C_Init(&hi2c2) != HAL_OK)
 1361              		.loc 1 716 3 is_stmt 1 view .LVU494
 716:Core/Src/main.c ****   if (HAL_I2C_Init(&hi2c2) != HAL_OK)
 1362              		.loc 1 716 28 is_stmt 0 view .LVU495
 1363 001c 0362     		str	r3, [r0, #32]
 717:Core/Src/main.c ****   {
 1364              		.loc 1 717 3 is_stmt 1 view .LVU496
 717:Core/Src/main.c ****   {
 1365              		.loc 1 717 7 is_stmt 0 view .LVU497
 1366 001e FFF7FEFF 		bl	HAL_I2C_Init
 1367              	.LVL53:
 717:Core/Src/main.c ****   {
 1368              		.loc 1 717 6 view .LVU498
 1369 0022 50B9     		cbnz	r0, .L64
 724:Core/Src/main.c ****   {
 1370              		.loc 1 724 3 is_stmt 1 view .LVU499
 724:Core/Src/main.c ****   {
 1371              		.loc 1 724 7 is_stmt 0 view .LVU500
 1372 0024 0021     		movs	r1, #0
 1373 0026 0848     		ldr	r0, .L67
 1374 0028 FFF7FEFF 		bl	HAL_I2CEx_ConfigAnalogFilter
 1375              	.LVL54:
 724:Core/Src/main.c ****   {
 1376              		.loc 1 724 6 view .LVU501
 1377 002c 38B9     		cbnz	r0, .L65
 731:Core/Src/main.c ****   {
 1378              		.loc 1 731 3 is_stmt 1 view .LVU502
 731:Core/Src/main.c ****   {
 1379              		.loc 1 731 7 is_stmt 0 view .LVU503
 1380 002e 0021     		movs	r1, #0
 1381 0030 0548     		ldr	r0, .L67
 1382 0032 FFF7FEFF 		bl	HAL_I2CEx_ConfigDigitalFilter
 1383              	.LVL55:
 731:Core/Src/main.c ****   {
ARM GAS  C:\Users\benny\AppData\Local\Temp\ccjrekJt.s 			page 62


 1384              		.loc 1 731 6 view .LVU504
 1385 0036 20B9     		cbnz	r0, .L66
 739:Core/Src/main.c **** 
 1386              		.loc 1 739 1 view .LVU505
 1387 0038 08BD     		pop	{r3, pc}
 1388              	.L64:
 719:Core/Src/main.c ****   }
 1389              		.loc 1 719 5 is_stmt 1 view .LVU506
 1390 003a FFF7FEFF 		bl	Error_Handler
 1391              	.LVL56:
 1392              	.L65:
 726:Core/Src/main.c ****   }
 1393              		.loc 1 726 5 view .LVU507
 1394 003e FFF7FEFF 		bl	Error_Handler
 1395              	.LVL57:
 1396              	.L66:
 733:Core/Src/main.c ****   }
 1397              		.loc 1 733 5 view .LVU508
 1398 0042 FFF7FEFF 		bl	Error_Handler
 1399              	.LVL58:
 1400              	.L68:
 1401 0046 00BF     		.align	2
 1402              	.L67:
 1403 0048 00000000 		.word	hi2c2
 1404 004c 00580040 		.word	1073764352
 1405 0050 0D030060 		.word	1610613517
 1406              		.cfi_endproc
 1407              	.LFE151:
 1409              		.section	.text.MX_I2C3_Init,"ax",%progbits
 1410              		.align	1
 1411              		.syntax unified
 1412              		.thumb
 1413              		.thumb_func
 1415              	MX_I2C3_Init:
 1416              	.LFB152:
 747:Core/Src/main.c **** 
 1417              		.loc 1 747 1 view -0
 1418              		.cfi_startproc
 1419              		@ args = 0, pretend = 0, frame = 0
 1420              		@ frame_needed = 0, uses_anonymous_args = 0
 1421 0000 08B5     		push	{r3, lr}
 1422              	.LCFI22:
 1423              		.cfi_def_cfa_offset 8
 1424              		.cfi_offset 3, -8
 1425              		.cfi_offset 14, -4
 756:Core/Src/main.c ****   hi2c3.Init.Timing = 0x6000030D;
 1426              		.loc 1 756 3 view .LVU510
 756:Core/Src/main.c ****   hi2c3.Init.Timing = 0x6000030D;
 1427              		.loc 1 756 18 is_stmt 0 view .LVU511
 1428 0002 1148     		ldr	r0, .L77
 1429 0004 114B     		ldr	r3, .L77+4
 1430 0006 0360     		str	r3, [r0]
 757:Core/Src/main.c ****   hi2c3.Init.OwnAddress1 = 0;
 1431              		.loc 1 757 3 is_stmt 1 view .LVU512
 757:Core/Src/main.c ****   hi2c3.Init.OwnAddress1 = 0;
 1432              		.loc 1 757 21 is_stmt 0 view .LVU513
 1433 0008 114B     		ldr	r3, .L77+8
ARM GAS  C:\Users\benny\AppData\Local\Temp\ccjrekJt.s 			page 63


 1434 000a 4360     		str	r3, [r0, #4]
 758:Core/Src/main.c ****   hi2c3.Init.AddressingMode = I2C_ADDRESSINGMODE_7BIT;
 1435              		.loc 1 758 3 is_stmt 1 view .LVU514
 758:Core/Src/main.c ****   hi2c3.Init.AddressingMode = I2C_ADDRESSINGMODE_7BIT;
 1436              		.loc 1 758 26 is_stmt 0 view .LVU515
 1437 000c 0023     		movs	r3, #0
 1438 000e 8360     		str	r3, [r0, #8]
 759:Core/Src/main.c ****   hi2c3.Init.DualAddressMode = I2C_DUALADDRESS_DISABLE;
 1439              		.loc 1 759 3 is_stmt 1 view .LVU516
 759:Core/Src/main.c ****   hi2c3.Init.DualAddressMode = I2C_DUALADDRESS_DISABLE;
 1440              		.loc 1 759 29 is_stmt 0 view .LVU517
 1441 0010 0122     		movs	r2, #1
 1442 0012 C260     		str	r2, [r0, #12]
 760:Core/Src/main.c ****   hi2c3.Init.OwnAddress2 = 0;
 1443              		.loc 1 760 3 is_stmt 1 view .LVU518
 760:Core/Src/main.c ****   hi2c3.Init.OwnAddress2 = 0;
 1444              		.loc 1 760 30 is_stmt 0 view .LVU519
 1445 0014 0361     		str	r3, [r0, #16]
 761:Core/Src/main.c ****   hi2c3.Init.OwnAddress2Masks = I2C_OA2_NOMASK;
 1446              		.loc 1 761 3 is_stmt 1 view .LVU520
 761:Core/Src/main.c ****   hi2c3.Init.OwnAddress2Masks = I2C_OA2_NOMASK;
 1447              		.loc 1 761 26 is_stmt 0 view .LVU521
 1448 0016 4361     		str	r3, [r0, #20]
 762:Core/Src/main.c ****   hi2c3.Init.GeneralCallMode = I2C_GENERALCALL_DISABLE;
 1449              		.loc 1 762 3 is_stmt 1 view .LVU522
 762:Core/Src/main.c ****   hi2c3.Init.GeneralCallMode = I2C_GENERALCALL_DISABLE;
 1450              		.loc 1 762 31 is_stmt 0 view .LVU523
 1451 0018 8361     		str	r3, [r0, #24]
 763:Core/Src/main.c ****   hi2c3.Init.NoStretchMode = I2C_NOSTRETCH_DISABLE;
 1452              		.loc 1 763 3 is_stmt 1 view .LVU524
 763:Core/Src/main.c ****   hi2c3.Init.NoStretchMode = I2C_NOSTRETCH_DISABLE;
 1453              		.loc 1 763 30 is_stmt 0 view .LVU525
 1454 001a C361     		str	r3, [r0, #28]
 764:Core/Src/main.c ****   if (HAL_I2C_Init(&hi2c3) != HAL_OK)
 1455              		.loc 1 764 3 is_stmt 1 view .LVU526
 764:Core/Src/main.c ****   if (HAL_I2C_Init(&hi2c3) != HAL_OK)
 1456              		.loc 1 764 28 is_stmt 0 view .LVU527
 1457 001c 0362     		str	r3, [r0, #32]
 765:Core/Src/main.c ****   {
 1458              		.loc 1 765 3 is_stmt 1 view .LVU528
 765:Core/Src/main.c ****   {
 1459              		.loc 1 765 7 is_stmt 0 view .LVU529
 1460 001e FFF7FEFF 		bl	HAL_I2C_Init
 1461              	.LVL59:
 765:Core/Src/main.c ****   {
 1462              		.loc 1 765 6 view .LVU530
 1463 0022 50B9     		cbnz	r0, .L74
 772:Core/Src/main.c ****   {
 1464              		.loc 1 772 3 is_stmt 1 view .LVU531
 772:Core/Src/main.c ****   {
 1465              		.loc 1 772 7 is_stmt 0 view .LVU532
 1466 0024 0021     		movs	r1, #0
 1467 0026 0848     		ldr	r0, .L77
 1468 0028 FFF7FEFF 		bl	HAL_I2CEx_ConfigAnalogFilter
 1469              	.LVL60:
 772:Core/Src/main.c ****   {
 1470              		.loc 1 772 6 view .LVU533
ARM GAS  C:\Users\benny\AppData\Local\Temp\ccjrekJt.s 			page 64


 1471 002c 38B9     		cbnz	r0, .L75
 779:Core/Src/main.c ****   {
 1472              		.loc 1 779 3 is_stmt 1 view .LVU534
 779:Core/Src/main.c ****   {
 1473              		.loc 1 779 7 is_stmt 0 view .LVU535
 1474 002e 0021     		movs	r1, #0
 1475 0030 0548     		ldr	r0, .L77
 1476 0032 FFF7FEFF 		bl	HAL_I2CEx_ConfigDigitalFilter
 1477              	.LVL61:
 779:Core/Src/main.c ****   {
 1478              		.loc 1 779 6 view .LVU536
 1479 0036 20B9     		cbnz	r0, .L76
 787:Core/Src/main.c **** 
 1480              		.loc 1 787 1 view .LVU537
 1481 0038 08BD     		pop	{r3, pc}
 1482              	.L74:
 767:Core/Src/main.c ****   }
 1483              		.loc 1 767 5 is_stmt 1 view .LVU538
 1484 003a FFF7FEFF 		bl	Error_Handler
 1485              	.LVL62:
 1486              	.L75:
 774:Core/Src/main.c ****   }
 1487              		.loc 1 774 5 view .LVU539
 1488 003e FFF7FEFF 		bl	Error_Handler
 1489              	.LVL63:
 1490              	.L76:
 781:Core/Src/main.c ****   }
 1491              		.loc 1 781 5 view .LVU540
 1492 0042 FFF7FEFF 		bl	Error_Handler
 1493              	.LVL64:
 1494              	.L78:
 1495 0046 00BF     		.align	2
 1496              	.L77:
 1497 0048 00000000 		.word	hi2c3
 1498 004c 005C0040 		.word	1073765376
 1499 0050 0D030060 		.word	1610613517
 1500              		.cfi_endproc
 1501              	.LFE152:
 1503              		.section	.text.MX_QUADSPI_Init,"ax",%progbits
 1504              		.align	1
 1505              		.syntax unified
 1506              		.thumb
 1507              		.thumb_func
 1509              	MX_QUADSPI_Init:
 1510              	.LFB153:
 795:Core/Src/main.c **** 
 1511              		.loc 1 795 1 view -0
 1512              		.cfi_startproc
 1513              		@ args = 0, pretend = 0, frame = 0
 1514              		@ frame_needed = 0, uses_anonymous_args = 0
 1515 0000 08B5     		push	{r3, lr}
 1516              	.LCFI23:
 1517              		.cfi_def_cfa_offset 8
 1518              		.cfi_offset 3, -8
 1519              		.cfi_offset 14, -4
 805:Core/Src/main.c ****   hqspi.Init.ClockPrescaler = 1;
 1520              		.loc 1 805 3 view .LVU542
ARM GAS  C:\Users\benny\AppData\Local\Temp\ccjrekJt.s 			page 65


 805:Core/Src/main.c ****   hqspi.Init.ClockPrescaler = 1;
 1521              		.loc 1 805 18 is_stmt 0 view .LVU543
 1522 0002 0B48     		ldr	r0, .L83
 1523 0004 0B4B     		ldr	r3, .L83+4
 1524 0006 0360     		str	r3, [r0]
 806:Core/Src/main.c ****   hqspi.Init.FifoThreshold = 16;
 1525              		.loc 1 806 3 is_stmt 1 view .LVU544
 806:Core/Src/main.c ****   hqspi.Init.FifoThreshold = 16;
 1526              		.loc 1 806 29 is_stmt 0 view .LVU545
 1527 0008 0123     		movs	r3, #1
 1528 000a 4360     		str	r3, [r0, #4]
 807:Core/Src/main.c ****   hqspi.Init.SampleShifting = QSPI_SAMPLE_SHIFTING_HALFCYCLE;
 1529              		.loc 1 807 3 is_stmt 1 view .LVU546
 807:Core/Src/main.c ****   hqspi.Init.SampleShifting = QSPI_SAMPLE_SHIFTING_HALFCYCLE;
 1530              		.loc 1 807 28 is_stmt 0 view .LVU547
 1531 000c 1023     		movs	r3, #16
 1532 000e 8360     		str	r3, [r0, #8]
 808:Core/Src/main.c ****   hqspi.Init.FlashSize = 26;
 1533              		.loc 1 808 3 is_stmt 1 view .LVU548
 808:Core/Src/main.c ****   hqspi.Init.FlashSize = 26;
 1534              		.loc 1 808 29 is_stmt 0 view .LVU549
 1535 0010 C360     		str	r3, [r0, #12]
 809:Core/Src/main.c ****   hqspi.Init.ChipSelectHighTime = QSPI_CS_HIGH_TIME_4_CYCLE;
 1536              		.loc 1 809 3 is_stmt 1 view .LVU550
 809:Core/Src/main.c ****   hqspi.Init.ChipSelectHighTime = QSPI_CS_HIGH_TIME_4_CYCLE;
 1537              		.loc 1 809 24 is_stmt 0 view .LVU551
 1538 0012 1A23     		movs	r3, #26
 1539 0014 0361     		str	r3, [r0, #16]
 810:Core/Src/main.c ****   hqspi.Init.ClockMode = QSPI_CLOCK_MODE_0;
 1540              		.loc 1 810 3 is_stmt 1 view .LVU552
 810:Core/Src/main.c ****   hqspi.Init.ClockMode = QSPI_CLOCK_MODE_0;
 1541              		.loc 1 810 33 is_stmt 0 view .LVU553
 1542 0016 4FF44073 		mov	r3, #768
 1543 001a 4361     		str	r3, [r0, #20]
 811:Core/Src/main.c ****   hqspi.Init.FlashID = QSPI_FLASH_ID_1;
 1544              		.loc 1 811 3 is_stmt 1 view .LVU554
 811:Core/Src/main.c ****   hqspi.Init.FlashID = QSPI_FLASH_ID_1;
 1545              		.loc 1 811 24 is_stmt 0 view .LVU555
 1546 001c 0023     		movs	r3, #0
 1547 001e 8361     		str	r3, [r0, #24]
 812:Core/Src/main.c ****   hqspi.Init.DualFlash = QSPI_DUALFLASH_DISABLE;
 1548              		.loc 1 812 3 is_stmt 1 view .LVU556
 812:Core/Src/main.c ****   hqspi.Init.DualFlash = QSPI_DUALFLASH_DISABLE;
 1549              		.loc 1 812 22 is_stmt 0 view .LVU557
 1550 0020 C361     		str	r3, [r0, #28]
 813:Core/Src/main.c ****   if (HAL_QSPI_Init(&hqspi) != HAL_OK)
 1551              		.loc 1 813 3 is_stmt 1 view .LVU558
 813:Core/Src/main.c ****   if (HAL_QSPI_Init(&hqspi) != HAL_OK)
 1552              		.loc 1 813 24 is_stmt 0 view .LVU559
 1553 0022 0362     		str	r3, [r0, #32]
 814:Core/Src/main.c ****   {
 1554              		.loc 1 814 3 is_stmt 1 view .LVU560
 814:Core/Src/main.c ****   {
 1555              		.loc 1 814 7 is_stmt 0 view .LVU561
 1556 0024 FFF7FEFF 		bl	HAL_QSPI_Init
 1557              	.LVL65:
 814:Core/Src/main.c ****   {
ARM GAS  C:\Users\benny\AppData\Local\Temp\ccjrekJt.s 			page 66


 1558              		.loc 1 814 6 view .LVU562
 1559 0028 00B9     		cbnz	r0, .L82
 822:Core/Src/main.c **** 
 1560              		.loc 1 822 1 view .LVU563
 1561 002a 08BD     		pop	{r3, pc}
 1562              	.L82:
 816:Core/Src/main.c ****   }
 1563              		.loc 1 816 5 is_stmt 1 view .LVU564
 1564 002c FFF7FEFF 		bl	Error_Handler
 1565              	.LVL66:
 1566              	.L84:
 1567              		.align	2
 1568              	.L83:
 1569 0030 00000000 		.word	hqspi
 1570 0034 001000A0 		.word	-1610608640
 1571              		.cfi_endproc
 1572              	.LFE153:
 1574              		.section	.text.MX_SAI2_Init,"ax",%progbits
 1575              		.align	1
 1576              		.syntax unified
 1577              		.thumb
 1578              		.thumb_func
 1580              	MX_SAI2_Init:
 1581              	.LFB154:
 830:Core/Src/main.c **** 
 1582              		.loc 1 830 1 view -0
 1583              		.cfi_startproc
 1584              		@ args = 0, pretend = 0, frame = 0
 1585              		@ frame_needed = 0, uses_anonymous_args = 0
 1586 0000 08B5     		push	{r3, lr}
 1587              	.LCFI24:
 1588              		.cfi_def_cfa_offset 8
 1589              		.cfi_offset 3, -8
 1590              		.cfi_offset 14, -4
 839:Core/Src/main.c ****   hsai_BlockA2.Init.Protocol = SAI_FREE_PROTOCOL;
 1591              		.loc 1 839 3 view .LVU566
 839:Core/Src/main.c ****   hsai_BlockA2.Init.Protocol = SAI_FREE_PROTOCOL;
 1592              		.loc 1 839 25 is_stmt 0 view .LVU567
 1593 0002 2348     		ldr	r0, .L91
 1594 0004 234B     		ldr	r3, .L91+4
 1595 0006 0360     		str	r3, [r0]
 840:Core/Src/main.c ****   hsai_BlockA2.Init.AudioMode = SAI_MODEMASTER_TX;
 1596              		.loc 1 840 3 is_stmt 1 view .LVU568
 840:Core/Src/main.c ****   hsai_BlockA2.Init.AudioMode = SAI_MODEMASTER_TX;
 1597              		.loc 1 840 30 is_stmt 0 view .LVU569
 1598 0008 0023     		movs	r3, #0
 1599 000a 0363     		str	r3, [r0, #48]
 841:Core/Src/main.c ****   hsai_BlockA2.Init.DataSize = SAI_DATASIZE_8;
 1600              		.loc 1 841 3 is_stmt 1 view .LVU570
 841:Core/Src/main.c ****   hsai_BlockA2.Init.DataSize = SAI_DATASIZE_8;
 1601              		.loc 1 841 31 is_stmt 0 view .LVU571
 1602 000c 4360     		str	r3, [r0, #4]
 842:Core/Src/main.c ****   hsai_BlockA2.Init.FirstBit = SAI_FIRSTBIT_MSB;
 1603              		.loc 1 842 3 is_stmt 1 view .LVU572
 842:Core/Src/main.c ****   hsai_BlockA2.Init.FirstBit = SAI_FIRSTBIT_MSB;
 1604              		.loc 1 842 30 is_stmt 0 view .LVU573
 1605 000e 4022     		movs	r2, #64
ARM GAS  C:\Users\benny\AppData\Local\Temp\ccjrekJt.s 			page 67


 1606 0010 4263     		str	r2, [r0, #52]
 843:Core/Src/main.c ****   hsai_BlockA2.Init.ClockStrobing = SAI_CLOCKSTROBING_FALLINGEDGE;
 1607              		.loc 1 843 3 is_stmt 1 view .LVU574
 843:Core/Src/main.c ****   hsai_BlockA2.Init.ClockStrobing = SAI_CLOCKSTROBING_FALLINGEDGE;
 1608              		.loc 1 843 30 is_stmt 0 view .LVU575
 1609 0012 8363     		str	r3, [r0, #56]
 844:Core/Src/main.c ****   hsai_BlockA2.Init.Synchro = SAI_ASYNCHRONOUS;
 1610              		.loc 1 844 3 is_stmt 1 view .LVU576
 844:Core/Src/main.c ****   hsai_BlockA2.Init.Synchro = SAI_ASYNCHRONOUS;
 1611              		.loc 1 844 35 is_stmt 0 view .LVU577
 1612 0014 C363     		str	r3, [r0, #60]
 845:Core/Src/main.c ****   hsai_BlockA2.Init.OutputDrive = SAI_OUTPUTDRIVE_DISABLE;
 1613              		.loc 1 845 3 is_stmt 1 view .LVU578
 845:Core/Src/main.c ****   hsai_BlockA2.Init.OutputDrive = SAI_OUTPUTDRIVE_DISABLE;
 1614              		.loc 1 845 29 is_stmt 0 view .LVU579
 1615 0016 8360     		str	r3, [r0, #8]
 846:Core/Src/main.c ****   hsai_BlockA2.Init.NoDivider = SAI_MASTERDIVIDER_ENABLE;
 1616              		.loc 1 846 3 is_stmt 1 view .LVU580
 846:Core/Src/main.c ****   hsai_BlockA2.Init.NoDivider = SAI_MASTERDIVIDER_ENABLE;
 1617              		.loc 1 846 33 is_stmt 0 view .LVU581
 1618 0018 0361     		str	r3, [r0, #16]
 847:Core/Src/main.c ****   hsai_BlockA2.Init.FIFOThreshold = SAI_FIFOTHRESHOLD_EMPTY;
 1619              		.loc 1 847 3 is_stmt 1 view .LVU582
 847:Core/Src/main.c ****   hsai_BlockA2.Init.FIFOThreshold = SAI_FIFOTHRESHOLD_EMPTY;
 1620              		.loc 1 847 31 is_stmt 0 view .LVU583
 1621 001a 4361     		str	r3, [r0, #20]
 848:Core/Src/main.c ****   hsai_BlockA2.Init.AudioFrequency = SAI_AUDIO_FREQUENCY_192K;
 1622              		.loc 1 848 3 is_stmt 1 view .LVU584
 848:Core/Src/main.c ****   hsai_BlockA2.Init.AudioFrequency = SAI_AUDIO_FREQUENCY_192K;
 1623              		.loc 1 848 35 is_stmt 0 view .LVU585
 1624 001c 8361     		str	r3, [r0, #24]
 849:Core/Src/main.c ****   hsai_BlockA2.Init.SynchroExt = SAI_SYNCEXT_DISABLE;
 1625              		.loc 1 849 3 is_stmt 1 view .LVU586
 849:Core/Src/main.c ****   hsai_BlockA2.Init.SynchroExt = SAI_SYNCEXT_DISABLE;
 1626              		.loc 1 849 36 is_stmt 0 view .LVU587
 1627 001e 1E4A     		ldr	r2, .L91+8
 1628 0020 C261     		str	r2, [r0, #28]
 850:Core/Src/main.c ****   hsai_BlockA2.Init.MonoStereoMode = SAI_STEREOMODE;
 1629              		.loc 1 850 3 is_stmt 1 view .LVU588
 850:Core/Src/main.c ****   hsai_BlockA2.Init.MonoStereoMode = SAI_STEREOMODE;
 1630              		.loc 1 850 32 is_stmt 0 view .LVU589
 1631 0022 C360     		str	r3, [r0, #12]
 851:Core/Src/main.c ****   hsai_BlockA2.Init.CompandingMode = SAI_NOCOMPANDING;
 1632              		.loc 1 851 3 is_stmt 1 view .LVU590
 851:Core/Src/main.c ****   hsai_BlockA2.Init.CompandingMode = SAI_NOCOMPANDING;
 1633              		.loc 1 851 36 is_stmt 0 view .LVU591
 1634 0024 4362     		str	r3, [r0, #36]
 852:Core/Src/main.c ****   hsai_BlockA2.Init.TriState = SAI_OUTPUT_NOTRELEASED;
 1635              		.loc 1 852 3 is_stmt 1 view .LVU592
 852:Core/Src/main.c ****   hsai_BlockA2.Init.TriState = SAI_OUTPUT_NOTRELEASED;
 1636              		.loc 1 852 36 is_stmt 0 view .LVU593
 1637 0026 8362     		str	r3, [r0, #40]
 853:Core/Src/main.c ****   hsai_BlockA2.FrameInit.FrameLength = 8;
 1638              		.loc 1 853 3 is_stmt 1 view .LVU594
 853:Core/Src/main.c ****   hsai_BlockA2.FrameInit.FrameLength = 8;
 1639              		.loc 1 853 30 is_stmt 0 view .LVU595
 1640 0028 C362     		str	r3, [r0, #44]
ARM GAS  C:\Users\benny\AppData\Local\Temp\ccjrekJt.s 			page 68


 854:Core/Src/main.c ****   hsai_BlockA2.FrameInit.ActiveFrameLength = 1;
 1641              		.loc 1 854 3 is_stmt 1 view .LVU596
 854:Core/Src/main.c ****   hsai_BlockA2.FrameInit.ActiveFrameLength = 1;
 1642              		.loc 1 854 38 is_stmt 0 view .LVU597
 1643 002a 0822     		movs	r2, #8
 1644 002c 0264     		str	r2, [r0, #64]
 855:Core/Src/main.c ****   hsai_BlockA2.FrameInit.FSDefinition = SAI_FS_STARTFRAME;
 1645              		.loc 1 855 3 is_stmt 1 view .LVU598
 855:Core/Src/main.c ****   hsai_BlockA2.FrameInit.FSDefinition = SAI_FS_STARTFRAME;
 1646              		.loc 1 855 44 is_stmt 0 view .LVU599
 1647 002e 0122     		movs	r2, #1
 1648 0030 4264     		str	r2, [r0, #68]
 856:Core/Src/main.c ****   hsai_BlockA2.FrameInit.FSPolarity = SAI_FS_ACTIVE_LOW;
 1649              		.loc 1 856 3 is_stmt 1 view .LVU600
 856:Core/Src/main.c ****   hsai_BlockA2.FrameInit.FSPolarity = SAI_FS_ACTIVE_LOW;
 1650              		.loc 1 856 39 is_stmt 0 view .LVU601
 1651 0032 8364     		str	r3, [r0, #72]
 857:Core/Src/main.c ****   hsai_BlockA2.FrameInit.FSOffset = SAI_FS_FIRSTBIT;
 1652              		.loc 1 857 3 is_stmt 1 view .LVU602
 857:Core/Src/main.c ****   hsai_BlockA2.FrameInit.FSOffset = SAI_FS_FIRSTBIT;
 1653              		.loc 1 857 37 is_stmt 0 view .LVU603
 1654 0034 C364     		str	r3, [r0, #76]
 858:Core/Src/main.c ****   hsai_BlockA2.SlotInit.FirstBitOffset = 0;
 1655              		.loc 1 858 3 is_stmt 1 view .LVU604
 858:Core/Src/main.c ****   hsai_BlockA2.SlotInit.FirstBitOffset = 0;
 1656              		.loc 1 858 35 is_stmt 0 view .LVU605
 1657 0036 0365     		str	r3, [r0, #80]
 859:Core/Src/main.c ****   hsai_BlockA2.SlotInit.SlotSize = SAI_SLOTSIZE_DATASIZE;
 1658              		.loc 1 859 3 is_stmt 1 view .LVU606
 859:Core/Src/main.c ****   hsai_BlockA2.SlotInit.SlotSize = SAI_SLOTSIZE_DATASIZE;
 1659              		.loc 1 859 40 is_stmt 0 view .LVU607
 1660 0038 4365     		str	r3, [r0, #84]
 860:Core/Src/main.c ****   hsai_BlockA2.SlotInit.SlotNumber = 1;
 1661              		.loc 1 860 3 is_stmt 1 view .LVU608
 860:Core/Src/main.c ****   hsai_BlockA2.SlotInit.SlotNumber = 1;
 1662              		.loc 1 860 34 is_stmt 0 view .LVU609
 1663 003a 8365     		str	r3, [r0, #88]
 861:Core/Src/main.c ****   hsai_BlockA2.SlotInit.SlotActive = 0x00000000;
 1664              		.loc 1 861 3 is_stmt 1 view .LVU610
 861:Core/Src/main.c ****   hsai_BlockA2.SlotInit.SlotActive = 0x00000000;
 1665              		.loc 1 861 36 is_stmt 0 view .LVU611
 1666 003c C265     		str	r2, [r0, #92]
 862:Core/Src/main.c ****   if (HAL_SAI_Init(&hsai_BlockA2) != HAL_OK)
 1667              		.loc 1 862 3 is_stmt 1 view .LVU612
 862:Core/Src/main.c ****   if (HAL_SAI_Init(&hsai_BlockA2) != HAL_OK)
 1668              		.loc 1 862 36 is_stmt 0 view .LVU613
 1669 003e 0366     		str	r3, [r0, #96]
 863:Core/Src/main.c ****   {
 1670              		.loc 1 863 3 is_stmt 1 view .LVU614
 863:Core/Src/main.c ****   {
 1671              		.loc 1 863 7 is_stmt 0 view .LVU615
 1672 0040 FFF7FEFF 		bl	HAL_SAI_Init
 1673              	.LVL67:
 863:Core/Src/main.c ****   {
 1674              		.loc 1 863 6 view .LVU616
 1675 0044 00BB     		cbnz	r0, .L89
 867:Core/Src/main.c ****   hsai_BlockB2.Init.Protocol = SAI_FREE_PROTOCOL;
ARM GAS  C:\Users\benny\AppData\Local\Temp\ccjrekJt.s 			page 69


 1676              		.loc 1 867 3 is_stmt 1 view .LVU617
 867:Core/Src/main.c ****   hsai_BlockB2.Init.Protocol = SAI_FREE_PROTOCOL;
 1677              		.loc 1 867 25 is_stmt 0 view .LVU618
 1678 0046 1548     		ldr	r0, .L91+12
 1679 0048 154B     		ldr	r3, .L91+16
 1680 004a 0360     		str	r3, [r0]
 868:Core/Src/main.c ****   hsai_BlockB2.Init.AudioMode = SAI_MODESLAVE_RX;
 1681              		.loc 1 868 3 is_stmt 1 view .LVU619
 868:Core/Src/main.c ****   hsai_BlockB2.Init.AudioMode = SAI_MODESLAVE_RX;
 1682              		.loc 1 868 30 is_stmt 0 view .LVU620
 1683 004c 0023     		movs	r3, #0
 1684 004e 0363     		str	r3, [r0, #48]
 869:Core/Src/main.c ****   hsai_BlockB2.Init.DataSize = SAI_DATASIZE_8;
 1685              		.loc 1 869 3 is_stmt 1 view .LVU621
 869:Core/Src/main.c ****   hsai_BlockB2.Init.DataSize = SAI_DATASIZE_8;
 1686              		.loc 1 869 31 is_stmt 0 view .LVU622
 1687 0050 0322     		movs	r2, #3
 1688 0052 4260     		str	r2, [r0, #4]
 870:Core/Src/main.c ****   hsai_BlockB2.Init.FirstBit = SAI_FIRSTBIT_MSB;
 1689              		.loc 1 870 3 is_stmt 1 view .LVU623
 870:Core/Src/main.c ****   hsai_BlockB2.Init.FirstBit = SAI_FIRSTBIT_MSB;
 1690              		.loc 1 870 30 is_stmt 0 view .LVU624
 1691 0054 4022     		movs	r2, #64
 1692 0056 4263     		str	r2, [r0, #52]
 871:Core/Src/main.c ****   hsai_BlockB2.Init.ClockStrobing = SAI_CLOCKSTROBING_FALLINGEDGE;
 1693              		.loc 1 871 3 is_stmt 1 view .LVU625
 871:Core/Src/main.c ****   hsai_BlockB2.Init.ClockStrobing = SAI_CLOCKSTROBING_FALLINGEDGE;
 1694              		.loc 1 871 30 is_stmt 0 view .LVU626
 1695 0058 8363     		str	r3, [r0, #56]
 872:Core/Src/main.c ****   hsai_BlockB2.Init.Synchro = SAI_SYNCHRONOUS;
 1696              		.loc 1 872 3 is_stmt 1 view .LVU627
 872:Core/Src/main.c ****   hsai_BlockB2.Init.Synchro = SAI_SYNCHRONOUS;
 1697              		.loc 1 872 35 is_stmt 0 view .LVU628
 1698 005a C363     		str	r3, [r0, #60]
 873:Core/Src/main.c ****   hsai_BlockB2.Init.OutputDrive = SAI_OUTPUTDRIVE_DISABLE;
 1699              		.loc 1 873 3 is_stmt 1 view .LVU629
 873:Core/Src/main.c ****   hsai_BlockB2.Init.OutputDrive = SAI_OUTPUTDRIVE_DISABLE;
 1700              		.loc 1 873 29 is_stmt 0 view .LVU630
 1701 005c 0122     		movs	r2, #1
 1702 005e 8260     		str	r2, [r0, #8]
 874:Core/Src/main.c ****   hsai_BlockB2.Init.FIFOThreshold = SAI_FIFOTHRESHOLD_EMPTY;
 1703              		.loc 1 874 3 is_stmt 1 view .LVU631
 874:Core/Src/main.c ****   hsai_BlockB2.Init.FIFOThreshold = SAI_FIFOTHRESHOLD_EMPTY;
 1704              		.loc 1 874 33 is_stmt 0 view .LVU632
 1705 0060 0361     		str	r3, [r0, #16]
 875:Core/Src/main.c ****   hsai_BlockB2.Init.SynchroExt = SAI_SYNCEXT_DISABLE;
 1706              		.loc 1 875 3 is_stmt 1 view .LVU633
 875:Core/Src/main.c ****   hsai_BlockB2.Init.SynchroExt = SAI_SYNCEXT_DISABLE;
 1707              		.loc 1 875 35 is_stmt 0 view .LVU634
 1708 0062 8361     		str	r3, [r0, #24]
 876:Core/Src/main.c ****   hsai_BlockB2.Init.MonoStereoMode = SAI_STEREOMODE;
 1709              		.loc 1 876 3 is_stmt 1 view .LVU635
 876:Core/Src/main.c ****   hsai_BlockB2.Init.MonoStereoMode = SAI_STEREOMODE;
 1710              		.loc 1 876 32 is_stmt 0 view .LVU636
 1711 0064 C360     		str	r3, [r0, #12]
 877:Core/Src/main.c ****   hsai_BlockB2.Init.CompandingMode = SAI_NOCOMPANDING;
 1712              		.loc 1 877 3 is_stmt 1 view .LVU637
ARM GAS  C:\Users\benny\AppData\Local\Temp\ccjrekJt.s 			page 70


 877:Core/Src/main.c ****   hsai_BlockB2.Init.CompandingMode = SAI_NOCOMPANDING;
 1713              		.loc 1 877 36 is_stmt 0 view .LVU638
 1714 0066 4362     		str	r3, [r0, #36]
 878:Core/Src/main.c ****   hsai_BlockB2.Init.TriState = SAI_OUTPUT_NOTRELEASED;
 1715              		.loc 1 878 3 is_stmt 1 view .LVU639
 878:Core/Src/main.c ****   hsai_BlockB2.Init.TriState = SAI_OUTPUT_NOTRELEASED;
 1716              		.loc 1 878 36 is_stmt 0 view .LVU640
 1717 0068 8362     		str	r3, [r0, #40]
 879:Core/Src/main.c ****   hsai_BlockB2.FrameInit.FrameLength = 8;
 1718              		.loc 1 879 3 is_stmt 1 view .LVU641
 879:Core/Src/main.c ****   hsai_BlockB2.FrameInit.FrameLength = 8;
 1719              		.loc 1 879 30 is_stmt 0 view .LVU642
 1720 006a C362     		str	r3, [r0, #44]
 880:Core/Src/main.c ****   hsai_BlockB2.FrameInit.ActiveFrameLength = 1;
 1721              		.loc 1 880 3 is_stmt 1 view .LVU643
 880:Core/Src/main.c ****   hsai_BlockB2.FrameInit.ActiveFrameLength = 1;
 1722              		.loc 1 880 38 is_stmt 0 view .LVU644
 1723 006c 0821     		movs	r1, #8
 1724 006e 0164     		str	r1, [r0, #64]
 881:Core/Src/main.c ****   hsai_BlockB2.FrameInit.FSDefinition = SAI_FS_STARTFRAME;
 1725              		.loc 1 881 3 is_stmt 1 view .LVU645
 881:Core/Src/main.c ****   hsai_BlockB2.FrameInit.FSDefinition = SAI_FS_STARTFRAME;
 1726              		.loc 1 881 44 is_stmt 0 view .LVU646
 1727 0070 4264     		str	r2, [r0, #68]
 882:Core/Src/main.c ****   hsai_BlockB2.FrameInit.FSPolarity = SAI_FS_ACTIVE_LOW;
 1728              		.loc 1 882 3 is_stmt 1 view .LVU647
 882:Core/Src/main.c ****   hsai_BlockB2.FrameInit.FSPolarity = SAI_FS_ACTIVE_LOW;
 1729              		.loc 1 882 39 is_stmt 0 view .LVU648
 1730 0072 8364     		str	r3, [r0, #72]
 883:Core/Src/main.c ****   hsai_BlockB2.FrameInit.FSOffset = SAI_FS_FIRSTBIT;
 1731              		.loc 1 883 3 is_stmt 1 view .LVU649
 883:Core/Src/main.c ****   hsai_BlockB2.FrameInit.FSOffset = SAI_FS_FIRSTBIT;
 1732              		.loc 1 883 37 is_stmt 0 view .LVU650
 1733 0074 C364     		str	r3, [r0, #76]
 884:Core/Src/main.c ****   hsai_BlockB2.SlotInit.FirstBitOffset = 0;
 1734              		.loc 1 884 3 is_stmt 1 view .LVU651
 884:Core/Src/main.c ****   hsai_BlockB2.SlotInit.FirstBitOffset = 0;
 1735              		.loc 1 884 35 is_stmt 0 view .LVU652
 1736 0076 0365     		str	r3, [r0, #80]
 885:Core/Src/main.c ****   hsai_BlockB2.SlotInit.SlotSize = SAI_SLOTSIZE_DATASIZE;
 1737              		.loc 1 885 3 is_stmt 1 view .LVU653
 885:Core/Src/main.c ****   hsai_BlockB2.SlotInit.SlotSize = SAI_SLOTSIZE_DATASIZE;
 1738              		.loc 1 885 40 is_stmt 0 view .LVU654
 1739 0078 4365     		str	r3, [r0, #84]
 886:Core/Src/main.c ****   hsai_BlockB2.SlotInit.SlotNumber = 1;
 1740              		.loc 1 886 3 is_stmt 1 view .LVU655
 886:Core/Src/main.c ****   hsai_BlockB2.SlotInit.SlotNumber = 1;
 1741              		.loc 1 886 34 is_stmt 0 view .LVU656
 1742 007a 8365     		str	r3, [r0, #88]
 887:Core/Src/main.c ****   hsai_BlockB2.SlotInit.SlotActive = 0x00000000;
 1743              		.loc 1 887 3 is_stmt 1 view .LVU657
 887:Core/Src/main.c ****   hsai_BlockB2.SlotInit.SlotActive = 0x00000000;
 1744              		.loc 1 887 36 is_stmt 0 view .LVU658
 1745 007c C265     		str	r2, [r0, #92]
 888:Core/Src/main.c ****   if (HAL_SAI_Init(&hsai_BlockB2) != HAL_OK)
 1746              		.loc 1 888 3 is_stmt 1 view .LVU659
 888:Core/Src/main.c ****   if (HAL_SAI_Init(&hsai_BlockB2) != HAL_OK)
ARM GAS  C:\Users\benny\AppData\Local\Temp\ccjrekJt.s 			page 71


 1747              		.loc 1 888 36 is_stmt 0 view .LVU660
 1748 007e 0366     		str	r3, [r0, #96]
 889:Core/Src/main.c ****   {
 1749              		.loc 1 889 3 is_stmt 1 view .LVU661
 889:Core/Src/main.c ****   {
 1750              		.loc 1 889 7 is_stmt 0 view .LVU662
 1751 0080 FFF7FEFF 		bl	HAL_SAI_Init
 1752              	.LVL68:
 889:Core/Src/main.c ****   {
 1753              		.loc 1 889 6 view .LVU663
 1754 0084 10B9     		cbnz	r0, .L90
 897:Core/Src/main.c **** 
 1755              		.loc 1 897 1 view .LVU664
 1756 0086 08BD     		pop	{r3, pc}
 1757              	.L89:
 865:Core/Src/main.c ****   }
 1758              		.loc 1 865 5 is_stmt 1 view .LVU665
 1759 0088 FFF7FEFF 		bl	Error_Handler
 1760              	.LVL69:
 1761              	.L90:
 891:Core/Src/main.c ****   }
 1762              		.loc 1 891 5 view .LVU666
 1763 008c FFF7FEFF 		bl	Error_Handler
 1764              	.LVL70:
 1765              	.L92:
 1766              		.align	2
 1767              	.L91:
 1768 0090 00000000 		.word	hsai_BlockA2
 1769 0094 045C0140 		.word	1073830916
 1770 0098 00EE0200 		.word	192000
 1771 009c 00000000 		.word	hsai_BlockB2
 1772 00a0 245C0140 		.word	1073830948
 1773              		.cfi_endproc
 1774              	.LFE154:
 1776              		.section	.text.MX_SPI1_Init,"ax",%progbits
 1777              		.align	1
 1778              		.syntax unified
 1779              		.thumb
 1780              		.thumb_func
 1782              	MX_SPI1_Init:
 1783              	.LFB155:
 905:Core/Src/main.c **** 
 1784              		.loc 1 905 1 view -0
 1785              		.cfi_startproc
 1786              		@ args = 0, pretend = 0, frame = 0
 1787              		@ frame_needed = 0, uses_anonymous_args = 0
 1788 0000 08B5     		push	{r3, lr}
 1789              	.LCFI25:
 1790              		.cfi_def_cfa_offset 8
 1791              		.cfi_offset 3, -8
 1792              		.cfi_offset 14, -4
 915:Core/Src/main.c ****   hspi1.Init.Mode = SPI_MODE_MASTER;
 1793              		.loc 1 915 3 view .LVU668
 915:Core/Src/main.c ****   hspi1.Init.Mode = SPI_MODE_MASTER;
 1794              		.loc 1 915 18 is_stmt 0 view .LVU669
 1795 0002 0F48     		ldr	r0, .L97
 1796 0004 0F4B     		ldr	r3, .L97+4
ARM GAS  C:\Users\benny\AppData\Local\Temp\ccjrekJt.s 			page 72


 1797 0006 0360     		str	r3, [r0]
 916:Core/Src/main.c ****   hspi1.Init.Direction = SPI_DIRECTION_2LINES;
 1798              		.loc 1 916 3 is_stmt 1 view .LVU670
 916:Core/Src/main.c ****   hspi1.Init.Direction = SPI_DIRECTION_2LINES;
 1799              		.loc 1 916 19 is_stmt 0 view .LVU671
 1800 0008 4FF48273 		mov	r3, #260
 1801 000c 4360     		str	r3, [r0, #4]
 917:Core/Src/main.c ****   hspi1.Init.DataSize = SPI_DATASIZE_4BIT;
 1802              		.loc 1 917 3 is_stmt 1 view .LVU672
 917:Core/Src/main.c ****   hspi1.Init.DataSize = SPI_DATASIZE_4BIT;
 1803              		.loc 1 917 24 is_stmt 0 view .LVU673
 1804 000e 0023     		movs	r3, #0
 1805 0010 8360     		str	r3, [r0, #8]
 918:Core/Src/main.c ****   hspi1.Init.CLKPolarity = SPI_POLARITY_LOW;
 1806              		.loc 1 918 3 is_stmt 1 view .LVU674
 918:Core/Src/main.c ****   hspi1.Init.CLKPolarity = SPI_POLARITY_LOW;
 1807              		.loc 1 918 23 is_stmt 0 view .LVU675
 1808 0012 4FF44072 		mov	r2, #768
 1809 0016 C260     		str	r2, [r0, #12]
 919:Core/Src/main.c ****   hspi1.Init.CLKPhase = SPI_PHASE_1EDGE;
 1810              		.loc 1 919 3 is_stmt 1 view .LVU676
 919:Core/Src/main.c ****   hspi1.Init.CLKPhase = SPI_PHASE_1EDGE;
 1811              		.loc 1 919 26 is_stmt 0 view .LVU677
 1812 0018 0361     		str	r3, [r0, #16]
 920:Core/Src/main.c ****   hspi1.Init.NSS = SPI_NSS_SOFT;
 1813              		.loc 1 920 3 is_stmt 1 view .LVU678
 920:Core/Src/main.c ****   hspi1.Init.NSS = SPI_NSS_SOFT;
 1814              		.loc 1 920 23 is_stmt 0 view .LVU679
 1815 001a 4361     		str	r3, [r0, #20]
 921:Core/Src/main.c ****   hspi1.Init.BaudRatePrescaler = SPI_BAUDRATEPRESCALER_4;
 1816              		.loc 1 921 3 is_stmt 1 view .LVU680
 921:Core/Src/main.c ****   hspi1.Init.BaudRatePrescaler = SPI_BAUDRATEPRESCALER_4;
 1817              		.loc 1 921 18 is_stmt 0 view .LVU681
 1818 001c 4FF40072 		mov	r2, #512
 1819 0020 8261     		str	r2, [r0, #24]
 922:Core/Src/main.c ****   hspi1.Init.FirstBit = SPI_FIRSTBIT_MSB;
 1820              		.loc 1 922 3 is_stmt 1 view .LVU682
 922:Core/Src/main.c ****   hspi1.Init.FirstBit = SPI_FIRSTBIT_MSB;
 1821              		.loc 1 922 32 is_stmt 0 view .LVU683
 1822 0022 0822     		movs	r2, #8
 1823 0024 C261     		str	r2, [r0, #28]
 923:Core/Src/main.c ****   hspi1.Init.TIMode = SPI_TIMODE_DISABLE;
 1824              		.loc 1 923 3 is_stmt 1 view .LVU684
 923:Core/Src/main.c ****   hspi1.Init.TIMode = SPI_TIMODE_DISABLE;
 1825              		.loc 1 923 23 is_stmt 0 view .LVU685
 1826 0026 0362     		str	r3, [r0, #32]
 924:Core/Src/main.c ****   hspi1.Init.CRCCalculation = SPI_CRCCALCULATION_DISABLE;
 1827              		.loc 1 924 3 is_stmt 1 view .LVU686
 924:Core/Src/main.c ****   hspi1.Init.CRCCalculation = SPI_CRCCALCULATION_DISABLE;
 1828              		.loc 1 924 21 is_stmt 0 view .LVU687
 1829 0028 4362     		str	r3, [r0, #36]
 925:Core/Src/main.c ****   hspi1.Init.CRCPolynomial = 7;
 1830              		.loc 1 925 3 is_stmt 1 view .LVU688
 925:Core/Src/main.c ****   hspi1.Init.CRCPolynomial = 7;
 1831              		.loc 1 925 29 is_stmt 0 view .LVU689
 1832 002a 8362     		str	r3, [r0, #40]
 926:Core/Src/main.c ****   hspi1.Init.CRCLength = SPI_CRC_LENGTH_DATASIZE;
ARM GAS  C:\Users\benny\AppData\Local\Temp\ccjrekJt.s 			page 73


 1833              		.loc 1 926 3 is_stmt 1 view .LVU690
 926:Core/Src/main.c ****   hspi1.Init.CRCLength = SPI_CRC_LENGTH_DATASIZE;
 1834              		.loc 1 926 28 is_stmt 0 view .LVU691
 1835 002c 0721     		movs	r1, #7
 1836 002e C162     		str	r1, [r0, #44]
 927:Core/Src/main.c ****   hspi1.Init.NSSPMode = SPI_NSS_PULSE_ENABLE;
 1837              		.loc 1 927 3 is_stmt 1 view .LVU692
 927:Core/Src/main.c ****   hspi1.Init.NSSPMode = SPI_NSS_PULSE_ENABLE;
 1838              		.loc 1 927 24 is_stmt 0 view .LVU693
 1839 0030 0363     		str	r3, [r0, #48]
 928:Core/Src/main.c ****   if (HAL_SPI_Init(&hspi1) != HAL_OK)
 1840              		.loc 1 928 3 is_stmt 1 view .LVU694
 928:Core/Src/main.c ****   if (HAL_SPI_Init(&hspi1) != HAL_OK)
 1841              		.loc 1 928 23 is_stmt 0 view .LVU695
 1842 0032 4263     		str	r2, [r0, #52]
 929:Core/Src/main.c ****   {
 1843              		.loc 1 929 3 is_stmt 1 view .LVU696
 929:Core/Src/main.c ****   {
 1844              		.loc 1 929 7 is_stmt 0 view .LVU697
 1845 0034 FFF7FEFF 		bl	HAL_SPI_Init
 1846              	.LVL71:
 929:Core/Src/main.c ****   {
 1847              		.loc 1 929 6 view .LVU698
 1848 0038 00B9     		cbnz	r0, .L96
 937:Core/Src/main.c **** 
 1849              		.loc 1 937 1 view .LVU699
 1850 003a 08BD     		pop	{r3, pc}
 1851              	.L96:
 931:Core/Src/main.c ****   }
 1852              		.loc 1 931 5 is_stmt 1 view .LVU700
 1853 003c FFF7FEFF 		bl	Error_Handler
 1854              	.LVL72:
 1855              	.L98:
 1856              		.align	2
 1857              	.L97:
 1858 0040 00000000 		.word	hspi1
 1859 0044 00300140 		.word	1073819648
 1860              		.cfi_endproc
 1861              	.LFE155:
 1863              		.section	.text.MX_SPI2_Init,"ax",%progbits
 1864              		.align	1
 1865              		.syntax unified
 1866              		.thumb
 1867              		.thumb_func
 1869              	MX_SPI2_Init:
 1870              	.LFB156:
 945:Core/Src/main.c **** 
 1871              		.loc 1 945 1 view -0
 1872              		.cfi_startproc
 1873              		@ args = 0, pretend = 0, frame = 0
 1874              		@ frame_needed = 0, uses_anonymous_args = 0
 1875 0000 08B5     		push	{r3, lr}
 1876              	.LCFI26:
 1877              		.cfi_def_cfa_offset 8
 1878              		.cfi_offset 3, -8
 1879              		.cfi_offset 14, -4
 955:Core/Src/main.c ****   hspi2.Init.Mode = SPI_MODE_MASTER;
ARM GAS  C:\Users\benny\AppData\Local\Temp\ccjrekJt.s 			page 74


 1880              		.loc 1 955 3 view .LVU702
 955:Core/Src/main.c ****   hspi2.Init.Mode = SPI_MODE_MASTER;
 1881              		.loc 1 955 18 is_stmt 0 view .LVU703
 1882 0002 0F48     		ldr	r0, .L103
 1883 0004 0F4B     		ldr	r3, .L103+4
 1884 0006 0360     		str	r3, [r0]
 956:Core/Src/main.c ****   hspi2.Init.Direction = SPI_DIRECTION_2LINES;
 1885              		.loc 1 956 3 is_stmt 1 view .LVU704
 956:Core/Src/main.c ****   hspi2.Init.Direction = SPI_DIRECTION_2LINES;
 1886              		.loc 1 956 19 is_stmt 0 view .LVU705
 1887 0008 4FF48273 		mov	r3, #260
 1888 000c 4360     		str	r3, [r0, #4]
 957:Core/Src/main.c ****   hspi2.Init.DataSize = SPI_DATASIZE_4BIT;
 1889              		.loc 1 957 3 is_stmt 1 view .LVU706
 957:Core/Src/main.c ****   hspi2.Init.DataSize = SPI_DATASIZE_4BIT;
 1890              		.loc 1 957 24 is_stmt 0 view .LVU707
 1891 000e 0023     		movs	r3, #0
 1892 0010 8360     		str	r3, [r0, #8]
 958:Core/Src/main.c ****   hspi2.Init.CLKPolarity = SPI_POLARITY_LOW;
 1893              		.loc 1 958 3 is_stmt 1 view .LVU708
 958:Core/Src/main.c ****   hspi2.Init.CLKPolarity = SPI_POLARITY_LOW;
 1894              		.loc 1 958 23 is_stmt 0 view .LVU709
 1895 0012 4FF44072 		mov	r2, #768
 1896 0016 C260     		str	r2, [r0, #12]
 959:Core/Src/main.c ****   hspi2.Init.CLKPhase = SPI_PHASE_1EDGE;
 1897              		.loc 1 959 3 is_stmt 1 view .LVU710
 959:Core/Src/main.c ****   hspi2.Init.CLKPhase = SPI_PHASE_1EDGE;
 1898              		.loc 1 959 26 is_stmt 0 view .LVU711
 1899 0018 0361     		str	r3, [r0, #16]
 960:Core/Src/main.c ****   hspi2.Init.NSS = SPI_NSS_HARD_OUTPUT;
 1900              		.loc 1 960 3 is_stmt 1 view .LVU712
 960:Core/Src/main.c ****   hspi2.Init.NSS = SPI_NSS_HARD_OUTPUT;
 1901              		.loc 1 960 23 is_stmt 0 view .LVU713
 1902 001a 4361     		str	r3, [r0, #20]
 961:Core/Src/main.c ****   hspi2.Init.BaudRatePrescaler = SPI_BAUDRATEPRESCALER_4;
 1903              		.loc 1 961 3 is_stmt 1 view .LVU714
 961:Core/Src/main.c ****   hspi2.Init.BaudRatePrescaler = SPI_BAUDRATEPRESCALER_4;
 1904              		.loc 1 961 18 is_stmt 0 view .LVU715
 1905 001c 4FF48022 		mov	r2, #262144
 1906 0020 8261     		str	r2, [r0, #24]
 962:Core/Src/main.c ****   hspi2.Init.FirstBit = SPI_FIRSTBIT_MSB;
 1907              		.loc 1 962 3 is_stmt 1 view .LVU716
 962:Core/Src/main.c ****   hspi2.Init.FirstBit = SPI_FIRSTBIT_MSB;
 1908              		.loc 1 962 32 is_stmt 0 view .LVU717
 1909 0022 0822     		movs	r2, #8
 1910 0024 C261     		str	r2, [r0, #28]
 963:Core/Src/main.c ****   hspi2.Init.TIMode = SPI_TIMODE_DISABLE;
 1911              		.loc 1 963 3 is_stmt 1 view .LVU718
 963:Core/Src/main.c ****   hspi2.Init.TIMode = SPI_TIMODE_DISABLE;
 1912              		.loc 1 963 23 is_stmt 0 view .LVU719
 1913 0026 0362     		str	r3, [r0, #32]
 964:Core/Src/main.c ****   hspi2.Init.CRCCalculation = SPI_CRCCALCULATION_DISABLE;
 1914              		.loc 1 964 3 is_stmt 1 view .LVU720
 964:Core/Src/main.c ****   hspi2.Init.CRCCalculation = SPI_CRCCALCULATION_DISABLE;
 1915              		.loc 1 964 21 is_stmt 0 view .LVU721
 1916 0028 4362     		str	r3, [r0, #36]
 965:Core/Src/main.c ****   hspi2.Init.CRCPolynomial = 7;
ARM GAS  C:\Users\benny\AppData\Local\Temp\ccjrekJt.s 			page 75


 1917              		.loc 1 965 3 is_stmt 1 view .LVU722
 965:Core/Src/main.c ****   hspi2.Init.CRCPolynomial = 7;
 1918              		.loc 1 965 29 is_stmt 0 view .LVU723
 1919 002a 8362     		str	r3, [r0, #40]
 966:Core/Src/main.c ****   hspi2.Init.CRCLength = SPI_CRC_LENGTH_DATASIZE;
 1920              		.loc 1 966 3 is_stmt 1 view .LVU724
 966:Core/Src/main.c ****   hspi2.Init.CRCLength = SPI_CRC_LENGTH_DATASIZE;
 1921              		.loc 1 966 28 is_stmt 0 view .LVU725
 1922 002c 0721     		movs	r1, #7
 1923 002e C162     		str	r1, [r0, #44]
 967:Core/Src/main.c ****   hspi2.Init.NSSPMode = SPI_NSS_PULSE_ENABLE;
 1924              		.loc 1 967 3 is_stmt 1 view .LVU726
 967:Core/Src/main.c ****   hspi2.Init.NSSPMode = SPI_NSS_PULSE_ENABLE;
 1925              		.loc 1 967 24 is_stmt 0 view .LVU727
 1926 0030 0363     		str	r3, [r0, #48]
 968:Core/Src/main.c ****   if (HAL_SPI_Init(&hspi2) != HAL_OK)
 1927              		.loc 1 968 3 is_stmt 1 view .LVU728
 968:Core/Src/main.c ****   if (HAL_SPI_Init(&hspi2) != HAL_OK)
 1928              		.loc 1 968 23 is_stmt 0 view .LVU729
 1929 0032 4263     		str	r2, [r0, #52]
 969:Core/Src/main.c ****   {
 1930              		.loc 1 969 3 is_stmt 1 view .LVU730
 969:Core/Src/main.c ****   {
 1931              		.loc 1 969 7 is_stmt 0 view .LVU731
 1932 0034 FFF7FEFF 		bl	HAL_SPI_Init
 1933              	.LVL73:
 969:Core/Src/main.c ****   {
 1934              		.loc 1 969 6 view .LVU732
 1935 0038 00B9     		cbnz	r0, .L102
 977:Core/Src/main.c **** 
 1936              		.loc 1 977 1 view .LVU733
 1937 003a 08BD     		pop	{r3, pc}
 1938              	.L102:
 971:Core/Src/main.c ****   }
 1939              		.loc 1 971 5 is_stmt 1 view .LVU734
 1940 003c FFF7FEFF 		bl	Error_Handler
 1941              	.LVL74:
 1942              	.L104:
 1943              		.align	2
 1944              	.L103:
 1945 0040 00000000 		.word	hspi2
 1946 0044 00380040 		.word	1073756160
 1947              		.cfi_endproc
 1948              	.LFE156:
 1950              		.section	.text.MX_TIM2_Init,"ax",%progbits
 1951              		.align	1
 1952              		.syntax unified
 1953              		.thumb
 1954              		.thumb_func
 1956              	MX_TIM2_Init:
 1957              	.LFB157:
 985:Core/Src/main.c **** 
 1958              		.loc 1 985 1 view -0
 1959              		.cfi_startproc
 1960              		@ args = 0, pretend = 0, frame = 40
 1961              		@ frame_needed = 0, uses_anonymous_args = 0
 1962 0000 00B5     		push	{lr}
ARM GAS  C:\Users\benny\AppData\Local\Temp\ccjrekJt.s 			page 76


 1963              	.LCFI27:
 1964              		.cfi_def_cfa_offset 4
 1965              		.cfi_offset 14, -4
 1966 0002 8BB0     		sub	sp, sp, #44
 1967              	.LCFI28:
 1968              		.cfi_def_cfa_offset 48
 991:Core/Src/main.c ****   TIM_OC_InitTypeDef sConfigOC = {0};
 1969              		.loc 1 991 3 view .LVU736
 991:Core/Src/main.c ****   TIM_OC_InitTypeDef sConfigOC = {0};
 1970              		.loc 1 991 27 is_stmt 0 view .LVU737
 1971 0004 0023     		movs	r3, #0
 1972 0006 0793     		str	r3, [sp, #28]
 1973 0008 0893     		str	r3, [sp, #32]
 1974 000a 0993     		str	r3, [sp, #36]
 992:Core/Src/main.c **** 
 1975              		.loc 1 992 3 is_stmt 1 view .LVU738
 992:Core/Src/main.c **** 
 1976              		.loc 1 992 22 is_stmt 0 view .LVU739
 1977 000c 0093     		str	r3, [sp]
 1978 000e 0193     		str	r3, [sp, #4]
 1979 0010 0293     		str	r3, [sp, #8]
 1980 0012 0393     		str	r3, [sp, #12]
 1981 0014 0493     		str	r3, [sp, #16]
 1982 0016 0593     		str	r3, [sp, #20]
 1983 0018 0693     		str	r3, [sp, #24]
 997:Core/Src/main.c ****   htim2.Init.Prescaler = 0;
 1984              		.loc 1 997 3 is_stmt 1 view .LVU740
 997:Core/Src/main.c ****   htim2.Init.Prescaler = 0;
 1985              		.loc 1 997 18 is_stmt 0 view .LVU741
 1986 001a 1648     		ldr	r0, .L113
 1987 001c 4FF08042 		mov	r2, #1073741824
 1988 0020 0260     		str	r2, [r0]
 998:Core/Src/main.c ****   htim2.Init.CounterMode = TIM_COUNTERMODE_UP;
 1989              		.loc 1 998 3 is_stmt 1 view .LVU742
 998:Core/Src/main.c ****   htim2.Init.CounterMode = TIM_COUNTERMODE_UP;
 1990              		.loc 1 998 24 is_stmt 0 view .LVU743
 1991 0022 4360     		str	r3, [r0, #4]
 999:Core/Src/main.c ****   htim2.Init.Period = 4294967295;
 1992              		.loc 1 999 3 is_stmt 1 view .LVU744
 999:Core/Src/main.c ****   htim2.Init.Period = 4294967295;
 1993              		.loc 1 999 26 is_stmt 0 view .LVU745
 1994 0024 8360     		str	r3, [r0, #8]
1000:Core/Src/main.c ****   htim2.Init.ClockDivision = TIM_CLOCKDIVISION_DIV1;
 1995              		.loc 1 1000 3 is_stmt 1 view .LVU746
1000:Core/Src/main.c ****   htim2.Init.ClockDivision = TIM_CLOCKDIVISION_DIV1;
 1996              		.loc 1 1000 21 is_stmt 0 view .LVU747
 1997 0026 4FF0FF32 		mov	r2, #-1
 1998 002a C260     		str	r2, [r0, #12]
1001:Core/Src/main.c ****   htim2.Init.AutoReloadPreload = TIM_AUTORELOAD_PRELOAD_DISABLE;
 1999              		.loc 1 1001 3 is_stmt 1 view .LVU748
1001:Core/Src/main.c ****   htim2.Init.AutoReloadPreload = TIM_AUTORELOAD_PRELOAD_DISABLE;
 2000              		.loc 1 1001 28 is_stmt 0 view .LVU749
 2001 002c 0361     		str	r3, [r0, #16]
1002:Core/Src/main.c ****   if (HAL_TIM_PWM_Init(&htim2) != HAL_OK)
 2002              		.loc 1 1002 3 is_stmt 1 view .LVU750
1002:Core/Src/main.c ****   if (HAL_TIM_PWM_Init(&htim2) != HAL_OK)
 2003              		.loc 1 1002 32 is_stmt 0 view .LVU751
ARM GAS  C:\Users\benny\AppData\Local\Temp\ccjrekJt.s 			page 77


 2004 002e 8361     		str	r3, [r0, #24]
1003:Core/Src/main.c ****   {
 2005              		.loc 1 1003 3 is_stmt 1 view .LVU752
1003:Core/Src/main.c ****   {
 2006              		.loc 1 1003 7 is_stmt 0 view .LVU753
 2007 0030 FFF7FEFF 		bl	HAL_TIM_PWM_Init
 2008              	.LVL75:
1003:Core/Src/main.c ****   {
 2009              		.loc 1 1003 6 view .LVU754
 2010 0034 C0B9     		cbnz	r0, .L110
1007:Core/Src/main.c ****   sMasterConfig.MasterSlaveMode = TIM_MASTERSLAVEMODE_DISABLE;
 2011              		.loc 1 1007 3 is_stmt 1 view .LVU755
1007:Core/Src/main.c ****   sMasterConfig.MasterSlaveMode = TIM_MASTERSLAVEMODE_DISABLE;
 2012              		.loc 1 1007 37 is_stmt 0 view .LVU756
 2013 0036 0023     		movs	r3, #0
 2014 0038 0793     		str	r3, [sp, #28]
1008:Core/Src/main.c ****   if (HAL_TIMEx_MasterConfigSynchronization(&htim2, &sMasterConfig) != HAL_OK)
 2015              		.loc 1 1008 3 is_stmt 1 view .LVU757
1008:Core/Src/main.c ****   if (HAL_TIMEx_MasterConfigSynchronization(&htim2, &sMasterConfig) != HAL_OK)
 2016              		.loc 1 1008 33 is_stmt 0 view .LVU758
 2017 003a 0993     		str	r3, [sp, #36]
1009:Core/Src/main.c ****   {
 2018              		.loc 1 1009 3 is_stmt 1 view .LVU759
1009:Core/Src/main.c ****   {
 2019              		.loc 1 1009 7 is_stmt 0 view .LVU760
 2020 003c 07A9     		add	r1, sp, #28
 2021 003e 0D48     		ldr	r0, .L113
 2022 0040 FFF7FEFF 		bl	HAL_TIMEx_MasterConfigSynchronization
 2023              	.LVL76:
1009:Core/Src/main.c ****   {
 2024              		.loc 1 1009 6 view .LVU761
 2025 0044 90B9     		cbnz	r0, .L111
1013:Core/Src/main.c ****   sConfigOC.Pulse = 0;
 2026              		.loc 1 1013 3 is_stmt 1 view .LVU762
1013:Core/Src/main.c ****   sConfigOC.Pulse = 0;
 2027              		.loc 1 1013 20 is_stmt 0 view .LVU763
 2028 0046 6023     		movs	r3, #96
 2029 0048 0093     		str	r3, [sp]
1014:Core/Src/main.c ****   sConfigOC.OCPolarity = TIM_OCPOLARITY_HIGH;
 2030              		.loc 1 1014 3 is_stmt 1 view .LVU764
1014:Core/Src/main.c ****   sConfigOC.OCPolarity = TIM_OCPOLARITY_HIGH;
 2031              		.loc 1 1014 19 is_stmt 0 view .LVU765
 2032 004a 0022     		movs	r2, #0
 2033 004c 0192     		str	r2, [sp, #4]
1015:Core/Src/main.c ****   sConfigOC.OCFastMode = TIM_OCFAST_DISABLE;
 2034              		.loc 1 1015 3 is_stmt 1 view .LVU766
1015:Core/Src/main.c ****   sConfigOC.OCFastMode = TIM_OCFAST_DISABLE;
 2035              		.loc 1 1015 24 is_stmt 0 view .LVU767
 2036 004e 0292     		str	r2, [sp, #8]
1016:Core/Src/main.c ****   if (HAL_TIM_PWM_ConfigChannel(&htim2, &sConfigOC, TIM_CHANNEL_1) != HAL_OK)
 2037              		.loc 1 1016 3 is_stmt 1 view .LVU768
1016:Core/Src/main.c ****   if (HAL_TIM_PWM_ConfigChannel(&htim2, &sConfigOC, TIM_CHANNEL_1) != HAL_OK)
 2038              		.loc 1 1016 24 is_stmt 0 view .LVU769
 2039 0050 0492     		str	r2, [sp, #16]
1017:Core/Src/main.c ****   {
 2040              		.loc 1 1017 3 is_stmt 1 view .LVU770
1017:Core/Src/main.c ****   {
ARM GAS  C:\Users\benny\AppData\Local\Temp\ccjrekJt.s 			page 78


 2041              		.loc 1 1017 7 is_stmt 0 view .LVU771
 2042 0052 6946     		mov	r1, sp
 2043 0054 0748     		ldr	r0, .L113
 2044 0056 FFF7FEFF 		bl	HAL_TIM_PWM_ConfigChannel
 2045              	.LVL77:
1017:Core/Src/main.c ****   {
 2046              		.loc 1 1017 6 view .LVU772
 2047 005a 48B9     		cbnz	r0, .L112
1024:Core/Src/main.c **** 
 2048              		.loc 1 1024 3 is_stmt 1 view .LVU773
 2049 005c 0548     		ldr	r0, .L113
 2050 005e FFF7FEFF 		bl	HAL_TIM_MspPostInit
 2051              	.LVL78:
1026:Core/Src/main.c **** 
 2052              		.loc 1 1026 1 is_stmt 0 view .LVU774
 2053 0062 0BB0     		add	sp, sp, #44
 2054              	.LCFI29:
 2055              		.cfi_remember_state
 2056              		.cfi_def_cfa_offset 4
 2057              		@ sp needed
 2058 0064 5DF804FB 		ldr	pc, [sp], #4
 2059              	.L110:
 2060              	.LCFI30:
 2061              		.cfi_restore_state
1005:Core/Src/main.c ****   }
 2062              		.loc 1 1005 5 is_stmt 1 view .LVU775
 2063 0068 FFF7FEFF 		bl	Error_Handler
 2064              	.LVL79:
 2065              	.L111:
1011:Core/Src/main.c ****   }
 2066              		.loc 1 1011 5 view .LVU776
 2067 006c FFF7FEFF 		bl	Error_Handler
 2068              	.LVL80:
 2069              	.L112:
1019:Core/Src/main.c ****   }
 2070              		.loc 1 1019 5 view .LVU777
 2071 0070 FFF7FEFF 		bl	Error_Handler
 2072              	.LVL81:
 2073              	.L114:
 2074              		.align	2
 2075              	.L113:
 2076 0074 00000000 		.word	htim2
 2077              		.cfi_endproc
 2078              	.LFE157:
 2080              		.section	.text.MX_TIM3_Init,"ax",%progbits
 2081              		.align	1
 2082              		.syntax unified
 2083              		.thumb
 2084              		.thumb_func
 2086              	MX_TIM3_Init:
 2087              	.LFB158:
1034:Core/Src/main.c **** 
 2088              		.loc 1 1034 1 view -0
 2089              		.cfi_startproc
 2090              		@ args = 0, pretend = 0, frame = 40
 2091              		@ frame_needed = 0, uses_anonymous_args = 0
 2092 0000 00B5     		push	{lr}
ARM GAS  C:\Users\benny\AppData\Local\Temp\ccjrekJt.s 			page 79


 2093              	.LCFI31:
 2094              		.cfi_def_cfa_offset 4
 2095              		.cfi_offset 14, -4
 2096 0002 8BB0     		sub	sp, sp, #44
 2097              	.LCFI32:
 2098              		.cfi_def_cfa_offset 48
1040:Core/Src/main.c ****   TIM_OC_InitTypeDef sConfigOC = {0};
 2099              		.loc 1 1040 3 view .LVU779
1040:Core/Src/main.c ****   TIM_OC_InitTypeDef sConfigOC = {0};
 2100              		.loc 1 1040 27 is_stmt 0 view .LVU780
 2101 0004 0023     		movs	r3, #0
 2102 0006 0793     		str	r3, [sp, #28]
 2103 0008 0893     		str	r3, [sp, #32]
 2104 000a 0993     		str	r3, [sp, #36]
1041:Core/Src/main.c **** 
 2105              		.loc 1 1041 3 is_stmt 1 view .LVU781
1041:Core/Src/main.c **** 
 2106              		.loc 1 1041 22 is_stmt 0 view .LVU782
 2107 000c 0093     		str	r3, [sp]
 2108 000e 0193     		str	r3, [sp, #4]
 2109 0010 0293     		str	r3, [sp, #8]
 2110 0012 0393     		str	r3, [sp, #12]
 2111 0014 0493     		str	r3, [sp, #16]
 2112 0016 0593     		str	r3, [sp, #20]
 2113 0018 0693     		str	r3, [sp, #24]
1046:Core/Src/main.c ****   htim3.Init.Prescaler = 0;
 2114              		.loc 1 1046 3 is_stmt 1 view .LVU783
1046:Core/Src/main.c ****   htim3.Init.Prescaler = 0;
 2115              		.loc 1 1046 18 is_stmt 0 view .LVU784
 2116 001a 1648     		ldr	r0, .L123
 2117 001c 164A     		ldr	r2, .L123+4
 2118 001e 0260     		str	r2, [r0]
1047:Core/Src/main.c ****   htim3.Init.CounterMode = TIM_COUNTERMODE_UP;
 2119              		.loc 1 1047 3 is_stmt 1 view .LVU785
1047:Core/Src/main.c ****   htim3.Init.CounterMode = TIM_COUNTERMODE_UP;
 2120              		.loc 1 1047 24 is_stmt 0 view .LVU786
 2121 0020 4360     		str	r3, [r0, #4]
1048:Core/Src/main.c ****   htim3.Init.Period = 65535;
 2122              		.loc 1 1048 3 is_stmt 1 view .LVU787
1048:Core/Src/main.c ****   htim3.Init.Period = 65535;
 2123              		.loc 1 1048 26 is_stmt 0 view .LVU788
 2124 0022 8360     		str	r3, [r0, #8]
1049:Core/Src/main.c ****   htim3.Init.ClockDivision = TIM_CLOCKDIVISION_DIV1;
 2125              		.loc 1 1049 3 is_stmt 1 view .LVU789
1049:Core/Src/main.c ****   htim3.Init.ClockDivision = TIM_CLOCKDIVISION_DIV1;
 2126              		.loc 1 1049 21 is_stmt 0 view .LVU790
 2127 0024 4FF6FF72 		movw	r2, #65535
 2128 0028 C260     		str	r2, [r0, #12]
1050:Core/Src/main.c ****   htim3.Init.AutoReloadPreload = TIM_AUTORELOAD_PRELOAD_DISABLE;
 2129              		.loc 1 1050 3 is_stmt 1 view .LVU791
1050:Core/Src/main.c ****   htim3.Init.AutoReloadPreload = TIM_AUTORELOAD_PRELOAD_DISABLE;
 2130              		.loc 1 1050 28 is_stmt 0 view .LVU792
 2131 002a 0361     		str	r3, [r0, #16]
1051:Core/Src/main.c ****   if (HAL_TIM_PWM_Init(&htim3) != HAL_OK)
 2132              		.loc 1 1051 3 is_stmt 1 view .LVU793
1051:Core/Src/main.c ****   if (HAL_TIM_PWM_Init(&htim3) != HAL_OK)
 2133              		.loc 1 1051 32 is_stmt 0 view .LVU794
ARM GAS  C:\Users\benny\AppData\Local\Temp\ccjrekJt.s 			page 80


 2134 002c 8361     		str	r3, [r0, #24]
1052:Core/Src/main.c ****   {
 2135              		.loc 1 1052 3 is_stmt 1 view .LVU795
1052:Core/Src/main.c ****   {
 2136              		.loc 1 1052 7 is_stmt 0 view .LVU796
 2137 002e FFF7FEFF 		bl	HAL_TIM_PWM_Init
 2138              	.LVL82:
1052:Core/Src/main.c ****   {
 2139              		.loc 1 1052 6 view .LVU797
 2140 0032 C8B9     		cbnz	r0, .L120
1056:Core/Src/main.c ****   sMasterConfig.MasterSlaveMode = TIM_MASTERSLAVEMODE_DISABLE;
 2141              		.loc 1 1056 3 is_stmt 1 view .LVU798
1056:Core/Src/main.c ****   sMasterConfig.MasterSlaveMode = TIM_MASTERSLAVEMODE_DISABLE;
 2142              		.loc 1 1056 37 is_stmt 0 view .LVU799
 2143 0034 0023     		movs	r3, #0
 2144 0036 0793     		str	r3, [sp, #28]
1057:Core/Src/main.c ****   if (HAL_TIMEx_MasterConfigSynchronization(&htim3, &sMasterConfig) != HAL_OK)
 2145              		.loc 1 1057 3 is_stmt 1 view .LVU800
1057:Core/Src/main.c ****   if (HAL_TIMEx_MasterConfigSynchronization(&htim3, &sMasterConfig) != HAL_OK)
 2146              		.loc 1 1057 33 is_stmt 0 view .LVU801
 2147 0038 0993     		str	r3, [sp, #36]
1058:Core/Src/main.c ****   {
 2148              		.loc 1 1058 3 is_stmt 1 view .LVU802
1058:Core/Src/main.c ****   {
 2149              		.loc 1 1058 7 is_stmt 0 view .LVU803
 2150 003a 07A9     		add	r1, sp, #28
 2151 003c 0D48     		ldr	r0, .L123
 2152 003e FFF7FEFF 		bl	HAL_TIMEx_MasterConfigSynchronization
 2153              	.LVL83:
1058:Core/Src/main.c ****   {
 2154              		.loc 1 1058 6 view .LVU804
 2155 0042 98B9     		cbnz	r0, .L121
1062:Core/Src/main.c ****   sConfigOC.Pulse = 0;
 2156              		.loc 1 1062 3 is_stmt 1 view .LVU805
1062:Core/Src/main.c ****   sConfigOC.Pulse = 0;
 2157              		.loc 1 1062 20 is_stmt 0 view .LVU806
 2158 0044 6023     		movs	r3, #96
 2159 0046 0093     		str	r3, [sp]
1063:Core/Src/main.c ****   sConfigOC.OCPolarity = TIM_OCPOLARITY_HIGH;
 2160              		.loc 1 1063 3 is_stmt 1 view .LVU807
1063:Core/Src/main.c ****   sConfigOC.OCPolarity = TIM_OCPOLARITY_HIGH;
 2161              		.loc 1 1063 19 is_stmt 0 view .LVU808
 2162 0048 0023     		movs	r3, #0
 2163 004a 0193     		str	r3, [sp, #4]
1064:Core/Src/main.c ****   sConfigOC.OCFastMode = TIM_OCFAST_DISABLE;
 2164              		.loc 1 1064 3 is_stmt 1 view .LVU809
1064:Core/Src/main.c ****   sConfigOC.OCFastMode = TIM_OCFAST_DISABLE;
 2165              		.loc 1 1064 24 is_stmt 0 view .LVU810
 2166 004c 0293     		str	r3, [sp, #8]
1065:Core/Src/main.c ****   if (HAL_TIM_PWM_ConfigChannel(&htim3, &sConfigOC, TIM_CHANNEL_3) != HAL_OK)
 2167              		.loc 1 1065 3 is_stmt 1 view .LVU811
1065:Core/Src/main.c ****   if (HAL_TIM_PWM_ConfigChannel(&htim3, &sConfigOC, TIM_CHANNEL_3) != HAL_OK)
 2168              		.loc 1 1065 24 is_stmt 0 view .LVU812
 2169 004e 0493     		str	r3, [sp, #16]
1066:Core/Src/main.c ****   {
 2170              		.loc 1 1066 3 is_stmt 1 view .LVU813
1066:Core/Src/main.c ****   {
ARM GAS  C:\Users\benny\AppData\Local\Temp\ccjrekJt.s 			page 81


 2171              		.loc 1 1066 7 is_stmt 0 view .LVU814
 2172 0050 0822     		movs	r2, #8
 2173 0052 6946     		mov	r1, sp
 2174 0054 0748     		ldr	r0, .L123
 2175 0056 FFF7FEFF 		bl	HAL_TIM_PWM_ConfigChannel
 2176              	.LVL84:
1066:Core/Src/main.c ****   {
 2177              		.loc 1 1066 6 view .LVU815
 2178 005a 48B9     		cbnz	r0, .L122
1073:Core/Src/main.c **** 
 2179              		.loc 1 1073 3 is_stmt 1 view .LVU816
 2180 005c 0548     		ldr	r0, .L123
 2181 005e FFF7FEFF 		bl	HAL_TIM_MspPostInit
 2182              	.LVL85:
1075:Core/Src/main.c **** 
 2183              		.loc 1 1075 1 is_stmt 0 view .LVU817
 2184 0062 0BB0     		add	sp, sp, #44
 2185              	.LCFI33:
 2186              		.cfi_remember_state
 2187              		.cfi_def_cfa_offset 4
 2188              		@ sp needed
 2189 0064 5DF804FB 		ldr	pc, [sp], #4
 2190              	.L120:
 2191              	.LCFI34:
 2192              		.cfi_restore_state
1054:Core/Src/main.c ****   }
 2193              		.loc 1 1054 5 is_stmt 1 view .LVU818
 2194 0068 FFF7FEFF 		bl	Error_Handler
 2195              	.LVL86:
 2196              	.L121:
1060:Core/Src/main.c ****   }
 2197              		.loc 1 1060 5 view .LVU819
 2198 006c FFF7FEFF 		bl	Error_Handler
 2199              	.LVL87:
 2200              	.L122:
1068:Core/Src/main.c ****   }
 2201              		.loc 1 1068 5 view .LVU820
 2202 0070 FFF7FEFF 		bl	Error_Handler
 2203              	.LVL88:
 2204              	.L124:
 2205              		.align	2
 2206              	.L123:
 2207 0074 00000000 		.word	htim3
 2208 0078 00040040 		.word	1073742848
 2209              		.cfi_endproc
 2210              	.LFE158:
 2212              		.section	.text.MX_TIM5_Init,"ax",%progbits
 2213              		.align	1
 2214              		.syntax unified
 2215              		.thumb
 2216              		.thumb_func
 2218              	MX_TIM5_Init:
 2219              	.LFB159:
1083:Core/Src/main.c **** 
 2220              		.loc 1 1083 1 view -0
 2221              		.cfi_startproc
 2222              		@ args = 0, pretend = 0, frame = 32
ARM GAS  C:\Users\benny\AppData\Local\Temp\ccjrekJt.s 			page 82


 2223              		@ frame_needed = 0, uses_anonymous_args = 0
 2224 0000 00B5     		push	{lr}
 2225              	.LCFI35:
 2226              		.cfi_def_cfa_offset 4
 2227              		.cfi_offset 14, -4
 2228 0002 89B0     		sub	sp, sp, #36
 2229              	.LCFI36:
 2230              		.cfi_def_cfa_offset 40
1089:Core/Src/main.c ****   TIM_MasterConfigTypeDef sMasterConfig = {0};
 2231              		.loc 1 1089 3 view .LVU822
1089:Core/Src/main.c ****   TIM_MasterConfigTypeDef sMasterConfig = {0};
 2232              		.loc 1 1089 26 is_stmt 0 view .LVU823
 2233 0004 0023     		movs	r3, #0
 2234 0006 0493     		str	r3, [sp, #16]
 2235 0008 0593     		str	r3, [sp, #20]
 2236 000a 0693     		str	r3, [sp, #24]
 2237 000c 0793     		str	r3, [sp, #28]
1090:Core/Src/main.c **** 
 2238              		.loc 1 1090 3 is_stmt 1 view .LVU824
1090:Core/Src/main.c **** 
 2239              		.loc 1 1090 27 is_stmt 0 view .LVU825
 2240 000e 0193     		str	r3, [sp, #4]
 2241 0010 0293     		str	r3, [sp, #8]
 2242 0012 0393     		str	r3, [sp, #12]
1095:Core/Src/main.c ****   htim5.Init.Prescaler = 0;
 2243              		.loc 1 1095 3 is_stmt 1 view .LVU826
1095:Core/Src/main.c ****   htim5.Init.Prescaler = 0;
 2244              		.loc 1 1095 18 is_stmt 0 view .LVU827
 2245 0014 1248     		ldr	r0, .L133
 2246 0016 134A     		ldr	r2, .L133+4
 2247 0018 0260     		str	r2, [r0]
1096:Core/Src/main.c ****   htim5.Init.CounterMode = TIM_COUNTERMODE_UP;
 2248              		.loc 1 1096 3 is_stmt 1 view .LVU828
1096:Core/Src/main.c ****   htim5.Init.CounterMode = TIM_COUNTERMODE_UP;
 2249              		.loc 1 1096 24 is_stmt 0 view .LVU829
 2250 001a 4360     		str	r3, [r0, #4]
1097:Core/Src/main.c ****   htim5.Init.Period = 216000;
 2251              		.loc 1 1097 3 is_stmt 1 view .LVU830
1097:Core/Src/main.c ****   htim5.Init.Period = 216000;
 2252              		.loc 1 1097 26 is_stmt 0 view .LVU831
 2253 001c 8360     		str	r3, [r0, #8]
1098:Core/Src/main.c ****   htim5.Init.ClockDivision = TIM_CLOCKDIVISION_DIV1;
 2254              		.loc 1 1098 3 is_stmt 1 view .LVU832
1098:Core/Src/main.c ****   htim5.Init.ClockDivision = TIM_CLOCKDIVISION_DIV1;
 2255              		.loc 1 1098 21 is_stmt 0 view .LVU833
 2256 001e 124A     		ldr	r2, .L133+8
 2257 0020 C260     		str	r2, [r0, #12]
1099:Core/Src/main.c ****   htim5.Init.AutoReloadPreload = TIM_AUTORELOAD_PRELOAD_DISABLE;
 2258              		.loc 1 1099 3 is_stmt 1 view .LVU834
1099:Core/Src/main.c ****   htim5.Init.AutoReloadPreload = TIM_AUTORELOAD_PRELOAD_DISABLE;
 2259              		.loc 1 1099 28 is_stmt 0 view .LVU835
 2260 0022 0361     		str	r3, [r0, #16]
1100:Core/Src/main.c ****   if (HAL_TIM_Base_Init(&htim5) != HAL_OK)
 2261              		.loc 1 1100 3 is_stmt 1 view .LVU836
1100:Core/Src/main.c ****   if (HAL_TIM_Base_Init(&htim5) != HAL_OK)
 2262              		.loc 1 1100 32 is_stmt 0 view .LVU837
 2263 0024 8361     		str	r3, [r0, #24]
ARM GAS  C:\Users\benny\AppData\Local\Temp\ccjrekJt.s 			page 83


1101:Core/Src/main.c ****   {
 2264              		.loc 1 1101 3 is_stmt 1 view .LVU838
1101:Core/Src/main.c ****   {
 2265              		.loc 1 1101 7 is_stmt 0 view .LVU839
 2266 0026 FFF7FEFF 		bl	HAL_TIM_Base_Init
 2267              	.LVL89:
1101:Core/Src/main.c ****   {
 2268              		.loc 1 1101 6 view .LVU840
 2269 002a 98B9     		cbnz	r0, .L130
1105:Core/Src/main.c ****   if (HAL_TIM_ConfigClockSource(&htim5, &sClockSourceConfig) != HAL_OK)
 2270              		.loc 1 1105 3 is_stmt 1 view .LVU841
1105:Core/Src/main.c ****   if (HAL_TIM_ConfigClockSource(&htim5, &sClockSourceConfig) != HAL_OK)
 2271              		.loc 1 1105 34 is_stmt 0 view .LVU842
 2272 002c 4FF48053 		mov	r3, #4096
 2273 0030 0493     		str	r3, [sp, #16]
1106:Core/Src/main.c ****   {
 2274              		.loc 1 1106 3 is_stmt 1 view .LVU843
1106:Core/Src/main.c ****   {
 2275              		.loc 1 1106 7 is_stmt 0 view .LVU844
 2276 0032 04A9     		add	r1, sp, #16
 2277 0034 0A48     		ldr	r0, .L133
 2278 0036 FFF7FEFF 		bl	HAL_TIM_ConfigClockSource
 2279              	.LVL90:
1106:Core/Src/main.c ****   {
 2280              		.loc 1 1106 6 view .LVU845
 2281 003a 68B9     		cbnz	r0, .L131
1110:Core/Src/main.c ****   sMasterConfig.MasterSlaveMode = TIM_MASTERSLAVEMODE_DISABLE;
 2282              		.loc 1 1110 3 is_stmt 1 view .LVU846
1110:Core/Src/main.c ****   sMasterConfig.MasterSlaveMode = TIM_MASTERSLAVEMODE_DISABLE;
 2283              		.loc 1 1110 37 is_stmt 0 view .LVU847
 2284 003c 2023     		movs	r3, #32
 2285 003e 0193     		str	r3, [sp, #4]
1111:Core/Src/main.c ****   if (HAL_TIMEx_MasterConfigSynchronization(&htim5, &sMasterConfig) != HAL_OK)
 2286              		.loc 1 1111 3 is_stmt 1 view .LVU848
1111:Core/Src/main.c ****   if (HAL_TIMEx_MasterConfigSynchronization(&htim5, &sMasterConfig) != HAL_OK)
 2287              		.loc 1 1111 33 is_stmt 0 view .LVU849
 2288 0040 0023     		movs	r3, #0
 2289 0042 0393     		str	r3, [sp, #12]
1112:Core/Src/main.c ****   {
 2290              		.loc 1 1112 3 is_stmt 1 view .LVU850
1112:Core/Src/main.c ****   {
 2291              		.loc 1 1112 7 is_stmt 0 view .LVU851
 2292 0044 01A9     		add	r1, sp, #4
 2293 0046 0648     		ldr	r0, .L133
 2294 0048 FFF7FEFF 		bl	HAL_TIMEx_MasterConfigSynchronization
 2295              	.LVL91:
1112:Core/Src/main.c ****   {
 2296              		.loc 1 1112 6 view .LVU852
 2297 004c 30B9     		cbnz	r0, .L132
1120:Core/Src/main.c **** 
 2298              		.loc 1 1120 1 view .LVU853
 2299 004e 09B0     		add	sp, sp, #36
 2300              	.LCFI37:
 2301              		.cfi_remember_state
 2302              		.cfi_def_cfa_offset 4
 2303              		@ sp needed
 2304 0050 5DF804FB 		ldr	pc, [sp], #4
ARM GAS  C:\Users\benny\AppData\Local\Temp\ccjrekJt.s 			page 84


 2305              	.L130:
 2306              	.LCFI38:
 2307              		.cfi_restore_state
1103:Core/Src/main.c ****   }
 2308              		.loc 1 1103 5 is_stmt 1 view .LVU854
 2309 0054 FFF7FEFF 		bl	Error_Handler
 2310              	.LVL92:
 2311              	.L131:
1108:Core/Src/main.c ****   }
 2312              		.loc 1 1108 5 view .LVU855
 2313 0058 FFF7FEFF 		bl	Error_Handler
 2314              	.LVL93:
 2315              	.L132:
1114:Core/Src/main.c ****   }
 2316              		.loc 1 1114 5 view .LVU856
 2317 005c FFF7FEFF 		bl	Error_Handler
 2318              	.LVL94:
 2319              	.L134:
 2320              		.align	2
 2321              	.L133:
 2322 0060 00000000 		.word	htim5
 2323 0064 000C0040 		.word	1073744896
 2324 0068 C04B0300 		.word	216000
 2325              		.cfi_endproc
 2326              	.LFE159:
 2328              		.section	.text.MX_TIM9_Init,"ax",%progbits
 2329              		.align	1
 2330              		.syntax unified
 2331              		.thumb
 2332              		.thumb_func
 2334              	MX_TIM9_Init:
 2335              	.LFB160:
1128:Core/Src/main.c **** 
 2336              		.loc 1 1128 1 view -0
 2337              		.cfi_startproc
 2338              		@ args = 0, pretend = 0, frame = 32
 2339              		@ frame_needed = 0, uses_anonymous_args = 0
 2340 0000 00B5     		push	{lr}
 2341              	.LCFI39:
 2342              		.cfi_def_cfa_offset 4
 2343              		.cfi_offset 14, -4
 2344 0002 89B0     		sub	sp, sp, #36
 2345              	.LCFI40:
 2346              		.cfi_def_cfa_offset 40
1134:Core/Src/main.c **** 
 2347              		.loc 1 1134 3 view .LVU858
1134:Core/Src/main.c **** 
 2348              		.loc 1 1134 22 is_stmt 0 view .LVU859
 2349 0004 0023     		movs	r3, #0
 2350 0006 0193     		str	r3, [sp, #4]
 2351 0008 0293     		str	r3, [sp, #8]
 2352 000a 0393     		str	r3, [sp, #12]
 2353 000c 0493     		str	r3, [sp, #16]
 2354 000e 0593     		str	r3, [sp, #20]
 2355 0010 0693     		str	r3, [sp, #24]
 2356 0012 0793     		str	r3, [sp, #28]
1139:Core/Src/main.c ****   htim9.Init.Prescaler = 0;
ARM GAS  C:\Users\benny\AppData\Local\Temp\ccjrekJt.s 			page 85


 2357              		.loc 1 1139 3 is_stmt 1 view .LVU860
1139:Core/Src/main.c ****   htim9.Init.Prescaler = 0;
 2358              		.loc 1 1139 18 is_stmt 0 view .LVU861
 2359 0014 1548     		ldr	r0, .L143
 2360 0016 164A     		ldr	r2, .L143+4
 2361 0018 0260     		str	r2, [r0]
1140:Core/Src/main.c ****   htim9.Init.CounterMode = TIM_COUNTERMODE_UP;
 2362              		.loc 1 1140 3 is_stmt 1 view .LVU862
1140:Core/Src/main.c ****   htim9.Init.CounterMode = TIM_COUNTERMODE_UP;
 2363              		.loc 1 1140 24 is_stmt 0 view .LVU863
 2364 001a 4360     		str	r3, [r0, #4]
1141:Core/Src/main.c ****   htim9.Init.Period = 65535;
 2365              		.loc 1 1141 3 is_stmt 1 view .LVU864
1141:Core/Src/main.c ****   htim9.Init.Period = 65535;
 2366              		.loc 1 1141 26 is_stmt 0 view .LVU865
 2367 001c 8360     		str	r3, [r0, #8]
1142:Core/Src/main.c ****   htim9.Init.ClockDivision = TIM_CLOCKDIVISION_DIV1;
 2368              		.loc 1 1142 3 is_stmt 1 view .LVU866
1142:Core/Src/main.c ****   htim9.Init.ClockDivision = TIM_CLOCKDIVISION_DIV1;
 2369              		.loc 1 1142 21 is_stmt 0 view .LVU867
 2370 001e 4FF6FF72 		movw	r2, #65535
 2371 0022 C260     		str	r2, [r0, #12]
1143:Core/Src/main.c ****   htim9.Init.AutoReloadPreload = TIM_AUTORELOAD_PRELOAD_DISABLE;
 2372              		.loc 1 1143 3 is_stmt 1 view .LVU868
1143:Core/Src/main.c ****   htim9.Init.AutoReloadPreload = TIM_AUTORELOAD_PRELOAD_DISABLE;
 2373              		.loc 1 1143 28 is_stmt 0 view .LVU869
 2374 0024 0361     		str	r3, [r0, #16]
1144:Core/Src/main.c ****   if (HAL_TIM_PWM_Init(&htim9) != HAL_OK)
 2375              		.loc 1 1144 3 is_stmt 1 view .LVU870
1144:Core/Src/main.c ****   if (HAL_TIM_PWM_Init(&htim9) != HAL_OK)
 2376              		.loc 1 1144 32 is_stmt 0 view .LVU871
 2377 0026 8361     		str	r3, [r0, #24]
1145:Core/Src/main.c ****   {
 2378              		.loc 1 1145 3 is_stmt 1 view .LVU872
1145:Core/Src/main.c ****   {
 2379              		.loc 1 1145 7 is_stmt 0 view .LVU873
 2380 0028 FFF7FEFF 		bl	HAL_TIM_PWM_Init
 2381              	.LVL95:
1145:Core/Src/main.c ****   {
 2382              		.loc 1 1145 6 view .LVU874
 2383 002c B8B9     		cbnz	r0, .L140
1149:Core/Src/main.c ****   sConfigOC.Pulse = 0;
 2384              		.loc 1 1149 3 is_stmt 1 view .LVU875
1149:Core/Src/main.c ****   sConfigOC.Pulse = 0;
 2385              		.loc 1 1149 20 is_stmt 0 view .LVU876
 2386 002e 6023     		movs	r3, #96
 2387 0030 0193     		str	r3, [sp, #4]
1150:Core/Src/main.c ****   sConfigOC.OCPolarity = TIM_OCPOLARITY_HIGH;
 2388              		.loc 1 1150 3 is_stmt 1 view .LVU877
1150:Core/Src/main.c ****   sConfigOC.OCPolarity = TIM_OCPOLARITY_HIGH;
 2389              		.loc 1 1150 19 is_stmt 0 view .LVU878
 2390 0032 0022     		movs	r2, #0
 2391 0034 0292     		str	r2, [sp, #8]
1151:Core/Src/main.c ****   sConfigOC.OCFastMode = TIM_OCFAST_DISABLE;
 2392              		.loc 1 1151 3 is_stmt 1 view .LVU879
1151:Core/Src/main.c ****   sConfigOC.OCFastMode = TIM_OCFAST_DISABLE;
 2393              		.loc 1 1151 24 is_stmt 0 view .LVU880
ARM GAS  C:\Users\benny\AppData\Local\Temp\ccjrekJt.s 			page 86


 2394 0036 0392     		str	r2, [sp, #12]
1152:Core/Src/main.c ****   if (HAL_TIM_PWM_ConfigChannel(&htim9, &sConfigOC, TIM_CHANNEL_1) != HAL_OK)
 2395              		.loc 1 1152 3 is_stmt 1 view .LVU881
1152:Core/Src/main.c ****   if (HAL_TIM_PWM_ConfigChannel(&htim9, &sConfigOC, TIM_CHANNEL_1) != HAL_OK)
 2396              		.loc 1 1152 24 is_stmt 0 view .LVU882
 2397 0038 0592     		str	r2, [sp, #20]
1153:Core/Src/main.c ****   {
 2398              		.loc 1 1153 3 is_stmt 1 view .LVU883
1153:Core/Src/main.c ****   {
 2399              		.loc 1 1153 7 is_stmt 0 view .LVU884
 2400 003a 01A9     		add	r1, sp, #4
 2401 003c 0B48     		ldr	r0, .L143
 2402 003e FFF7FEFF 		bl	HAL_TIM_PWM_ConfigChannel
 2403              	.LVL96:
