ARM GAS  C:\Users\benny\AppData\Local\Temp\ccHko7Bj.s 			page 1


   1              		.cpu cortex-m7
   2              		.arch armv7e-m
   3              		.fpu fpv5-sp-d16
   4              		.eabi_attribute 27, 1
   5              		.eabi_attribute 28, 1
   6              		.eabi_attribute 20, 1
   7              		.eabi_attribute 21, 1
   8              		.eabi_attribute 23, 3
   9              		.eabi_attribute 24, 1
  10              		.eabi_attribute 25, 1
  11              		.eabi_attribute 26, 1
  12              		.eabi_attribute 30, 1
  13              		.eabi_attribute 34, 1
  14              		.eabi_attribute 18, 4
  15              		.file	"stm32f7xx_ll_usb.c"
  16              		.text
  17              	.Ltext0:
  18              		.cfi_sections	.debug_frame
  19              		.file 1 "Drivers/STM32F7xx_HAL_Driver/Src/stm32f7xx_ll_usb.c"
  20              		.section	.text.USB_CoreReset,"ax",%progbits
  21              		.align	1
  22              		.syntax unified
  23              		.thumb
  24              		.thumb_func
  26              	USB_CoreReset:
  27              	.LVL0:
  28              	.LFB175:
   1:Drivers/STM32F7xx_HAL_Driver/Src/stm32f7xx_ll_usb.c **** /**
   2:Drivers/STM32F7xx_HAL_Driver/Src/stm32f7xx_ll_usb.c ****   ******************************************************************************
   3:Drivers/STM32F7xx_HAL_Driver/Src/stm32f7xx_ll_usb.c ****   * @file    stm32f7xx_ll_usb.c
   4:Drivers/STM32F7xx_HAL_Driver/Src/stm32f7xx_ll_usb.c ****   * @author  MCD Application Team
   5:Drivers/STM32F7xx_HAL_Driver/Src/stm32f7xx_ll_usb.c ****   * @brief   USB Low Layer HAL module driver.
   6:Drivers/STM32F7xx_HAL_Driver/Src/stm32f7xx_ll_usb.c ****   *
   7:Drivers/STM32F7xx_HAL_Driver/Src/stm32f7xx_ll_usb.c ****   *          This file provides firmware functions to manage the following
   8:Drivers/STM32F7xx_HAL_Driver/Src/stm32f7xx_ll_usb.c ****   *          functionalities of the USB Peripheral Controller:
   9:Drivers/STM32F7xx_HAL_Driver/Src/stm32f7xx_ll_usb.c ****   *           + Initialization/de-initialization functions
  10:Drivers/STM32F7xx_HAL_Driver/Src/stm32f7xx_ll_usb.c ****   *           + I/O operation functions
  11:Drivers/STM32F7xx_HAL_Driver/Src/stm32f7xx_ll_usb.c ****   *           + Peripheral Control functions
  12:Drivers/STM32F7xx_HAL_Driver/Src/stm32f7xx_ll_usb.c ****   *           + Peripheral State functions
  13:Drivers/STM32F7xx_HAL_Driver/Src/stm32f7xx_ll_usb.c ****   *
  14:Drivers/STM32F7xx_HAL_Driver/Src/stm32f7xx_ll_usb.c ****   ******************************************************************************
  15:Drivers/STM32F7xx_HAL_Driver/Src/stm32f7xx_ll_usb.c ****   * @attention
  16:Drivers/STM32F7xx_HAL_Driver/Src/stm32f7xx_ll_usb.c ****   *
  17:Drivers/STM32F7xx_HAL_Driver/Src/stm32f7xx_ll_usb.c ****   * Copyright (c) 2017 STMicroelectronics.
  18:Drivers/STM32F7xx_HAL_Driver/Src/stm32f7xx_ll_usb.c ****   * All rights reserved.
  19:Drivers/STM32F7xx_HAL_Driver/Src/stm32f7xx_ll_usb.c ****   *
  20:Drivers/STM32F7xx_HAL_Driver/Src/stm32f7xx_ll_usb.c ****   * This software is licensed under terms that can be found in the LICENSE file
  21:Drivers/STM32F7xx_HAL_Driver/Src/stm32f7xx_ll_usb.c ****   * in the root directory of this software component.
  22:Drivers/STM32F7xx_HAL_Driver/Src/stm32f7xx_ll_usb.c ****   * If no LICENSE file comes with this software, it is provided AS-IS.
  23:Drivers/STM32F7xx_HAL_Driver/Src/stm32f7xx_ll_usb.c ****   *
  24:Drivers/STM32F7xx_HAL_Driver/Src/stm32f7xx_ll_usb.c ****   ******************************************************************************
  25:Drivers/STM32F7xx_HAL_Driver/Src/stm32f7xx_ll_usb.c ****   @verbatim
  26:Drivers/STM32F7xx_HAL_Driver/Src/stm32f7xx_ll_usb.c ****   ==============================================================================
  27:Drivers/STM32F7xx_HAL_Driver/Src/stm32f7xx_ll_usb.c ****                     ##### How to use this driver #####
  28:Drivers/STM32F7xx_HAL_Driver/Src/stm32f7xx_ll_usb.c ****   ==============================================================================
  29:Drivers/STM32F7xx_HAL_Driver/Src/stm32f7xx_ll_usb.c ****     [..]
  30:Drivers/STM32F7xx_HAL_Driver/Src/stm32f7xx_ll_usb.c ****       (#) Fill parameters of Init structure in USB_CfgTypeDef structure.
ARM GAS  C:\Users\benny\AppData\Local\Temp\ccHko7Bj.s 			page 2


  31:Drivers/STM32F7xx_HAL_Driver/Src/stm32f7xx_ll_usb.c **** 
  32:Drivers/STM32F7xx_HAL_Driver/Src/stm32f7xx_ll_usb.c ****       (#) Call USB_CoreInit() API to initialize the USB Core peripheral.
  33:Drivers/STM32F7xx_HAL_Driver/Src/stm32f7xx_ll_usb.c **** 
  34:Drivers/STM32F7xx_HAL_Driver/Src/stm32f7xx_ll_usb.c ****       (#) The upper HAL HCD/PCD driver will call the right routines for its internal processes.
  35:Drivers/STM32F7xx_HAL_Driver/Src/stm32f7xx_ll_usb.c **** 
  36:Drivers/STM32F7xx_HAL_Driver/Src/stm32f7xx_ll_usb.c ****   @endverbatim
  37:Drivers/STM32F7xx_HAL_Driver/Src/stm32f7xx_ll_usb.c **** 
  38:Drivers/STM32F7xx_HAL_Driver/Src/stm32f7xx_ll_usb.c ****   ******************************************************************************
  39:Drivers/STM32F7xx_HAL_Driver/Src/stm32f7xx_ll_usb.c ****   */
  40:Drivers/STM32F7xx_HAL_Driver/Src/stm32f7xx_ll_usb.c **** 
  41:Drivers/STM32F7xx_HAL_Driver/Src/stm32f7xx_ll_usb.c **** /* Includes ------------------------------------------------------------------*/
  42:Drivers/STM32F7xx_HAL_Driver/Src/stm32f7xx_ll_usb.c **** #include "stm32f7xx_hal.h"
  43:Drivers/STM32F7xx_HAL_Driver/Src/stm32f7xx_ll_usb.c **** 
  44:Drivers/STM32F7xx_HAL_Driver/Src/stm32f7xx_ll_usb.c **** /** @addtogroup STM32F7xx_LL_USB_DRIVER
  45:Drivers/STM32F7xx_HAL_Driver/Src/stm32f7xx_ll_usb.c ****   * @{
  46:Drivers/STM32F7xx_HAL_Driver/Src/stm32f7xx_ll_usb.c ****   */
  47:Drivers/STM32F7xx_HAL_Driver/Src/stm32f7xx_ll_usb.c **** 
  48:Drivers/STM32F7xx_HAL_Driver/Src/stm32f7xx_ll_usb.c **** #if defined (HAL_PCD_MODULE_ENABLED) || defined (HAL_HCD_MODULE_ENABLED)
  49:Drivers/STM32F7xx_HAL_Driver/Src/stm32f7xx_ll_usb.c **** #if defined (USB_OTG_FS) || defined (USB_OTG_HS)
  50:Drivers/STM32F7xx_HAL_Driver/Src/stm32f7xx_ll_usb.c **** /* Private typedef -----------------------------------------------------------*/
  51:Drivers/STM32F7xx_HAL_Driver/Src/stm32f7xx_ll_usb.c **** /* Private define ------------------------------------------------------------*/
  52:Drivers/STM32F7xx_HAL_Driver/Src/stm32f7xx_ll_usb.c **** /* Private macro -------------------------------------------------------------*/
  53:Drivers/STM32F7xx_HAL_Driver/Src/stm32f7xx_ll_usb.c **** /* Private variables ---------------------------------------------------------*/
  54:Drivers/STM32F7xx_HAL_Driver/Src/stm32f7xx_ll_usb.c **** /* Private function prototypes -----------------------------------------------*/
  55:Drivers/STM32F7xx_HAL_Driver/Src/stm32f7xx_ll_usb.c **** /* Private functions ---------------------------------------------------------*/
  56:Drivers/STM32F7xx_HAL_Driver/Src/stm32f7xx_ll_usb.c **** #if defined (USB_OTG_FS) || defined (USB_OTG_HS)
  57:Drivers/STM32F7xx_HAL_Driver/Src/stm32f7xx_ll_usb.c **** static HAL_StatusTypeDef USB_CoreReset(USB_OTG_GlobalTypeDef *USBx);
  58:Drivers/STM32F7xx_HAL_Driver/Src/stm32f7xx_ll_usb.c **** #ifdef USBPHYC
  59:Drivers/STM32F7xx_HAL_Driver/Src/stm32f7xx_ll_usb.c **** static HAL_StatusTypeDef USB_HS_PHYCInit(USB_OTG_GlobalTypeDef *USBx);
  60:Drivers/STM32F7xx_HAL_Driver/Src/stm32f7xx_ll_usb.c **** #endif /* USBPHYC */
  61:Drivers/STM32F7xx_HAL_Driver/Src/stm32f7xx_ll_usb.c **** 
  62:Drivers/STM32F7xx_HAL_Driver/Src/stm32f7xx_ll_usb.c **** /* Exported functions --------------------------------------------------------*/
  63:Drivers/STM32F7xx_HAL_Driver/Src/stm32f7xx_ll_usb.c **** /** @defgroup USB_LL_Exported_Functions USB Low Layer Exported Functions
  64:Drivers/STM32F7xx_HAL_Driver/Src/stm32f7xx_ll_usb.c ****   * @{
  65:Drivers/STM32F7xx_HAL_Driver/Src/stm32f7xx_ll_usb.c ****   */
  66:Drivers/STM32F7xx_HAL_Driver/Src/stm32f7xx_ll_usb.c **** 
  67:Drivers/STM32F7xx_HAL_Driver/Src/stm32f7xx_ll_usb.c **** /** @defgroup USB_LL_Exported_Functions_Group1 Initialization/de-initialization functions
  68:Drivers/STM32F7xx_HAL_Driver/Src/stm32f7xx_ll_usb.c ****   *  @brief    Initialization and Configuration functions
  69:Drivers/STM32F7xx_HAL_Driver/Src/stm32f7xx_ll_usb.c ****   *
  70:Drivers/STM32F7xx_HAL_Driver/Src/stm32f7xx_ll_usb.c **** @verbatim
  71:Drivers/STM32F7xx_HAL_Driver/Src/stm32f7xx_ll_usb.c ****  ===============================================================================
  72:Drivers/STM32F7xx_HAL_Driver/Src/stm32f7xx_ll_usb.c ****                       ##### Initialization/de-initialization functions #####
  73:Drivers/STM32F7xx_HAL_Driver/Src/stm32f7xx_ll_usb.c ****  ===============================================================================
  74:Drivers/STM32F7xx_HAL_Driver/Src/stm32f7xx_ll_usb.c **** 
  75:Drivers/STM32F7xx_HAL_Driver/Src/stm32f7xx_ll_usb.c **** @endverbatim
  76:Drivers/STM32F7xx_HAL_Driver/Src/stm32f7xx_ll_usb.c ****   * @{
  77:Drivers/STM32F7xx_HAL_Driver/Src/stm32f7xx_ll_usb.c ****   */
  78:Drivers/STM32F7xx_HAL_Driver/Src/stm32f7xx_ll_usb.c **** 
  79:Drivers/STM32F7xx_HAL_Driver/Src/stm32f7xx_ll_usb.c **** /**
  80:Drivers/STM32F7xx_HAL_Driver/Src/stm32f7xx_ll_usb.c ****   * @brief  Initializes the USB Core
  81:Drivers/STM32F7xx_HAL_Driver/Src/stm32f7xx_ll_usb.c ****   * @param  USBx USB Instance
  82:Drivers/STM32F7xx_HAL_Driver/Src/stm32f7xx_ll_usb.c ****   * @param  cfg pointer to a USB_OTG_CfgTypeDef structure that contains
  83:Drivers/STM32F7xx_HAL_Driver/Src/stm32f7xx_ll_usb.c ****   *         the configuration information for the specified USBx peripheral.
  84:Drivers/STM32F7xx_HAL_Driver/Src/stm32f7xx_ll_usb.c ****   * @retval HAL status
  85:Drivers/STM32F7xx_HAL_Driver/Src/stm32f7xx_ll_usb.c ****   */
  86:Drivers/STM32F7xx_HAL_Driver/Src/stm32f7xx_ll_usb.c **** HAL_StatusTypeDef USB_CoreInit(USB_OTG_GlobalTypeDef *USBx, USB_OTG_CfgTypeDef cfg)
  87:Drivers/STM32F7xx_HAL_Driver/Src/stm32f7xx_ll_usb.c **** {
ARM GAS  C:\Users\benny\AppData\Local\Temp\ccHko7Bj.s 			page 3


  88:Drivers/STM32F7xx_HAL_Driver/Src/stm32f7xx_ll_usb.c ****   HAL_StatusTypeDef ret;
  89:Drivers/STM32F7xx_HAL_Driver/Src/stm32f7xx_ll_usb.c **** 
  90:Drivers/STM32F7xx_HAL_Driver/Src/stm32f7xx_ll_usb.c ****   if (cfg.phy_itface == USB_OTG_ULPI_PHY)
  91:Drivers/STM32F7xx_HAL_Driver/Src/stm32f7xx_ll_usb.c ****   {
  92:Drivers/STM32F7xx_HAL_Driver/Src/stm32f7xx_ll_usb.c ****     USBx->GCCFG &= ~(USB_OTG_GCCFG_PWRDWN);
  93:Drivers/STM32F7xx_HAL_Driver/Src/stm32f7xx_ll_usb.c **** 
  94:Drivers/STM32F7xx_HAL_Driver/Src/stm32f7xx_ll_usb.c ****     /* Init The ULPI Interface */
  95:Drivers/STM32F7xx_HAL_Driver/Src/stm32f7xx_ll_usb.c ****     USBx->GUSBCFG &= ~(USB_OTG_GUSBCFG_TSDPS | USB_OTG_GUSBCFG_ULPIFSLS | USB_OTG_GUSBCFG_PHYSEL);
  96:Drivers/STM32F7xx_HAL_Driver/Src/stm32f7xx_ll_usb.c **** 
  97:Drivers/STM32F7xx_HAL_Driver/Src/stm32f7xx_ll_usb.c **** #if defined(STM32F722xx) || defined(STM32F723xx) || defined(STM32F730xx) \
  98:Drivers/STM32F7xx_HAL_Driver/Src/stm32f7xx_ll_usb.c ****  || defined(STM32F732xx) || defined(STM32F733xx)
  99:Drivers/STM32F7xx_HAL_Driver/Src/stm32f7xx_ll_usb.c ****     /* Select ULPI Interface */
 100:Drivers/STM32F7xx_HAL_Driver/Src/stm32f7xx_ll_usb.c ****     USBx->GUSBCFG |= USB_OTG_GUSBCFG_ULPI_UTMI_SEL;
 101:Drivers/STM32F7xx_HAL_Driver/Src/stm32f7xx_ll_usb.c **** #endif /* defined(STM32F722xx) || defined(STM32F723xx) || defined(STM32F730xx) ||
 102:Drivers/STM32F7xx_HAL_Driver/Src/stm32f7xx_ll_usb.c ****           defined(STM32F732xx) || defined(STM32F733xx) */
 103:Drivers/STM32F7xx_HAL_Driver/Src/stm32f7xx_ll_usb.c **** 
 104:Drivers/STM32F7xx_HAL_Driver/Src/stm32f7xx_ll_usb.c ****     /* Select vbus source */
 105:Drivers/STM32F7xx_HAL_Driver/Src/stm32f7xx_ll_usb.c ****     USBx->GUSBCFG &= ~(USB_OTG_GUSBCFG_ULPIEVBUSD | USB_OTG_GUSBCFG_ULPIEVBUSI);
 106:Drivers/STM32F7xx_HAL_Driver/Src/stm32f7xx_ll_usb.c ****     if (cfg.use_external_vbus == 1U)
 107:Drivers/STM32F7xx_HAL_Driver/Src/stm32f7xx_ll_usb.c ****     {
 108:Drivers/STM32F7xx_HAL_Driver/Src/stm32f7xx_ll_usb.c ****       USBx->GUSBCFG |= USB_OTG_GUSBCFG_ULPIEVBUSD;
 109:Drivers/STM32F7xx_HAL_Driver/Src/stm32f7xx_ll_usb.c ****     }
 110:Drivers/STM32F7xx_HAL_Driver/Src/stm32f7xx_ll_usb.c **** 
 111:Drivers/STM32F7xx_HAL_Driver/Src/stm32f7xx_ll_usb.c ****     /* Reset after a PHY select */
 112:Drivers/STM32F7xx_HAL_Driver/Src/stm32f7xx_ll_usb.c ****     ret = USB_CoreReset(USBx);
 113:Drivers/STM32F7xx_HAL_Driver/Src/stm32f7xx_ll_usb.c ****   }
 114:Drivers/STM32F7xx_HAL_Driver/Src/stm32f7xx_ll_usb.c **** #if defined(STM32F722xx) || defined(STM32F723xx) || defined(STM32F730xx) \
 115:Drivers/STM32F7xx_HAL_Driver/Src/stm32f7xx_ll_usb.c ****  || defined(STM32F732xx) || defined(STM32F733xx)
 116:Drivers/STM32F7xx_HAL_Driver/Src/stm32f7xx_ll_usb.c ****   else if (cfg.phy_itface == USB_OTG_HS_EMBEDDED_PHY)
 117:Drivers/STM32F7xx_HAL_Driver/Src/stm32f7xx_ll_usb.c ****   {
 118:Drivers/STM32F7xx_HAL_Driver/Src/stm32f7xx_ll_usb.c ****     USBx->GCCFG &= ~(USB_OTG_GCCFG_PWRDWN);
 119:Drivers/STM32F7xx_HAL_Driver/Src/stm32f7xx_ll_usb.c **** 
 120:Drivers/STM32F7xx_HAL_Driver/Src/stm32f7xx_ll_usb.c ****     /* Init The UTMI Interface */
 121:Drivers/STM32F7xx_HAL_Driver/Src/stm32f7xx_ll_usb.c ****     USBx->GUSBCFG &= ~(USB_OTG_GUSBCFG_TSDPS | USB_OTG_GUSBCFG_ULPIFSLS | USB_OTG_GUSBCFG_PHYSEL);
 122:Drivers/STM32F7xx_HAL_Driver/Src/stm32f7xx_ll_usb.c **** 
 123:Drivers/STM32F7xx_HAL_Driver/Src/stm32f7xx_ll_usb.c ****     /* Select vbus source */
 124:Drivers/STM32F7xx_HAL_Driver/Src/stm32f7xx_ll_usb.c ****     USBx->GUSBCFG &= ~(USB_OTG_GUSBCFG_ULPIEVBUSD | USB_OTG_GUSBCFG_ULPIEVBUSI);
 125:Drivers/STM32F7xx_HAL_Driver/Src/stm32f7xx_ll_usb.c **** 
 126:Drivers/STM32F7xx_HAL_Driver/Src/stm32f7xx_ll_usb.c ****     /* Select UTMI Interface */
 127:Drivers/STM32F7xx_HAL_Driver/Src/stm32f7xx_ll_usb.c ****     USBx->GUSBCFG &= ~USB_OTG_GUSBCFG_ULPI_UTMI_SEL;
 128:Drivers/STM32F7xx_HAL_Driver/Src/stm32f7xx_ll_usb.c **** #ifdef USBPHYC
 129:Drivers/STM32F7xx_HAL_Driver/Src/stm32f7xx_ll_usb.c ****     /* Enable USB HS PHY */
 130:Drivers/STM32F7xx_HAL_Driver/Src/stm32f7xx_ll_usb.c ****     USBx->GCCFG |= USB_OTG_GCCFG_PHYHSEN;
 131:Drivers/STM32F7xx_HAL_Driver/Src/stm32f7xx_ll_usb.c **** 
 132:Drivers/STM32F7xx_HAL_Driver/Src/stm32f7xx_ll_usb.c ****     /* Enables control of a High Speed USB PHY */
 133:Drivers/STM32F7xx_HAL_Driver/Src/stm32f7xx_ll_usb.c ****     if (USB_HS_PHYCInit(USBx) != HAL_OK)
 134:Drivers/STM32F7xx_HAL_Driver/Src/stm32f7xx_ll_usb.c ****     {
 135:Drivers/STM32F7xx_HAL_Driver/Src/stm32f7xx_ll_usb.c ****       return HAL_ERROR;
 136:Drivers/STM32F7xx_HAL_Driver/Src/stm32f7xx_ll_usb.c ****     }
 137:Drivers/STM32F7xx_HAL_Driver/Src/stm32f7xx_ll_usb.c **** #endif /* USBPHYC */
 138:Drivers/STM32F7xx_HAL_Driver/Src/stm32f7xx_ll_usb.c **** 
 139:Drivers/STM32F7xx_HAL_Driver/Src/stm32f7xx_ll_usb.c ****     if (cfg.use_external_vbus == 1U)
 140:Drivers/STM32F7xx_HAL_Driver/Src/stm32f7xx_ll_usb.c ****     {
 141:Drivers/STM32F7xx_HAL_Driver/Src/stm32f7xx_ll_usb.c ****       USBx->GUSBCFG |= USB_OTG_GUSBCFG_ULPIEVBUSD;
 142:Drivers/STM32F7xx_HAL_Driver/Src/stm32f7xx_ll_usb.c ****     }
 143:Drivers/STM32F7xx_HAL_Driver/Src/stm32f7xx_ll_usb.c **** 
 144:Drivers/STM32F7xx_HAL_Driver/Src/stm32f7xx_ll_usb.c ****     /* Reset after a PHY select */
ARM GAS  C:\Users\benny\AppData\Local\Temp\ccHko7Bj.s 			page 4


 145:Drivers/STM32F7xx_HAL_Driver/Src/stm32f7xx_ll_usb.c ****     ret = USB_CoreReset(USBx);
 146:Drivers/STM32F7xx_HAL_Driver/Src/stm32f7xx_ll_usb.c ****   }
 147:Drivers/STM32F7xx_HAL_Driver/Src/stm32f7xx_ll_usb.c **** #endif /* defined(STM32F722xx) || defined(STM32F723xx) || defined(STM32F730xx) ||
 148:Drivers/STM32F7xx_HAL_Driver/Src/stm32f7xx_ll_usb.c ****           defined(STM32F732xx) || defined(STM32F733xx) */
 149:Drivers/STM32F7xx_HAL_Driver/Src/stm32f7xx_ll_usb.c ****   else /* FS interface (embedded Phy) */
 150:Drivers/STM32F7xx_HAL_Driver/Src/stm32f7xx_ll_usb.c ****   {
 151:Drivers/STM32F7xx_HAL_Driver/Src/stm32f7xx_ll_usb.c ****     /* Select FS Embedded PHY */
 152:Drivers/STM32F7xx_HAL_Driver/Src/stm32f7xx_ll_usb.c ****     USBx->GUSBCFG |= USB_OTG_GUSBCFG_PHYSEL;
 153:Drivers/STM32F7xx_HAL_Driver/Src/stm32f7xx_ll_usb.c **** 
 154:Drivers/STM32F7xx_HAL_Driver/Src/stm32f7xx_ll_usb.c ****     /* Reset after a PHY select */
 155:Drivers/STM32F7xx_HAL_Driver/Src/stm32f7xx_ll_usb.c ****     ret = USB_CoreReset(USBx);
 156:Drivers/STM32F7xx_HAL_Driver/Src/stm32f7xx_ll_usb.c **** 
 157:Drivers/STM32F7xx_HAL_Driver/Src/stm32f7xx_ll_usb.c ****     /* Activate the USB Transceiver */
 158:Drivers/STM32F7xx_HAL_Driver/Src/stm32f7xx_ll_usb.c ****     USBx->GCCFG |= USB_OTG_GCCFG_PWRDWN;
 159:Drivers/STM32F7xx_HAL_Driver/Src/stm32f7xx_ll_usb.c ****   }
 160:Drivers/STM32F7xx_HAL_Driver/Src/stm32f7xx_ll_usb.c **** 
 161:Drivers/STM32F7xx_HAL_Driver/Src/stm32f7xx_ll_usb.c ****   if (cfg.dma_enable == 1U)
 162:Drivers/STM32F7xx_HAL_Driver/Src/stm32f7xx_ll_usb.c ****   {
 163:Drivers/STM32F7xx_HAL_Driver/Src/stm32f7xx_ll_usb.c ****     USBx->GAHBCFG |= USB_OTG_GAHBCFG_HBSTLEN_2;
 164:Drivers/STM32F7xx_HAL_Driver/Src/stm32f7xx_ll_usb.c ****     USBx->GAHBCFG |= USB_OTG_GAHBCFG_DMAEN;
 165:Drivers/STM32F7xx_HAL_Driver/Src/stm32f7xx_ll_usb.c ****   }
 166:Drivers/STM32F7xx_HAL_Driver/Src/stm32f7xx_ll_usb.c **** 
 167:Drivers/STM32F7xx_HAL_Driver/Src/stm32f7xx_ll_usb.c ****   return ret;
 168:Drivers/STM32F7xx_HAL_Driver/Src/stm32f7xx_ll_usb.c **** }
 169:Drivers/STM32F7xx_HAL_Driver/Src/stm32f7xx_ll_usb.c **** 
 170:Drivers/STM32F7xx_HAL_Driver/Src/stm32f7xx_ll_usb.c **** 
 171:Drivers/STM32F7xx_HAL_Driver/Src/stm32f7xx_ll_usb.c **** /**
 172:Drivers/STM32F7xx_HAL_Driver/Src/stm32f7xx_ll_usb.c ****   * @brief  Set the USB turnaround time
 173:Drivers/STM32F7xx_HAL_Driver/Src/stm32f7xx_ll_usb.c ****   * @param  USBx USB Instance
 174:Drivers/STM32F7xx_HAL_Driver/Src/stm32f7xx_ll_usb.c ****   * @param  hclk: AHB clock frequency
 175:Drivers/STM32F7xx_HAL_Driver/Src/stm32f7xx_ll_usb.c ****   * @retval USB turnaround time In PHY Clocks number
 176:Drivers/STM32F7xx_HAL_Driver/Src/stm32f7xx_ll_usb.c ****   */
 177:Drivers/STM32F7xx_HAL_Driver/Src/stm32f7xx_ll_usb.c **** HAL_StatusTypeDef USB_SetTurnaroundTime(USB_OTG_GlobalTypeDef *USBx,
 178:Drivers/STM32F7xx_HAL_Driver/Src/stm32f7xx_ll_usb.c ****                                         uint32_t hclk, uint8_t speed)
 179:Drivers/STM32F7xx_HAL_Driver/Src/stm32f7xx_ll_usb.c **** {
 180:Drivers/STM32F7xx_HAL_Driver/Src/stm32f7xx_ll_usb.c ****   uint32_t UsbTrd;
 181:Drivers/STM32F7xx_HAL_Driver/Src/stm32f7xx_ll_usb.c **** 
 182:Drivers/STM32F7xx_HAL_Driver/Src/stm32f7xx_ll_usb.c ****   /* The USBTRD is configured according to the tables below, depending on AHB frequency
 183:Drivers/STM32F7xx_HAL_Driver/Src/stm32f7xx_ll_usb.c ****   used by application. In the low AHB frequency range it is used to stretch enough the USB response
 184:Drivers/STM32F7xx_HAL_Driver/Src/stm32f7xx_ll_usb.c ****   time to IN tokens, the USB turnaround time, so to compensate for the longer AHB read access
 185:Drivers/STM32F7xx_HAL_Driver/Src/stm32f7xx_ll_usb.c ****   latency to the Data FIFO */
 186:Drivers/STM32F7xx_HAL_Driver/Src/stm32f7xx_ll_usb.c ****   if (speed == USBD_FS_SPEED)
 187:Drivers/STM32F7xx_HAL_Driver/Src/stm32f7xx_ll_usb.c ****   {
 188:Drivers/STM32F7xx_HAL_Driver/Src/stm32f7xx_ll_usb.c ****     if ((hclk >= 14200000U) && (hclk < 15000000U))
 189:Drivers/STM32F7xx_HAL_Driver/Src/stm32f7xx_ll_usb.c ****     {
 190:Drivers/STM32F7xx_HAL_Driver/Src/stm32f7xx_ll_usb.c ****       /* hclk Clock Range between 14.2-15 MHz */
 191:Drivers/STM32F7xx_HAL_Driver/Src/stm32f7xx_ll_usb.c ****       UsbTrd = 0xFU;
 192:Drivers/STM32F7xx_HAL_Driver/Src/stm32f7xx_ll_usb.c ****     }
 193:Drivers/STM32F7xx_HAL_Driver/Src/stm32f7xx_ll_usb.c ****     else if ((hclk >= 15000000U) && (hclk < 16000000U))
 194:Drivers/STM32F7xx_HAL_Driver/Src/stm32f7xx_ll_usb.c ****     {
 195:Drivers/STM32F7xx_HAL_Driver/Src/stm32f7xx_ll_usb.c ****       /* hclk Clock Range between 15-16 MHz */
 196:Drivers/STM32F7xx_HAL_Driver/Src/stm32f7xx_ll_usb.c ****       UsbTrd = 0xEU;
 197:Drivers/STM32F7xx_HAL_Driver/Src/stm32f7xx_ll_usb.c ****     }
 198:Drivers/STM32F7xx_HAL_Driver/Src/stm32f7xx_ll_usb.c ****     else if ((hclk >= 16000000U) && (hclk < 17200000U))
 199:Drivers/STM32F7xx_HAL_Driver/Src/stm32f7xx_ll_usb.c ****     {
 200:Drivers/STM32F7xx_HAL_Driver/Src/stm32f7xx_ll_usb.c ****       /* hclk Clock Range between 16-17.2 MHz */
 201:Drivers/STM32F7xx_HAL_Driver/Src/stm32f7xx_ll_usb.c ****       UsbTrd = 0xDU;
ARM GAS  C:\Users\benny\AppData\Local\Temp\ccHko7Bj.s 			page 5


 202:Drivers/STM32F7xx_HAL_Driver/Src/stm32f7xx_ll_usb.c ****     }
 203:Drivers/STM32F7xx_HAL_Driver/Src/stm32f7xx_ll_usb.c ****     else if ((hclk >= 17200000U) && (hclk < 18500000U))
 204:Drivers/STM32F7xx_HAL_Driver/Src/stm32f7xx_ll_usb.c ****     {
 205:Drivers/STM32F7xx_HAL_Driver/Src/stm32f7xx_ll_usb.c ****       /* hclk Clock Range between 17.2-18.5 MHz */
 206:Drivers/STM32F7xx_HAL_Driver/Src/stm32f7xx_ll_usb.c ****       UsbTrd = 0xCU;
 207:Drivers/STM32F7xx_HAL_Driver/Src/stm32f7xx_ll_usb.c ****     }
 208:Drivers/STM32F7xx_HAL_Driver/Src/stm32f7xx_ll_usb.c ****     else if ((hclk >= 18500000U) && (hclk < 20000000U))
 209:Drivers/STM32F7xx_HAL_Driver/Src/stm32f7xx_ll_usb.c ****     {
 210:Drivers/STM32F7xx_HAL_Driver/Src/stm32f7xx_ll_usb.c ****       /* hclk Clock Range between 18.5-20 MHz */
 211:Drivers/STM32F7xx_HAL_Driver/Src/stm32f7xx_ll_usb.c ****       UsbTrd = 0xBU;
 212:Drivers/STM32F7xx_HAL_Driver/Src/stm32f7xx_ll_usb.c ****     }
 213:Drivers/STM32F7xx_HAL_Driver/Src/stm32f7xx_ll_usb.c ****     else if ((hclk >= 20000000U) && (hclk < 21800000U))
 214:Drivers/STM32F7xx_HAL_Driver/Src/stm32f7xx_ll_usb.c ****     {
 215:Drivers/STM32F7xx_HAL_Driver/Src/stm32f7xx_ll_usb.c ****       /* hclk Clock Range between 20-21.8 MHz */
 216:Drivers/STM32F7xx_HAL_Driver/Src/stm32f7xx_ll_usb.c ****       UsbTrd = 0xAU;
 217:Drivers/STM32F7xx_HAL_Driver/Src/stm32f7xx_ll_usb.c ****     }
 218:Drivers/STM32F7xx_HAL_Driver/Src/stm32f7xx_ll_usb.c ****     else if ((hclk >= 21800000U) && (hclk < 24000000U))
 219:Drivers/STM32F7xx_HAL_Driver/Src/stm32f7xx_ll_usb.c ****     {
 220:Drivers/STM32F7xx_HAL_Driver/Src/stm32f7xx_ll_usb.c ****       /* hclk Clock Range between 21.8-24 MHz */
 221:Drivers/STM32F7xx_HAL_Driver/Src/stm32f7xx_ll_usb.c ****       UsbTrd = 0x9U;
 222:Drivers/STM32F7xx_HAL_Driver/Src/stm32f7xx_ll_usb.c ****     }
 223:Drivers/STM32F7xx_HAL_Driver/Src/stm32f7xx_ll_usb.c ****     else if ((hclk >= 24000000U) && (hclk < 27700000U))
 224:Drivers/STM32F7xx_HAL_Driver/Src/stm32f7xx_ll_usb.c ****     {
 225:Drivers/STM32F7xx_HAL_Driver/Src/stm32f7xx_ll_usb.c ****       /* hclk Clock Range between 24-27.7 MHz */
 226:Drivers/STM32F7xx_HAL_Driver/Src/stm32f7xx_ll_usb.c ****       UsbTrd = 0x8U;
 227:Drivers/STM32F7xx_HAL_Driver/Src/stm32f7xx_ll_usb.c ****     }
 228:Drivers/STM32F7xx_HAL_Driver/Src/stm32f7xx_ll_usb.c ****     else if ((hclk >= 27700000U) && (hclk < 32000000U))
 229:Drivers/STM32F7xx_HAL_Driver/Src/stm32f7xx_ll_usb.c ****     {
 230:Drivers/STM32F7xx_HAL_Driver/Src/stm32f7xx_ll_usb.c ****       /* hclk Clock Range between 27.7-32 MHz */
 231:Drivers/STM32F7xx_HAL_Driver/Src/stm32f7xx_ll_usb.c ****       UsbTrd = 0x7U;
 232:Drivers/STM32F7xx_HAL_Driver/Src/stm32f7xx_ll_usb.c ****     }
 233:Drivers/STM32F7xx_HAL_Driver/Src/stm32f7xx_ll_usb.c ****     else /* if(hclk >= 32000000) */
 234:Drivers/STM32F7xx_HAL_Driver/Src/stm32f7xx_ll_usb.c ****     {
 235:Drivers/STM32F7xx_HAL_Driver/Src/stm32f7xx_ll_usb.c ****       /* hclk Clock Range between 32-200 MHz */
 236:Drivers/STM32F7xx_HAL_Driver/Src/stm32f7xx_ll_usb.c ****       UsbTrd = 0x6U;
 237:Drivers/STM32F7xx_HAL_Driver/Src/stm32f7xx_ll_usb.c ****     }
 238:Drivers/STM32F7xx_HAL_Driver/Src/stm32f7xx_ll_usb.c ****   }
 239:Drivers/STM32F7xx_HAL_Driver/Src/stm32f7xx_ll_usb.c ****   else if (speed == USBD_HS_SPEED)
 240:Drivers/STM32F7xx_HAL_Driver/Src/stm32f7xx_ll_usb.c ****   {
 241:Drivers/STM32F7xx_HAL_Driver/Src/stm32f7xx_ll_usb.c ****     UsbTrd = USBD_HS_TRDT_VALUE;
 242:Drivers/STM32F7xx_HAL_Driver/Src/stm32f7xx_ll_usb.c ****   }
 243:Drivers/STM32F7xx_HAL_Driver/Src/stm32f7xx_ll_usb.c ****   else
 244:Drivers/STM32F7xx_HAL_Driver/Src/stm32f7xx_ll_usb.c ****   {
 245:Drivers/STM32F7xx_HAL_Driver/Src/stm32f7xx_ll_usb.c ****     UsbTrd = USBD_DEFAULT_TRDT_VALUE;
 246:Drivers/STM32F7xx_HAL_Driver/Src/stm32f7xx_ll_usb.c ****   }
 247:Drivers/STM32F7xx_HAL_Driver/Src/stm32f7xx_ll_usb.c **** 
 248:Drivers/STM32F7xx_HAL_Driver/Src/stm32f7xx_ll_usb.c ****   USBx->GUSBCFG &= ~USB_OTG_GUSBCFG_TRDT;
 249:Drivers/STM32F7xx_HAL_Driver/Src/stm32f7xx_ll_usb.c ****   USBx->GUSBCFG |= (uint32_t)((UsbTrd << 10) & USB_OTG_GUSBCFG_TRDT);
 250:Drivers/STM32F7xx_HAL_Driver/Src/stm32f7xx_ll_usb.c **** 
 251:Drivers/STM32F7xx_HAL_Driver/Src/stm32f7xx_ll_usb.c ****   return HAL_OK;
 252:Drivers/STM32F7xx_HAL_Driver/Src/stm32f7xx_ll_usb.c **** }
 253:Drivers/STM32F7xx_HAL_Driver/Src/stm32f7xx_ll_usb.c **** 
 254:Drivers/STM32F7xx_HAL_Driver/Src/stm32f7xx_ll_usb.c **** /**
 255:Drivers/STM32F7xx_HAL_Driver/Src/stm32f7xx_ll_usb.c ****   * @brief  USB_EnableGlobalInt
 256:Drivers/STM32F7xx_HAL_Driver/Src/stm32f7xx_ll_usb.c ****   *         Enables the controller's Global Int in the AHB Config reg
 257:Drivers/STM32F7xx_HAL_Driver/Src/stm32f7xx_ll_usb.c ****   * @param  USBx  Selected device
 258:Drivers/STM32F7xx_HAL_Driver/Src/stm32f7xx_ll_usb.c ****   * @retval HAL status
ARM GAS  C:\Users\benny\AppData\Local\Temp\ccHko7Bj.s 			page 6


 259:Drivers/STM32F7xx_HAL_Driver/Src/stm32f7xx_ll_usb.c ****   */
 260:Drivers/STM32F7xx_HAL_Driver/Src/stm32f7xx_ll_usb.c **** HAL_StatusTypeDef USB_EnableGlobalInt(USB_OTG_GlobalTypeDef *USBx)
 261:Drivers/STM32F7xx_HAL_Driver/Src/stm32f7xx_ll_usb.c **** {
 262:Drivers/STM32F7xx_HAL_Driver/Src/stm32f7xx_ll_usb.c ****   USBx->GAHBCFG |= USB_OTG_GAHBCFG_GINT;
 263:Drivers/STM32F7xx_HAL_Driver/Src/stm32f7xx_ll_usb.c ****   return HAL_OK;
 264:Drivers/STM32F7xx_HAL_Driver/Src/stm32f7xx_ll_usb.c **** }
 265:Drivers/STM32F7xx_HAL_Driver/Src/stm32f7xx_ll_usb.c **** 
 266:Drivers/STM32F7xx_HAL_Driver/Src/stm32f7xx_ll_usb.c **** /**
 267:Drivers/STM32F7xx_HAL_Driver/Src/stm32f7xx_ll_usb.c ****   * @brief  USB_DisableGlobalInt
 268:Drivers/STM32F7xx_HAL_Driver/Src/stm32f7xx_ll_usb.c ****   *         Disable the controller's Global Int in the AHB Config reg
 269:Drivers/STM32F7xx_HAL_Driver/Src/stm32f7xx_ll_usb.c ****   * @param  USBx  Selected device
 270:Drivers/STM32F7xx_HAL_Driver/Src/stm32f7xx_ll_usb.c ****   * @retval HAL status
 271:Drivers/STM32F7xx_HAL_Driver/Src/stm32f7xx_ll_usb.c ****   */
 272:Drivers/STM32F7xx_HAL_Driver/Src/stm32f7xx_ll_usb.c **** HAL_StatusTypeDef USB_DisableGlobalInt(USB_OTG_GlobalTypeDef *USBx)
 273:Drivers/STM32F7xx_HAL_Driver/Src/stm32f7xx_ll_usb.c **** {
 274:Drivers/STM32F7xx_HAL_Driver/Src/stm32f7xx_ll_usb.c ****   USBx->GAHBCFG &= ~USB_OTG_GAHBCFG_GINT;
 275:Drivers/STM32F7xx_HAL_Driver/Src/stm32f7xx_ll_usb.c ****   return HAL_OK;
 276:Drivers/STM32F7xx_HAL_Driver/Src/stm32f7xx_ll_usb.c **** }
 277:Drivers/STM32F7xx_HAL_Driver/Src/stm32f7xx_ll_usb.c **** 
 278:Drivers/STM32F7xx_HAL_Driver/Src/stm32f7xx_ll_usb.c **** /**
 279:Drivers/STM32F7xx_HAL_Driver/Src/stm32f7xx_ll_usb.c ****   * @brief  USB_SetCurrentMode Set functional mode
 280:Drivers/STM32F7xx_HAL_Driver/Src/stm32f7xx_ll_usb.c ****   * @param  USBx  Selected device
 281:Drivers/STM32F7xx_HAL_Driver/Src/stm32f7xx_ll_usb.c ****   * @param  mode  current core mode
 282:Drivers/STM32F7xx_HAL_Driver/Src/stm32f7xx_ll_usb.c ****   *          This parameter can be one of these values:
 283:Drivers/STM32F7xx_HAL_Driver/Src/stm32f7xx_ll_usb.c ****   *            @arg USB_DEVICE_MODE Peripheral mode
 284:Drivers/STM32F7xx_HAL_Driver/Src/stm32f7xx_ll_usb.c ****   *            @arg USB_HOST_MODE Host mode
 285:Drivers/STM32F7xx_HAL_Driver/Src/stm32f7xx_ll_usb.c ****   * @retval HAL status
 286:Drivers/STM32F7xx_HAL_Driver/Src/stm32f7xx_ll_usb.c ****   */
 287:Drivers/STM32F7xx_HAL_Driver/Src/stm32f7xx_ll_usb.c **** HAL_StatusTypeDef USB_SetCurrentMode(USB_OTG_GlobalTypeDef *USBx, USB_OTG_ModeTypeDef mode)
 288:Drivers/STM32F7xx_HAL_Driver/Src/stm32f7xx_ll_usb.c **** {
 289:Drivers/STM32F7xx_HAL_Driver/Src/stm32f7xx_ll_usb.c ****   uint32_t ms = 0U;
 290:Drivers/STM32F7xx_HAL_Driver/Src/stm32f7xx_ll_usb.c **** 
 291:Drivers/STM32F7xx_HAL_Driver/Src/stm32f7xx_ll_usb.c ****   USBx->GUSBCFG &= ~(USB_OTG_GUSBCFG_FHMOD | USB_OTG_GUSBCFG_FDMOD);
 292:Drivers/STM32F7xx_HAL_Driver/Src/stm32f7xx_ll_usb.c **** 
 293:Drivers/STM32F7xx_HAL_Driver/Src/stm32f7xx_ll_usb.c ****   if (mode == USB_HOST_MODE)
 294:Drivers/STM32F7xx_HAL_Driver/Src/stm32f7xx_ll_usb.c ****   {
 295:Drivers/STM32F7xx_HAL_Driver/Src/stm32f7xx_ll_usb.c ****     USBx->GUSBCFG |= USB_OTG_GUSBCFG_FHMOD;
 296:Drivers/STM32F7xx_HAL_Driver/Src/stm32f7xx_ll_usb.c **** 
 297:Drivers/STM32F7xx_HAL_Driver/Src/stm32f7xx_ll_usb.c ****     do
 298:Drivers/STM32F7xx_HAL_Driver/Src/stm32f7xx_ll_usb.c ****     {
 299:Drivers/STM32F7xx_HAL_Driver/Src/stm32f7xx_ll_usb.c ****       HAL_Delay(10U);
 300:Drivers/STM32F7xx_HAL_Driver/Src/stm32f7xx_ll_usb.c ****       ms += 10U;
 301:Drivers/STM32F7xx_HAL_Driver/Src/stm32f7xx_ll_usb.c ****     } while ((USB_GetMode(USBx) != (uint32_t)USB_HOST_MODE) && (ms < HAL_USB_CURRENT_MODE_MAX_DELAY
 302:Drivers/STM32F7xx_HAL_Driver/Src/stm32f7xx_ll_usb.c ****   }
 303:Drivers/STM32F7xx_HAL_Driver/Src/stm32f7xx_ll_usb.c ****   else if (mode == USB_DEVICE_MODE)
 304:Drivers/STM32F7xx_HAL_Driver/Src/stm32f7xx_ll_usb.c ****   {
 305:Drivers/STM32F7xx_HAL_Driver/Src/stm32f7xx_ll_usb.c ****     USBx->GUSBCFG |= USB_OTG_GUSBCFG_FDMOD;
 306:Drivers/STM32F7xx_HAL_Driver/Src/stm32f7xx_ll_usb.c **** 
 307:Drivers/STM32F7xx_HAL_Driver/Src/stm32f7xx_ll_usb.c ****     do
 308:Drivers/STM32F7xx_HAL_Driver/Src/stm32f7xx_ll_usb.c ****     {
 309:Drivers/STM32F7xx_HAL_Driver/Src/stm32f7xx_ll_usb.c ****       HAL_Delay(10U);
 310:Drivers/STM32F7xx_HAL_Driver/Src/stm32f7xx_ll_usb.c ****       ms += 10U;
 311:Drivers/STM32F7xx_HAL_Driver/Src/stm32f7xx_ll_usb.c ****     } while ((USB_GetMode(USBx) != (uint32_t)USB_DEVICE_MODE) && (ms < HAL_USB_CURRENT_MODE_MAX_DEL
 312:Drivers/STM32F7xx_HAL_Driver/Src/stm32f7xx_ll_usb.c ****   }
 313:Drivers/STM32F7xx_HAL_Driver/Src/stm32f7xx_ll_usb.c ****   else
 314:Drivers/STM32F7xx_HAL_Driver/Src/stm32f7xx_ll_usb.c ****   {
 315:Drivers/STM32F7xx_HAL_Driver/Src/stm32f7xx_ll_usb.c ****     return HAL_ERROR;
ARM GAS  C:\Users\benny\AppData\Local\Temp\ccHko7Bj.s 			page 7


 316:Drivers/STM32F7xx_HAL_Driver/Src/stm32f7xx_ll_usb.c ****   }
 317:Drivers/STM32F7xx_HAL_Driver/Src/stm32f7xx_ll_usb.c **** 
 318:Drivers/STM32F7xx_HAL_Driver/Src/stm32f7xx_ll_usb.c ****   if (ms == HAL_USB_CURRENT_MODE_MAX_DELAY_MS)
 319:Drivers/STM32F7xx_HAL_Driver/Src/stm32f7xx_ll_usb.c ****   {
 320:Drivers/STM32F7xx_HAL_Driver/Src/stm32f7xx_ll_usb.c ****     return HAL_ERROR;
 321:Drivers/STM32F7xx_HAL_Driver/Src/stm32f7xx_ll_usb.c ****   }
 322:Drivers/STM32F7xx_HAL_Driver/Src/stm32f7xx_ll_usb.c **** 
 323:Drivers/STM32F7xx_HAL_Driver/Src/stm32f7xx_ll_usb.c ****   return HAL_OK;
 324:Drivers/STM32F7xx_HAL_Driver/Src/stm32f7xx_ll_usb.c **** }
 325:Drivers/STM32F7xx_HAL_Driver/Src/stm32f7xx_ll_usb.c **** 
 326:Drivers/STM32F7xx_HAL_Driver/Src/stm32f7xx_ll_usb.c **** /**
 327:Drivers/STM32F7xx_HAL_Driver/Src/stm32f7xx_ll_usb.c ****   * @brief  USB_DevInit Initializes the USB_OTG controller registers
 328:Drivers/STM32F7xx_HAL_Driver/Src/stm32f7xx_ll_usb.c ****   *         for device mode
 329:Drivers/STM32F7xx_HAL_Driver/Src/stm32f7xx_ll_usb.c ****   * @param  USBx  Selected device
 330:Drivers/STM32F7xx_HAL_Driver/Src/stm32f7xx_ll_usb.c ****   * @param  cfg   pointer to a USB_OTG_CfgTypeDef structure that contains
 331:Drivers/STM32F7xx_HAL_Driver/Src/stm32f7xx_ll_usb.c ****   *         the configuration information for the specified USBx peripheral.
 332:Drivers/STM32F7xx_HAL_Driver/Src/stm32f7xx_ll_usb.c ****   * @retval HAL status
 333:Drivers/STM32F7xx_HAL_Driver/Src/stm32f7xx_ll_usb.c ****   */
 334:Drivers/STM32F7xx_HAL_Driver/Src/stm32f7xx_ll_usb.c **** HAL_StatusTypeDef USB_DevInit(USB_OTG_GlobalTypeDef *USBx, USB_OTG_CfgTypeDef cfg)
 335:Drivers/STM32F7xx_HAL_Driver/Src/stm32f7xx_ll_usb.c **** {
 336:Drivers/STM32F7xx_HAL_Driver/Src/stm32f7xx_ll_usb.c ****   HAL_StatusTypeDef ret = HAL_OK;
 337:Drivers/STM32F7xx_HAL_Driver/Src/stm32f7xx_ll_usb.c ****   uint32_t USBx_BASE = (uint32_t)USBx;
 338:Drivers/STM32F7xx_HAL_Driver/Src/stm32f7xx_ll_usb.c ****   uint32_t i;
 339:Drivers/STM32F7xx_HAL_Driver/Src/stm32f7xx_ll_usb.c **** 
 340:Drivers/STM32F7xx_HAL_Driver/Src/stm32f7xx_ll_usb.c ****   for (i = 0U; i < 15U; i++)
 341:Drivers/STM32F7xx_HAL_Driver/Src/stm32f7xx_ll_usb.c ****   {
 342:Drivers/STM32F7xx_HAL_Driver/Src/stm32f7xx_ll_usb.c ****     USBx->DIEPTXF[i] = 0U;
 343:Drivers/STM32F7xx_HAL_Driver/Src/stm32f7xx_ll_usb.c ****   }
 344:Drivers/STM32F7xx_HAL_Driver/Src/stm32f7xx_ll_usb.c **** 
 345:Drivers/STM32F7xx_HAL_Driver/Src/stm32f7xx_ll_usb.c ****   /* VBUS Sensing setup */
 346:Drivers/STM32F7xx_HAL_Driver/Src/stm32f7xx_ll_usb.c ****   if (cfg.vbus_sensing_enable == 0U)
 347:Drivers/STM32F7xx_HAL_Driver/Src/stm32f7xx_ll_usb.c ****   {
 348:Drivers/STM32F7xx_HAL_Driver/Src/stm32f7xx_ll_usb.c ****     USBx_DEVICE->DCTL |= USB_OTG_DCTL_SDIS;
 349:Drivers/STM32F7xx_HAL_Driver/Src/stm32f7xx_ll_usb.c **** 
 350:Drivers/STM32F7xx_HAL_Driver/Src/stm32f7xx_ll_usb.c ****     /* Deactivate VBUS Sensing B */
 351:Drivers/STM32F7xx_HAL_Driver/Src/stm32f7xx_ll_usb.c ****     USBx->GCCFG &= ~USB_OTG_GCCFG_VBDEN;
 352:Drivers/STM32F7xx_HAL_Driver/Src/stm32f7xx_ll_usb.c **** 
 353:Drivers/STM32F7xx_HAL_Driver/Src/stm32f7xx_ll_usb.c ****     /* B-peripheral session valid override enable */
 354:Drivers/STM32F7xx_HAL_Driver/Src/stm32f7xx_ll_usb.c ****     USBx->GOTGCTL |= USB_OTG_GOTGCTL_BVALOEN;
 355:Drivers/STM32F7xx_HAL_Driver/Src/stm32f7xx_ll_usb.c ****     USBx->GOTGCTL |= USB_OTG_GOTGCTL_BVALOVAL;
 356:Drivers/STM32F7xx_HAL_Driver/Src/stm32f7xx_ll_usb.c ****   }
 357:Drivers/STM32F7xx_HAL_Driver/Src/stm32f7xx_ll_usb.c ****   else
 358:Drivers/STM32F7xx_HAL_Driver/Src/stm32f7xx_ll_usb.c ****   {
 359:Drivers/STM32F7xx_HAL_Driver/Src/stm32f7xx_ll_usb.c ****     /* Enable HW VBUS sensing */
 360:Drivers/STM32F7xx_HAL_Driver/Src/stm32f7xx_ll_usb.c ****     USBx->GCCFG |= USB_OTG_GCCFG_VBDEN;
 361:Drivers/STM32F7xx_HAL_Driver/Src/stm32f7xx_ll_usb.c ****   }
 362:Drivers/STM32F7xx_HAL_Driver/Src/stm32f7xx_ll_usb.c **** 
 363:Drivers/STM32F7xx_HAL_Driver/Src/stm32f7xx_ll_usb.c ****   /* Restart the Phy Clock */
 364:Drivers/STM32F7xx_HAL_Driver/Src/stm32f7xx_ll_usb.c ****   USBx_PCGCCTL = 0U;
 365:Drivers/STM32F7xx_HAL_Driver/Src/stm32f7xx_ll_usb.c **** 
 366:Drivers/STM32F7xx_HAL_Driver/Src/stm32f7xx_ll_usb.c ****   if (cfg.phy_itface == USB_OTG_ULPI_PHY)
 367:Drivers/STM32F7xx_HAL_Driver/Src/stm32f7xx_ll_usb.c ****   {
 368:Drivers/STM32F7xx_HAL_Driver/Src/stm32f7xx_ll_usb.c ****     if (cfg.speed == USBD_HS_SPEED)
 369:Drivers/STM32F7xx_HAL_Driver/Src/stm32f7xx_ll_usb.c ****     {
 370:Drivers/STM32F7xx_HAL_Driver/Src/stm32f7xx_ll_usb.c ****       /* Set Core speed to High speed mode */
 371:Drivers/STM32F7xx_HAL_Driver/Src/stm32f7xx_ll_usb.c ****       (void)USB_SetDevSpeed(USBx, USB_OTG_SPEED_HIGH);
 372:Drivers/STM32F7xx_HAL_Driver/Src/stm32f7xx_ll_usb.c ****     }
ARM GAS  C:\Users\benny\AppData\Local\Temp\ccHko7Bj.s 			page 8


 373:Drivers/STM32F7xx_HAL_Driver/Src/stm32f7xx_ll_usb.c ****     else
 374:Drivers/STM32F7xx_HAL_Driver/Src/stm32f7xx_ll_usb.c ****     {
 375:Drivers/STM32F7xx_HAL_Driver/Src/stm32f7xx_ll_usb.c ****       /* Set Core speed to Full speed mode */
 376:Drivers/STM32F7xx_HAL_Driver/Src/stm32f7xx_ll_usb.c ****       (void)USB_SetDevSpeed(USBx, USB_OTG_SPEED_HIGH_IN_FULL);
 377:Drivers/STM32F7xx_HAL_Driver/Src/stm32f7xx_ll_usb.c ****     }
 378:Drivers/STM32F7xx_HAL_Driver/Src/stm32f7xx_ll_usb.c ****   }
 379:Drivers/STM32F7xx_HAL_Driver/Src/stm32f7xx_ll_usb.c **** #if defined(STM32F722xx) || defined(STM32F723xx) || defined(STM32F730xx) \
 380:Drivers/STM32F7xx_HAL_Driver/Src/stm32f7xx_ll_usb.c ****  || defined(STM32F732xx) || defined(STM32F733xx)
 381:Drivers/STM32F7xx_HAL_Driver/Src/stm32f7xx_ll_usb.c ****   else if (cfg.phy_itface == USB_OTG_HS_EMBEDDED_PHY)
 382:Drivers/STM32F7xx_HAL_Driver/Src/stm32f7xx_ll_usb.c ****   {
 383:Drivers/STM32F7xx_HAL_Driver/Src/stm32f7xx_ll_usb.c ****     if (cfg.speed == USBD_HS_SPEED)
 384:Drivers/STM32F7xx_HAL_Driver/Src/stm32f7xx_ll_usb.c ****     {
 385:Drivers/STM32F7xx_HAL_Driver/Src/stm32f7xx_ll_usb.c ****       /* Set Core speed to High speed mode */
 386:Drivers/STM32F7xx_HAL_Driver/Src/stm32f7xx_ll_usb.c ****       (void)USB_SetDevSpeed(USBx, USB_OTG_SPEED_HIGH);
 387:Drivers/STM32F7xx_HAL_Driver/Src/stm32f7xx_ll_usb.c ****     }
 388:Drivers/STM32F7xx_HAL_Driver/Src/stm32f7xx_ll_usb.c ****     else
 389:Drivers/STM32F7xx_HAL_Driver/Src/stm32f7xx_ll_usb.c ****     {
 390:Drivers/STM32F7xx_HAL_Driver/Src/stm32f7xx_ll_usb.c ****       /* Set Core speed to Full speed mode */
 391:Drivers/STM32F7xx_HAL_Driver/Src/stm32f7xx_ll_usb.c ****       (void)USB_SetDevSpeed(USBx, USB_OTG_SPEED_HIGH_IN_FULL);
 392:Drivers/STM32F7xx_HAL_Driver/Src/stm32f7xx_ll_usb.c ****     }
 393:Drivers/STM32F7xx_HAL_Driver/Src/stm32f7xx_ll_usb.c ****   }
 394:Drivers/STM32F7xx_HAL_Driver/Src/stm32f7xx_ll_usb.c **** #endif /* defined(STM32F722xx) || defined(STM32F723xx) || defined(STM32F730xx) ||
 395:Drivers/STM32F7xx_HAL_Driver/Src/stm32f7xx_ll_usb.c ****           defined(STM32F732xx) || defined(STM32F733xx) */
 396:Drivers/STM32F7xx_HAL_Driver/Src/stm32f7xx_ll_usb.c ****   else
 397:Drivers/STM32F7xx_HAL_Driver/Src/stm32f7xx_ll_usb.c ****   {
 398:Drivers/STM32F7xx_HAL_Driver/Src/stm32f7xx_ll_usb.c ****     /* Set Core speed to Full speed mode */
 399:Drivers/STM32F7xx_HAL_Driver/Src/stm32f7xx_ll_usb.c ****     (void)USB_SetDevSpeed(USBx, USB_OTG_SPEED_FULL);
 400:Drivers/STM32F7xx_HAL_Driver/Src/stm32f7xx_ll_usb.c ****   }
 401:Drivers/STM32F7xx_HAL_Driver/Src/stm32f7xx_ll_usb.c **** 
 402:Drivers/STM32F7xx_HAL_Driver/Src/stm32f7xx_ll_usb.c ****   /* Flush the FIFOs */
 403:Drivers/STM32F7xx_HAL_Driver/Src/stm32f7xx_ll_usb.c ****   if (USB_FlushTxFifo(USBx, 0x10U) != HAL_OK) /* all Tx FIFOs */
 404:Drivers/STM32F7xx_HAL_Driver/Src/stm32f7xx_ll_usb.c ****   {
 405:Drivers/STM32F7xx_HAL_Driver/Src/stm32f7xx_ll_usb.c ****     ret = HAL_ERROR;
 406:Drivers/STM32F7xx_HAL_Driver/Src/stm32f7xx_ll_usb.c ****   }
 407:Drivers/STM32F7xx_HAL_Driver/Src/stm32f7xx_ll_usb.c **** 
 408:Drivers/STM32F7xx_HAL_Driver/Src/stm32f7xx_ll_usb.c ****   if (USB_FlushRxFifo(USBx) != HAL_OK)
 409:Drivers/STM32F7xx_HAL_Driver/Src/stm32f7xx_ll_usb.c ****   {
 410:Drivers/STM32F7xx_HAL_Driver/Src/stm32f7xx_ll_usb.c ****     ret = HAL_ERROR;
 411:Drivers/STM32F7xx_HAL_Driver/Src/stm32f7xx_ll_usb.c ****   }
 412:Drivers/STM32F7xx_HAL_Driver/Src/stm32f7xx_ll_usb.c **** 
 413:Drivers/STM32F7xx_HAL_Driver/Src/stm32f7xx_ll_usb.c ****   /* Clear all pending Device Interrupts */
 414:Drivers/STM32F7xx_HAL_Driver/Src/stm32f7xx_ll_usb.c ****   USBx_DEVICE->DIEPMSK = 0U;
 415:Drivers/STM32F7xx_HAL_Driver/Src/stm32f7xx_ll_usb.c ****   USBx_DEVICE->DOEPMSK = 0U;
 416:Drivers/STM32F7xx_HAL_Driver/Src/stm32f7xx_ll_usb.c ****   USBx_DEVICE->DAINTMSK = 0U;
 417:Drivers/STM32F7xx_HAL_Driver/Src/stm32f7xx_ll_usb.c **** 
 418:Drivers/STM32F7xx_HAL_Driver/Src/stm32f7xx_ll_usb.c ****   for (i = 0U; i < cfg.dev_endpoints; i++)
 419:Drivers/STM32F7xx_HAL_Driver/Src/stm32f7xx_ll_usb.c ****   {
 420:Drivers/STM32F7xx_HAL_Driver/Src/stm32f7xx_ll_usb.c ****     if ((USBx_INEP(i)->DIEPCTL & USB_OTG_DIEPCTL_EPENA) == USB_OTG_DIEPCTL_EPENA)
 421:Drivers/STM32F7xx_HAL_Driver/Src/stm32f7xx_ll_usb.c ****     {
 422:Drivers/STM32F7xx_HAL_Driver/Src/stm32f7xx_ll_usb.c ****       if (i == 0U)
 423:Drivers/STM32F7xx_HAL_Driver/Src/stm32f7xx_ll_usb.c ****       {
 424:Drivers/STM32F7xx_HAL_Driver/Src/stm32f7xx_ll_usb.c ****         USBx_INEP(i)->DIEPCTL = USB_OTG_DIEPCTL_SNAK;
 425:Drivers/STM32F7xx_HAL_Driver/Src/stm32f7xx_ll_usb.c ****       }
 426:Drivers/STM32F7xx_HAL_Driver/Src/stm32f7xx_ll_usb.c ****       else
 427:Drivers/STM32F7xx_HAL_Driver/Src/stm32f7xx_ll_usb.c ****       {
 428:Drivers/STM32F7xx_HAL_Driver/Src/stm32f7xx_ll_usb.c ****         USBx_INEP(i)->DIEPCTL = USB_OTG_DIEPCTL_EPDIS | USB_OTG_DIEPCTL_SNAK;
 429:Drivers/STM32F7xx_HAL_Driver/Src/stm32f7xx_ll_usb.c ****       }
ARM GAS  C:\Users\benny\AppData\Local\Temp\ccHko7Bj.s 			page 9


 430:Drivers/STM32F7xx_HAL_Driver/Src/stm32f7xx_ll_usb.c ****     }
 431:Drivers/STM32F7xx_HAL_Driver/Src/stm32f7xx_ll_usb.c ****     else
 432:Drivers/STM32F7xx_HAL_Driver/Src/stm32f7xx_ll_usb.c ****     {
 433:Drivers/STM32F7xx_HAL_Driver/Src/stm32f7xx_ll_usb.c ****       USBx_INEP(i)->DIEPCTL = 0U;
 434:Drivers/STM32F7xx_HAL_Driver/Src/stm32f7xx_ll_usb.c ****     }
 435:Drivers/STM32F7xx_HAL_Driver/Src/stm32f7xx_ll_usb.c **** 
 436:Drivers/STM32F7xx_HAL_Driver/Src/stm32f7xx_ll_usb.c ****     USBx_INEP(i)->DIEPTSIZ = 0U;
 437:Drivers/STM32F7xx_HAL_Driver/Src/stm32f7xx_ll_usb.c ****     USBx_INEP(i)->DIEPINT  = 0xFB7FU;
 438:Drivers/STM32F7xx_HAL_Driver/Src/stm32f7xx_ll_usb.c ****   }
 439:Drivers/STM32F7xx_HAL_Driver/Src/stm32f7xx_ll_usb.c **** 
 440:Drivers/STM32F7xx_HAL_Driver/Src/stm32f7xx_ll_usb.c ****   for (i = 0U; i < cfg.dev_endpoints; i++)
 441:Drivers/STM32F7xx_HAL_Driver/Src/stm32f7xx_ll_usb.c ****   {
 442:Drivers/STM32F7xx_HAL_Driver/Src/stm32f7xx_ll_usb.c ****     if ((USBx_OUTEP(i)->DOEPCTL & USB_OTG_DOEPCTL_EPENA) == USB_OTG_DOEPCTL_EPENA)
 443:Drivers/STM32F7xx_HAL_Driver/Src/stm32f7xx_ll_usb.c ****     {
 444:Drivers/STM32F7xx_HAL_Driver/Src/stm32f7xx_ll_usb.c ****       if (i == 0U)
 445:Drivers/STM32F7xx_HAL_Driver/Src/stm32f7xx_ll_usb.c ****       {
 446:Drivers/STM32F7xx_HAL_Driver/Src/stm32f7xx_ll_usb.c ****         USBx_OUTEP(i)->DOEPCTL = USB_OTG_DOEPCTL_SNAK;
 447:Drivers/STM32F7xx_HAL_Driver/Src/stm32f7xx_ll_usb.c ****       }
 448:Drivers/STM32F7xx_HAL_Driver/Src/stm32f7xx_ll_usb.c ****       else
 449:Drivers/STM32F7xx_HAL_Driver/Src/stm32f7xx_ll_usb.c ****       {
 450:Drivers/STM32F7xx_HAL_Driver/Src/stm32f7xx_ll_usb.c ****         USBx_OUTEP(i)->DOEPCTL = USB_OTG_DOEPCTL_EPDIS | USB_OTG_DOEPCTL_SNAK;
 451:Drivers/STM32F7xx_HAL_Driver/Src/stm32f7xx_ll_usb.c ****       }
 452:Drivers/STM32F7xx_HAL_Driver/Src/stm32f7xx_ll_usb.c ****     }
 453:Drivers/STM32F7xx_HAL_Driver/Src/stm32f7xx_ll_usb.c ****     else
 454:Drivers/STM32F7xx_HAL_Driver/Src/stm32f7xx_ll_usb.c ****     {
 455:Drivers/STM32F7xx_HAL_Driver/Src/stm32f7xx_ll_usb.c ****       USBx_OUTEP(i)->DOEPCTL = 0U;
 456:Drivers/STM32F7xx_HAL_Driver/Src/stm32f7xx_ll_usb.c ****     }
 457:Drivers/STM32F7xx_HAL_Driver/Src/stm32f7xx_ll_usb.c **** 
 458:Drivers/STM32F7xx_HAL_Driver/Src/stm32f7xx_ll_usb.c ****     USBx_OUTEP(i)->DOEPTSIZ = 0U;
 459:Drivers/STM32F7xx_HAL_Driver/Src/stm32f7xx_ll_usb.c ****     USBx_OUTEP(i)->DOEPINT  = 0xFB7FU;
 460:Drivers/STM32F7xx_HAL_Driver/Src/stm32f7xx_ll_usb.c ****   }
 461:Drivers/STM32F7xx_HAL_Driver/Src/stm32f7xx_ll_usb.c **** 
 462:Drivers/STM32F7xx_HAL_Driver/Src/stm32f7xx_ll_usb.c ****   USBx_DEVICE->DIEPMSK &= ~(USB_OTG_DIEPMSK_TXFURM);
 463:Drivers/STM32F7xx_HAL_Driver/Src/stm32f7xx_ll_usb.c **** 
 464:Drivers/STM32F7xx_HAL_Driver/Src/stm32f7xx_ll_usb.c ****   /* Disable all interrupts. */
 465:Drivers/STM32F7xx_HAL_Driver/Src/stm32f7xx_ll_usb.c ****   USBx->GINTMSK = 0U;
 466:Drivers/STM32F7xx_HAL_Driver/Src/stm32f7xx_ll_usb.c **** 
 467:Drivers/STM32F7xx_HAL_Driver/Src/stm32f7xx_ll_usb.c ****   /* Clear any pending interrupts */
 468:Drivers/STM32F7xx_HAL_Driver/Src/stm32f7xx_ll_usb.c ****   USBx->GINTSTS = 0xBFFFFFFFU;
 469:Drivers/STM32F7xx_HAL_Driver/Src/stm32f7xx_ll_usb.c **** 
 470:Drivers/STM32F7xx_HAL_Driver/Src/stm32f7xx_ll_usb.c ****   /* Enable the common interrupts */
 471:Drivers/STM32F7xx_HAL_Driver/Src/stm32f7xx_ll_usb.c ****   if (cfg.dma_enable == 0U)
 472:Drivers/STM32F7xx_HAL_Driver/Src/stm32f7xx_ll_usb.c ****   {
 473:Drivers/STM32F7xx_HAL_Driver/Src/stm32f7xx_ll_usb.c ****     USBx->GINTMSK |= USB_OTG_GINTMSK_RXFLVLM;
 474:Drivers/STM32F7xx_HAL_Driver/Src/stm32f7xx_ll_usb.c ****   }
 475:Drivers/STM32F7xx_HAL_Driver/Src/stm32f7xx_ll_usb.c **** 
 476:Drivers/STM32F7xx_HAL_Driver/Src/stm32f7xx_ll_usb.c ****   /* Enable interrupts matching to the Device mode ONLY */
 477:Drivers/STM32F7xx_HAL_Driver/Src/stm32f7xx_ll_usb.c ****   USBx->GINTMSK |= USB_OTG_GINTMSK_USBSUSPM | USB_OTG_GINTMSK_USBRST |
 478:Drivers/STM32F7xx_HAL_Driver/Src/stm32f7xx_ll_usb.c ****                    USB_OTG_GINTMSK_ENUMDNEM | USB_OTG_GINTMSK_IEPINT |
 479:Drivers/STM32F7xx_HAL_Driver/Src/stm32f7xx_ll_usb.c ****                    USB_OTG_GINTMSK_OEPINT   | USB_OTG_GINTMSK_IISOIXFRM |
 480:Drivers/STM32F7xx_HAL_Driver/Src/stm32f7xx_ll_usb.c ****                    USB_OTG_GINTMSK_PXFRM_IISOOXFRM | USB_OTG_GINTMSK_WUIM;
 481:Drivers/STM32F7xx_HAL_Driver/Src/stm32f7xx_ll_usb.c **** 
 482:Drivers/STM32F7xx_HAL_Driver/Src/stm32f7xx_ll_usb.c ****   if (cfg.Sof_enable != 0U)
 483:Drivers/STM32F7xx_HAL_Driver/Src/stm32f7xx_ll_usb.c ****   {
 484:Drivers/STM32F7xx_HAL_Driver/Src/stm32f7xx_ll_usb.c ****     USBx->GINTMSK |= USB_OTG_GINTMSK_SOFM;
 485:Drivers/STM32F7xx_HAL_Driver/Src/stm32f7xx_ll_usb.c ****   }
 486:Drivers/STM32F7xx_HAL_Driver/Src/stm32f7xx_ll_usb.c **** 
ARM GAS  C:\Users\benny\AppData\Local\Temp\ccHko7Bj.s 			page 10


 487:Drivers/STM32F7xx_HAL_Driver/Src/stm32f7xx_ll_usb.c ****   if (cfg.vbus_sensing_enable == 1U)
 488:Drivers/STM32F7xx_HAL_Driver/Src/stm32f7xx_ll_usb.c ****   {
 489:Drivers/STM32F7xx_HAL_Driver/Src/stm32f7xx_ll_usb.c ****     USBx->GINTMSK |= (USB_OTG_GINTMSK_SRQIM | USB_OTG_GINTMSK_OTGINT);
 490:Drivers/STM32F7xx_HAL_Driver/Src/stm32f7xx_ll_usb.c ****   }
 491:Drivers/STM32F7xx_HAL_Driver/Src/stm32f7xx_ll_usb.c **** 
 492:Drivers/STM32F7xx_HAL_Driver/Src/stm32f7xx_ll_usb.c ****   return ret;
 493:Drivers/STM32F7xx_HAL_Driver/Src/stm32f7xx_ll_usb.c **** }
 494:Drivers/STM32F7xx_HAL_Driver/Src/stm32f7xx_ll_usb.c **** 
 495:Drivers/STM32F7xx_HAL_Driver/Src/stm32f7xx_ll_usb.c **** /**
 496:Drivers/STM32F7xx_HAL_Driver/Src/stm32f7xx_ll_usb.c ****   * @brief  USB_FlushTxFifo Flush a Tx FIFO
 497:Drivers/STM32F7xx_HAL_Driver/Src/stm32f7xx_ll_usb.c ****   * @param  USBx  Selected device
 498:Drivers/STM32F7xx_HAL_Driver/Src/stm32f7xx_ll_usb.c ****   * @param  num  FIFO number
 499:Drivers/STM32F7xx_HAL_Driver/Src/stm32f7xx_ll_usb.c ****   *         This parameter can be a value from 1 to 15
 500:Drivers/STM32F7xx_HAL_Driver/Src/stm32f7xx_ll_usb.c ****             15 means Flush all Tx FIFOs
 501:Drivers/STM32F7xx_HAL_Driver/Src/stm32f7xx_ll_usb.c ****   * @retval HAL status
 502:Drivers/STM32F7xx_HAL_Driver/Src/stm32f7xx_ll_usb.c ****   */
 503:Drivers/STM32F7xx_HAL_Driver/Src/stm32f7xx_ll_usb.c **** HAL_StatusTypeDef USB_FlushTxFifo(USB_OTG_GlobalTypeDef *USBx, uint32_t num)
 504:Drivers/STM32F7xx_HAL_Driver/Src/stm32f7xx_ll_usb.c **** {
 505:Drivers/STM32F7xx_HAL_Driver/Src/stm32f7xx_ll_usb.c ****   __IO uint32_t count = 0U;
 506:Drivers/STM32F7xx_HAL_Driver/Src/stm32f7xx_ll_usb.c **** 
 507:Drivers/STM32F7xx_HAL_Driver/Src/stm32f7xx_ll_usb.c ****   /* Wait for AHB master IDLE state. */
 508:Drivers/STM32F7xx_HAL_Driver/Src/stm32f7xx_ll_usb.c ****   do
 509:Drivers/STM32F7xx_HAL_Driver/Src/stm32f7xx_ll_usb.c ****   {
 510:Drivers/STM32F7xx_HAL_Driver/Src/stm32f7xx_ll_usb.c ****     count++;
 511:Drivers/STM32F7xx_HAL_Driver/Src/stm32f7xx_ll_usb.c **** 
 512:Drivers/STM32F7xx_HAL_Driver/Src/stm32f7xx_ll_usb.c ****     if (count > HAL_USB_TIMEOUT)
 513:Drivers/STM32F7xx_HAL_Driver/Src/stm32f7xx_ll_usb.c ****     {
 514:Drivers/STM32F7xx_HAL_Driver/Src/stm32f7xx_ll_usb.c ****       return HAL_TIMEOUT;
 515:Drivers/STM32F7xx_HAL_Driver/Src/stm32f7xx_ll_usb.c ****     }
 516:Drivers/STM32F7xx_HAL_Driver/Src/stm32f7xx_ll_usb.c ****   } while ((USBx->GRSTCTL & USB_OTG_GRSTCTL_AHBIDL) == 0U);
 517:Drivers/STM32F7xx_HAL_Driver/Src/stm32f7xx_ll_usb.c **** 
 518:Drivers/STM32F7xx_HAL_Driver/Src/stm32f7xx_ll_usb.c ****   /* Flush TX Fifo */
 519:Drivers/STM32F7xx_HAL_Driver/Src/stm32f7xx_ll_usb.c ****   count = 0U;
 520:Drivers/STM32F7xx_HAL_Driver/Src/stm32f7xx_ll_usb.c ****   USBx->GRSTCTL = (USB_OTG_GRSTCTL_TXFFLSH | (num << 6));
 521:Drivers/STM32F7xx_HAL_Driver/Src/stm32f7xx_ll_usb.c **** 
 522:Drivers/STM32F7xx_HAL_Driver/Src/stm32f7xx_ll_usb.c ****   do
 523:Drivers/STM32F7xx_HAL_Driver/Src/stm32f7xx_ll_usb.c ****   {
 524:Drivers/STM32F7xx_HAL_Driver/Src/stm32f7xx_ll_usb.c ****     count++;
 525:Drivers/STM32F7xx_HAL_Driver/Src/stm32f7xx_ll_usb.c **** 
 526:Drivers/STM32F7xx_HAL_Driver/Src/stm32f7xx_ll_usb.c ****     if (count > HAL_USB_TIMEOUT)
 527:Drivers/STM32F7xx_HAL_Driver/Src/stm32f7xx_ll_usb.c ****     {
 528:Drivers/STM32F7xx_HAL_Driver/Src/stm32f7xx_ll_usb.c ****       return HAL_TIMEOUT;
 529:Drivers/STM32F7xx_HAL_Driver/Src/stm32f7xx_ll_usb.c ****     }
 530:Drivers/STM32F7xx_HAL_Driver/Src/stm32f7xx_ll_usb.c ****   } while ((USBx->GRSTCTL & USB_OTG_GRSTCTL_TXFFLSH) == USB_OTG_GRSTCTL_TXFFLSH);
 531:Drivers/STM32F7xx_HAL_Driver/Src/stm32f7xx_ll_usb.c **** 
 532:Drivers/STM32F7xx_HAL_Driver/Src/stm32f7xx_ll_usb.c ****   return HAL_OK;
 533:Drivers/STM32F7xx_HAL_Driver/Src/stm32f7xx_ll_usb.c **** }
 534:Drivers/STM32F7xx_HAL_Driver/Src/stm32f7xx_ll_usb.c **** 
 535:Drivers/STM32F7xx_HAL_Driver/Src/stm32f7xx_ll_usb.c **** /**
 536:Drivers/STM32F7xx_HAL_Driver/Src/stm32f7xx_ll_usb.c ****   * @brief  USB_FlushRxFifo  Flush Rx FIFO
 537:Drivers/STM32F7xx_HAL_Driver/Src/stm32f7xx_ll_usb.c ****   * @param  USBx  Selected device
 538:Drivers/STM32F7xx_HAL_Driver/Src/stm32f7xx_ll_usb.c ****   * @retval HAL status
 539:Drivers/STM32F7xx_HAL_Driver/Src/stm32f7xx_ll_usb.c ****   */
 540:Drivers/STM32F7xx_HAL_Driver/Src/stm32f7xx_ll_usb.c **** HAL_StatusTypeDef USB_FlushRxFifo(USB_OTG_GlobalTypeDef *USBx)
 541:Drivers/STM32F7xx_HAL_Driver/Src/stm32f7xx_ll_usb.c **** {
 542:Drivers/STM32F7xx_HAL_Driver/Src/stm32f7xx_ll_usb.c ****   __IO uint32_t count = 0U;
 543:Drivers/STM32F7xx_HAL_Driver/Src/stm32f7xx_ll_usb.c **** 
ARM GAS  C:\Users\benny\AppData\Local\Temp\ccHko7Bj.s 			page 11


 544:Drivers/STM32F7xx_HAL_Driver/Src/stm32f7xx_ll_usb.c ****   /* Wait for AHB master IDLE state. */
 545:Drivers/STM32F7xx_HAL_Driver/Src/stm32f7xx_ll_usb.c ****   do
 546:Drivers/STM32F7xx_HAL_Driver/Src/stm32f7xx_ll_usb.c ****   {
 547:Drivers/STM32F7xx_HAL_Driver/Src/stm32f7xx_ll_usb.c ****     count++;
 548:Drivers/STM32F7xx_HAL_Driver/Src/stm32f7xx_ll_usb.c **** 
 549:Drivers/STM32F7xx_HAL_Driver/Src/stm32f7xx_ll_usb.c ****     if (count > HAL_USB_TIMEOUT)
 550:Drivers/STM32F7xx_HAL_Driver/Src/stm32f7xx_ll_usb.c ****     {
 551:Drivers/STM32F7xx_HAL_Driver/Src/stm32f7xx_ll_usb.c ****       return HAL_TIMEOUT;
 552:Drivers/STM32F7xx_HAL_Driver/Src/stm32f7xx_ll_usb.c ****     }
 553:Drivers/STM32F7xx_HAL_Driver/Src/stm32f7xx_ll_usb.c ****   } while ((USBx->GRSTCTL & USB_OTG_GRSTCTL_AHBIDL) == 0U);
 554:Drivers/STM32F7xx_HAL_Driver/Src/stm32f7xx_ll_usb.c **** 
 555:Drivers/STM32F7xx_HAL_Driver/Src/stm32f7xx_ll_usb.c ****   /* Flush RX Fifo */
 556:Drivers/STM32F7xx_HAL_Driver/Src/stm32f7xx_ll_usb.c ****   count = 0U;
 557:Drivers/STM32F7xx_HAL_Driver/Src/stm32f7xx_ll_usb.c ****   USBx->GRSTCTL = USB_OTG_GRSTCTL_RXFFLSH;
 558:Drivers/STM32F7xx_HAL_Driver/Src/stm32f7xx_ll_usb.c **** 
 559:Drivers/STM32F7xx_HAL_Driver/Src/stm32f7xx_ll_usb.c ****   do
 560:Drivers/STM32F7xx_HAL_Driver/Src/stm32f7xx_ll_usb.c ****   {
 561:Drivers/STM32F7xx_HAL_Driver/Src/stm32f7xx_ll_usb.c ****     count++;
 562:Drivers/STM32F7xx_HAL_Driver/Src/stm32f7xx_ll_usb.c **** 
 563:Drivers/STM32F7xx_HAL_Driver/Src/stm32f7xx_ll_usb.c ****     if (count > HAL_USB_TIMEOUT)
 564:Drivers/STM32F7xx_HAL_Driver/Src/stm32f7xx_ll_usb.c ****     {
 565:Drivers/STM32F7xx_HAL_Driver/Src/stm32f7xx_ll_usb.c ****       return HAL_TIMEOUT;
 566:Drivers/STM32F7xx_HAL_Driver/Src/stm32f7xx_ll_usb.c ****     }
 567:Drivers/STM32F7xx_HAL_Driver/Src/stm32f7xx_ll_usb.c ****   } while ((USBx->GRSTCTL & USB_OTG_GRSTCTL_RXFFLSH) == USB_OTG_GRSTCTL_RXFFLSH);
 568:Drivers/STM32F7xx_HAL_Driver/Src/stm32f7xx_ll_usb.c **** 
 569:Drivers/STM32F7xx_HAL_Driver/Src/stm32f7xx_ll_usb.c ****   return HAL_OK;
 570:Drivers/STM32F7xx_HAL_Driver/Src/stm32f7xx_ll_usb.c **** }
 571:Drivers/STM32F7xx_HAL_Driver/Src/stm32f7xx_ll_usb.c **** 
 572:Drivers/STM32F7xx_HAL_Driver/Src/stm32f7xx_ll_usb.c **** /**
 573:Drivers/STM32F7xx_HAL_Driver/Src/stm32f7xx_ll_usb.c ****   * @brief  USB_SetDevSpeed  Initializes the DevSpd field of DCFG register
 574:Drivers/STM32F7xx_HAL_Driver/Src/stm32f7xx_ll_usb.c ****   *         depending the PHY type and the enumeration speed of the device.
 575:Drivers/STM32F7xx_HAL_Driver/Src/stm32f7xx_ll_usb.c ****   * @param  USBx  Selected device
 576:Drivers/STM32F7xx_HAL_Driver/Src/stm32f7xx_ll_usb.c ****   * @param  speed  device speed
 577:Drivers/STM32F7xx_HAL_Driver/Src/stm32f7xx_ll_usb.c ****   *          This parameter can be one of these values:
 578:Drivers/STM32F7xx_HAL_Driver/Src/stm32f7xx_ll_usb.c ****   *            @arg USB_OTG_SPEED_HIGH: High speed mode
 579:Drivers/STM32F7xx_HAL_Driver/Src/stm32f7xx_ll_usb.c ****   *            @arg USB_OTG_SPEED_HIGH_IN_FULL: High speed core in Full Speed mode
 580:Drivers/STM32F7xx_HAL_Driver/Src/stm32f7xx_ll_usb.c ****   *            @arg USB_OTG_SPEED_FULL: Full speed mode
 581:Drivers/STM32F7xx_HAL_Driver/Src/stm32f7xx_ll_usb.c ****   * @retval  Hal status
 582:Drivers/STM32F7xx_HAL_Driver/Src/stm32f7xx_ll_usb.c ****   */
 583:Drivers/STM32F7xx_HAL_Driver/Src/stm32f7xx_ll_usb.c **** HAL_StatusTypeDef USB_SetDevSpeed(const USB_OTG_GlobalTypeDef *USBx, uint8_t speed)
 584:Drivers/STM32F7xx_HAL_Driver/Src/stm32f7xx_ll_usb.c **** {
 585:Drivers/STM32F7xx_HAL_Driver/Src/stm32f7xx_ll_usb.c ****   uint32_t USBx_BASE = (uint32_t)USBx;
 586:Drivers/STM32F7xx_HAL_Driver/Src/stm32f7xx_ll_usb.c **** 
 587:Drivers/STM32F7xx_HAL_Driver/Src/stm32f7xx_ll_usb.c ****   USBx_DEVICE->DCFG |= speed;
 588:Drivers/STM32F7xx_HAL_Driver/Src/stm32f7xx_ll_usb.c ****   return HAL_OK;
 589:Drivers/STM32F7xx_HAL_Driver/Src/stm32f7xx_ll_usb.c **** }
 590:Drivers/STM32F7xx_HAL_Driver/Src/stm32f7xx_ll_usb.c **** 
 591:Drivers/STM32F7xx_HAL_Driver/Src/stm32f7xx_ll_usb.c **** /**
 592:Drivers/STM32F7xx_HAL_Driver/Src/stm32f7xx_ll_usb.c ****   * @brief  USB_GetDevSpeed  Return the Dev Speed
 593:Drivers/STM32F7xx_HAL_Driver/Src/stm32f7xx_ll_usb.c ****   * @param  USBx  Selected device
 594:Drivers/STM32F7xx_HAL_Driver/Src/stm32f7xx_ll_usb.c ****   * @retval speed  device speed
 595:Drivers/STM32F7xx_HAL_Driver/Src/stm32f7xx_ll_usb.c ****   *          This parameter can be one of these values:
 596:Drivers/STM32F7xx_HAL_Driver/Src/stm32f7xx_ll_usb.c ****   *            @arg USBD_HS_SPEED: High speed mode
 597:Drivers/STM32F7xx_HAL_Driver/Src/stm32f7xx_ll_usb.c ****   *            @arg USBD_FS_SPEED: Full speed mode
 598:Drivers/STM32F7xx_HAL_Driver/Src/stm32f7xx_ll_usb.c ****   */
 599:Drivers/STM32F7xx_HAL_Driver/Src/stm32f7xx_ll_usb.c **** uint8_t USB_GetDevSpeed(const USB_OTG_GlobalTypeDef *USBx)
 600:Drivers/STM32F7xx_HAL_Driver/Src/stm32f7xx_ll_usb.c **** {
ARM GAS  C:\Users\benny\AppData\Local\Temp\ccHko7Bj.s 			page 12


 601:Drivers/STM32F7xx_HAL_Driver/Src/stm32f7xx_ll_usb.c ****   uint32_t USBx_BASE = (uint32_t)USBx;
 602:Drivers/STM32F7xx_HAL_Driver/Src/stm32f7xx_ll_usb.c ****   uint8_t speed;
 603:Drivers/STM32F7xx_HAL_Driver/Src/stm32f7xx_ll_usb.c ****   uint32_t DevEnumSpeed = USBx_DEVICE->DSTS & USB_OTG_DSTS_ENUMSPD;
 604:Drivers/STM32F7xx_HAL_Driver/Src/stm32f7xx_ll_usb.c **** 
 605:Drivers/STM32F7xx_HAL_Driver/Src/stm32f7xx_ll_usb.c ****   if (DevEnumSpeed == DSTS_ENUMSPD_HS_PHY_30MHZ_OR_60MHZ)
 606:Drivers/STM32F7xx_HAL_Driver/Src/stm32f7xx_ll_usb.c ****   {
 607:Drivers/STM32F7xx_HAL_Driver/Src/stm32f7xx_ll_usb.c ****     speed = USBD_HS_SPEED;
 608:Drivers/STM32F7xx_HAL_Driver/Src/stm32f7xx_ll_usb.c ****   }
 609:Drivers/STM32F7xx_HAL_Driver/Src/stm32f7xx_ll_usb.c ****   else if ((DevEnumSpeed == DSTS_ENUMSPD_FS_PHY_30MHZ_OR_60MHZ) ||
 610:Drivers/STM32F7xx_HAL_Driver/Src/stm32f7xx_ll_usb.c ****            (DevEnumSpeed == DSTS_ENUMSPD_FS_PHY_48MHZ))
 611:Drivers/STM32F7xx_HAL_Driver/Src/stm32f7xx_ll_usb.c ****   {
 612:Drivers/STM32F7xx_HAL_Driver/Src/stm32f7xx_ll_usb.c ****     speed = USBD_FS_SPEED;
 613:Drivers/STM32F7xx_HAL_Driver/Src/stm32f7xx_ll_usb.c ****   }
 614:Drivers/STM32F7xx_HAL_Driver/Src/stm32f7xx_ll_usb.c ****   else
 615:Drivers/STM32F7xx_HAL_Driver/Src/stm32f7xx_ll_usb.c ****   {
 616:Drivers/STM32F7xx_HAL_Driver/Src/stm32f7xx_ll_usb.c ****     speed = 0xFU;
 617:Drivers/STM32F7xx_HAL_Driver/Src/stm32f7xx_ll_usb.c ****   }
 618:Drivers/STM32F7xx_HAL_Driver/Src/stm32f7xx_ll_usb.c **** 
 619:Drivers/STM32F7xx_HAL_Driver/Src/stm32f7xx_ll_usb.c ****   return speed;
 620:Drivers/STM32F7xx_HAL_Driver/Src/stm32f7xx_ll_usb.c **** }
 621:Drivers/STM32F7xx_HAL_Driver/Src/stm32f7xx_ll_usb.c **** 
 622:Drivers/STM32F7xx_HAL_Driver/Src/stm32f7xx_ll_usb.c **** /**
 623:Drivers/STM32F7xx_HAL_Driver/Src/stm32f7xx_ll_usb.c ****   * @brief  Activate and configure an endpoint
 624:Drivers/STM32F7xx_HAL_Driver/Src/stm32f7xx_ll_usb.c ****   * @param  USBx  Selected device
 625:Drivers/STM32F7xx_HAL_Driver/Src/stm32f7xx_ll_usb.c ****   * @param  ep pointer to endpoint structure
 626:Drivers/STM32F7xx_HAL_Driver/Src/stm32f7xx_ll_usb.c ****   * @retval HAL status
 627:Drivers/STM32F7xx_HAL_Driver/Src/stm32f7xx_ll_usb.c ****   */
 628:Drivers/STM32F7xx_HAL_Driver/Src/stm32f7xx_ll_usb.c **** HAL_StatusTypeDef USB_ActivateEndpoint(const USB_OTG_GlobalTypeDef *USBx, const USB_OTG_EPTypeDef *
 629:Drivers/STM32F7xx_HAL_Driver/Src/stm32f7xx_ll_usb.c **** {
 630:Drivers/STM32F7xx_HAL_Driver/Src/stm32f7xx_ll_usb.c ****   uint32_t USBx_BASE = (uint32_t)USBx;
 631:Drivers/STM32F7xx_HAL_Driver/Src/stm32f7xx_ll_usb.c ****   uint32_t epnum = (uint32_t)ep->num;
 632:Drivers/STM32F7xx_HAL_Driver/Src/stm32f7xx_ll_usb.c **** 
 633:Drivers/STM32F7xx_HAL_Driver/Src/stm32f7xx_ll_usb.c ****   if (ep->is_in == 1U)
 634:Drivers/STM32F7xx_HAL_Driver/Src/stm32f7xx_ll_usb.c ****   {
 635:Drivers/STM32F7xx_HAL_Driver/Src/stm32f7xx_ll_usb.c ****     USBx_DEVICE->DAINTMSK |= USB_OTG_DAINTMSK_IEPM & (uint32_t)(1UL << (ep->num & EP_ADDR_MSK));
 636:Drivers/STM32F7xx_HAL_Driver/Src/stm32f7xx_ll_usb.c **** 
 637:Drivers/STM32F7xx_HAL_Driver/Src/stm32f7xx_ll_usb.c ****     if ((USBx_INEP(epnum)->DIEPCTL & USB_OTG_DIEPCTL_USBAEP) == 0U)
 638:Drivers/STM32F7xx_HAL_Driver/Src/stm32f7xx_ll_usb.c ****     {
 639:Drivers/STM32F7xx_HAL_Driver/Src/stm32f7xx_ll_usb.c ****       USBx_INEP(epnum)->DIEPCTL |= (ep->maxpacket & USB_OTG_DIEPCTL_MPSIZ) |
 640:Drivers/STM32F7xx_HAL_Driver/Src/stm32f7xx_ll_usb.c ****                                    ((uint32_t)ep->type << 18) | (epnum << 22) |
 641:Drivers/STM32F7xx_HAL_Driver/Src/stm32f7xx_ll_usb.c ****                                    USB_OTG_DIEPCTL_SD0PID_SEVNFRM |
 642:Drivers/STM32F7xx_HAL_Driver/Src/stm32f7xx_ll_usb.c ****                                    USB_OTG_DIEPCTL_USBAEP;
 643:Drivers/STM32F7xx_HAL_Driver/Src/stm32f7xx_ll_usb.c ****     }
 644:Drivers/STM32F7xx_HAL_Driver/Src/stm32f7xx_ll_usb.c ****   }
 645:Drivers/STM32F7xx_HAL_Driver/Src/stm32f7xx_ll_usb.c ****   else
 646:Drivers/STM32F7xx_HAL_Driver/Src/stm32f7xx_ll_usb.c ****   {
 647:Drivers/STM32F7xx_HAL_Driver/Src/stm32f7xx_ll_usb.c ****     USBx_DEVICE->DAINTMSK |= USB_OTG_DAINTMSK_OEPM & ((uint32_t)(1UL << (ep->num & EP_ADDR_MSK)) <<
 648:Drivers/STM32F7xx_HAL_Driver/Src/stm32f7xx_ll_usb.c **** 
 649:Drivers/STM32F7xx_HAL_Driver/Src/stm32f7xx_ll_usb.c ****     if (((USBx_OUTEP(epnum)->DOEPCTL) & USB_OTG_DOEPCTL_USBAEP) == 0U)
 650:Drivers/STM32F7xx_HAL_Driver/Src/stm32f7xx_ll_usb.c ****     {
 651:Drivers/STM32F7xx_HAL_Driver/Src/stm32f7xx_ll_usb.c ****       USBx_OUTEP(epnum)->DOEPCTL |= (ep->maxpacket & USB_OTG_DOEPCTL_MPSIZ) |
 652:Drivers/STM32F7xx_HAL_Driver/Src/stm32f7xx_ll_usb.c ****                                     ((uint32_t)ep->type << 18) |
 653:Drivers/STM32F7xx_HAL_Driver/Src/stm32f7xx_ll_usb.c ****                                     USB_OTG_DIEPCTL_SD0PID_SEVNFRM |
 654:Drivers/STM32F7xx_HAL_Driver/Src/stm32f7xx_ll_usb.c ****                                     USB_OTG_DOEPCTL_USBAEP;
 655:Drivers/STM32F7xx_HAL_Driver/Src/stm32f7xx_ll_usb.c ****     }
 656:Drivers/STM32F7xx_HAL_Driver/Src/stm32f7xx_ll_usb.c ****   }
 657:Drivers/STM32F7xx_HAL_Driver/Src/stm32f7xx_ll_usb.c ****   return HAL_OK;
ARM GAS  C:\Users\benny\AppData\Local\Temp\ccHko7Bj.s 			page 13


 658:Drivers/STM32F7xx_HAL_Driver/Src/stm32f7xx_ll_usb.c **** }
 659:Drivers/STM32F7xx_HAL_Driver/Src/stm32f7xx_ll_usb.c **** 
 660:Drivers/STM32F7xx_HAL_Driver/Src/stm32f7xx_ll_usb.c **** /**
 661:Drivers/STM32F7xx_HAL_Driver/Src/stm32f7xx_ll_usb.c ****   * @brief  Activate and configure a dedicated endpoint
 662:Drivers/STM32F7xx_HAL_Driver/Src/stm32f7xx_ll_usb.c ****   * @param  USBx  Selected device
 663:Drivers/STM32F7xx_HAL_Driver/Src/stm32f7xx_ll_usb.c ****   * @param  ep pointer to endpoint structure
 664:Drivers/STM32F7xx_HAL_Driver/Src/stm32f7xx_ll_usb.c ****   * @retval HAL status
 665:Drivers/STM32F7xx_HAL_Driver/Src/stm32f7xx_ll_usb.c ****   */
 666:Drivers/STM32F7xx_HAL_Driver/Src/stm32f7xx_ll_usb.c **** HAL_StatusTypeDef USB_ActivateDedicatedEndpoint(const USB_OTG_GlobalTypeDef *USBx, const USB_OTG_EP
 667:Drivers/STM32F7xx_HAL_Driver/Src/stm32f7xx_ll_usb.c **** {
 668:Drivers/STM32F7xx_HAL_Driver/Src/stm32f7xx_ll_usb.c ****   uint32_t USBx_BASE = (uint32_t)USBx;
 669:Drivers/STM32F7xx_HAL_Driver/Src/stm32f7xx_ll_usb.c ****   uint32_t epnum = (uint32_t)ep->num;
 670:Drivers/STM32F7xx_HAL_Driver/Src/stm32f7xx_ll_usb.c **** 
 671:Drivers/STM32F7xx_HAL_Driver/Src/stm32f7xx_ll_usb.c ****   /* Read DEPCTLn register */
 672:Drivers/STM32F7xx_HAL_Driver/Src/stm32f7xx_ll_usb.c ****   if (ep->is_in == 1U)
 673:Drivers/STM32F7xx_HAL_Driver/Src/stm32f7xx_ll_usb.c ****   {
 674:Drivers/STM32F7xx_HAL_Driver/Src/stm32f7xx_ll_usb.c ****     if (((USBx_INEP(epnum)->DIEPCTL) & USB_OTG_DIEPCTL_USBAEP) == 0U)
 675:Drivers/STM32F7xx_HAL_Driver/Src/stm32f7xx_ll_usb.c ****     {
 676:Drivers/STM32F7xx_HAL_Driver/Src/stm32f7xx_ll_usb.c ****       USBx_INEP(epnum)->DIEPCTL |= (ep->maxpacket & USB_OTG_DIEPCTL_MPSIZ) |
 677:Drivers/STM32F7xx_HAL_Driver/Src/stm32f7xx_ll_usb.c ****                                    ((uint32_t)ep->type << 18) | (epnum << 22) |
 678:Drivers/STM32F7xx_HAL_Driver/Src/stm32f7xx_ll_usb.c ****                                    USB_OTG_DIEPCTL_SD0PID_SEVNFRM |
 679:Drivers/STM32F7xx_HAL_Driver/Src/stm32f7xx_ll_usb.c ****                                    USB_OTG_DIEPCTL_USBAEP;
 680:Drivers/STM32F7xx_HAL_Driver/Src/stm32f7xx_ll_usb.c ****     }
 681:Drivers/STM32F7xx_HAL_Driver/Src/stm32f7xx_ll_usb.c **** 
 682:Drivers/STM32F7xx_HAL_Driver/Src/stm32f7xx_ll_usb.c ****     USBx_DEVICE->DEACHMSK |= USB_OTG_DAINTMSK_IEPM & (uint32_t)(1UL << (ep->num & EP_ADDR_MSK));
 683:Drivers/STM32F7xx_HAL_Driver/Src/stm32f7xx_ll_usb.c ****   }
 684:Drivers/STM32F7xx_HAL_Driver/Src/stm32f7xx_ll_usb.c ****   else
 685:Drivers/STM32F7xx_HAL_Driver/Src/stm32f7xx_ll_usb.c ****   {
 686:Drivers/STM32F7xx_HAL_Driver/Src/stm32f7xx_ll_usb.c ****     if (((USBx_OUTEP(epnum)->DOEPCTL) & USB_OTG_DOEPCTL_USBAEP) == 0U)
 687:Drivers/STM32F7xx_HAL_Driver/Src/stm32f7xx_ll_usb.c ****     {
 688:Drivers/STM32F7xx_HAL_Driver/Src/stm32f7xx_ll_usb.c ****       USBx_OUTEP(epnum)->DOEPCTL |= (ep->maxpacket & USB_OTG_DOEPCTL_MPSIZ) |
 689:Drivers/STM32F7xx_HAL_Driver/Src/stm32f7xx_ll_usb.c ****                                     ((uint32_t)ep->type << 18) | (epnum << 22) |
 690:Drivers/STM32F7xx_HAL_Driver/Src/stm32f7xx_ll_usb.c ****                                     USB_OTG_DOEPCTL_USBAEP;
 691:Drivers/STM32F7xx_HAL_Driver/Src/stm32f7xx_ll_usb.c ****     }
 692:Drivers/STM32F7xx_HAL_Driver/Src/stm32f7xx_ll_usb.c **** 
 693:Drivers/STM32F7xx_HAL_Driver/Src/stm32f7xx_ll_usb.c ****     USBx_DEVICE->DEACHMSK |= USB_OTG_DAINTMSK_OEPM & ((uint32_t)(1UL << (ep->num & EP_ADDR_MSK)) <<
 694:Drivers/STM32F7xx_HAL_Driver/Src/stm32f7xx_ll_usb.c ****   }
 695:Drivers/STM32F7xx_HAL_Driver/Src/stm32f7xx_ll_usb.c **** 
 696:Drivers/STM32F7xx_HAL_Driver/Src/stm32f7xx_ll_usb.c ****   return HAL_OK;
 697:Drivers/STM32F7xx_HAL_Driver/Src/stm32f7xx_ll_usb.c **** }
 698:Drivers/STM32F7xx_HAL_Driver/Src/stm32f7xx_ll_usb.c **** 
 699:Drivers/STM32F7xx_HAL_Driver/Src/stm32f7xx_ll_usb.c **** /**
 700:Drivers/STM32F7xx_HAL_Driver/Src/stm32f7xx_ll_usb.c ****   * @brief  De-activate and de-initialize an endpoint
 701:Drivers/STM32F7xx_HAL_Driver/Src/stm32f7xx_ll_usb.c ****   * @param  USBx  Selected device
 702:Drivers/STM32F7xx_HAL_Driver/Src/stm32f7xx_ll_usb.c ****   * @param  ep pointer to endpoint structure
 703:Drivers/STM32F7xx_HAL_Driver/Src/stm32f7xx_ll_usb.c ****   * @retval HAL status
 704:Drivers/STM32F7xx_HAL_Driver/Src/stm32f7xx_ll_usb.c ****   */
 705:Drivers/STM32F7xx_HAL_Driver/Src/stm32f7xx_ll_usb.c **** HAL_StatusTypeDef USB_DeactivateEndpoint(const USB_OTG_GlobalTypeDef *USBx, const USB_OTG_EPTypeDef
 706:Drivers/STM32F7xx_HAL_Driver/Src/stm32f7xx_ll_usb.c **** {
 707:Drivers/STM32F7xx_HAL_Driver/Src/stm32f7xx_ll_usb.c ****   uint32_t USBx_BASE = (uint32_t)USBx;
 708:Drivers/STM32F7xx_HAL_Driver/Src/stm32f7xx_ll_usb.c ****   uint32_t epnum = (uint32_t)ep->num;
 709:Drivers/STM32F7xx_HAL_Driver/Src/stm32f7xx_ll_usb.c **** 
 710:Drivers/STM32F7xx_HAL_Driver/Src/stm32f7xx_ll_usb.c ****   /* Read DEPCTLn register */
 711:Drivers/STM32F7xx_HAL_Driver/Src/stm32f7xx_ll_usb.c ****   if (ep->is_in == 1U)
 712:Drivers/STM32F7xx_HAL_Driver/Src/stm32f7xx_ll_usb.c ****   {
 713:Drivers/STM32F7xx_HAL_Driver/Src/stm32f7xx_ll_usb.c ****     if ((USBx_INEP(epnum)->DIEPCTL & USB_OTG_DIEPCTL_EPENA) == USB_OTG_DIEPCTL_EPENA)
 714:Drivers/STM32F7xx_HAL_Driver/Src/stm32f7xx_ll_usb.c ****     {
ARM GAS  C:\Users\benny\AppData\Local\Temp\ccHko7Bj.s 			page 14


 715:Drivers/STM32F7xx_HAL_Driver/Src/stm32f7xx_ll_usb.c ****       USBx_INEP(epnum)->DIEPCTL |= USB_OTG_DIEPCTL_SNAK;
 716:Drivers/STM32F7xx_HAL_Driver/Src/stm32f7xx_ll_usb.c ****       USBx_INEP(epnum)->DIEPCTL |= USB_OTG_DIEPCTL_EPDIS;
 717:Drivers/STM32F7xx_HAL_Driver/Src/stm32f7xx_ll_usb.c ****     }
 718:Drivers/STM32F7xx_HAL_Driver/Src/stm32f7xx_ll_usb.c **** 
 719:Drivers/STM32F7xx_HAL_Driver/Src/stm32f7xx_ll_usb.c ****     USBx_DEVICE->DEACHMSK &= ~(USB_OTG_DAINTMSK_IEPM & (uint32_t)(1UL << (ep->num & EP_ADDR_MSK)));
 720:Drivers/STM32F7xx_HAL_Driver/Src/stm32f7xx_ll_usb.c ****     USBx_DEVICE->DAINTMSK &= ~(USB_OTG_DAINTMSK_IEPM & (uint32_t)(1UL << (ep->num & EP_ADDR_MSK)));
 721:Drivers/STM32F7xx_HAL_Driver/Src/stm32f7xx_ll_usb.c ****     USBx_INEP(epnum)->DIEPCTL &= ~(USB_OTG_DIEPCTL_USBAEP |
 722:Drivers/STM32F7xx_HAL_Driver/Src/stm32f7xx_ll_usb.c ****                                    USB_OTG_DIEPCTL_MPSIZ |
 723:Drivers/STM32F7xx_HAL_Driver/Src/stm32f7xx_ll_usb.c ****                                    USB_OTG_DIEPCTL_TXFNUM |
 724:Drivers/STM32F7xx_HAL_Driver/Src/stm32f7xx_ll_usb.c ****                                    USB_OTG_DIEPCTL_SD0PID_SEVNFRM |
 725:Drivers/STM32F7xx_HAL_Driver/Src/stm32f7xx_ll_usb.c ****                                    USB_OTG_DIEPCTL_EPTYP);
 726:Drivers/STM32F7xx_HAL_Driver/Src/stm32f7xx_ll_usb.c ****   }
 727:Drivers/STM32F7xx_HAL_Driver/Src/stm32f7xx_ll_usb.c ****   else
 728:Drivers/STM32F7xx_HAL_Driver/Src/stm32f7xx_ll_usb.c ****   {
 729:Drivers/STM32F7xx_HAL_Driver/Src/stm32f7xx_ll_usb.c ****     if ((USBx_OUTEP(epnum)->DOEPCTL & USB_OTG_DOEPCTL_EPENA) == USB_OTG_DOEPCTL_EPENA)
 730:Drivers/STM32F7xx_HAL_Driver/Src/stm32f7xx_ll_usb.c ****     {
 731:Drivers/STM32F7xx_HAL_Driver/Src/stm32f7xx_ll_usb.c ****       USBx_OUTEP(epnum)->DOEPCTL |= USB_OTG_DOEPCTL_SNAK;
 732:Drivers/STM32F7xx_HAL_Driver/Src/stm32f7xx_ll_usb.c ****       USBx_OUTEP(epnum)->DOEPCTL |= USB_OTG_DOEPCTL_EPDIS;
 733:Drivers/STM32F7xx_HAL_Driver/Src/stm32f7xx_ll_usb.c ****     }
 734:Drivers/STM32F7xx_HAL_Driver/Src/stm32f7xx_ll_usb.c **** 
 735:Drivers/STM32F7xx_HAL_Driver/Src/stm32f7xx_ll_usb.c ****     USBx_DEVICE->DEACHMSK &= ~(USB_OTG_DAINTMSK_OEPM & ((uint32_t)(1UL << (ep->num & EP_ADDR_MSK)) 
 736:Drivers/STM32F7xx_HAL_Driver/Src/stm32f7xx_ll_usb.c ****     USBx_DEVICE->DAINTMSK &= ~(USB_OTG_DAINTMSK_OEPM & ((uint32_t)(1UL << (ep->num & EP_ADDR_MSK)) 
 737:Drivers/STM32F7xx_HAL_Driver/Src/stm32f7xx_ll_usb.c ****     USBx_OUTEP(epnum)->DOEPCTL &= ~(USB_OTG_DOEPCTL_USBAEP |
 738:Drivers/STM32F7xx_HAL_Driver/Src/stm32f7xx_ll_usb.c ****                                     USB_OTG_DOEPCTL_MPSIZ |
 739:Drivers/STM32F7xx_HAL_Driver/Src/stm32f7xx_ll_usb.c ****                                     USB_OTG_DOEPCTL_SD0PID_SEVNFRM |
 740:Drivers/STM32F7xx_HAL_Driver/Src/stm32f7xx_ll_usb.c ****                                     USB_OTG_DOEPCTL_EPTYP);
 741:Drivers/STM32F7xx_HAL_Driver/Src/stm32f7xx_ll_usb.c ****   }
 742:Drivers/STM32F7xx_HAL_Driver/Src/stm32f7xx_ll_usb.c **** 
 743:Drivers/STM32F7xx_HAL_Driver/Src/stm32f7xx_ll_usb.c ****   return HAL_OK;
 744:Drivers/STM32F7xx_HAL_Driver/Src/stm32f7xx_ll_usb.c **** }
 745:Drivers/STM32F7xx_HAL_Driver/Src/stm32f7xx_ll_usb.c **** 
 746:Drivers/STM32F7xx_HAL_Driver/Src/stm32f7xx_ll_usb.c **** /**
 747:Drivers/STM32F7xx_HAL_Driver/Src/stm32f7xx_ll_usb.c ****   * @brief  De-activate and de-initialize a dedicated endpoint
 748:Drivers/STM32F7xx_HAL_Driver/Src/stm32f7xx_ll_usb.c ****   * @param  USBx  Selected device
 749:Drivers/STM32F7xx_HAL_Driver/Src/stm32f7xx_ll_usb.c ****   * @param  ep pointer to endpoint structure
 750:Drivers/STM32F7xx_HAL_Driver/Src/stm32f7xx_ll_usb.c ****   * @retval HAL status
 751:Drivers/STM32F7xx_HAL_Driver/Src/stm32f7xx_ll_usb.c ****   */
 752:Drivers/STM32F7xx_HAL_Driver/Src/stm32f7xx_ll_usb.c **** HAL_StatusTypeDef USB_DeactivateDedicatedEndpoint(const USB_OTG_GlobalTypeDef *USBx, const USB_OTG_
 753:Drivers/STM32F7xx_HAL_Driver/Src/stm32f7xx_ll_usb.c **** {
 754:Drivers/STM32F7xx_HAL_Driver/Src/stm32f7xx_ll_usb.c ****   uint32_t USBx_BASE = (uint32_t)USBx;
 755:Drivers/STM32F7xx_HAL_Driver/Src/stm32f7xx_ll_usb.c ****   uint32_t epnum = (uint32_t)ep->num;
 756:Drivers/STM32F7xx_HAL_Driver/Src/stm32f7xx_ll_usb.c **** 
 757:Drivers/STM32F7xx_HAL_Driver/Src/stm32f7xx_ll_usb.c ****   /* Read DEPCTLn register */
 758:Drivers/STM32F7xx_HAL_Driver/Src/stm32f7xx_ll_usb.c ****   if (ep->is_in == 1U)
 759:Drivers/STM32F7xx_HAL_Driver/Src/stm32f7xx_ll_usb.c ****   {
 760:Drivers/STM32F7xx_HAL_Driver/Src/stm32f7xx_ll_usb.c ****     if ((USBx_INEP(epnum)->DIEPCTL & USB_OTG_DIEPCTL_EPENA) == USB_OTG_DIEPCTL_EPENA)
 761:Drivers/STM32F7xx_HAL_Driver/Src/stm32f7xx_ll_usb.c ****     {
 762:Drivers/STM32F7xx_HAL_Driver/Src/stm32f7xx_ll_usb.c ****       USBx_INEP(epnum)->DIEPCTL  |= USB_OTG_DIEPCTL_SNAK;
 763:Drivers/STM32F7xx_HAL_Driver/Src/stm32f7xx_ll_usb.c ****       USBx_INEP(epnum)->DIEPCTL  |= USB_OTG_DIEPCTL_EPDIS;
 764:Drivers/STM32F7xx_HAL_Driver/Src/stm32f7xx_ll_usb.c ****     }
 765:Drivers/STM32F7xx_HAL_Driver/Src/stm32f7xx_ll_usb.c **** 
 766:Drivers/STM32F7xx_HAL_Driver/Src/stm32f7xx_ll_usb.c ****     USBx_INEP(epnum)->DIEPCTL &= ~ USB_OTG_DIEPCTL_USBAEP;
 767:Drivers/STM32F7xx_HAL_Driver/Src/stm32f7xx_ll_usb.c ****     USBx_DEVICE->DAINTMSK &= ~(USB_OTG_DAINTMSK_IEPM & (uint32_t)(1UL << (ep->num & EP_ADDR_MSK)));
 768:Drivers/STM32F7xx_HAL_Driver/Src/stm32f7xx_ll_usb.c ****   }
 769:Drivers/STM32F7xx_HAL_Driver/Src/stm32f7xx_ll_usb.c ****   else
 770:Drivers/STM32F7xx_HAL_Driver/Src/stm32f7xx_ll_usb.c ****   {
 771:Drivers/STM32F7xx_HAL_Driver/Src/stm32f7xx_ll_usb.c ****     if ((USBx_OUTEP(epnum)->DOEPCTL & USB_OTG_DOEPCTL_EPENA) == USB_OTG_DOEPCTL_EPENA)
ARM GAS  C:\Users\benny\AppData\Local\Temp\ccHko7Bj.s 			page 15


 772:Drivers/STM32F7xx_HAL_Driver/Src/stm32f7xx_ll_usb.c ****     {
 773:Drivers/STM32F7xx_HAL_Driver/Src/stm32f7xx_ll_usb.c ****       USBx_OUTEP(epnum)->DOEPCTL  |= USB_OTG_DOEPCTL_SNAK;
 774:Drivers/STM32F7xx_HAL_Driver/Src/stm32f7xx_ll_usb.c ****       USBx_OUTEP(epnum)->DOEPCTL  |= USB_OTG_DOEPCTL_EPDIS;
 775:Drivers/STM32F7xx_HAL_Driver/Src/stm32f7xx_ll_usb.c ****     }
 776:Drivers/STM32F7xx_HAL_Driver/Src/stm32f7xx_ll_usb.c **** 
 777:Drivers/STM32F7xx_HAL_Driver/Src/stm32f7xx_ll_usb.c ****     USBx_OUTEP(epnum)->DOEPCTL &= ~USB_OTG_DOEPCTL_USBAEP;
 778:Drivers/STM32F7xx_HAL_Driver/Src/stm32f7xx_ll_usb.c ****     USBx_DEVICE->DAINTMSK &= ~(USB_OTG_DAINTMSK_OEPM & ((uint32_t)(1UL << (ep->num & EP_ADDR_MSK)) 
 779:Drivers/STM32F7xx_HAL_Driver/Src/stm32f7xx_ll_usb.c ****   }
 780:Drivers/STM32F7xx_HAL_Driver/Src/stm32f7xx_ll_usb.c **** 
 781:Drivers/STM32F7xx_HAL_Driver/Src/stm32f7xx_ll_usb.c ****   return HAL_OK;
 782:Drivers/STM32F7xx_HAL_Driver/Src/stm32f7xx_ll_usb.c **** }
 783:Drivers/STM32F7xx_HAL_Driver/Src/stm32f7xx_ll_usb.c **** 
 784:Drivers/STM32F7xx_HAL_Driver/Src/stm32f7xx_ll_usb.c **** /**
 785:Drivers/STM32F7xx_HAL_Driver/Src/stm32f7xx_ll_usb.c ****   * @brief  USB_EPStartXfer : setup and starts a transfer over an EP
 786:Drivers/STM32F7xx_HAL_Driver/Src/stm32f7xx_ll_usb.c ****   * @param  USBx  Selected device
 787:Drivers/STM32F7xx_HAL_Driver/Src/stm32f7xx_ll_usb.c ****   * @param  ep pointer to endpoint structure
 788:Drivers/STM32F7xx_HAL_Driver/Src/stm32f7xx_ll_usb.c ****   * @param  dma USB dma enabled or disabled
 789:Drivers/STM32F7xx_HAL_Driver/Src/stm32f7xx_ll_usb.c ****   *          This parameter can be one of these values:
 790:Drivers/STM32F7xx_HAL_Driver/Src/stm32f7xx_ll_usb.c ****   *           0 : DMA feature not used
 791:Drivers/STM32F7xx_HAL_Driver/Src/stm32f7xx_ll_usb.c ****   *           1 : DMA feature used
 792:Drivers/STM32F7xx_HAL_Driver/Src/stm32f7xx_ll_usb.c ****   * @retval HAL status
 793:Drivers/STM32F7xx_HAL_Driver/Src/stm32f7xx_ll_usb.c ****   */
 794:Drivers/STM32F7xx_HAL_Driver/Src/stm32f7xx_ll_usb.c **** HAL_StatusTypeDef USB_EPStartXfer(USB_OTG_GlobalTypeDef *USBx, USB_OTG_EPTypeDef *ep, uint8_t dma)
 795:Drivers/STM32F7xx_HAL_Driver/Src/stm32f7xx_ll_usb.c **** {
 796:Drivers/STM32F7xx_HAL_Driver/Src/stm32f7xx_ll_usb.c ****   uint32_t USBx_BASE = (uint32_t)USBx;
 797:Drivers/STM32F7xx_HAL_Driver/Src/stm32f7xx_ll_usb.c ****   uint32_t epnum = (uint32_t)ep->num;
 798:Drivers/STM32F7xx_HAL_Driver/Src/stm32f7xx_ll_usb.c ****   uint16_t pktcnt;
 799:Drivers/STM32F7xx_HAL_Driver/Src/stm32f7xx_ll_usb.c **** 
 800:Drivers/STM32F7xx_HAL_Driver/Src/stm32f7xx_ll_usb.c ****   /* IN endpoint */
 801:Drivers/STM32F7xx_HAL_Driver/Src/stm32f7xx_ll_usb.c ****   if (ep->is_in == 1U)
 802:Drivers/STM32F7xx_HAL_Driver/Src/stm32f7xx_ll_usb.c ****   {
 803:Drivers/STM32F7xx_HAL_Driver/Src/stm32f7xx_ll_usb.c ****     /* Zero Length Packet? */
 804:Drivers/STM32F7xx_HAL_Driver/Src/stm32f7xx_ll_usb.c ****     if (ep->xfer_len == 0U)
 805:Drivers/STM32F7xx_HAL_Driver/Src/stm32f7xx_ll_usb.c ****     {
 806:Drivers/STM32F7xx_HAL_Driver/Src/stm32f7xx_ll_usb.c ****       USBx_INEP(epnum)->DIEPTSIZ &= ~(USB_OTG_DIEPTSIZ_PKTCNT);
 807:Drivers/STM32F7xx_HAL_Driver/Src/stm32f7xx_ll_usb.c ****       USBx_INEP(epnum)->DIEPTSIZ |= (USB_OTG_DIEPTSIZ_PKTCNT & (1U << 19));
 808:Drivers/STM32F7xx_HAL_Driver/Src/stm32f7xx_ll_usb.c ****       USBx_INEP(epnum)->DIEPTSIZ &= ~(USB_OTG_DIEPTSIZ_XFRSIZ);
 809:Drivers/STM32F7xx_HAL_Driver/Src/stm32f7xx_ll_usb.c ****     }
 810:Drivers/STM32F7xx_HAL_Driver/Src/stm32f7xx_ll_usb.c ****     else
 811:Drivers/STM32F7xx_HAL_Driver/Src/stm32f7xx_ll_usb.c ****     {
 812:Drivers/STM32F7xx_HAL_Driver/Src/stm32f7xx_ll_usb.c ****       /* Program the transfer size and packet count
 813:Drivers/STM32F7xx_HAL_Driver/Src/stm32f7xx_ll_usb.c ****       * as follows: xfersize = N * maxpacket +
 814:Drivers/STM32F7xx_HAL_Driver/Src/stm32f7xx_ll_usb.c ****       * short_packet pktcnt = N + (short_packet
 815:Drivers/STM32F7xx_HAL_Driver/Src/stm32f7xx_ll_usb.c ****       * exist ? 1 : 0)
 816:Drivers/STM32F7xx_HAL_Driver/Src/stm32f7xx_ll_usb.c ****       */
 817:Drivers/STM32F7xx_HAL_Driver/Src/stm32f7xx_ll_usb.c ****       USBx_INEP(epnum)->DIEPTSIZ &= ~(USB_OTG_DIEPTSIZ_XFRSIZ);
 818:Drivers/STM32F7xx_HAL_Driver/Src/stm32f7xx_ll_usb.c ****       USBx_INEP(epnum)->DIEPTSIZ &= ~(USB_OTG_DIEPTSIZ_PKTCNT);
 819:Drivers/STM32F7xx_HAL_Driver/Src/stm32f7xx_ll_usb.c **** 
 820:Drivers/STM32F7xx_HAL_Driver/Src/stm32f7xx_ll_usb.c ****       if (epnum == 0U)
 821:Drivers/STM32F7xx_HAL_Driver/Src/stm32f7xx_ll_usb.c ****       {
 822:Drivers/STM32F7xx_HAL_Driver/Src/stm32f7xx_ll_usb.c ****         if (ep->xfer_len > ep->maxpacket)
 823:Drivers/STM32F7xx_HAL_Driver/Src/stm32f7xx_ll_usb.c ****         {
 824:Drivers/STM32F7xx_HAL_Driver/Src/stm32f7xx_ll_usb.c ****           ep->xfer_len = ep->maxpacket;
 825:Drivers/STM32F7xx_HAL_Driver/Src/stm32f7xx_ll_usb.c ****         }
 826:Drivers/STM32F7xx_HAL_Driver/Src/stm32f7xx_ll_usb.c **** 
 827:Drivers/STM32F7xx_HAL_Driver/Src/stm32f7xx_ll_usb.c ****         USBx_INEP(epnum)->DIEPTSIZ |= (USB_OTG_DIEPTSIZ_PKTCNT & (1U << 19));
 828:Drivers/STM32F7xx_HAL_Driver/Src/stm32f7xx_ll_usb.c ****       }
ARM GAS  C:\Users\benny\AppData\Local\Temp\ccHko7Bj.s 			page 16


 829:Drivers/STM32F7xx_HAL_Driver/Src/stm32f7xx_ll_usb.c ****       else
 830:Drivers/STM32F7xx_HAL_Driver/Src/stm32f7xx_ll_usb.c ****       {
 831:Drivers/STM32F7xx_HAL_Driver/Src/stm32f7xx_ll_usb.c ****         USBx_INEP(epnum)->DIEPTSIZ |= (USB_OTG_DIEPTSIZ_PKTCNT &
 832:Drivers/STM32F7xx_HAL_Driver/Src/stm32f7xx_ll_usb.c ****                                        (((ep->xfer_len + ep->maxpacket - 1U) / ep->maxpacket) << 19
 833:Drivers/STM32F7xx_HAL_Driver/Src/stm32f7xx_ll_usb.c ****       }
 834:Drivers/STM32F7xx_HAL_Driver/Src/stm32f7xx_ll_usb.c **** 
 835:Drivers/STM32F7xx_HAL_Driver/Src/stm32f7xx_ll_usb.c ****       USBx_INEP(epnum)->DIEPTSIZ |= (USB_OTG_DIEPTSIZ_XFRSIZ & ep->xfer_len);
 836:Drivers/STM32F7xx_HAL_Driver/Src/stm32f7xx_ll_usb.c **** 
 837:Drivers/STM32F7xx_HAL_Driver/Src/stm32f7xx_ll_usb.c ****       if (ep->type == EP_TYPE_ISOC)
 838:Drivers/STM32F7xx_HAL_Driver/Src/stm32f7xx_ll_usb.c ****       {
 839:Drivers/STM32F7xx_HAL_Driver/Src/stm32f7xx_ll_usb.c ****         USBx_INEP(epnum)->DIEPTSIZ &= ~(USB_OTG_DIEPTSIZ_MULCNT);
 840:Drivers/STM32F7xx_HAL_Driver/Src/stm32f7xx_ll_usb.c ****         USBx_INEP(epnum)->DIEPTSIZ |= (USB_OTG_DIEPTSIZ_MULCNT & (1U << 29));
 841:Drivers/STM32F7xx_HAL_Driver/Src/stm32f7xx_ll_usb.c ****       }
 842:Drivers/STM32F7xx_HAL_Driver/Src/stm32f7xx_ll_usb.c ****     }
 843:Drivers/STM32F7xx_HAL_Driver/Src/stm32f7xx_ll_usb.c **** 
 844:Drivers/STM32F7xx_HAL_Driver/Src/stm32f7xx_ll_usb.c ****     if (dma == 1U)
 845:Drivers/STM32F7xx_HAL_Driver/Src/stm32f7xx_ll_usb.c ****     {
 846:Drivers/STM32F7xx_HAL_Driver/Src/stm32f7xx_ll_usb.c ****       if ((uint32_t)ep->dma_addr != 0U)
 847:Drivers/STM32F7xx_HAL_Driver/Src/stm32f7xx_ll_usb.c ****       {
 848:Drivers/STM32F7xx_HAL_Driver/Src/stm32f7xx_ll_usb.c ****         USBx_INEP(epnum)->DIEPDMA = (uint32_t)(ep->dma_addr);
 849:Drivers/STM32F7xx_HAL_Driver/Src/stm32f7xx_ll_usb.c ****       }
 850:Drivers/STM32F7xx_HAL_Driver/Src/stm32f7xx_ll_usb.c **** 
 851:Drivers/STM32F7xx_HAL_Driver/Src/stm32f7xx_ll_usb.c ****       if (ep->type == EP_TYPE_ISOC)
 852:Drivers/STM32F7xx_HAL_Driver/Src/stm32f7xx_ll_usb.c ****       {
 853:Drivers/STM32F7xx_HAL_Driver/Src/stm32f7xx_ll_usb.c ****         if ((USBx_DEVICE->DSTS & (1U << 8)) == 0U)
 854:Drivers/STM32F7xx_HAL_Driver/Src/stm32f7xx_ll_usb.c ****         {
 855:Drivers/STM32F7xx_HAL_Driver/Src/stm32f7xx_ll_usb.c ****           USBx_INEP(epnum)->DIEPCTL |= USB_OTG_DIEPCTL_SODDFRM;
 856:Drivers/STM32F7xx_HAL_Driver/Src/stm32f7xx_ll_usb.c ****         }
 857:Drivers/STM32F7xx_HAL_Driver/Src/stm32f7xx_ll_usb.c ****         else
 858:Drivers/STM32F7xx_HAL_Driver/Src/stm32f7xx_ll_usb.c ****         {
 859:Drivers/STM32F7xx_HAL_Driver/Src/stm32f7xx_ll_usb.c ****           USBx_INEP(epnum)->DIEPCTL |= USB_OTG_DIEPCTL_SD0PID_SEVNFRM;
 860:Drivers/STM32F7xx_HAL_Driver/Src/stm32f7xx_ll_usb.c ****         }
 861:Drivers/STM32F7xx_HAL_Driver/Src/stm32f7xx_ll_usb.c ****       }
 862:Drivers/STM32F7xx_HAL_Driver/Src/stm32f7xx_ll_usb.c **** 
 863:Drivers/STM32F7xx_HAL_Driver/Src/stm32f7xx_ll_usb.c ****       /* EP enable, IN data in FIFO */
 864:Drivers/STM32F7xx_HAL_Driver/Src/stm32f7xx_ll_usb.c ****       USBx_INEP(epnum)->DIEPCTL |= (USB_OTG_DIEPCTL_CNAK | USB_OTG_DIEPCTL_EPENA);
 865:Drivers/STM32F7xx_HAL_Driver/Src/stm32f7xx_ll_usb.c ****     }
 866:Drivers/STM32F7xx_HAL_Driver/Src/stm32f7xx_ll_usb.c ****     else
 867:Drivers/STM32F7xx_HAL_Driver/Src/stm32f7xx_ll_usb.c ****     {
 868:Drivers/STM32F7xx_HAL_Driver/Src/stm32f7xx_ll_usb.c ****       /* EP enable, IN data in FIFO */
 869:Drivers/STM32F7xx_HAL_Driver/Src/stm32f7xx_ll_usb.c ****       USBx_INEP(epnum)->DIEPCTL |= (USB_OTG_DIEPCTL_CNAK | USB_OTG_DIEPCTL_EPENA);
 870:Drivers/STM32F7xx_HAL_Driver/Src/stm32f7xx_ll_usb.c **** 
 871:Drivers/STM32F7xx_HAL_Driver/Src/stm32f7xx_ll_usb.c ****       if (ep->type != EP_TYPE_ISOC)
 872:Drivers/STM32F7xx_HAL_Driver/Src/stm32f7xx_ll_usb.c ****       {
 873:Drivers/STM32F7xx_HAL_Driver/Src/stm32f7xx_ll_usb.c ****         /* Enable the Tx FIFO Empty Interrupt for this EP */
 874:Drivers/STM32F7xx_HAL_Driver/Src/stm32f7xx_ll_usb.c ****         if (ep->xfer_len > 0U)
 875:Drivers/STM32F7xx_HAL_Driver/Src/stm32f7xx_ll_usb.c ****         {
 876:Drivers/STM32F7xx_HAL_Driver/Src/stm32f7xx_ll_usb.c ****           USBx_DEVICE->DIEPEMPMSK |= 1UL << (ep->num & EP_ADDR_MSK);
 877:Drivers/STM32F7xx_HAL_Driver/Src/stm32f7xx_ll_usb.c ****         }
 878:Drivers/STM32F7xx_HAL_Driver/Src/stm32f7xx_ll_usb.c ****       }
 879:Drivers/STM32F7xx_HAL_Driver/Src/stm32f7xx_ll_usb.c ****       else
 880:Drivers/STM32F7xx_HAL_Driver/Src/stm32f7xx_ll_usb.c ****       {
 881:Drivers/STM32F7xx_HAL_Driver/Src/stm32f7xx_ll_usb.c ****         if ((USBx_DEVICE->DSTS & (1U << 8)) == 0U)
 882:Drivers/STM32F7xx_HAL_Driver/Src/stm32f7xx_ll_usb.c ****         {
 883:Drivers/STM32F7xx_HAL_Driver/Src/stm32f7xx_ll_usb.c ****           USBx_INEP(epnum)->DIEPCTL |= USB_OTG_DIEPCTL_SODDFRM;
 884:Drivers/STM32F7xx_HAL_Driver/Src/stm32f7xx_ll_usb.c ****         }
 885:Drivers/STM32F7xx_HAL_Driver/Src/stm32f7xx_ll_usb.c ****         else
ARM GAS  C:\Users\benny\AppData\Local\Temp\ccHko7Bj.s 			page 17


 886:Drivers/STM32F7xx_HAL_Driver/Src/stm32f7xx_ll_usb.c ****         {
 887:Drivers/STM32F7xx_HAL_Driver/Src/stm32f7xx_ll_usb.c ****           USBx_INEP(epnum)->DIEPCTL |= USB_OTG_DIEPCTL_SD0PID_SEVNFRM;
 888:Drivers/STM32F7xx_HAL_Driver/Src/stm32f7xx_ll_usb.c ****         }
 889:Drivers/STM32F7xx_HAL_Driver/Src/stm32f7xx_ll_usb.c **** 
 890:Drivers/STM32F7xx_HAL_Driver/Src/stm32f7xx_ll_usb.c ****         (void)USB_WritePacket(USBx, ep->xfer_buff, ep->num, (uint16_t)ep->xfer_len, dma);
 891:Drivers/STM32F7xx_HAL_Driver/Src/stm32f7xx_ll_usb.c ****       }
 892:Drivers/STM32F7xx_HAL_Driver/Src/stm32f7xx_ll_usb.c ****     }
 893:Drivers/STM32F7xx_HAL_Driver/Src/stm32f7xx_ll_usb.c ****   }
 894:Drivers/STM32F7xx_HAL_Driver/Src/stm32f7xx_ll_usb.c ****   else /* OUT endpoint */
 895:Drivers/STM32F7xx_HAL_Driver/Src/stm32f7xx_ll_usb.c ****   {
 896:Drivers/STM32F7xx_HAL_Driver/Src/stm32f7xx_ll_usb.c ****     /* Program the transfer size and packet count as follows:
 897:Drivers/STM32F7xx_HAL_Driver/Src/stm32f7xx_ll_usb.c ****     * pktcnt = N
 898:Drivers/STM32F7xx_HAL_Driver/Src/stm32f7xx_ll_usb.c ****     * xfersize = N * maxpacket
 899:Drivers/STM32F7xx_HAL_Driver/Src/stm32f7xx_ll_usb.c ****     */
 900:Drivers/STM32F7xx_HAL_Driver/Src/stm32f7xx_ll_usb.c ****     USBx_OUTEP(epnum)->DOEPTSIZ &= ~(USB_OTG_DOEPTSIZ_XFRSIZ);
 901:Drivers/STM32F7xx_HAL_Driver/Src/stm32f7xx_ll_usb.c ****     USBx_OUTEP(epnum)->DOEPTSIZ &= ~(USB_OTG_DOEPTSIZ_PKTCNT);
 902:Drivers/STM32F7xx_HAL_Driver/Src/stm32f7xx_ll_usb.c **** 
 903:Drivers/STM32F7xx_HAL_Driver/Src/stm32f7xx_ll_usb.c ****     if (epnum == 0U)
 904:Drivers/STM32F7xx_HAL_Driver/Src/stm32f7xx_ll_usb.c ****     {
 905:Drivers/STM32F7xx_HAL_Driver/Src/stm32f7xx_ll_usb.c ****       if (ep->xfer_len > 0U)
 906:Drivers/STM32F7xx_HAL_Driver/Src/stm32f7xx_ll_usb.c ****       {
 907:Drivers/STM32F7xx_HAL_Driver/Src/stm32f7xx_ll_usb.c ****         ep->xfer_len = ep->maxpacket;
 908:Drivers/STM32F7xx_HAL_Driver/Src/stm32f7xx_ll_usb.c ****       }
 909:Drivers/STM32F7xx_HAL_Driver/Src/stm32f7xx_ll_usb.c **** 
 910:Drivers/STM32F7xx_HAL_Driver/Src/stm32f7xx_ll_usb.c ****       /* Store transfer size, for EP0 this is equal to endpoint max packet size */
 911:Drivers/STM32F7xx_HAL_Driver/Src/stm32f7xx_ll_usb.c ****       ep->xfer_size = ep->maxpacket;
 912:Drivers/STM32F7xx_HAL_Driver/Src/stm32f7xx_ll_usb.c **** 
 913:Drivers/STM32F7xx_HAL_Driver/Src/stm32f7xx_ll_usb.c ****       USBx_OUTEP(epnum)->DOEPTSIZ |= (USB_OTG_DOEPTSIZ_XFRSIZ & ep->xfer_size);
 914:Drivers/STM32F7xx_HAL_Driver/Src/stm32f7xx_ll_usb.c ****       USBx_OUTEP(epnum)->DOEPTSIZ |= (USB_OTG_DOEPTSIZ_PKTCNT & (1U << 19));
 915:Drivers/STM32F7xx_HAL_Driver/Src/stm32f7xx_ll_usb.c ****     }
 916:Drivers/STM32F7xx_HAL_Driver/Src/stm32f7xx_ll_usb.c ****     else
 917:Drivers/STM32F7xx_HAL_Driver/Src/stm32f7xx_ll_usb.c ****     {
 918:Drivers/STM32F7xx_HAL_Driver/Src/stm32f7xx_ll_usb.c ****       if (ep->xfer_len == 0U)
 919:Drivers/STM32F7xx_HAL_Driver/Src/stm32f7xx_ll_usb.c ****       {
 920:Drivers/STM32F7xx_HAL_Driver/Src/stm32f7xx_ll_usb.c ****         USBx_OUTEP(epnum)->DOEPTSIZ |= (USB_OTG_DOEPTSIZ_XFRSIZ & ep->maxpacket);
 921:Drivers/STM32F7xx_HAL_Driver/Src/stm32f7xx_ll_usb.c ****         USBx_OUTEP(epnum)->DOEPTSIZ |= (USB_OTG_DOEPTSIZ_PKTCNT & (1U << 19));
 922:Drivers/STM32F7xx_HAL_Driver/Src/stm32f7xx_ll_usb.c ****       }
 923:Drivers/STM32F7xx_HAL_Driver/Src/stm32f7xx_ll_usb.c ****       else
 924:Drivers/STM32F7xx_HAL_Driver/Src/stm32f7xx_ll_usb.c ****       {
 925:Drivers/STM32F7xx_HAL_Driver/Src/stm32f7xx_ll_usb.c ****         pktcnt = (uint16_t)((ep->xfer_len + ep->maxpacket - 1U) / ep->maxpacket);
 926:Drivers/STM32F7xx_HAL_Driver/Src/stm32f7xx_ll_usb.c ****         ep->xfer_size = ep->maxpacket * pktcnt;
 927:Drivers/STM32F7xx_HAL_Driver/Src/stm32f7xx_ll_usb.c **** 
 928:Drivers/STM32F7xx_HAL_Driver/Src/stm32f7xx_ll_usb.c ****         USBx_OUTEP(epnum)->DOEPTSIZ |= USB_OTG_DOEPTSIZ_PKTCNT & ((uint32_t)pktcnt << 19);
 929:Drivers/STM32F7xx_HAL_Driver/Src/stm32f7xx_ll_usb.c ****         USBx_OUTEP(epnum)->DOEPTSIZ |= USB_OTG_DOEPTSIZ_XFRSIZ & ep->xfer_size;
 930:Drivers/STM32F7xx_HAL_Driver/Src/stm32f7xx_ll_usb.c ****       }
 931:Drivers/STM32F7xx_HAL_Driver/Src/stm32f7xx_ll_usb.c ****     }
 932:Drivers/STM32F7xx_HAL_Driver/Src/stm32f7xx_ll_usb.c **** 
 933:Drivers/STM32F7xx_HAL_Driver/Src/stm32f7xx_ll_usb.c ****     if (dma == 1U)
 934:Drivers/STM32F7xx_HAL_Driver/Src/stm32f7xx_ll_usb.c ****     {
 935:Drivers/STM32F7xx_HAL_Driver/Src/stm32f7xx_ll_usb.c ****       if ((uint32_t)ep->xfer_buff != 0U)
 936:Drivers/STM32F7xx_HAL_Driver/Src/stm32f7xx_ll_usb.c ****       {
 937:Drivers/STM32F7xx_HAL_Driver/Src/stm32f7xx_ll_usb.c ****         USBx_OUTEP(epnum)->DOEPDMA = (uint32_t)(ep->xfer_buff);
 938:Drivers/STM32F7xx_HAL_Driver/Src/stm32f7xx_ll_usb.c ****       }
 939:Drivers/STM32F7xx_HAL_Driver/Src/stm32f7xx_ll_usb.c ****     }
 940:Drivers/STM32F7xx_HAL_Driver/Src/stm32f7xx_ll_usb.c **** 
 941:Drivers/STM32F7xx_HAL_Driver/Src/stm32f7xx_ll_usb.c ****     if (ep->type == EP_TYPE_ISOC)
 942:Drivers/STM32F7xx_HAL_Driver/Src/stm32f7xx_ll_usb.c ****     {
ARM GAS  C:\Users\benny\AppData\Local\Temp\ccHko7Bj.s 			page 18


 943:Drivers/STM32F7xx_HAL_Driver/Src/stm32f7xx_ll_usb.c ****       if ((USBx_DEVICE->DSTS & (1U << 8)) == 0U)
 944:Drivers/STM32F7xx_HAL_Driver/Src/stm32f7xx_ll_usb.c ****       {
 945:Drivers/STM32F7xx_HAL_Driver/Src/stm32f7xx_ll_usb.c ****         USBx_OUTEP(epnum)->DOEPCTL |= USB_OTG_DOEPCTL_SODDFRM;
 946:Drivers/STM32F7xx_HAL_Driver/Src/stm32f7xx_ll_usb.c ****       }
 947:Drivers/STM32F7xx_HAL_Driver/Src/stm32f7xx_ll_usb.c ****       else
 948:Drivers/STM32F7xx_HAL_Driver/Src/stm32f7xx_ll_usb.c ****       {
 949:Drivers/STM32F7xx_HAL_Driver/Src/stm32f7xx_ll_usb.c ****         USBx_OUTEP(epnum)->DOEPCTL |= USB_OTG_DOEPCTL_SD0PID_SEVNFRM;
 950:Drivers/STM32F7xx_HAL_Driver/Src/stm32f7xx_ll_usb.c ****       }
 951:Drivers/STM32F7xx_HAL_Driver/Src/stm32f7xx_ll_usb.c ****     }
 952:Drivers/STM32F7xx_HAL_Driver/Src/stm32f7xx_ll_usb.c ****     /* EP enable */
 953:Drivers/STM32F7xx_HAL_Driver/Src/stm32f7xx_ll_usb.c ****     USBx_OUTEP(epnum)->DOEPCTL |= (USB_OTG_DOEPCTL_CNAK | USB_OTG_DOEPCTL_EPENA);
 954:Drivers/STM32F7xx_HAL_Driver/Src/stm32f7xx_ll_usb.c ****   }
 955:Drivers/STM32F7xx_HAL_Driver/Src/stm32f7xx_ll_usb.c **** 
 956:Drivers/STM32F7xx_HAL_Driver/Src/stm32f7xx_ll_usb.c ****   return HAL_OK;
 957:Drivers/STM32F7xx_HAL_Driver/Src/stm32f7xx_ll_usb.c **** }
 958:Drivers/STM32F7xx_HAL_Driver/Src/stm32f7xx_ll_usb.c **** 
 959:Drivers/STM32F7xx_HAL_Driver/Src/stm32f7xx_ll_usb.c **** 
 960:Drivers/STM32F7xx_HAL_Driver/Src/stm32f7xx_ll_usb.c **** /**
 961:Drivers/STM32F7xx_HAL_Driver/Src/stm32f7xx_ll_usb.c ****    * @brief  USB_EPStoptXfer  Stop transfer on an EP
 962:Drivers/STM32F7xx_HAL_Driver/Src/stm32f7xx_ll_usb.c ****    * @param  USBx  usb device instance
 963:Drivers/STM32F7xx_HAL_Driver/Src/stm32f7xx_ll_usb.c ****    * @param  ep pointer to endpoint structure
 964:Drivers/STM32F7xx_HAL_Driver/Src/stm32f7xx_ll_usb.c ****    * @retval HAL status
 965:Drivers/STM32F7xx_HAL_Driver/Src/stm32f7xx_ll_usb.c ****    */
 966:Drivers/STM32F7xx_HAL_Driver/Src/stm32f7xx_ll_usb.c **** HAL_StatusTypeDef USB_EPStopXfer(const USB_OTG_GlobalTypeDef *USBx, USB_OTG_EPTypeDef *ep)
 967:Drivers/STM32F7xx_HAL_Driver/Src/stm32f7xx_ll_usb.c **** {
 968:Drivers/STM32F7xx_HAL_Driver/Src/stm32f7xx_ll_usb.c ****   __IO uint32_t count = 0U;
 969:Drivers/STM32F7xx_HAL_Driver/Src/stm32f7xx_ll_usb.c ****   HAL_StatusTypeDef ret = HAL_OK;
 970:Drivers/STM32F7xx_HAL_Driver/Src/stm32f7xx_ll_usb.c ****   uint32_t USBx_BASE = (uint32_t)USBx;
 971:Drivers/STM32F7xx_HAL_Driver/Src/stm32f7xx_ll_usb.c **** 
 972:Drivers/STM32F7xx_HAL_Driver/Src/stm32f7xx_ll_usb.c ****   /* IN endpoint */
 973:Drivers/STM32F7xx_HAL_Driver/Src/stm32f7xx_ll_usb.c ****   if (ep->is_in == 1U)
 974:Drivers/STM32F7xx_HAL_Driver/Src/stm32f7xx_ll_usb.c ****   {
 975:Drivers/STM32F7xx_HAL_Driver/Src/stm32f7xx_ll_usb.c ****     /* EP enable, IN data in FIFO */
 976:Drivers/STM32F7xx_HAL_Driver/Src/stm32f7xx_ll_usb.c ****     if (((USBx_INEP(ep->num)->DIEPCTL) & USB_OTG_DIEPCTL_EPENA) == USB_OTG_DIEPCTL_EPENA)
 977:Drivers/STM32F7xx_HAL_Driver/Src/stm32f7xx_ll_usb.c ****     {
 978:Drivers/STM32F7xx_HAL_Driver/Src/stm32f7xx_ll_usb.c ****       USBx_INEP(ep->num)->DIEPCTL |= (USB_OTG_DIEPCTL_SNAK);
 979:Drivers/STM32F7xx_HAL_Driver/Src/stm32f7xx_ll_usb.c ****       USBx_INEP(ep->num)->DIEPCTL |= (USB_OTG_DIEPCTL_EPDIS);
 980:Drivers/STM32F7xx_HAL_Driver/Src/stm32f7xx_ll_usb.c **** 
 981:Drivers/STM32F7xx_HAL_Driver/Src/stm32f7xx_ll_usb.c ****       do
 982:Drivers/STM32F7xx_HAL_Driver/Src/stm32f7xx_ll_usb.c ****       {
 983:Drivers/STM32F7xx_HAL_Driver/Src/stm32f7xx_ll_usb.c ****         count++;
 984:Drivers/STM32F7xx_HAL_Driver/Src/stm32f7xx_ll_usb.c **** 
 985:Drivers/STM32F7xx_HAL_Driver/Src/stm32f7xx_ll_usb.c ****         if (count > 10000U)
 986:Drivers/STM32F7xx_HAL_Driver/Src/stm32f7xx_ll_usb.c ****         {
 987:Drivers/STM32F7xx_HAL_Driver/Src/stm32f7xx_ll_usb.c ****           ret = HAL_ERROR;
 988:Drivers/STM32F7xx_HAL_Driver/Src/stm32f7xx_ll_usb.c ****           break;
 989:Drivers/STM32F7xx_HAL_Driver/Src/stm32f7xx_ll_usb.c ****         }
 990:Drivers/STM32F7xx_HAL_Driver/Src/stm32f7xx_ll_usb.c ****       } while (((USBx_INEP(ep->num)->DIEPCTL) & USB_OTG_DIEPCTL_EPENA) ==  USB_OTG_DIEPCTL_EPENA);
 991:Drivers/STM32F7xx_HAL_Driver/Src/stm32f7xx_ll_usb.c ****     }
 992:Drivers/STM32F7xx_HAL_Driver/Src/stm32f7xx_ll_usb.c ****   }
 993:Drivers/STM32F7xx_HAL_Driver/Src/stm32f7xx_ll_usb.c ****   else /* OUT endpoint */
 994:Drivers/STM32F7xx_HAL_Driver/Src/stm32f7xx_ll_usb.c ****   {
 995:Drivers/STM32F7xx_HAL_Driver/Src/stm32f7xx_ll_usb.c ****     if (((USBx_OUTEP(ep->num)->DOEPCTL) & USB_OTG_DOEPCTL_EPENA) == USB_OTG_DOEPCTL_EPENA)
 996:Drivers/STM32F7xx_HAL_Driver/Src/stm32f7xx_ll_usb.c ****     {
 997:Drivers/STM32F7xx_HAL_Driver/Src/stm32f7xx_ll_usb.c ****       USBx_OUTEP(ep->num)->DOEPCTL |= (USB_OTG_DOEPCTL_SNAK);
 998:Drivers/STM32F7xx_HAL_Driver/Src/stm32f7xx_ll_usb.c ****       USBx_OUTEP(ep->num)->DOEPCTL |= (USB_OTG_DOEPCTL_EPDIS);
 999:Drivers/STM32F7xx_HAL_Driver/Src/stm32f7xx_ll_usb.c **** 
ARM GAS  C:\Users\benny\AppData\Local\Temp\ccHko7Bj.s 			page 19


1000:Drivers/STM32F7xx_HAL_Driver/Src/stm32f7xx_ll_usb.c ****       do
1001:Drivers/STM32F7xx_HAL_Driver/Src/stm32f7xx_ll_usb.c ****       {
1002:Drivers/STM32F7xx_HAL_Driver/Src/stm32f7xx_ll_usb.c ****         count++;
1003:Drivers/STM32F7xx_HAL_Driver/Src/stm32f7xx_ll_usb.c **** 
1004:Drivers/STM32F7xx_HAL_Driver/Src/stm32f7xx_ll_usb.c ****         if (count > 10000U)
1005:Drivers/STM32F7xx_HAL_Driver/Src/stm32f7xx_ll_usb.c ****         {
1006:Drivers/STM32F7xx_HAL_Driver/Src/stm32f7xx_ll_usb.c ****           ret = HAL_ERROR;
1007:Drivers/STM32F7xx_HAL_Driver/Src/stm32f7xx_ll_usb.c ****           break;
1008:Drivers/STM32F7xx_HAL_Driver/Src/stm32f7xx_ll_usb.c ****         }
1009:Drivers/STM32F7xx_HAL_Driver/Src/stm32f7xx_ll_usb.c ****       } while (((USBx_OUTEP(ep->num)->DOEPCTL) & USB_OTG_DOEPCTL_EPENA) ==  USB_OTG_DOEPCTL_EPENA);
1010:Drivers/STM32F7xx_HAL_Driver/Src/stm32f7xx_ll_usb.c ****     }
1011:Drivers/STM32F7xx_HAL_Driver/Src/stm32f7xx_ll_usb.c ****   }
1012:Drivers/STM32F7xx_HAL_Driver/Src/stm32f7xx_ll_usb.c **** 
1013:Drivers/STM32F7xx_HAL_Driver/Src/stm32f7xx_ll_usb.c ****   return ret;
1014:Drivers/STM32F7xx_HAL_Driver/Src/stm32f7xx_ll_usb.c **** }
1015:Drivers/STM32F7xx_HAL_Driver/Src/stm32f7xx_ll_usb.c **** 
1016:Drivers/STM32F7xx_HAL_Driver/Src/stm32f7xx_ll_usb.c **** 
1017:Drivers/STM32F7xx_HAL_Driver/Src/stm32f7xx_ll_usb.c **** /**
1018:Drivers/STM32F7xx_HAL_Driver/Src/stm32f7xx_ll_usb.c ****   * @brief  USB_WritePacket : Writes a packet into the Tx FIFO associated
1019:Drivers/STM32F7xx_HAL_Driver/Src/stm32f7xx_ll_usb.c ****   *         with the EP/channel
1020:Drivers/STM32F7xx_HAL_Driver/Src/stm32f7xx_ll_usb.c ****   * @param  USBx  Selected device
1021:Drivers/STM32F7xx_HAL_Driver/Src/stm32f7xx_ll_usb.c ****   * @param  src   pointer to source buffer
1022:Drivers/STM32F7xx_HAL_Driver/Src/stm32f7xx_ll_usb.c ****   * @param  ch_ep_num  endpoint or host channel number
1023:Drivers/STM32F7xx_HAL_Driver/Src/stm32f7xx_ll_usb.c ****   * @param  len  Number of bytes to write
1024:Drivers/STM32F7xx_HAL_Driver/Src/stm32f7xx_ll_usb.c ****   * @param  dma USB dma enabled or disabled
1025:Drivers/STM32F7xx_HAL_Driver/Src/stm32f7xx_ll_usb.c ****   *          This parameter can be one of these values:
1026:Drivers/STM32F7xx_HAL_Driver/Src/stm32f7xx_ll_usb.c ****   *           0 : DMA feature not used
1027:Drivers/STM32F7xx_HAL_Driver/Src/stm32f7xx_ll_usb.c ****   *           1 : DMA feature used
1028:Drivers/STM32F7xx_HAL_Driver/Src/stm32f7xx_ll_usb.c ****   * @retval HAL status
1029:Drivers/STM32F7xx_HAL_Driver/Src/stm32f7xx_ll_usb.c ****   */
1030:Drivers/STM32F7xx_HAL_Driver/Src/stm32f7xx_ll_usb.c **** HAL_StatusTypeDef USB_WritePacket(const USB_OTG_GlobalTypeDef *USBx, uint8_t *src,
1031:Drivers/STM32F7xx_HAL_Driver/Src/stm32f7xx_ll_usb.c ****                                   uint8_t ch_ep_num, uint16_t len, uint8_t dma)
1032:Drivers/STM32F7xx_HAL_Driver/Src/stm32f7xx_ll_usb.c **** {
1033:Drivers/STM32F7xx_HAL_Driver/Src/stm32f7xx_ll_usb.c ****   uint32_t USBx_BASE = (uint32_t)USBx;
1034:Drivers/STM32F7xx_HAL_Driver/Src/stm32f7xx_ll_usb.c ****   uint8_t *pSrc = src;
1035:Drivers/STM32F7xx_HAL_Driver/Src/stm32f7xx_ll_usb.c ****   uint32_t count32b;
1036:Drivers/STM32F7xx_HAL_Driver/Src/stm32f7xx_ll_usb.c ****   uint32_t i;
1037:Drivers/STM32F7xx_HAL_Driver/Src/stm32f7xx_ll_usb.c **** 
1038:Drivers/STM32F7xx_HAL_Driver/Src/stm32f7xx_ll_usb.c ****   if (dma == 0U)
1039:Drivers/STM32F7xx_HAL_Driver/Src/stm32f7xx_ll_usb.c ****   {
1040:Drivers/STM32F7xx_HAL_Driver/Src/stm32f7xx_ll_usb.c ****     count32b = ((uint32_t)len + 3U) / 4U;
1041:Drivers/STM32F7xx_HAL_Driver/Src/stm32f7xx_ll_usb.c ****     for (i = 0U; i < count32b; i++)
1042:Drivers/STM32F7xx_HAL_Driver/Src/stm32f7xx_ll_usb.c ****     {
1043:Drivers/STM32F7xx_HAL_Driver/Src/stm32f7xx_ll_usb.c ****       USBx_DFIFO((uint32_t)ch_ep_num) = __UNALIGNED_UINT32_READ(pSrc);
1044:Drivers/STM32F7xx_HAL_Driver/Src/stm32f7xx_ll_usb.c ****       pSrc++;
1045:Drivers/STM32F7xx_HAL_Driver/Src/stm32f7xx_ll_usb.c ****       pSrc++;
1046:Drivers/STM32F7xx_HAL_Driver/Src/stm32f7xx_ll_usb.c ****       pSrc++;
1047:Drivers/STM32F7xx_HAL_Driver/Src/stm32f7xx_ll_usb.c ****       pSrc++;
1048:Drivers/STM32F7xx_HAL_Driver/Src/stm32f7xx_ll_usb.c ****     }
1049:Drivers/STM32F7xx_HAL_Driver/Src/stm32f7xx_ll_usb.c ****   }
1050:Drivers/STM32F7xx_HAL_Driver/Src/stm32f7xx_ll_usb.c **** 
1051:Drivers/STM32F7xx_HAL_Driver/Src/stm32f7xx_ll_usb.c ****   return HAL_OK;
1052:Drivers/STM32F7xx_HAL_Driver/Src/stm32f7xx_ll_usb.c **** }
1053:Drivers/STM32F7xx_HAL_Driver/Src/stm32f7xx_ll_usb.c **** 
1054:Drivers/STM32F7xx_HAL_Driver/Src/stm32f7xx_ll_usb.c **** /**
1055:Drivers/STM32F7xx_HAL_Driver/Src/stm32f7xx_ll_usb.c ****   * @brief  USB_ReadPacket : read a packet from the RX FIFO
1056:Drivers/STM32F7xx_HAL_Driver/Src/stm32f7xx_ll_usb.c ****   * @param  USBx  Selected device
ARM GAS  C:\Users\benny\AppData\Local\Temp\ccHko7Bj.s 			page 20


1057:Drivers/STM32F7xx_HAL_Driver/Src/stm32f7xx_ll_usb.c ****   * @param  dest  source pointer
1058:Drivers/STM32F7xx_HAL_Driver/Src/stm32f7xx_ll_usb.c ****   * @param  len  Number of bytes to read
1059:Drivers/STM32F7xx_HAL_Driver/Src/stm32f7xx_ll_usb.c ****   * @retval pointer to destination buffer
1060:Drivers/STM32F7xx_HAL_Driver/Src/stm32f7xx_ll_usb.c ****   */
1061:Drivers/STM32F7xx_HAL_Driver/Src/stm32f7xx_ll_usb.c **** void *USB_ReadPacket(const USB_OTG_GlobalTypeDef *USBx, uint8_t *dest, uint16_t len)
1062:Drivers/STM32F7xx_HAL_Driver/Src/stm32f7xx_ll_usb.c **** {
1063:Drivers/STM32F7xx_HAL_Driver/Src/stm32f7xx_ll_usb.c ****   uint32_t USBx_BASE = (uint32_t)USBx;
1064:Drivers/STM32F7xx_HAL_Driver/Src/stm32f7xx_ll_usb.c ****   uint8_t *pDest = dest;
1065:Drivers/STM32F7xx_HAL_Driver/Src/stm32f7xx_ll_usb.c ****   uint32_t pData;
1066:Drivers/STM32F7xx_HAL_Driver/Src/stm32f7xx_ll_usb.c ****   uint32_t i;
1067:Drivers/STM32F7xx_HAL_Driver/Src/stm32f7xx_ll_usb.c ****   uint32_t count32b = (uint32_t)len >> 2U;
1068:Drivers/STM32F7xx_HAL_Driver/Src/stm32f7xx_ll_usb.c ****   uint16_t remaining_bytes = len % 4U;
1069:Drivers/STM32F7xx_HAL_Driver/Src/stm32f7xx_ll_usb.c **** 
1070:Drivers/STM32F7xx_HAL_Driver/Src/stm32f7xx_ll_usb.c ****   for (i = 0U; i < count32b; i++)
1071:Drivers/STM32F7xx_HAL_Driver/Src/stm32f7xx_ll_usb.c ****   {
1072:Drivers/STM32F7xx_HAL_Driver/Src/stm32f7xx_ll_usb.c ****     __UNALIGNED_UINT32_WRITE(pDest, USBx_DFIFO(0U));
1073:Drivers/STM32F7xx_HAL_Driver/Src/stm32f7xx_ll_usb.c ****     pDest++;
1074:Drivers/STM32F7xx_HAL_Driver/Src/stm32f7xx_ll_usb.c ****     pDest++;
1075:Drivers/STM32F7xx_HAL_Driver/Src/stm32f7xx_ll_usb.c ****     pDest++;
1076:Drivers/STM32F7xx_HAL_Driver/Src/stm32f7xx_ll_usb.c ****     pDest++;
1077:Drivers/STM32F7xx_HAL_Driver/Src/stm32f7xx_ll_usb.c ****   }
1078:Drivers/STM32F7xx_HAL_Driver/Src/stm32f7xx_ll_usb.c **** 
1079:Drivers/STM32F7xx_HAL_Driver/Src/stm32f7xx_ll_usb.c ****   /* When Number of data is not word aligned, read the remaining byte */
1080:Drivers/STM32F7xx_HAL_Driver/Src/stm32f7xx_ll_usb.c ****   if (remaining_bytes != 0U)
1081:Drivers/STM32F7xx_HAL_Driver/Src/stm32f7xx_ll_usb.c ****   {
1082:Drivers/STM32F7xx_HAL_Driver/Src/stm32f7xx_ll_usb.c ****     i = 0U;
1083:Drivers/STM32F7xx_HAL_Driver/Src/stm32f7xx_ll_usb.c ****     __UNALIGNED_UINT32_WRITE(&pData, USBx_DFIFO(0U));
1084:Drivers/STM32F7xx_HAL_Driver/Src/stm32f7xx_ll_usb.c **** 
1085:Drivers/STM32F7xx_HAL_Driver/Src/stm32f7xx_ll_usb.c ****     do
1086:Drivers/STM32F7xx_HAL_Driver/Src/stm32f7xx_ll_usb.c ****     {
1087:Drivers/STM32F7xx_HAL_Driver/Src/stm32f7xx_ll_usb.c ****       *(uint8_t *)pDest = (uint8_t)(pData >> (8U * (uint8_t)(i)));
1088:Drivers/STM32F7xx_HAL_Driver/Src/stm32f7xx_ll_usb.c ****       i++;
1089:Drivers/STM32F7xx_HAL_Driver/Src/stm32f7xx_ll_usb.c ****       pDest++;
1090:Drivers/STM32F7xx_HAL_Driver/Src/stm32f7xx_ll_usb.c ****       remaining_bytes--;
1091:Drivers/STM32F7xx_HAL_Driver/Src/stm32f7xx_ll_usb.c ****     } while (remaining_bytes != 0U);
1092:Drivers/STM32F7xx_HAL_Driver/Src/stm32f7xx_ll_usb.c ****   }
1093:Drivers/STM32F7xx_HAL_Driver/Src/stm32f7xx_ll_usb.c **** 
1094:Drivers/STM32F7xx_HAL_Driver/Src/stm32f7xx_ll_usb.c ****   return ((void *)pDest);
1095:Drivers/STM32F7xx_HAL_Driver/Src/stm32f7xx_ll_usb.c **** }
1096:Drivers/STM32F7xx_HAL_Driver/Src/stm32f7xx_ll_usb.c **** 
1097:Drivers/STM32F7xx_HAL_Driver/Src/stm32f7xx_ll_usb.c **** /**
1098:Drivers/STM32F7xx_HAL_Driver/Src/stm32f7xx_ll_usb.c ****   * @brief  USB_EPSetStall : set a stall condition over an EP
1099:Drivers/STM32F7xx_HAL_Driver/Src/stm32f7xx_ll_usb.c ****   * @param  USBx  Selected device
1100:Drivers/STM32F7xx_HAL_Driver/Src/stm32f7xx_ll_usb.c ****   * @param  ep pointer to endpoint structure
1101:Drivers/STM32F7xx_HAL_Driver/Src/stm32f7xx_ll_usb.c ****   * @retval HAL status
1102:Drivers/STM32F7xx_HAL_Driver/Src/stm32f7xx_ll_usb.c ****   */
1103:Drivers/STM32F7xx_HAL_Driver/Src/stm32f7xx_ll_usb.c **** HAL_StatusTypeDef USB_EPSetStall(const USB_OTG_GlobalTypeDef *USBx, const USB_OTG_EPTypeDef *ep)
1104:Drivers/STM32F7xx_HAL_Driver/Src/stm32f7xx_ll_usb.c **** {
1105:Drivers/STM32F7xx_HAL_Driver/Src/stm32f7xx_ll_usb.c ****   uint32_t USBx_BASE = (uint32_t)USBx;
1106:Drivers/STM32F7xx_HAL_Driver/Src/stm32f7xx_ll_usb.c ****   uint32_t epnum = (uint32_t)ep->num;
1107:Drivers/STM32F7xx_HAL_Driver/Src/stm32f7xx_ll_usb.c **** 
1108:Drivers/STM32F7xx_HAL_Driver/Src/stm32f7xx_ll_usb.c ****   if (ep->is_in == 1U)
1109:Drivers/STM32F7xx_HAL_Driver/Src/stm32f7xx_ll_usb.c ****   {
1110:Drivers/STM32F7xx_HAL_Driver/Src/stm32f7xx_ll_usb.c ****     if (((USBx_INEP(epnum)->DIEPCTL & USB_OTG_DIEPCTL_EPENA) == 0U) && (epnum != 0U))
1111:Drivers/STM32F7xx_HAL_Driver/Src/stm32f7xx_ll_usb.c ****     {
1112:Drivers/STM32F7xx_HAL_Driver/Src/stm32f7xx_ll_usb.c ****       USBx_INEP(epnum)->DIEPCTL &= ~(USB_OTG_DIEPCTL_EPDIS);
1113:Drivers/STM32F7xx_HAL_Driver/Src/stm32f7xx_ll_usb.c ****     }
ARM GAS  C:\Users\benny\AppData\Local\Temp\ccHko7Bj.s 			page 21


1114:Drivers/STM32F7xx_HAL_Driver/Src/stm32f7xx_ll_usb.c ****     USBx_INEP(epnum)->DIEPCTL |= USB_OTG_DIEPCTL_STALL;
1115:Drivers/STM32F7xx_HAL_Driver/Src/stm32f7xx_ll_usb.c ****   }
1116:Drivers/STM32F7xx_HAL_Driver/Src/stm32f7xx_ll_usb.c ****   else
1117:Drivers/STM32F7xx_HAL_Driver/Src/stm32f7xx_ll_usb.c ****   {
1118:Drivers/STM32F7xx_HAL_Driver/Src/stm32f7xx_ll_usb.c ****     if (((USBx_OUTEP(epnum)->DOEPCTL & USB_OTG_DOEPCTL_EPENA) == 0U) && (epnum != 0U))
1119:Drivers/STM32F7xx_HAL_Driver/Src/stm32f7xx_ll_usb.c ****     {
1120:Drivers/STM32F7xx_HAL_Driver/Src/stm32f7xx_ll_usb.c ****       USBx_OUTEP(epnum)->DOEPCTL &= ~(USB_OTG_DOEPCTL_EPDIS);
1121:Drivers/STM32F7xx_HAL_Driver/Src/stm32f7xx_ll_usb.c ****     }
1122:Drivers/STM32F7xx_HAL_Driver/Src/stm32f7xx_ll_usb.c ****     USBx_OUTEP(epnum)->DOEPCTL |= USB_OTG_DOEPCTL_STALL;
1123:Drivers/STM32F7xx_HAL_Driver/Src/stm32f7xx_ll_usb.c ****   }
1124:Drivers/STM32F7xx_HAL_Driver/Src/stm32f7xx_ll_usb.c **** 
1125:Drivers/STM32F7xx_HAL_Driver/Src/stm32f7xx_ll_usb.c ****   return HAL_OK;
1126:Drivers/STM32F7xx_HAL_Driver/Src/stm32f7xx_ll_usb.c **** }
1127:Drivers/STM32F7xx_HAL_Driver/Src/stm32f7xx_ll_usb.c **** 
1128:Drivers/STM32F7xx_HAL_Driver/Src/stm32f7xx_ll_usb.c **** /**
1129:Drivers/STM32F7xx_HAL_Driver/Src/stm32f7xx_ll_usb.c ****   * @brief  USB_EPClearStall : Clear a stall condition over an EP
1130:Drivers/STM32F7xx_HAL_Driver/Src/stm32f7xx_ll_usb.c ****   * @param  USBx  Selected device
1131:Drivers/STM32F7xx_HAL_Driver/Src/stm32f7xx_ll_usb.c ****   * @param  ep pointer to endpoint structure
1132:Drivers/STM32F7xx_HAL_Driver/Src/stm32f7xx_ll_usb.c ****   * @retval HAL status
1133:Drivers/STM32F7xx_HAL_Driver/Src/stm32f7xx_ll_usb.c ****   */
1134:Drivers/STM32F7xx_HAL_Driver/Src/stm32f7xx_ll_usb.c **** HAL_StatusTypeDef USB_EPClearStall(const USB_OTG_GlobalTypeDef *USBx, const USB_OTG_EPTypeDef *ep)
1135:Drivers/STM32F7xx_HAL_Driver/Src/stm32f7xx_ll_usb.c **** {
1136:Drivers/STM32F7xx_HAL_Driver/Src/stm32f7xx_ll_usb.c ****   uint32_t USBx_BASE = (uint32_t)USBx;
1137:Drivers/STM32F7xx_HAL_Driver/Src/stm32f7xx_ll_usb.c ****   uint32_t epnum = (uint32_t)ep->num;
1138:Drivers/STM32F7xx_HAL_Driver/Src/stm32f7xx_ll_usb.c **** 
1139:Drivers/STM32F7xx_HAL_Driver/Src/stm32f7xx_ll_usb.c ****   if (ep->is_in == 1U)
1140:Drivers/STM32F7xx_HAL_Driver/Src/stm32f7xx_ll_usb.c ****   {
1141:Drivers/STM32F7xx_HAL_Driver/Src/stm32f7xx_ll_usb.c ****     USBx_INEP(epnum)->DIEPCTL &= ~USB_OTG_DIEPCTL_STALL;
1142:Drivers/STM32F7xx_HAL_Driver/Src/stm32f7xx_ll_usb.c ****     if ((ep->type == EP_TYPE_INTR) || (ep->type == EP_TYPE_BULK))
1143:Drivers/STM32F7xx_HAL_Driver/Src/stm32f7xx_ll_usb.c ****     {
1144:Drivers/STM32F7xx_HAL_Driver/Src/stm32f7xx_ll_usb.c ****       USBx_INEP(epnum)->DIEPCTL |= USB_OTG_DIEPCTL_SD0PID_SEVNFRM; /* DATA0 */
1145:Drivers/STM32F7xx_HAL_Driver/Src/stm32f7xx_ll_usb.c ****     }
1146:Drivers/STM32F7xx_HAL_Driver/Src/stm32f7xx_ll_usb.c ****   }
1147:Drivers/STM32F7xx_HAL_Driver/Src/stm32f7xx_ll_usb.c ****   else
1148:Drivers/STM32F7xx_HAL_Driver/Src/stm32f7xx_ll_usb.c ****   {
1149:Drivers/STM32F7xx_HAL_Driver/Src/stm32f7xx_ll_usb.c ****     USBx_OUTEP(epnum)->DOEPCTL &= ~USB_OTG_DOEPCTL_STALL;
1150:Drivers/STM32F7xx_HAL_Driver/Src/stm32f7xx_ll_usb.c ****     if ((ep->type == EP_TYPE_INTR) || (ep->type == EP_TYPE_BULK))
1151:Drivers/STM32F7xx_HAL_Driver/Src/stm32f7xx_ll_usb.c ****     {
1152:Drivers/STM32F7xx_HAL_Driver/Src/stm32f7xx_ll_usb.c ****       USBx_OUTEP(epnum)->DOEPCTL |= USB_OTG_DOEPCTL_SD0PID_SEVNFRM; /* DATA0 */
1153:Drivers/STM32F7xx_HAL_Driver/Src/stm32f7xx_ll_usb.c ****     }
1154:Drivers/STM32F7xx_HAL_Driver/Src/stm32f7xx_ll_usb.c ****   }
1155:Drivers/STM32F7xx_HAL_Driver/Src/stm32f7xx_ll_usb.c ****   return HAL_OK;
1156:Drivers/STM32F7xx_HAL_Driver/Src/stm32f7xx_ll_usb.c **** }
1157:Drivers/STM32F7xx_HAL_Driver/Src/stm32f7xx_ll_usb.c **** 
1158:Drivers/STM32F7xx_HAL_Driver/Src/stm32f7xx_ll_usb.c **** /**
1159:Drivers/STM32F7xx_HAL_Driver/Src/stm32f7xx_ll_usb.c ****   * @brief  USB_StopDevice : Stop the usb device mode
1160:Drivers/STM32F7xx_HAL_Driver/Src/stm32f7xx_ll_usb.c ****   * @param  USBx  Selected device
1161:Drivers/STM32F7xx_HAL_Driver/Src/stm32f7xx_ll_usb.c ****   * @retval HAL status
1162:Drivers/STM32F7xx_HAL_Driver/Src/stm32f7xx_ll_usb.c ****   */
1163:Drivers/STM32F7xx_HAL_Driver/Src/stm32f7xx_ll_usb.c **** HAL_StatusTypeDef USB_StopDevice(USB_OTG_GlobalTypeDef *USBx)
1164:Drivers/STM32F7xx_HAL_Driver/Src/stm32f7xx_ll_usb.c **** {
1165:Drivers/STM32F7xx_HAL_Driver/Src/stm32f7xx_ll_usb.c ****   HAL_StatusTypeDef ret;
1166:Drivers/STM32F7xx_HAL_Driver/Src/stm32f7xx_ll_usb.c ****   uint32_t USBx_BASE = (uint32_t)USBx;
1167:Drivers/STM32F7xx_HAL_Driver/Src/stm32f7xx_ll_usb.c ****   uint32_t i;
1168:Drivers/STM32F7xx_HAL_Driver/Src/stm32f7xx_ll_usb.c **** 
1169:Drivers/STM32F7xx_HAL_Driver/Src/stm32f7xx_ll_usb.c ****   /* Clear Pending interrupt */
1170:Drivers/STM32F7xx_HAL_Driver/Src/stm32f7xx_ll_usb.c ****   for (i = 0U; i < 15U; i++)
ARM GAS  C:\Users\benny\AppData\Local\Temp\ccHko7Bj.s 			page 22


1171:Drivers/STM32F7xx_HAL_Driver/Src/stm32f7xx_ll_usb.c ****   {
1172:Drivers/STM32F7xx_HAL_Driver/Src/stm32f7xx_ll_usb.c ****     USBx_INEP(i)->DIEPINT = 0xFB7FU;
1173:Drivers/STM32F7xx_HAL_Driver/Src/stm32f7xx_ll_usb.c ****     USBx_OUTEP(i)->DOEPINT = 0xFB7FU;
1174:Drivers/STM32F7xx_HAL_Driver/Src/stm32f7xx_ll_usb.c ****   }
1175:Drivers/STM32F7xx_HAL_Driver/Src/stm32f7xx_ll_usb.c **** 
1176:Drivers/STM32F7xx_HAL_Driver/Src/stm32f7xx_ll_usb.c ****   /* Clear interrupt masks */
1177:Drivers/STM32F7xx_HAL_Driver/Src/stm32f7xx_ll_usb.c ****   USBx_DEVICE->DIEPMSK  = 0U;
1178:Drivers/STM32F7xx_HAL_Driver/Src/stm32f7xx_ll_usb.c ****   USBx_DEVICE->DOEPMSK  = 0U;
1179:Drivers/STM32F7xx_HAL_Driver/Src/stm32f7xx_ll_usb.c ****   USBx_DEVICE->DAINTMSK = 0U;
1180:Drivers/STM32F7xx_HAL_Driver/Src/stm32f7xx_ll_usb.c **** 
1181:Drivers/STM32F7xx_HAL_Driver/Src/stm32f7xx_ll_usb.c ****   /* Flush the FIFO */
1182:Drivers/STM32F7xx_HAL_Driver/Src/stm32f7xx_ll_usb.c ****   ret = USB_FlushRxFifo(USBx);
1183:Drivers/STM32F7xx_HAL_Driver/Src/stm32f7xx_ll_usb.c ****   if (ret != HAL_OK)
1184:Drivers/STM32F7xx_HAL_Driver/Src/stm32f7xx_ll_usb.c ****   {
1185:Drivers/STM32F7xx_HAL_Driver/Src/stm32f7xx_ll_usb.c ****     return ret;
1186:Drivers/STM32F7xx_HAL_Driver/Src/stm32f7xx_ll_usb.c ****   }
1187:Drivers/STM32F7xx_HAL_Driver/Src/stm32f7xx_ll_usb.c **** 
1188:Drivers/STM32F7xx_HAL_Driver/Src/stm32f7xx_ll_usb.c ****   ret = USB_FlushTxFifo(USBx,  0x10U);
1189:Drivers/STM32F7xx_HAL_Driver/Src/stm32f7xx_ll_usb.c ****   if (ret != HAL_OK)
1190:Drivers/STM32F7xx_HAL_Driver/Src/stm32f7xx_ll_usb.c ****   {
1191:Drivers/STM32F7xx_HAL_Driver/Src/stm32f7xx_ll_usb.c ****     return ret;
1192:Drivers/STM32F7xx_HAL_Driver/Src/stm32f7xx_ll_usb.c ****   }
1193:Drivers/STM32F7xx_HAL_Driver/Src/stm32f7xx_ll_usb.c **** 
1194:Drivers/STM32F7xx_HAL_Driver/Src/stm32f7xx_ll_usb.c ****   return ret;
1195:Drivers/STM32F7xx_HAL_Driver/Src/stm32f7xx_ll_usb.c **** }
1196:Drivers/STM32F7xx_HAL_Driver/Src/stm32f7xx_ll_usb.c **** 
1197:Drivers/STM32F7xx_HAL_Driver/Src/stm32f7xx_ll_usb.c **** /**
1198:Drivers/STM32F7xx_HAL_Driver/Src/stm32f7xx_ll_usb.c ****   * @brief  USB_SetDevAddress : Stop the usb device mode
1199:Drivers/STM32F7xx_HAL_Driver/Src/stm32f7xx_ll_usb.c ****   * @param  USBx  Selected device
1200:Drivers/STM32F7xx_HAL_Driver/Src/stm32f7xx_ll_usb.c ****   * @param  address  new device address to be assigned
1201:Drivers/STM32F7xx_HAL_Driver/Src/stm32f7xx_ll_usb.c ****   *          This parameter can be a value from 0 to 255
1202:Drivers/STM32F7xx_HAL_Driver/Src/stm32f7xx_ll_usb.c ****   * @retval HAL status
1203:Drivers/STM32F7xx_HAL_Driver/Src/stm32f7xx_ll_usb.c ****   */
1204:Drivers/STM32F7xx_HAL_Driver/Src/stm32f7xx_ll_usb.c **** HAL_StatusTypeDef USB_SetDevAddress(const USB_OTG_GlobalTypeDef *USBx, uint8_t address)
1205:Drivers/STM32F7xx_HAL_Driver/Src/stm32f7xx_ll_usb.c **** {
1206:Drivers/STM32F7xx_HAL_Driver/Src/stm32f7xx_ll_usb.c ****   uint32_t USBx_BASE = (uint32_t)USBx;
1207:Drivers/STM32F7xx_HAL_Driver/Src/stm32f7xx_ll_usb.c **** 
1208:Drivers/STM32F7xx_HAL_Driver/Src/stm32f7xx_ll_usb.c ****   USBx_DEVICE->DCFG &= ~(USB_OTG_DCFG_DAD);
1209:Drivers/STM32F7xx_HAL_Driver/Src/stm32f7xx_ll_usb.c ****   USBx_DEVICE->DCFG |= ((uint32_t)address << 4) & USB_OTG_DCFG_DAD;
1210:Drivers/STM32F7xx_HAL_Driver/Src/stm32f7xx_ll_usb.c **** 
1211:Drivers/STM32F7xx_HAL_Driver/Src/stm32f7xx_ll_usb.c ****   return HAL_OK;
1212:Drivers/STM32F7xx_HAL_Driver/Src/stm32f7xx_ll_usb.c **** }
1213:Drivers/STM32F7xx_HAL_Driver/Src/stm32f7xx_ll_usb.c **** 
1214:Drivers/STM32F7xx_HAL_Driver/Src/stm32f7xx_ll_usb.c **** /**
1215:Drivers/STM32F7xx_HAL_Driver/Src/stm32f7xx_ll_usb.c ****   * @brief  USB_DevConnect : Connect the USB device by enabling Rpu
1216:Drivers/STM32F7xx_HAL_Driver/Src/stm32f7xx_ll_usb.c ****   * @param  USBx  Selected device
1217:Drivers/STM32F7xx_HAL_Driver/Src/stm32f7xx_ll_usb.c ****   * @retval HAL status
1218:Drivers/STM32F7xx_HAL_Driver/Src/stm32f7xx_ll_usb.c ****   */
1219:Drivers/STM32F7xx_HAL_Driver/Src/stm32f7xx_ll_usb.c **** HAL_StatusTypeDef USB_DevConnect(const USB_OTG_GlobalTypeDef *USBx)
1220:Drivers/STM32F7xx_HAL_Driver/Src/stm32f7xx_ll_usb.c **** {
1221:Drivers/STM32F7xx_HAL_Driver/Src/stm32f7xx_ll_usb.c ****   uint32_t USBx_BASE = (uint32_t)USBx;
1222:Drivers/STM32F7xx_HAL_Driver/Src/stm32f7xx_ll_usb.c **** 
1223:Drivers/STM32F7xx_HAL_Driver/Src/stm32f7xx_ll_usb.c ****   /* In case phy is stopped, ensure to ungate and restore the phy CLK */
1224:Drivers/STM32F7xx_HAL_Driver/Src/stm32f7xx_ll_usb.c ****   USBx_PCGCCTL &= ~(USB_OTG_PCGCCTL_STOPCLK | USB_OTG_PCGCCTL_GATECLK);
1225:Drivers/STM32F7xx_HAL_Driver/Src/stm32f7xx_ll_usb.c **** 
1226:Drivers/STM32F7xx_HAL_Driver/Src/stm32f7xx_ll_usb.c ****   USBx_DEVICE->DCTL &= ~USB_OTG_DCTL_SDIS;
1227:Drivers/STM32F7xx_HAL_Driver/Src/stm32f7xx_ll_usb.c **** 
ARM GAS  C:\Users\benny\AppData\Local\Temp\ccHko7Bj.s 			page 23


1228:Drivers/STM32F7xx_HAL_Driver/Src/stm32f7xx_ll_usb.c ****   return HAL_OK;
1229:Drivers/STM32F7xx_HAL_Driver/Src/stm32f7xx_ll_usb.c **** }
1230:Drivers/STM32F7xx_HAL_Driver/Src/stm32f7xx_ll_usb.c **** 
1231:Drivers/STM32F7xx_HAL_Driver/Src/stm32f7xx_ll_usb.c **** /**
1232:Drivers/STM32F7xx_HAL_Driver/Src/stm32f7xx_ll_usb.c ****   * @brief  USB_DevDisconnect : Disconnect the USB device by disabling Rpu
1233:Drivers/STM32F7xx_HAL_Driver/Src/stm32f7xx_ll_usb.c ****   * @param  USBx  Selected device
1234:Drivers/STM32F7xx_HAL_Driver/Src/stm32f7xx_ll_usb.c ****   * @retval HAL status
1235:Drivers/STM32F7xx_HAL_Driver/Src/stm32f7xx_ll_usb.c ****   */
1236:Drivers/STM32F7xx_HAL_Driver/Src/stm32f7xx_ll_usb.c **** HAL_StatusTypeDef USB_DevDisconnect(const USB_OTG_GlobalTypeDef *USBx)
1237:Drivers/STM32F7xx_HAL_Driver/Src/stm32f7xx_ll_usb.c **** {
1238:Drivers/STM32F7xx_HAL_Driver/Src/stm32f7xx_ll_usb.c ****   uint32_t USBx_BASE = (uint32_t)USBx;
1239:Drivers/STM32F7xx_HAL_Driver/Src/stm32f7xx_ll_usb.c **** 
1240:Drivers/STM32F7xx_HAL_Driver/Src/stm32f7xx_ll_usb.c ****   /* In case phy is stopped, ensure to ungate and restore the phy CLK */
1241:Drivers/STM32F7xx_HAL_Driver/Src/stm32f7xx_ll_usb.c ****   USBx_PCGCCTL &= ~(USB_OTG_PCGCCTL_STOPCLK | USB_OTG_PCGCCTL_GATECLK);
1242:Drivers/STM32F7xx_HAL_Driver/Src/stm32f7xx_ll_usb.c **** 
1243:Drivers/STM32F7xx_HAL_Driver/Src/stm32f7xx_ll_usb.c ****   USBx_DEVICE->DCTL |= USB_OTG_DCTL_SDIS;
1244:Drivers/STM32F7xx_HAL_Driver/Src/stm32f7xx_ll_usb.c **** 
1245:Drivers/STM32F7xx_HAL_Driver/Src/stm32f7xx_ll_usb.c ****   return HAL_OK;
1246:Drivers/STM32F7xx_HAL_Driver/Src/stm32f7xx_ll_usb.c **** }
1247:Drivers/STM32F7xx_HAL_Driver/Src/stm32f7xx_ll_usb.c **** 
1248:Drivers/STM32F7xx_HAL_Driver/Src/stm32f7xx_ll_usb.c **** /**
1249:Drivers/STM32F7xx_HAL_Driver/Src/stm32f7xx_ll_usb.c ****   * @brief  USB_ReadInterrupts: return the global USB interrupt status
1250:Drivers/STM32F7xx_HAL_Driver/Src/stm32f7xx_ll_usb.c ****   * @param  USBx  Selected device
1251:Drivers/STM32F7xx_HAL_Driver/Src/stm32f7xx_ll_usb.c ****   * @retval USB Global Interrupt status
1252:Drivers/STM32F7xx_HAL_Driver/Src/stm32f7xx_ll_usb.c ****   */
1253:Drivers/STM32F7xx_HAL_Driver/Src/stm32f7xx_ll_usb.c **** uint32_t USB_ReadInterrupts(USB_OTG_GlobalTypeDef const *USBx)
1254:Drivers/STM32F7xx_HAL_Driver/Src/stm32f7xx_ll_usb.c **** {
1255:Drivers/STM32F7xx_HAL_Driver/Src/stm32f7xx_ll_usb.c ****   uint32_t tmpreg;
1256:Drivers/STM32F7xx_HAL_Driver/Src/stm32f7xx_ll_usb.c **** 
1257:Drivers/STM32F7xx_HAL_Driver/Src/stm32f7xx_ll_usb.c ****   tmpreg = USBx->GINTSTS;
1258:Drivers/STM32F7xx_HAL_Driver/Src/stm32f7xx_ll_usb.c ****   tmpreg &= USBx->GINTMSK;
1259:Drivers/STM32F7xx_HAL_Driver/Src/stm32f7xx_ll_usb.c **** 
1260:Drivers/STM32F7xx_HAL_Driver/Src/stm32f7xx_ll_usb.c ****   return tmpreg;
1261:Drivers/STM32F7xx_HAL_Driver/Src/stm32f7xx_ll_usb.c **** }
1262:Drivers/STM32F7xx_HAL_Driver/Src/stm32f7xx_ll_usb.c **** 
1263:Drivers/STM32F7xx_HAL_Driver/Src/stm32f7xx_ll_usb.c **** /**
1264:Drivers/STM32F7xx_HAL_Driver/Src/stm32f7xx_ll_usb.c ****   * @brief  USB_ReadChInterrupts: return USB channel interrupt status
1265:Drivers/STM32F7xx_HAL_Driver/Src/stm32f7xx_ll_usb.c ****   * @param  USBx  Selected device
1266:Drivers/STM32F7xx_HAL_Driver/Src/stm32f7xx_ll_usb.c ****   * @param  chnum Channel number
1267:Drivers/STM32F7xx_HAL_Driver/Src/stm32f7xx_ll_usb.c ****   * @retval USB Channel Interrupt status
1268:Drivers/STM32F7xx_HAL_Driver/Src/stm32f7xx_ll_usb.c ****   */
1269:Drivers/STM32F7xx_HAL_Driver/Src/stm32f7xx_ll_usb.c **** uint32_t USB_ReadChInterrupts(const USB_OTG_GlobalTypeDef *USBx, uint8_t chnum)
1270:Drivers/STM32F7xx_HAL_Driver/Src/stm32f7xx_ll_usb.c **** {
1271:Drivers/STM32F7xx_HAL_Driver/Src/stm32f7xx_ll_usb.c ****   uint32_t USBx_BASE = (uint32_t)USBx;
1272:Drivers/STM32F7xx_HAL_Driver/Src/stm32f7xx_ll_usb.c ****   uint32_t tmpreg;
1273:Drivers/STM32F7xx_HAL_Driver/Src/stm32f7xx_ll_usb.c **** 
1274:Drivers/STM32F7xx_HAL_Driver/Src/stm32f7xx_ll_usb.c ****   tmpreg = USBx_HC(chnum)->HCINT;
1275:Drivers/STM32F7xx_HAL_Driver/Src/stm32f7xx_ll_usb.c ****   tmpreg &= USBx_HC(chnum)->HCINTMSK;
1276:Drivers/STM32F7xx_HAL_Driver/Src/stm32f7xx_ll_usb.c **** 
1277:Drivers/STM32F7xx_HAL_Driver/Src/stm32f7xx_ll_usb.c ****   return tmpreg;
1278:Drivers/STM32F7xx_HAL_Driver/Src/stm32f7xx_ll_usb.c **** }
1279:Drivers/STM32F7xx_HAL_Driver/Src/stm32f7xx_ll_usb.c **** 
1280:Drivers/STM32F7xx_HAL_Driver/Src/stm32f7xx_ll_usb.c **** /**
1281:Drivers/STM32F7xx_HAL_Driver/Src/stm32f7xx_ll_usb.c ****   * @brief  USB_ReadDevAllOutEpInterrupt: return the USB device OUT endpoints interrupt status
1282:Drivers/STM32F7xx_HAL_Driver/Src/stm32f7xx_ll_usb.c ****   * @param  USBx  Selected device
1283:Drivers/STM32F7xx_HAL_Driver/Src/stm32f7xx_ll_usb.c ****   * @retval USB Device OUT EP interrupt status
1284:Drivers/STM32F7xx_HAL_Driver/Src/stm32f7xx_ll_usb.c ****   */
ARM GAS  C:\Users\benny\AppData\Local\Temp\ccHko7Bj.s 			page 24


1285:Drivers/STM32F7xx_HAL_Driver/Src/stm32f7xx_ll_usb.c **** uint32_t USB_ReadDevAllOutEpInterrupt(const USB_OTG_GlobalTypeDef *USBx)
1286:Drivers/STM32F7xx_HAL_Driver/Src/stm32f7xx_ll_usb.c **** {
1287:Drivers/STM32F7xx_HAL_Driver/Src/stm32f7xx_ll_usb.c ****   uint32_t USBx_BASE = (uint32_t)USBx;
1288:Drivers/STM32F7xx_HAL_Driver/Src/stm32f7xx_ll_usb.c ****   uint32_t tmpreg;
1289:Drivers/STM32F7xx_HAL_Driver/Src/stm32f7xx_ll_usb.c **** 
1290:Drivers/STM32F7xx_HAL_Driver/Src/stm32f7xx_ll_usb.c ****   tmpreg  = USBx_DEVICE->DAINT;
1291:Drivers/STM32F7xx_HAL_Driver/Src/stm32f7xx_ll_usb.c ****   tmpreg &= USBx_DEVICE->DAINTMSK;
1292:Drivers/STM32F7xx_HAL_Driver/Src/stm32f7xx_ll_usb.c **** 
1293:Drivers/STM32F7xx_HAL_Driver/Src/stm32f7xx_ll_usb.c ****   return ((tmpreg & 0xffff0000U) >> 16);
1294:Drivers/STM32F7xx_HAL_Driver/Src/stm32f7xx_ll_usb.c **** }
1295:Drivers/STM32F7xx_HAL_Driver/Src/stm32f7xx_ll_usb.c **** 
1296:Drivers/STM32F7xx_HAL_Driver/Src/stm32f7xx_ll_usb.c **** /**
1297:Drivers/STM32F7xx_HAL_Driver/Src/stm32f7xx_ll_usb.c ****   * @brief  USB_ReadDevAllInEpInterrupt: return the USB device IN endpoints interrupt status
1298:Drivers/STM32F7xx_HAL_Driver/Src/stm32f7xx_ll_usb.c ****   * @param  USBx  Selected device
1299:Drivers/STM32F7xx_HAL_Driver/Src/stm32f7xx_ll_usb.c ****   * @retval USB Device IN EP interrupt status
1300:Drivers/STM32F7xx_HAL_Driver/Src/stm32f7xx_ll_usb.c ****   */
1301:Drivers/STM32F7xx_HAL_Driver/Src/stm32f7xx_ll_usb.c **** uint32_t USB_ReadDevAllInEpInterrupt(const USB_OTG_GlobalTypeDef *USBx)
1302:Drivers/STM32F7xx_HAL_Driver/Src/stm32f7xx_ll_usb.c **** {
1303:Drivers/STM32F7xx_HAL_Driver/Src/stm32f7xx_ll_usb.c ****   uint32_t USBx_BASE = (uint32_t)USBx;
1304:Drivers/STM32F7xx_HAL_Driver/Src/stm32f7xx_ll_usb.c ****   uint32_t tmpreg;
1305:Drivers/STM32F7xx_HAL_Driver/Src/stm32f7xx_ll_usb.c **** 
1306:Drivers/STM32F7xx_HAL_Driver/Src/stm32f7xx_ll_usb.c ****   tmpreg  = USBx_DEVICE->DAINT;
1307:Drivers/STM32F7xx_HAL_Driver/Src/stm32f7xx_ll_usb.c ****   tmpreg &= USBx_DEVICE->DAINTMSK;
1308:Drivers/STM32F7xx_HAL_Driver/Src/stm32f7xx_ll_usb.c **** 
1309:Drivers/STM32F7xx_HAL_Driver/Src/stm32f7xx_ll_usb.c ****   return ((tmpreg & 0xFFFFU));
1310:Drivers/STM32F7xx_HAL_Driver/Src/stm32f7xx_ll_usb.c **** }
1311:Drivers/STM32F7xx_HAL_Driver/Src/stm32f7xx_ll_usb.c **** 
1312:Drivers/STM32F7xx_HAL_Driver/Src/stm32f7xx_ll_usb.c **** /**
1313:Drivers/STM32F7xx_HAL_Driver/Src/stm32f7xx_ll_usb.c ****   * @brief  Returns Device OUT EP Interrupt register
1314:Drivers/STM32F7xx_HAL_Driver/Src/stm32f7xx_ll_usb.c ****   * @param  USBx  Selected device
1315:Drivers/STM32F7xx_HAL_Driver/Src/stm32f7xx_ll_usb.c ****   * @param  epnum  endpoint number
1316:Drivers/STM32F7xx_HAL_Driver/Src/stm32f7xx_ll_usb.c ****   *          This parameter can be a value from 0 to 15
1317:Drivers/STM32F7xx_HAL_Driver/Src/stm32f7xx_ll_usb.c ****   * @retval Device OUT EP Interrupt register
1318:Drivers/STM32F7xx_HAL_Driver/Src/stm32f7xx_ll_usb.c ****   */
1319:Drivers/STM32F7xx_HAL_Driver/Src/stm32f7xx_ll_usb.c **** uint32_t USB_ReadDevOutEPInterrupt(const USB_OTG_GlobalTypeDef *USBx, uint8_t epnum)
1320:Drivers/STM32F7xx_HAL_Driver/Src/stm32f7xx_ll_usb.c **** {
1321:Drivers/STM32F7xx_HAL_Driver/Src/stm32f7xx_ll_usb.c ****   uint32_t USBx_BASE = (uint32_t)USBx;
1322:Drivers/STM32F7xx_HAL_Driver/Src/stm32f7xx_ll_usb.c ****   uint32_t tmpreg;
1323:Drivers/STM32F7xx_HAL_Driver/Src/stm32f7xx_ll_usb.c **** 
1324:Drivers/STM32F7xx_HAL_Driver/Src/stm32f7xx_ll_usb.c ****   tmpreg  = USBx_OUTEP((uint32_t)epnum)->DOEPINT;
1325:Drivers/STM32F7xx_HAL_Driver/Src/stm32f7xx_ll_usb.c ****   tmpreg &= USBx_DEVICE->DOEPMSK;
1326:Drivers/STM32F7xx_HAL_Driver/Src/stm32f7xx_ll_usb.c **** 
1327:Drivers/STM32F7xx_HAL_Driver/Src/stm32f7xx_ll_usb.c ****   return tmpreg;
1328:Drivers/STM32F7xx_HAL_Driver/Src/stm32f7xx_ll_usb.c **** }
1329:Drivers/STM32F7xx_HAL_Driver/Src/stm32f7xx_ll_usb.c **** 
1330:Drivers/STM32F7xx_HAL_Driver/Src/stm32f7xx_ll_usb.c **** /**
1331:Drivers/STM32F7xx_HAL_Driver/Src/stm32f7xx_ll_usb.c ****   * @brief  Returns Device IN EP Interrupt register
1332:Drivers/STM32F7xx_HAL_Driver/Src/stm32f7xx_ll_usb.c ****   * @param  USBx  Selected device
1333:Drivers/STM32F7xx_HAL_Driver/Src/stm32f7xx_ll_usb.c ****   * @param  epnum  endpoint number
1334:Drivers/STM32F7xx_HAL_Driver/Src/stm32f7xx_ll_usb.c ****   *          This parameter can be a value from 0 to 15
1335:Drivers/STM32F7xx_HAL_Driver/Src/stm32f7xx_ll_usb.c ****   * @retval Device IN EP Interrupt register
1336:Drivers/STM32F7xx_HAL_Driver/Src/stm32f7xx_ll_usb.c ****   */
1337:Drivers/STM32F7xx_HAL_Driver/Src/stm32f7xx_ll_usb.c **** uint32_t USB_ReadDevInEPInterrupt(const USB_OTG_GlobalTypeDef *USBx, uint8_t epnum)
1338:Drivers/STM32F7xx_HAL_Driver/Src/stm32f7xx_ll_usb.c **** {
1339:Drivers/STM32F7xx_HAL_Driver/Src/stm32f7xx_ll_usb.c ****   uint32_t USBx_BASE = (uint32_t)USBx;
1340:Drivers/STM32F7xx_HAL_Driver/Src/stm32f7xx_ll_usb.c ****   uint32_t tmpreg;
1341:Drivers/STM32F7xx_HAL_Driver/Src/stm32f7xx_ll_usb.c ****   uint32_t msk;
ARM GAS  C:\Users\benny\AppData\Local\Temp\ccHko7Bj.s 			page 25


1342:Drivers/STM32F7xx_HAL_Driver/Src/stm32f7xx_ll_usb.c ****   uint32_t emp;
1343:Drivers/STM32F7xx_HAL_Driver/Src/stm32f7xx_ll_usb.c **** 
1344:Drivers/STM32F7xx_HAL_Driver/Src/stm32f7xx_ll_usb.c ****   msk = USBx_DEVICE->DIEPMSK;
1345:Drivers/STM32F7xx_HAL_Driver/Src/stm32f7xx_ll_usb.c ****   emp = USBx_DEVICE->DIEPEMPMSK;
1346:Drivers/STM32F7xx_HAL_Driver/Src/stm32f7xx_ll_usb.c ****   msk |= ((emp >> (epnum & EP_ADDR_MSK)) & 0x1U) << 7;
1347:Drivers/STM32F7xx_HAL_Driver/Src/stm32f7xx_ll_usb.c ****   tmpreg = USBx_INEP((uint32_t)epnum)->DIEPINT & msk;
1348:Drivers/STM32F7xx_HAL_Driver/Src/stm32f7xx_ll_usb.c **** 
1349:Drivers/STM32F7xx_HAL_Driver/Src/stm32f7xx_ll_usb.c ****   return tmpreg;
1350:Drivers/STM32F7xx_HAL_Driver/Src/stm32f7xx_ll_usb.c **** }
1351:Drivers/STM32F7xx_HAL_Driver/Src/stm32f7xx_ll_usb.c **** 
1352:Drivers/STM32F7xx_HAL_Driver/Src/stm32f7xx_ll_usb.c **** /**
1353:Drivers/STM32F7xx_HAL_Driver/Src/stm32f7xx_ll_usb.c ****   * @brief  USB_ClearInterrupts: clear a USB interrupt
1354:Drivers/STM32F7xx_HAL_Driver/Src/stm32f7xx_ll_usb.c ****   * @param  USBx  Selected device
1355:Drivers/STM32F7xx_HAL_Driver/Src/stm32f7xx_ll_usb.c ****   * @param  interrupt  flag
1356:Drivers/STM32F7xx_HAL_Driver/Src/stm32f7xx_ll_usb.c ****   * @retval None
1357:Drivers/STM32F7xx_HAL_Driver/Src/stm32f7xx_ll_usb.c ****   */
1358:Drivers/STM32F7xx_HAL_Driver/Src/stm32f7xx_ll_usb.c **** void  USB_ClearInterrupts(USB_OTG_GlobalTypeDef *USBx, uint32_t interrupt)
1359:Drivers/STM32F7xx_HAL_Driver/Src/stm32f7xx_ll_usb.c **** {
1360:Drivers/STM32F7xx_HAL_Driver/Src/stm32f7xx_ll_usb.c ****   USBx->GINTSTS &= interrupt;
1361:Drivers/STM32F7xx_HAL_Driver/Src/stm32f7xx_ll_usb.c **** }
1362:Drivers/STM32F7xx_HAL_Driver/Src/stm32f7xx_ll_usb.c **** 
1363:Drivers/STM32F7xx_HAL_Driver/Src/stm32f7xx_ll_usb.c **** /**
1364:Drivers/STM32F7xx_HAL_Driver/Src/stm32f7xx_ll_usb.c ****   * @brief  Returns USB core mode
1365:Drivers/STM32F7xx_HAL_Driver/Src/stm32f7xx_ll_usb.c ****   * @param  USBx  Selected device
1366:Drivers/STM32F7xx_HAL_Driver/Src/stm32f7xx_ll_usb.c ****   * @retval return core mode : Host or Device
1367:Drivers/STM32F7xx_HAL_Driver/Src/stm32f7xx_ll_usb.c ****   *          This parameter can be one of these values:
1368:Drivers/STM32F7xx_HAL_Driver/Src/stm32f7xx_ll_usb.c ****   *           0 : Host
1369:Drivers/STM32F7xx_HAL_Driver/Src/stm32f7xx_ll_usb.c ****   *           1 : Device
1370:Drivers/STM32F7xx_HAL_Driver/Src/stm32f7xx_ll_usb.c ****   */
1371:Drivers/STM32F7xx_HAL_Driver/Src/stm32f7xx_ll_usb.c **** uint32_t USB_GetMode(const USB_OTG_GlobalTypeDef *USBx)
1372:Drivers/STM32F7xx_HAL_Driver/Src/stm32f7xx_ll_usb.c **** {
1373:Drivers/STM32F7xx_HAL_Driver/Src/stm32f7xx_ll_usb.c ****   return ((USBx->GINTSTS) & 0x1U);
1374:Drivers/STM32F7xx_HAL_Driver/Src/stm32f7xx_ll_usb.c **** }
1375:Drivers/STM32F7xx_HAL_Driver/Src/stm32f7xx_ll_usb.c **** 
1376:Drivers/STM32F7xx_HAL_Driver/Src/stm32f7xx_ll_usb.c **** /**
1377:Drivers/STM32F7xx_HAL_Driver/Src/stm32f7xx_ll_usb.c ****   * @brief  Activate EP0 for Setup transactions
1378:Drivers/STM32F7xx_HAL_Driver/Src/stm32f7xx_ll_usb.c ****   * @param  USBx  Selected device
1379:Drivers/STM32F7xx_HAL_Driver/Src/stm32f7xx_ll_usb.c ****   * @retval HAL status
1380:Drivers/STM32F7xx_HAL_Driver/Src/stm32f7xx_ll_usb.c ****   */
1381:Drivers/STM32F7xx_HAL_Driver/Src/stm32f7xx_ll_usb.c **** HAL_StatusTypeDef USB_ActivateSetup(const USB_OTG_GlobalTypeDef *USBx)
1382:Drivers/STM32F7xx_HAL_Driver/Src/stm32f7xx_ll_usb.c **** {
1383:Drivers/STM32F7xx_HAL_Driver/Src/stm32f7xx_ll_usb.c ****   uint32_t USBx_BASE = (uint32_t)USBx;
1384:Drivers/STM32F7xx_HAL_Driver/Src/stm32f7xx_ll_usb.c **** 
1385:Drivers/STM32F7xx_HAL_Driver/Src/stm32f7xx_ll_usb.c ****   /* Set the MPS of the IN EP0 to 64 bytes */
1386:Drivers/STM32F7xx_HAL_Driver/Src/stm32f7xx_ll_usb.c ****   USBx_INEP(0U)->DIEPCTL &= ~USB_OTG_DIEPCTL_MPSIZ;
1387:Drivers/STM32F7xx_HAL_Driver/Src/stm32f7xx_ll_usb.c **** 
1388:Drivers/STM32F7xx_HAL_Driver/Src/stm32f7xx_ll_usb.c ****   USBx_DEVICE->DCTL |= USB_OTG_DCTL_CGINAK;
1389:Drivers/STM32F7xx_HAL_Driver/Src/stm32f7xx_ll_usb.c **** 
1390:Drivers/STM32F7xx_HAL_Driver/Src/stm32f7xx_ll_usb.c ****   return HAL_OK;
1391:Drivers/STM32F7xx_HAL_Driver/Src/stm32f7xx_ll_usb.c **** }
1392:Drivers/STM32F7xx_HAL_Driver/Src/stm32f7xx_ll_usb.c **** 
1393:Drivers/STM32F7xx_HAL_Driver/Src/stm32f7xx_ll_usb.c **** /**
1394:Drivers/STM32F7xx_HAL_Driver/Src/stm32f7xx_ll_usb.c ****   * @brief  Prepare the EP0 to start the first control setup
1395:Drivers/STM32F7xx_HAL_Driver/Src/stm32f7xx_ll_usb.c ****   * @param  USBx  Selected device
1396:Drivers/STM32F7xx_HAL_Driver/Src/stm32f7xx_ll_usb.c ****   * @param  dma USB dma enabled or disabled
1397:Drivers/STM32F7xx_HAL_Driver/Src/stm32f7xx_ll_usb.c ****   *          This parameter can be one of these values:
1398:Drivers/STM32F7xx_HAL_Driver/Src/stm32f7xx_ll_usb.c ****   *           0 : DMA feature not used
ARM GAS  C:\Users\benny\AppData\Local\Temp\ccHko7Bj.s 			page 26


1399:Drivers/STM32F7xx_HAL_Driver/Src/stm32f7xx_ll_usb.c ****   *           1 : DMA feature used
1400:Drivers/STM32F7xx_HAL_Driver/Src/stm32f7xx_ll_usb.c ****   * @param  psetup  pointer to setup packet
1401:Drivers/STM32F7xx_HAL_Driver/Src/stm32f7xx_ll_usb.c ****   * @retval HAL status
1402:Drivers/STM32F7xx_HAL_Driver/Src/stm32f7xx_ll_usb.c ****   */
1403:Drivers/STM32F7xx_HAL_Driver/Src/stm32f7xx_ll_usb.c **** HAL_StatusTypeDef USB_EP0_OutStart(const USB_OTG_GlobalTypeDef *USBx, uint8_t dma, const uint8_t *p
1404:Drivers/STM32F7xx_HAL_Driver/Src/stm32f7xx_ll_usb.c **** {
1405:Drivers/STM32F7xx_HAL_Driver/Src/stm32f7xx_ll_usb.c ****   uint32_t USBx_BASE = (uint32_t)USBx;
1406:Drivers/STM32F7xx_HAL_Driver/Src/stm32f7xx_ll_usb.c ****   uint32_t gSNPSiD = *(__IO const uint32_t *)(&USBx->CID + 0x1U);
1407:Drivers/STM32F7xx_HAL_Driver/Src/stm32f7xx_ll_usb.c **** 
1408:Drivers/STM32F7xx_HAL_Driver/Src/stm32f7xx_ll_usb.c ****   if (gSNPSiD > USB_OTG_CORE_ID_300A)
1409:Drivers/STM32F7xx_HAL_Driver/Src/stm32f7xx_ll_usb.c ****   {
1410:Drivers/STM32F7xx_HAL_Driver/Src/stm32f7xx_ll_usb.c ****     if ((USBx_OUTEP(0U)->DOEPCTL & USB_OTG_DOEPCTL_EPENA) == USB_OTG_DOEPCTL_EPENA)
1411:Drivers/STM32F7xx_HAL_Driver/Src/stm32f7xx_ll_usb.c ****     {
1412:Drivers/STM32F7xx_HAL_Driver/Src/stm32f7xx_ll_usb.c ****       return HAL_OK;
1413:Drivers/STM32F7xx_HAL_Driver/Src/stm32f7xx_ll_usb.c ****     }
1414:Drivers/STM32F7xx_HAL_Driver/Src/stm32f7xx_ll_usb.c ****   }
1415:Drivers/STM32F7xx_HAL_Driver/Src/stm32f7xx_ll_usb.c **** 
1416:Drivers/STM32F7xx_HAL_Driver/Src/stm32f7xx_ll_usb.c ****   USBx_OUTEP(0U)->DOEPTSIZ = 0U;
1417:Drivers/STM32F7xx_HAL_Driver/Src/stm32f7xx_ll_usb.c ****   USBx_OUTEP(0U)->DOEPTSIZ |= (USB_OTG_DOEPTSIZ_PKTCNT & (1U << 19));
1418:Drivers/STM32F7xx_HAL_Driver/Src/stm32f7xx_ll_usb.c ****   USBx_OUTEP(0U)->DOEPTSIZ |= (3U * 8U);
1419:Drivers/STM32F7xx_HAL_Driver/Src/stm32f7xx_ll_usb.c ****   USBx_OUTEP(0U)->DOEPTSIZ |=  USB_OTG_DOEPTSIZ_STUPCNT;
1420:Drivers/STM32F7xx_HAL_Driver/Src/stm32f7xx_ll_usb.c **** 
1421:Drivers/STM32F7xx_HAL_Driver/Src/stm32f7xx_ll_usb.c ****   if (dma == 1U)
1422:Drivers/STM32F7xx_HAL_Driver/Src/stm32f7xx_ll_usb.c ****   {
1423:Drivers/STM32F7xx_HAL_Driver/Src/stm32f7xx_ll_usb.c ****     USBx_OUTEP(0U)->DOEPDMA = (uint32_t)psetup;
1424:Drivers/STM32F7xx_HAL_Driver/Src/stm32f7xx_ll_usb.c ****     /* EP enable */
1425:Drivers/STM32F7xx_HAL_Driver/Src/stm32f7xx_ll_usb.c ****     USBx_OUTEP(0U)->DOEPCTL |= USB_OTG_DOEPCTL_EPENA | USB_OTG_DOEPCTL_USBAEP;
1426:Drivers/STM32F7xx_HAL_Driver/Src/stm32f7xx_ll_usb.c ****   }
1427:Drivers/STM32F7xx_HAL_Driver/Src/stm32f7xx_ll_usb.c **** 
1428:Drivers/STM32F7xx_HAL_Driver/Src/stm32f7xx_ll_usb.c ****   return HAL_OK;
1429:Drivers/STM32F7xx_HAL_Driver/Src/stm32f7xx_ll_usb.c **** }
1430:Drivers/STM32F7xx_HAL_Driver/Src/stm32f7xx_ll_usb.c **** 
1431:Drivers/STM32F7xx_HAL_Driver/Src/stm32f7xx_ll_usb.c **** /**
1432:Drivers/STM32F7xx_HAL_Driver/Src/stm32f7xx_ll_usb.c ****   * @brief  Reset the USB Core (needed after USB clock settings change)
1433:Drivers/STM32F7xx_HAL_Driver/Src/stm32f7xx_ll_usb.c ****   * @param  USBx  Selected device
1434:Drivers/STM32F7xx_HAL_Driver/Src/stm32f7xx_ll_usb.c ****   * @retval HAL status
1435:Drivers/STM32F7xx_HAL_Driver/Src/stm32f7xx_ll_usb.c ****   */
1436:Drivers/STM32F7xx_HAL_Driver/Src/stm32f7xx_ll_usb.c **** static HAL_StatusTypeDef USB_CoreReset(USB_OTG_GlobalTypeDef *USBx)
1437:Drivers/STM32F7xx_HAL_Driver/Src/stm32f7xx_ll_usb.c **** {
  29              		.loc 1 1437 1 view -0
  30              		.cfi_startproc
  31              		@ args = 0, pretend = 0, frame = 8
  32              		@ frame_needed = 0, uses_anonymous_args = 0
  33              		@ link register save eliminated.
  34              		.loc 1 1437 1 is_stmt 0 view .LVU1
  35 0000 82B0     		sub	sp, sp, #8
  36              	.LCFI0:
  37              		.cfi_def_cfa_offset 8
1438:Drivers/STM32F7xx_HAL_Driver/Src/stm32f7xx_ll_usb.c ****   __IO uint32_t count = 0U;
  38              		.loc 1 1438 3 is_stmt 1 view .LVU2
  39              		.loc 1 1438 17 is_stmt 0 view .LVU3
  40 0002 0023     		movs	r3, #0
  41 0004 0193     		str	r3, [sp, #4]
  42              	.L3:
1439:Drivers/STM32F7xx_HAL_Driver/Src/stm32f7xx_ll_usb.c **** 
1440:Drivers/STM32F7xx_HAL_Driver/Src/stm32f7xx_ll_usb.c ****   /* Wait for AHB master IDLE state. */
1441:Drivers/STM32F7xx_HAL_Driver/Src/stm32f7xx_ll_usb.c ****   do
ARM GAS  C:\Users\benny\AppData\Local\Temp\ccHko7Bj.s 			page 27


  43              		.loc 1 1441 3 is_stmt 1 view .LVU4
1442:Drivers/STM32F7xx_HAL_Driver/Src/stm32f7xx_ll_usb.c ****   {
1443:Drivers/STM32F7xx_HAL_Driver/Src/stm32f7xx_ll_usb.c ****     count++;
  44              		.loc 1 1443 5 view .LVU5
  45              		.loc 1 1443 10 is_stmt 0 view .LVU6
  46 0006 019B     		ldr	r3, [sp, #4]
  47 0008 0133     		adds	r3, r3, #1
  48 000a 0193     		str	r3, [sp, #4]
1444:Drivers/STM32F7xx_HAL_Driver/Src/stm32f7xx_ll_usb.c **** 
1445:Drivers/STM32F7xx_HAL_Driver/Src/stm32f7xx_ll_usb.c ****     if (count > HAL_USB_TIMEOUT)
  49              		.loc 1 1445 5 is_stmt 1 view .LVU7
  50              		.loc 1 1445 15 is_stmt 0 view .LVU8
  51 000c 019B     		ldr	r3, [sp, #4]
  52              		.loc 1 1445 8 view .LVU9
  53 000e B3F1706F 		cmp	r3, #251658240
  54 0012 15D8     		bhi	.L5
1446:Drivers/STM32F7xx_HAL_Driver/Src/stm32f7xx_ll_usb.c ****     {
1447:Drivers/STM32F7xx_HAL_Driver/Src/stm32f7xx_ll_usb.c ****       return HAL_TIMEOUT;
1448:Drivers/STM32F7xx_HAL_Driver/Src/stm32f7xx_ll_usb.c ****     }
1449:Drivers/STM32F7xx_HAL_Driver/Src/stm32f7xx_ll_usb.c ****   } while ((USBx->GRSTCTL & USB_OTG_GRSTCTL_AHBIDL) == 0U);
  55              		.loc 1 1449 53 is_stmt 1 view .LVU10
  56              		.loc 1 1449 17 is_stmt 0 view .LVU11
  57 0014 0369     		ldr	r3, [r0, #16]
  58              		.loc 1 1449 53 view .LVU12
  59 0016 002B     		cmp	r3, #0
  60 0018 F5DA     		bge	.L3
1450:Drivers/STM32F7xx_HAL_Driver/Src/stm32f7xx_ll_usb.c **** 
1451:Drivers/STM32F7xx_HAL_Driver/Src/stm32f7xx_ll_usb.c ****   /* Core Soft Reset */
1452:Drivers/STM32F7xx_HAL_Driver/Src/stm32f7xx_ll_usb.c ****   count = 0U;
  61              		.loc 1 1452 3 is_stmt 1 view .LVU13
  62              		.loc 1 1452 9 is_stmt 0 view .LVU14
  63 001a 0023     		movs	r3, #0
  64 001c 0193     		str	r3, [sp, #4]
1453:Drivers/STM32F7xx_HAL_Driver/Src/stm32f7xx_ll_usb.c ****   USBx->GRSTCTL |= USB_OTG_GRSTCTL_CSRST;
  65              		.loc 1 1453 3 is_stmt 1 view .LVU15
  66              		.loc 1 1453 7 is_stmt 0 view .LVU16
  67 001e 0369     		ldr	r3, [r0, #16]
  68              		.loc 1 1453 17 view .LVU17
  69 0020 43F00103 		orr	r3, r3, #1
  70 0024 0361     		str	r3, [r0, #16]
  71              	.L4:
1454:Drivers/STM32F7xx_HAL_Driver/Src/stm32f7xx_ll_usb.c **** 
1455:Drivers/STM32F7xx_HAL_Driver/Src/stm32f7xx_ll_usb.c ****   do
  72              		.loc 1 1455 3 is_stmt 1 view .LVU18
1456:Drivers/STM32F7xx_HAL_Driver/Src/stm32f7xx_ll_usb.c ****   {
1457:Drivers/STM32F7xx_HAL_Driver/Src/stm32f7xx_ll_usb.c ****     count++;
  73              		.loc 1 1457 5 view .LVU19
  74              		.loc 1 1457 10 is_stmt 0 view .LVU20
  75 0026 019B     		ldr	r3, [sp, #4]
  76 0028 0133     		adds	r3, r3, #1
  77 002a 0193     		str	r3, [sp, #4]
1458:Drivers/STM32F7xx_HAL_Driver/Src/stm32f7xx_ll_usb.c **** 
1459:Drivers/STM32F7xx_HAL_Driver/Src/stm32f7xx_ll_usb.c ****     if (count > HAL_USB_TIMEOUT)
  78              		.loc 1 1459 5 is_stmt 1 view .LVU21
  79              		.loc 1 1459 15 is_stmt 0 view .LVU22
  80 002c 019B     		ldr	r3, [sp, #4]
  81              		.loc 1 1459 8 view .LVU23
ARM GAS  C:\Users\benny\AppData\Local\Temp\ccHko7Bj.s 			page 28


  82 002e B3F1706F 		cmp	r3, #251658240
  83 0032 08D8     		bhi	.L6
1460:Drivers/STM32F7xx_HAL_Driver/Src/stm32f7xx_ll_usb.c ****     {
1461:Drivers/STM32F7xx_HAL_Driver/Src/stm32f7xx_ll_usb.c ****       return HAL_TIMEOUT;
1462:Drivers/STM32F7xx_HAL_Driver/Src/stm32f7xx_ll_usb.c ****     }
1463:Drivers/STM32F7xx_HAL_Driver/Src/stm32f7xx_ll_usb.c ****   } while ((USBx->GRSTCTL & USB_OTG_GRSTCTL_CSRST) == USB_OTG_GRSTCTL_CSRST);
  84              		.loc 1 1463 52 is_stmt 1 view .LVU24
  85              		.loc 1 1463 17 is_stmt 0 view .LVU25
  86 0034 0369     		ldr	r3, [r0, #16]
  87              		.loc 1 1463 52 view .LVU26
  88 0036 13F0010F 		tst	r3, #1
  89 003a F4D1     		bne	.L4
1464:Drivers/STM32F7xx_HAL_Driver/Src/stm32f7xx_ll_usb.c **** 
1465:Drivers/STM32F7xx_HAL_Driver/Src/stm32f7xx_ll_usb.c ****   return HAL_OK;
  90              		.loc 1 1465 10 view .LVU27
  91 003c 0020     		movs	r0, #0
  92              	.LVL1:
  93              		.loc 1 1465 10 view .LVU28
  94 003e 00E0     		b	.L2
  95              	.LVL2:
  96              	.L5:
1447:Drivers/STM32F7xx_HAL_Driver/Src/stm32f7xx_ll_usb.c ****     }
  97              		.loc 1 1447 14 view .LVU29
  98 0040 0320     		movs	r0, #3
  99              	.LVL3:
 100              	.L2:
1466:Drivers/STM32F7xx_HAL_Driver/Src/stm32f7xx_ll_usb.c **** }
 101              		.loc 1 1466 1 view .LVU30
 102 0042 02B0     		add	sp, sp, #8
 103              	.LCFI1:
 104              		.cfi_remember_state
 105              		.cfi_def_cfa_offset 0
 106              		@ sp needed
 107 0044 7047     		bx	lr
 108              	.LVL4:
 109              	.L6:
 110              	.LCFI2:
 111              		.cfi_restore_state
1461:Drivers/STM32F7xx_HAL_Driver/Src/stm32f7xx_ll_usb.c ****     }
 112              		.loc 1 1461 14 view .LVU31
 113 0046 0320     		movs	r0, #3
 114              	.LVL5:
1461:Drivers/STM32F7xx_HAL_Driver/Src/stm32f7xx_ll_usb.c ****     }
 115              		.loc 1 1461 14 view .LVU32
 116 0048 FBE7     		b	.L2
 117              		.cfi_endproc
 118              	.LFE175:
 120              		.section	.text.USB_HS_PHYCInit,"ax",%progbits
 121              		.align	1
 122              		.syntax unified
 123              		.thumb
 124              		.thumb_func
 126              	USB_HS_PHYCInit:
 127              	.LVL6:
 128              	.LFB176:
1467:Drivers/STM32F7xx_HAL_Driver/Src/stm32f7xx_ll_usb.c **** 
1468:Drivers/STM32F7xx_HAL_Driver/Src/stm32f7xx_ll_usb.c **** #ifdef USBPHYC
ARM GAS  C:\Users\benny\AppData\Local\Temp\ccHko7Bj.s 			page 29


1469:Drivers/STM32F7xx_HAL_Driver/Src/stm32f7xx_ll_usb.c **** /**
1470:Drivers/STM32F7xx_HAL_Driver/Src/stm32f7xx_ll_usb.c ****   * @brief  Enables control of a High Speed USB PHY
1471:Drivers/STM32F7xx_HAL_Driver/Src/stm32f7xx_ll_usb.c ****   *         Init the low level hardware : GPIO, CLOCK, NVIC...
1472:Drivers/STM32F7xx_HAL_Driver/Src/stm32f7xx_ll_usb.c ****   * @param  USBx  Selected device
1473:Drivers/STM32F7xx_HAL_Driver/Src/stm32f7xx_ll_usb.c ****   * @retval HAL status
1474:Drivers/STM32F7xx_HAL_Driver/Src/stm32f7xx_ll_usb.c ****   */
1475:Drivers/STM32F7xx_HAL_Driver/Src/stm32f7xx_ll_usb.c **** static HAL_StatusTypeDef USB_HS_PHYCInit(USB_OTG_GlobalTypeDef *USBx)
1476:Drivers/STM32F7xx_HAL_Driver/Src/stm32f7xx_ll_usb.c **** {
 129              		.loc 1 1476 1 is_stmt 1 view -0
 130              		.cfi_startproc
 131              		@ args = 0, pretend = 0, frame = 8
 132              		@ frame_needed = 0, uses_anonymous_args = 0
 133              		.loc 1 1476 1 is_stmt 0 view .LVU34
 134 0000 00B5     		push	{lr}
 135              	.LCFI3:
 136              		.cfi_def_cfa_offset 4
 137              		.cfi_offset 14, -4
 138 0002 83B0     		sub	sp, sp, #12
 139              	.LCFI4:
 140              		.cfi_def_cfa_offset 16
1477:Drivers/STM32F7xx_HAL_Driver/Src/stm32f7xx_ll_usb.c ****   UNUSED(USBx);
 141              		.loc 1 1477 3 is_stmt 1 view .LVU35
1478:Drivers/STM32F7xx_HAL_Driver/Src/stm32f7xx_ll_usb.c ****   __IO uint32_t count = 0U;
 142              		.loc 1 1478 3 view .LVU36
 143              		.loc 1 1478 17 is_stmt 0 view .LVU37
 144 0004 0023     		movs	r3, #0
 145 0006 0193     		str	r3, [sp, #4]
1479:Drivers/STM32F7xx_HAL_Driver/Src/stm32f7xx_ll_usb.c **** 
1480:Drivers/STM32F7xx_HAL_Driver/Src/stm32f7xx_ll_usb.c ****   /* Enable LDO */
1481:Drivers/STM32F7xx_HAL_Driver/Src/stm32f7xx_ll_usb.c ****   USB_HS_PHYC->USB_HS_PHYC_LDO |= USB_HS_PHYC_LDO_ENABLE;
 146              		.loc 1 1481 3 is_stmt 1 view .LVU38
 147              		.loc 1 1481 14 is_stmt 0 view .LVU39
 148 0008 124A     		ldr	r2, .L15
 149 000a 9369     		ldr	r3, [r2, #24]
 150              		.loc 1 1481 32 view .LVU40
 151 000c 43F00403 		orr	r3, r3, #4
 152 0010 9361     		str	r3, [r2, #24]
1482:Drivers/STM32F7xx_HAL_Driver/Src/stm32f7xx_ll_usb.c **** 
1483:Drivers/STM32F7xx_HAL_Driver/Src/stm32f7xx_ll_usb.c ****   /* wait for LDO Ready */
1484:Drivers/STM32F7xx_HAL_Driver/Src/stm32f7xx_ll_usb.c ****   while ((USB_HS_PHYC->USB_HS_PHYC_LDO & USB_HS_PHYC_LDO_STATUS) == 0U)
 153              		.loc 1 1484 3 is_stmt 1 view .LVU41
 154              	.L9:
 155              		.loc 1 1484 66 view .LVU42
 156              		.loc 1 1484 22 is_stmt 0 view .LVU43
 157 0012 104B     		ldr	r3, .L15
 158 0014 9B69     		ldr	r3, [r3, #24]
 159              		.loc 1 1484 66 view .LVU44
 160 0016 13F0020F 		tst	r3, #2
 161 001a 08D1     		bne	.L14
1485:Drivers/STM32F7xx_HAL_Driver/Src/stm32f7xx_ll_usb.c ****   {
1486:Drivers/STM32F7xx_HAL_Driver/Src/stm32f7xx_ll_usb.c ****     count++;
 162              		.loc 1 1486 5 is_stmt 1 view .LVU45
 163              		.loc 1 1486 10 is_stmt 0 view .LVU46
 164 001c 019B     		ldr	r3, [sp, #4]
 165 001e 0133     		adds	r3, r3, #1
 166 0020 0193     		str	r3, [sp, #4]
1487:Drivers/STM32F7xx_HAL_Driver/Src/stm32f7xx_ll_usb.c **** 
ARM GAS  C:\Users\benny\AppData\Local\Temp\ccHko7Bj.s 			page 30


1488:Drivers/STM32F7xx_HAL_Driver/Src/stm32f7xx_ll_usb.c ****     if (count > HAL_USB_TIMEOUT)
 167              		.loc 1 1488 5 is_stmt 1 view .LVU47
 168              		.loc 1 1488 15 is_stmt 0 view .LVU48
 169 0022 019B     		ldr	r3, [sp, #4]
 170              		.loc 1 1488 8 view .LVU49
 171 0024 B3F1706F 		cmp	r3, #251658240
 172 0028 F3D9     		bls	.L9
1489:Drivers/STM32F7xx_HAL_Driver/Src/stm32f7xx_ll_usb.c ****     {
1490:Drivers/STM32F7xx_HAL_Driver/Src/stm32f7xx_ll_usb.c ****       return HAL_TIMEOUT;
 173              		.loc 1 1490 14 view .LVU50
 174 002a 0320     		movs	r0, #3
 175              	.LVL7:
 176              		.loc 1 1490 14 view .LVU51
 177 002c 0FE0     		b	.L10
 178              	.LVL8:
 179              	.L14:
1491:Drivers/STM32F7xx_HAL_Driver/Src/stm32f7xx_ll_usb.c ****     }
1492:Drivers/STM32F7xx_HAL_Driver/Src/stm32f7xx_ll_usb.c ****   }
1493:Drivers/STM32F7xx_HAL_Driver/Src/stm32f7xx_ll_usb.c **** 
1494:Drivers/STM32F7xx_HAL_Driver/Src/stm32f7xx_ll_usb.c ****   /* Controls PHY frequency operation selection */
1495:Drivers/STM32F7xx_HAL_Driver/Src/stm32f7xx_ll_usb.c ****   if (HSE_VALUE == PHYC_12_MHZ) /* HSE = 12MHz */
 180              		.loc 1 1495 3 is_stmt 1 view .LVU52
1496:Drivers/STM32F7xx_HAL_Driver/Src/stm32f7xx_ll_usb.c ****   {
1497:Drivers/STM32F7xx_HAL_Driver/Src/stm32f7xx_ll_usb.c ****     USB_HS_PHYC->USB_HS_PHYC_PLL = (0x0U << 1);
1498:Drivers/STM32F7xx_HAL_Driver/Src/stm32f7xx_ll_usb.c ****   }
1499:Drivers/STM32F7xx_HAL_Driver/Src/stm32f7xx_ll_usb.c ****   else if (HSE_VALUE == PHYC_12_5_MHZ) /* HSE = 12.5MHz */
 181              		.loc 1 1499 8 view .LVU53
1500:Drivers/STM32F7xx_HAL_Driver/Src/stm32f7xx_ll_usb.c ****   {
1501:Drivers/STM32F7xx_HAL_Driver/Src/stm32f7xx_ll_usb.c ****     USB_HS_PHYC->USB_HS_PHYC_PLL = (0x2U << 1);
1502:Drivers/STM32F7xx_HAL_Driver/Src/stm32f7xx_ll_usb.c ****   }
1503:Drivers/STM32F7xx_HAL_Driver/Src/stm32f7xx_ll_usb.c ****   else if (HSE_VALUE == PHYC_16_MHZ) /* HSE = 16MHz */
 182              		.loc 1 1503 8 view .LVU54
1504:Drivers/STM32F7xx_HAL_Driver/Src/stm32f7xx_ll_usb.c ****   {
1505:Drivers/STM32F7xx_HAL_Driver/Src/stm32f7xx_ll_usb.c ****     USB_HS_PHYC->USB_HS_PHYC_PLL = (0x3U << 1);
1506:Drivers/STM32F7xx_HAL_Driver/Src/stm32f7xx_ll_usb.c ****   }
1507:Drivers/STM32F7xx_HAL_Driver/Src/stm32f7xx_ll_usb.c ****   else if (HSE_VALUE == PHYC_24_MHZ) /* HSE = 24MHz */
 183              		.loc 1 1507 8 view .LVU55
1508:Drivers/STM32F7xx_HAL_Driver/Src/stm32f7xx_ll_usb.c ****   {
1509:Drivers/STM32F7xx_HAL_Driver/Src/stm32f7xx_ll_usb.c ****     USB_HS_PHYC->USB_HS_PHYC_PLL = (0x4U << 1);
1510:Drivers/STM32F7xx_HAL_Driver/Src/stm32f7xx_ll_usb.c ****   }
1511:Drivers/STM32F7xx_HAL_Driver/Src/stm32f7xx_ll_usb.c ****   else if (HSE_VALUE == PHYC_25_MHZ) /* HSE = 25MHz */
 184              		.loc 1 1511 8 view .LVU56
1512:Drivers/STM32F7xx_HAL_Driver/Src/stm32f7xx_ll_usb.c ****   {
1513:Drivers/STM32F7xx_HAL_Driver/Src/stm32f7xx_ll_usb.c ****     USB_HS_PHYC->USB_HS_PHYC_PLL = (0x5U << 1);
 185              		.loc 1 1513 5 view .LVU57
 186              		.loc 1 1513 34 is_stmt 0 view .LVU58
 187 002e 094B     		ldr	r3, .L15
 188 0030 0A22     		movs	r2, #10
 189 0032 1A60     		str	r2, [r3]
1514:Drivers/STM32F7xx_HAL_Driver/Src/stm32f7xx_ll_usb.c ****   }
1515:Drivers/STM32F7xx_HAL_Driver/Src/stm32f7xx_ll_usb.c ****   else if (HSE_VALUE == PHYC_32_MHZ) /* HSE = 32MHz */
1516:Drivers/STM32F7xx_HAL_Driver/Src/stm32f7xx_ll_usb.c ****   {
1517:Drivers/STM32F7xx_HAL_Driver/Src/stm32f7xx_ll_usb.c ****     USB_HS_PHYC->USB_HS_PHYC_PLL = (0x7U << 1);
1518:Drivers/STM32F7xx_HAL_Driver/Src/stm32f7xx_ll_usb.c ****   }
1519:Drivers/STM32F7xx_HAL_Driver/Src/stm32f7xx_ll_usb.c ****   else
1520:Drivers/STM32F7xx_HAL_Driver/Src/stm32f7xx_ll_usb.c ****   {
1521:Drivers/STM32F7xx_HAL_Driver/Src/stm32f7xx_ll_usb.c ****     /* ... */
ARM GAS  C:\Users\benny\AppData\Local\Temp\ccHko7Bj.s 			page 31


1522:Drivers/STM32F7xx_HAL_Driver/Src/stm32f7xx_ll_usb.c ****   }
 190              		.loc 1 1522 3 is_stmt 1 view .LVU59
1523:Drivers/STM32F7xx_HAL_Driver/Src/stm32f7xx_ll_usb.c **** 
1524:Drivers/STM32F7xx_HAL_Driver/Src/stm32f7xx_ll_usb.c ****   /* Control the tuning interface of the High Speed PHY */
1525:Drivers/STM32F7xx_HAL_Driver/Src/stm32f7xx_ll_usb.c ****   USB_HS_PHYC->USB_HS_PHYC_TUNE |= USB_HS_PHYC_TUNE_VALUE;
 191              		.loc 1 1525 3 view .LVU60
 192              		.loc 1 1525 14 is_stmt 0 view .LVU61
 193 0034 D968     		ldr	r1, [r3, #12]
 194              		.loc 1 1525 33 view .LVU62
 195 0036 40F61372 		movw	r2, #3859
 196 003a 0A43     		orrs	r2, r2, r1
 197 003c DA60     		str	r2, [r3, #12]
1526:Drivers/STM32F7xx_HAL_Driver/Src/stm32f7xx_ll_usb.c **** 
1527:Drivers/STM32F7xx_HAL_Driver/Src/stm32f7xx_ll_usb.c ****   /* Enable PLL internal PHY */
1528:Drivers/STM32F7xx_HAL_Driver/Src/stm32f7xx_ll_usb.c ****   USB_HS_PHYC->USB_HS_PHYC_PLL |= USB_HS_PHYC_PLL_PLLEN;
 198              		.loc 1 1528 3 is_stmt 1 view .LVU63
 199              		.loc 1 1528 14 is_stmt 0 view .LVU64
 200 003e 1A68     		ldr	r2, [r3]
 201              		.loc 1 1528 32 view .LVU65
 202 0040 42F00102 		orr	r2, r2, #1
 203 0044 1A60     		str	r2, [r3]
1529:Drivers/STM32F7xx_HAL_Driver/Src/stm32f7xx_ll_usb.c **** 
1530:Drivers/STM32F7xx_HAL_Driver/Src/stm32f7xx_ll_usb.c **** 
1531:Drivers/STM32F7xx_HAL_Driver/Src/stm32f7xx_ll_usb.c ****   /* 2ms Delay required to get internal phy clock stable */
1532:Drivers/STM32F7xx_HAL_Driver/Src/stm32f7xx_ll_usb.c ****   HAL_Delay(2U);
 204              		.loc 1 1532 3 is_stmt 1 view .LVU66
 205 0046 0220     		movs	r0, #2
 206              	.LVL9:
 207              		.loc 1 1532 3 is_stmt 0 view .LVU67
 208 0048 FFF7FEFF 		bl	HAL_Delay
 209              	.LVL10:
1533:Drivers/STM32F7xx_HAL_Driver/Src/stm32f7xx_ll_usb.c **** 
1534:Drivers/STM32F7xx_HAL_Driver/Src/stm32f7xx_ll_usb.c ****   return HAL_OK;
 210              		.loc 1 1534 3 is_stmt 1 view .LVU68
 211              		.loc 1 1534 10 is_stmt 0 view .LVU69
 212 004c 0020     		movs	r0, #0
 213              	.L10:
1535:Drivers/STM32F7xx_HAL_Driver/Src/stm32f7xx_ll_usb.c **** }
 214              		.loc 1 1535 1 view .LVU70
 215 004e 03B0     		add	sp, sp, #12
 216              	.LCFI5:
 217              		.cfi_def_cfa_offset 4
 218              		@ sp needed
 219 0050 5DF804FB 		ldr	pc, [sp], #4
 220              	.L16:
 221              		.align	2
 222              	.L15:
 223 0054 007C0140 		.word	1073839104
 224              		.cfi_endproc
 225              	.LFE176:
 227              		.section	.text.USB_CoreInit,"ax",%progbits
 228              		.align	1
 229              		.global	USB_CoreInit
 230              		.syntax unified
 231              		.thumb
 232              		.thumb_func
 234              	USB_CoreInit:
ARM GAS  C:\Users\benny\AppData\Local\Temp\ccHko7Bj.s 			page 32


 235              	.LVL11:
 236              	.LFB141:
  87:Drivers/STM32F7xx_HAL_Driver/Src/stm32f7xx_ll_usb.c ****   HAL_StatusTypeDef ret;
 237              		.loc 1 87 1 is_stmt 1 view -0
 238              		.cfi_startproc
 239              		@ args = 20, pretend = 16, frame = 0
 240              		@ frame_needed = 0, uses_anonymous_args = 0
  87:Drivers/STM32F7xx_HAL_Driver/Src/stm32f7xx_ll_usb.c ****   HAL_StatusTypeDef ret;
 241              		.loc 1 87 1 is_stmt 0 view .LVU72
 242 0000 84B0     		sub	sp, sp, #16
 243              	.LCFI6:
 244              		.cfi_def_cfa_offset 16
 245 0002 10B5     		push	{r4, lr}
 246              	.LCFI7:
 247              		.cfi_def_cfa_offset 24
 248              		.cfi_offset 4, -24
 249              		.cfi_offset 14, -20
 250 0004 0446     		mov	r4, r0
 251 0006 03A8     		add	r0, sp, #12
 252              	.LVL12:
  87:Drivers/STM32F7xx_HAL_Driver/Src/stm32f7xx_ll_usb.c ****   HAL_StatusTypeDef ret;
 253              		.loc 1 87 1 view .LVU73
 254 0008 80E80E00 		stm	r0, {r1, r2, r3}
  88:Drivers/STM32F7xx_HAL_Driver/Src/stm32f7xx_ll_usb.c **** 
 255              		.loc 1 88 3 is_stmt 1 view .LVU74
  90:Drivers/STM32F7xx_HAL_Driver/Src/stm32f7xx_ll_usb.c ****   {
 256              		.loc 1 90 3 view .LVU75
  90:Drivers/STM32F7xx_HAL_Driver/Src/stm32f7xx_ll_usb.c ****   {
 257              		.loc 1 90 10 is_stmt 0 view .LVU76
 258 000c 9DF81130 		ldrb	r3, [sp, #17]	@ zero_extendqisi2
  90:Drivers/STM32F7xx_HAL_Driver/Src/stm32f7xx_ll_usb.c ****   {
 259              		.loc 1 90 6 view .LVU77
 260 0010 012B     		cmp	r3, #1
 261 0012 14D0     		beq	.L26
 116:Drivers/STM32F7xx_HAL_Driver/Src/stm32f7xx_ll_usb.c ****   {
 262              		.loc 1 116 8 is_stmt 1 view .LVU78
 116:Drivers/STM32F7xx_HAL_Driver/Src/stm32f7xx_ll_usb.c ****   {
 263              		.loc 1 116 11 is_stmt 0 view .LVU79
 264 0014 032B     		cmp	r3, #3
 265 0016 2FD0     		beq	.L27
 152:Drivers/STM32F7xx_HAL_Driver/Src/stm32f7xx_ll_usb.c **** 
 266              		.loc 1 152 5 is_stmt 1 view .LVU80
 152:Drivers/STM32F7xx_HAL_Driver/Src/stm32f7xx_ll_usb.c **** 
 267              		.loc 1 152 9 is_stmt 0 view .LVU81
 268 0018 E368     		ldr	r3, [r4, #12]
 152:Drivers/STM32F7xx_HAL_Driver/Src/stm32f7xx_ll_usb.c **** 
 269              		.loc 1 152 19 view .LVU82
 270 001a 43F04003 		orr	r3, r3, #64
 271 001e E360     		str	r3, [r4, #12]
 155:Drivers/STM32F7xx_HAL_Driver/Src/stm32f7xx_ll_usb.c **** 
 272              		.loc 1 155 5 is_stmt 1 view .LVU83
 155:Drivers/STM32F7xx_HAL_Driver/Src/stm32f7xx_ll_usb.c **** 
 273              		.loc 1 155 11 is_stmt 0 view .LVU84
 274 0020 2046     		mov	r0, r4
 275 0022 FFF7FEFF 		bl	USB_CoreReset
 276              	.LVL13:
 158:Drivers/STM32F7xx_HAL_Driver/Src/stm32f7xx_ll_usb.c ****   }
ARM GAS  C:\Users\benny\AppData\Local\Temp\ccHko7Bj.s 			page 33


 277              		.loc 1 158 5 is_stmt 1 view .LVU85
 158:Drivers/STM32F7xx_HAL_Driver/Src/stm32f7xx_ll_usb.c ****   }
 278              		.loc 1 158 9 is_stmt 0 view .LVU86
 279 0026 A36B     		ldr	r3, [r4, #56]
 158:Drivers/STM32F7xx_HAL_Driver/Src/stm32f7xx_ll_usb.c ****   }
 280              		.loc 1 158 17 view .LVU87
 281 0028 43F48033 		orr	r3, r3, #65536
 282 002c A363     		str	r3, [r4, #56]
 283              	.L20:
 161:Drivers/STM32F7xx_HAL_Driver/Src/stm32f7xx_ll_usb.c ****   {
 284              		.loc 1 161 3 is_stmt 1 view .LVU88
 161:Drivers/STM32F7xx_HAL_Driver/Src/stm32f7xx_ll_usb.c ****   {
 285              		.loc 1 161 10 is_stmt 0 view .LVU89
 286 002e 9DF80E30 		ldrb	r3, [sp, #14]	@ zero_extendqisi2
 161:Drivers/STM32F7xx_HAL_Driver/Src/stm32f7xx_ll_usb.c ****   {
 287              		.loc 1 161 6 view .LVU90
 288 0032 012B     		cmp	r3, #1
 289 0034 45D0     		beq	.L28
 290              	.LVL14:
 291              	.L22:
 168:Drivers/STM32F7xx_HAL_Driver/Src/stm32f7xx_ll_usb.c **** 
 292              		.loc 1 168 1 view .LVU91
 293 0036 BDE81040 		pop	{r4, lr}
 294              	.LCFI8:
 295              		.cfi_remember_state
 296              		.cfi_restore 14
 297              		.cfi_restore 4
 298              		.cfi_def_cfa_offset 16
 299              	.LVL15:
 168:Drivers/STM32F7xx_HAL_Driver/Src/stm32f7xx_ll_usb.c **** 
 300              		.loc 1 168 1 view .LVU92
 301 003a 04B0     		add	sp, sp, #16
 302              	.LCFI9:
 303              		.cfi_def_cfa_offset 0
 304 003c 7047     		bx	lr
 305              	.LVL16:
 306              	.L26:
 307              	.LCFI10:
 308              		.cfi_restore_state
  92:Drivers/STM32F7xx_HAL_Driver/Src/stm32f7xx_ll_usb.c **** 
 309              		.loc 1 92 5 is_stmt 1 view .LVU93
  92:Drivers/STM32F7xx_HAL_Driver/Src/stm32f7xx_ll_usb.c **** 
 310              		.loc 1 92 9 is_stmt 0 view .LVU94
 311 003e A36B     		ldr	r3, [r4, #56]
  92:Drivers/STM32F7xx_HAL_Driver/Src/stm32f7xx_ll_usb.c **** 
 312              		.loc 1 92 17 view .LVU95
 313 0040 23F48033 		bic	r3, r3, #65536
 314 0044 A363     		str	r3, [r4, #56]
  95:Drivers/STM32F7xx_HAL_Driver/Src/stm32f7xx_ll_usb.c **** 
 315              		.loc 1 95 5 is_stmt 1 view .LVU96
  95:Drivers/STM32F7xx_HAL_Driver/Src/stm32f7xx_ll_usb.c **** 
 316              		.loc 1 95 9 is_stmt 0 view .LVU97
 317 0046 E268     		ldr	r2, [r4, #12]
  95:Drivers/STM32F7xx_HAL_Driver/Src/stm32f7xx_ll_usb.c **** 
 318              		.loc 1 95 19 view .LVU98
 319 0048 234B     		ldr	r3, .L31
 320 004a 1340     		ands	r3, r3, r2
ARM GAS  C:\Users\benny\AppData\Local\Temp\ccHko7Bj.s 			page 34


 321 004c E360     		str	r3, [r4, #12]
 100:Drivers/STM32F7xx_HAL_Driver/Src/stm32f7xx_ll_usb.c **** #endif /* defined(STM32F722xx) || defined(STM32F723xx) || defined(STM32F730xx) ||
 322              		.loc 1 100 5 is_stmt 1 view .LVU99
 100:Drivers/STM32F7xx_HAL_Driver/Src/stm32f7xx_ll_usb.c **** #endif /* defined(STM32F722xx) || defined(STM32F723xx) || defined(STM32F730xx) ||
 323              		.loc 1 100 9 is_stmt 0 view .LVU100
 324 004e E368     		ldr	r3, [r4, #12]
 100:Drivers/STM32F7xx_HAL_Driver/Src/stm32f7xx_ll_usb.c **** #endif /* defined(STM32F722xx) || defined(STM32F723xx) || defined(STM32F730xx) ||
 325              		.loc 1 100 19 view .LVU101
 326 0050 43F01003 		orr	r3, r3, #16
 327 0054 E360     		str	r3, [r4, #12]
 105:Drivers/STM32F7xx_HAL_Driver/Src/stm32f7xx_ll_usb.c ****     if (cfg.use_external_vbus == 1U)
 328              		.loc 1 105 5 is_stmt 1 view .LVU102
 105:Drivers/STM32F7xx_HAL_Driver/Src/stm32f7xx_ll_usb.c ****     if (cfg.use_external_vbus == 1U)
 329              		.loc 1 105 9 is_stmt 0 view .LVU103
 330 0056 E368     		ldr	r3, [r4, #12]
 105:Drivers/STM32F7xx_HAL_Driver/Src/stm32f7xx_ll_usb.c ****     if (cfg.use_external_vbus == 1U)
 331              		.loc 1 105 19 view .LVU104
 332 0058 23F44013 		bic	r3, r3, #3145728
 333 005c E360     		str	r3, [r4, #12]
 106:Drivers/STM32F7xx_HAL_Driver/Src/stm32f7xx_ll_usb.c ****     {
 334              		.loc 1 106 5 is_stmt 1 view .LVU105
 106:Drivers/STM32F7xx_HAL_Driver/Src/stm32f7xx_ll_usb.c ****     {
 335              		.loc 1 106 12 is_stmt 0 view .LVU106
 336 005e 9DF81830 		ldrb	r3, [sp, #24]	@ zero_extendqisi2
 106:Drivers/STM32F7xx_HAL_Driver/Src/stm32f7xx_ll_usb.c ****     {
 337              		.loc 1 106 8 view .LVU107
 338 0062 012B     		cmp	r3, #1
 339 0064 03D0     		beq	.L29
 340              	.L19:
 112:Drivers/STM32F7xx_HAL_Driver/Src/stm32f7xx_ll_usb.c ****   }
 341              		.loc 1 112 5 is_stmt 1 view .LVU108
 112:Drivers/STM32F7xx_HAL_Driver/Src/stm32f7xx_ll_usb.c ****   }
 342              		.loc 1 112 11 is_stmt 0 view .LVU109
 343 0066 2046     		mov	r0, r4
 344 0068 FFF7FEFF 		bl	USB_CoreReset
 345              	.LVL17:
 112:Drivers/STM32F7xx_HAL_Driver/Src/stm32f7xx_ll_usb.c ****   }
 346              		.loc 1 112 11 view .LVU110
 347 006c DFE7     		b	.L20
 348              	.LVL18:
 349              	.L29:
 108:Drivers/STM32F7xx_HAL_Driver/Src/stm32f7xx_ll_usb.c ****     }
 350              		.loc 1 108 7 is_stmt 1 view .LVU111
 108:Drivers/STM32F7xx_HAL_Driver/Src/stm32f7xx_ll_usb.c ****     }
 351              		.loc 1 108 11 is_stmt 0 view .LVU112
 352 006e E368     		ldr	r3, [r4, #12]
 108:Drivers/STM32F7xx_HAL_Driver/Src/stm32f7xx_ll_usb.c ****     }
 353              		.loc 1 108 21 view .LVU113
 354 0070 43F48013 		orr	r3, r3, #1048576
 355 0074 E360     		str	r3, [r4, #12]
 356 0076 F6E7     		b	.L19
 357              	.L27:
 118:Drivers/STM32F7xx_HAL_Driver/Src/stm32f7xx_ll_usb.c **** 
 358              		.loc 1 118 5 is_stmt 1 view .LVU114
 118:Drivers/STM32F7xx_HAL_Driver/Src/stm32f7xx_ll_usb.c **** 
 359              		.loc 1 118 9 is_stmt 0 view .LVU115
 360 0078 A36B     		ldr	r3, [r4, #56]
ARM GAS  C:\Users\benny\AppData\Local\Temp\ccHko7Bj.s 			page 35


 118:Drivers/STM32F7xx_HAL_Driver/Src/stm32f7xx_ll_usb.c **** 
 361              		.loc 1 118 17 view .LVU116
 362 007a 23F48033 		bic	r3, r3, #65536
 363 007e A363     		str	r3, [r4, #56]
 121:Drivers/STM32F7xx_HAL_Driver/Src/stm32f7xx_ll_usb.c **** 
 364              		.loc 1 121 5 is_stmt 1 view .LVU117
 121:Drivers/STM32F7xx_HAL_Driver/Src/stm32f7xx_ll_usb.c **** 
 365              		.loc 1 121 9 is_stmt 0 view .LVU118
 366 0080 E268     		ldr	r2, [r4, #12]
 121:Drivers/STM32F7xx_HAL_Driver/Src/stm32f7xx_ll_usb.c **** 
 367              		.loc 1 121 19 view .LVU119
 368 0082 154B     		ldr	r3, .L31
 369 0084 1340     		ands	r3, r3, r2
 370 0086 E360     		str	r3, [r4, #12]
 124:Drivers/STM32F7xx_HAL_Driver/Src/stm32f7xx_ll_usb.c **** 
 371              		.loc 1 124 5 is_stmt 1 view .LVU120
 124:Drivers/STM32F7xx_HAL_Driver/Src/stm32f7xx_ll_usb.c **** 
 372              		.loc 1 124 9 is_stmt 0 view .LVU121
 373 0088 E368     		ldr	r3, [r4, #12]
 124:Drivers/STM32F7xx_HAL_Driver/Src/stm32f7xx_ll_usb.c **** 
 374              		.loc 1 124 19 view .LVU122
 375 008a 23F44013 		bic	r3, r3, #3145728
 376 008e E360     		str	r3, [r4, #12]
 127:Drivers/STM32F7xx_HAL_Driver/Src/stm32f7xx_ll_usb.c **** #ifdef USBPHYC
 377              		.loc 1 127 5 is_stmt 1 view .LVU123
 127:Drivers/STM32F7xx_HAL_Driver/Src/stm32f7xx_ll_usb.c **** #ifdef USBPHYC
 378              		.loc 1 127 9 is_stmt 0 view .LVU124
 379 0090 E368     		ldr	r3, [r4, #12]
 127:Drivers/STM32F7xx_HAL_Driver/Src/stm32f7xx_ll_usb.c **** #ifdef USBPHYC
 380              		.loc 1 127 19 view .LVU125
 381 0092 23F01003 		bic	r3, r3, #16
 382 0096 E360     		str	r3, [r4, #12]
 130:Drivers/STM32F7xx_HAL_Driver/Src/stm32f7xx_ll_usb.c **** 
 383              		.loc 1 130 5 is_stmt 1 view .LVU126
 130:Drivers/STM32F7xx_HAL_Driver/Src/stm32f7xx_ll_usb.c **** 
 384              		.loc 1 130 9 is_stmt 0 view .LVU127
 385 0098 A36B     		ldr	r3, [r4, #56]
 130:Drivers/STM32F7xx_HAL_Driver/Src/stm32f7xx_ll_usb.c **** 
 386              		.loc 1 130 17 view .LVU128
 387 009a 43F40003 		orr	r3, r3, #8388608
 388 009e A363     		str	r3, [r4, #56]
 133:Drivers/STM32F7xx_HAL_Driver/Src/stm32f7xx_ll_usb.c ****     {
 389              		.loc 1 133 5 is_stmt 1 view .LVU129
 133:Drivers/STM32F7xx_HAL_Driver/Src/stm32f7xx_ll_usb.c ****     {
 390              		.loc 1 133 9 is_stmt 0 view .LVU130
 391 00a0 2046     		mov	r0, r4
 392 00a2 FFF7FEFF 		bl	USB_HS_PHYCInit
 393              	.LVL19:
 133:Drivers/STM32F7xx_HAL_Driver/Src/stm32f7xx_ll_usb.c ****     {
 394              		.loc 1 133 8 view .LVU131
 395 00a6 A8B9     		cbnz	r0, .L24
 139:Drivers/STM32F7xx_HAL_Driver/Src/stm32f7xx_ll_usb.c ****     {
 396              		.loc 1 139 5 is_stmt 1 view .LVU132
 139:Drivers/STM32F7xx_HAL_Driver/Src/stm32f7xx_ll_usb.c ****     {
 397              		.loc 1 139 12 is_stmt 0 view .LVU133
 398 00a8 9DF81830 		ldrb	r3, [sp, #24]	@ zero_extendqisi2
 139:Drivers/STM32F7xx_HAL_Driver/Src/stm32f7xx_ll_usb.c ****     {
ARM GAS  C:\Users\benny\AppData\Local\Temp\ccHko7Bj.s 			page 36


 399              		.loc 1 139 8 view .LVU134
 400 00ac 012B     		cmp	r3, #1
 401 00ae 03D0     		beq	.L30
 402              	.L23:
 145:Drivers/STM32F7xx_HAL_Driver/Src/stm32f7xx_ll_usb.c ****   }
 403              		.loc 1 145 5 is_stmt 1 view .LVU135
 145:Drivers/STM32F7xx_HAL_Driver/Src/stm32f7xx_ll_usb.c ****   }
 404              		.loc 1 145 11 is_stmt 0 view .LVU136
 405 00b0 2046     		mov	r0, r4
 406 00b2 FFF7FEFF 		bl	USB_CoreReset
 407              	.LVL20:
 145:Drivers/STM32F7xx_HAL_Driver/Src/stm32f7xx_ll_usb.c ****   }
 408              		.loc 1 145 11 view .LVU137
 409 00b6 BAE7     		b	.L20
 410              	.LVL21:
 411              	.L30:
 141:Drivers/STM32F7xx_HAL_Driver/Src/stm32f7xx_ll_usb.c ****     }
 412              		.loc 1 141 7 is_stmt 1 view .LVU138
 141:Drivers/STM32F7xx_HAL_Driver/Src/stm32f7xx_ll_usb.c ****     }
 413              		.loc 1 141 11 is_stmt 0 view .LVU139
 414 00b8 E368     		ldr	r3, [r4, #12]
 141:Drivers/STM32F7xx_HAL_Driver/Src/stm32f7xx_ll_usb.c ****     }
 415              		.loc 1 141 21 view .LVU140
 416 00ba 43F48013 		orr	r3, r3, #1048576
 417 00be E360     		str	r3, [r4, #12]
 418 00c0 F6E7     		b	.L23
 419              	.LVL22:
 420              	.L28:
 163:Drivers/STM32F7xx_HAL_Driver/Src/stm32f7xx_ll_usb.c ****     USBx->GAHBCFG |= USB_OTG_GAHBCFG_DMAEN;
 421              		.loc 1 163 5 is_stmt 1 view .LVU141
 163:Drivers/STM32F7xx_HAL_Driver/Src/stm32f7xx_ll_usb.c ****     USBx->GAHBCFG |= USB_OTG_GAHBCFG_DMAEN;
 422              		.loc 1 163 9 is_stmt 0 view .LVU142
 423 00c2 A368     		ldr	r3, [r4, #8]
 163:Drivers/STM32F7xx_HAL_Driver/Src/stm32f7xx_ll_usb.c ****     USBx->GAHBCFG |= USB_OTG_GAHBCFG_DMAEN;
 424              		.loc 1 163 19 view .LVU143
 425 00c4 43F00603 		orr	r3, r3, #6
 426 00c8 A360     		str	r3, [r4, #8]
 164:Drivers/STM32F7xx_HAL_Driver/Src/stm32f7xx_ll_usb.c ****   }
 427              		.loc 1 164 5 is_stmt 1 view .LVU144
 164:Drivers/STM32F7xx_HAL_Driver/Src/stm32f7xx_ll_usb.c ****   }
 428              		.loc 1 164 9 is_stmt 0 view .LVU145
 429 00ca A368     		ldr	r3, [r4, #8]
 164:Drivers/STM32F7xx_HAL_Driver/Src/stm32f7xx_ll_usb.c ****   }
 430              		.loc 1 164 19 view .LVU146
 431 00cc 43F02003 		orr	r3, r3, #32
 432 00d0 A360     		str	r3, [r4, #8]
 433 00d2 B0E7     		b	.L22
 434              	.LVL23:
 435              	.L24:
 135:Drivers/STM32F7xx_HAL_Driver/Src/stm32f7xx_ll_usb.c ****     }
 436              		.loc 1 135 14 view .LVU147
 437 00d4 0120     		movs	r0, #1
 438 00d6 AEE7     		b	.L22
 439              	.L32:
 440              		.align	2
 441              	.L31:
 442 00d8 BFFFBDFF 		.word	-4325441
ARM GAS  C:\Users\benny\AppData\Local\Temp\ccHko7Bj.s 			page 37


 443              		.cfi_endproc
 444              	.LFE141:
 446              		.section	.text.USB_SetTurnaroundTime,"ax",%progbits
 447              		.align	1
 448              		.global	USB_SetTurnaroundTime
 449              		.syntax unified
 450              		.thumb
 451              		.thumb_func
 453              	USB_SetTurnaroundTime:
 454              	.LVL24:
 455              	.LFB142:
 179:Drivers/STM32F7xx_HAL_Driver/Src/stm32f7xx_ll_usb.c ****   uint32_t UsbTrd;
 456              		.loc 1 179 1 is_stmt 1 view -0
 457              		.cfi_startproc
 458              		@ args = 0, pretend = 0, frame = 0
 459              		@ frame_needed = 0, uses_anonymous_args = 0
 460              		@ link register save eliminated.
 180:Drivers/STM32F7xx_HAL_Driver/Src/stm32f7xx_ll_usb.c **** 
 461              		.loc 1 180 3 view .LVU149
 186:Drivers/STM32F7xx_HAL_Driver/Src/stm32f7xx_ll_usb.c ****   {
 462              		.loc 1 186 3 view .LVU150
 186:Drivers/STM32F7xx_HAL_Driver/Src/stm32f7xx_ll_usb.c ****   {
 463              		.loc 1 186 6 is_stmt 0 view .LVU151
 464 0000 022A     		cmp	r2, #2
 465 0002 0AD0     		beq	.L45
 241:Drivers/STM32F7xx_HAL_Driver/Src/stm32f7xx_ll_usb.c ****   }
 466              		.loc 1 241 12 view .LVU152
 467 0004 0922     		movs	r2, #9
 468              	.LVL25:
 469              	.L34:
 248:Drivers/STM32F7xx_HAL_Driver/Src/stm32f7xx_ll_usb.c ****   USBx->GUSBCFG |= (uint32_t)((UsbTrd << 10) & USB_OTG_GUSBCFG_TRDT);
 470              		.loc 1 248 3 is_stmt 1 view .LVU153
 248:Drivers/STM32F7xx_HAL_Driver/Src/stm32f7xx_ll_usb.c ****   USBx->GUSBCFG |= (uint32_t)((UsbTrd << 10) & USB_OTG_GUSBCFG_TRDT);
 471              		.loc 1 248 7 is_stmt 0 view .LVU154
 472 0006 C368     		ldr	r3, [r0, #12]
 248:Drivers/STM32F7xx_HAL_Driver/Src/stm32f7xx_ll_usb.c ****   USBx->GUSBCFG |= (uint32_t)((UsbTrd << 10) & USB_OTG_GUSBCFG_TRDT);
 473              		.loc 1 248 17 view .LVU155
 474 0008 23F47053 		bic	r3, r3, #15360
 475 000c C360     		str	r3, [r0, #12]
 249:Drivers/STM32F7xx_HAL_Driver/Src/stm32f7xx_ll_usb.c **** 
 476              		.loc 1 249 3 is_stmt 1 view .LVU156
 249:Drivers/STM32F7xx_HAL_Driver/Src/stm32f7xx_ll_usb.c **** 
 477              		.loc 1 249 7 is_stmt 0 view .LVU157
 478 000e C368     		ldr	r3, [r0, #12]
 249:Drivers/STM32F7xx_HAL_Driver/Src/stm32f7xx_ll_usb.c **** 
 479              		.loc 1 249 17 view .LVU158
 480 0010 43EA8223 		orr	r3, r3, r2, lsl #10
 481 0014 C360     		str	r3, [r0, #12]
 251:Drivers/STM32F7xx_HAL_Driver/Src/stm32f7xx_ll_usb.c **** }
 482              		.loc 1 251 3 is_stmt 1 view .LVU159
 252:Drivers/STM32F7xx_HAL_Driver/Src/stm32f7xx_ll_usb.c **** 
 483              		.loc 1 252 1 is_stmt 0 view .LVU160
 484 0016 0020     		movs	r0, #0
 485              	.LVL26:
 252:Drivers/STM32F7xx_HAL_Driver/Src/stm32f7xx_ll_usb.c **** 
 486              		.loc 1 252 1 view .LVU161
 487 0018 7047     		bx	lr
ARM GAS  C:\Users\benny\AppData\Local\Temp\ccHko7Bj.s 			page 38


 488              	.LVL27:
 489              	.L45:
 188:Drivers/STM32F7xx_HAL_Driver/Src/stm32f7xx_ll_usb.c ****     {
 490              		.loc 1 188 5 is_stmt 1 view .LVU162
 188:Drivers/STM32F7xx_HAL_Driver/Src/stm32f7xx_ll_usb.c ****     {
 491              		.loc 1 188 29 is_stmt 0 view .LVU163
 492 001a 204B     		ldr	r3, .L46
 493 001c 0B44     		add	r3, r3, r1
 188:Drivers/STM32F7xx_HAL_Driver/Src/stm32f7xx_ll_usb.c ****     {
 494              		.loc 1 188 8 view .LVU164
 495 001e 204A     		ldr	r2, .L46+4
 496              	.LVL28:
 188:Drivers/STM32F7xx_HAL_Driver/Src/stm32f7xx_ll_usb.c ****     {
 497              		.loc 1 188 8 view .LVU165
 498 0020 9342     		cmp	r3, r2
 499 0022 29D9     		bls	.L36
 193:Drivers/STM32F7xx_HAL_Driver/Src/stm32f7xx_ll_usb.c ****     {
 500              		.loc 1 193 10 is_stmt 1 view .LVU166
 193:Drivers/STM32F7xx_HAL_Driver/Src/stm32f7xx_ll_usb.c ****     {
 501              		.loc 1 193 34 is_stmt 0 view .LVU167
 502 0024 1F4B     		ldr	r3, .L46+8
 503 0026 0B44     		add	r3, r3, r1
 193:Drivers/STM32F7xx_HAL_Driver/Src/stm32f7xx_ll_usb.c ****     {
 504              		.loc 1 193 13 view .LVU168
 505 0028 1F4A     		ldr	r2, .L46+12
 506 002a 9342     		cmp	r3, r2
 507 002c 26D9     		bls	.L37
 198:Drivers/STM32F7xx_HAL_Driver/Src/stm32f7xx_ll_usb.c ****     {
 508              		.loc 1 198 10 is_stmt 1 view .LVU169
 198:Drivers/STM32F7xx_HAL_Driver/Src/stm32f7xx_ll_usb.c ****     {
 509              		.loc 1 198 34 is_stmt 0 view .LVU170
 510 002e 1F4B     		ldr	r3, .L46+16
 511 0030 0B44     		add	r3, r3, r1
 198:Drivers/STM32F7xx_HAL_Driver/Src/stm32f7xx_ll_usb.c ****     {
 512              		.loc 1 198 13 view .LVU171
 513 0032 1F4A     		ldr	r2, .L46+20
 514 0034 9342     		cmp	r3, r2
 515 0036 23D9     		bls	.L38
 203:Drivers/STM32F7xx_HAL_Driver/Src/stm32f7xx_ll_usb.c ****     {
 516              		.loc 1 203 10 is_stmt 1 view .LVU172
 203:Drivers/STM32F7xx_HAL_Driver/Src/stm32f7xx_ll_usb.c ****     {
 517              		.loc 1 203 34 is_stmt 0 view .LVU173
 518 0038 1E4B     		ldr	r3, .L46+24
 519 003a 0B44     		add	r3, r3, r1
 203:Drivers/STM32F7xx_HAL_Driver/Src/stm32f7xx_ll_usb.c ****     {
 520              		.loc 1 203 13 view .LVU174
 521 003c 1E4A     		ldr	r2, .L46+28
 522 003e 9342     		cmp	r3, r2
 523 0040 20D3     		bcc	.L39
 208:Drivers/STM32F7xx_HAL_Driver/Src/stm32f7xx_ll_usb.c ****     {
 524              		.loc 1 208 10 is_stmt 1 view .LVU175
 208:Drivers/STM32F7xx_HAL_Driver/Src/stm32f7xx_ll_usb.c ****     {
 525              		.loc 1 208 34 is_stmt 0 view .LVU176
 526 0042 1E4B     		ldr	r3, .L46+32
 527 0044 0B44     		add	r3, r3, r1
 208:Drivers/STM32F7xx_HAL_Driver/Src/stm32f7xx_ll_usb.c ****     {
 528              		.loc 1 208 13 view .LVU177
ARM GAS  C:\Users\benny\AppData\Local\Temp\ccHko7Bj.s 			page 39


 529 0046 1E4A     		ldr	r2, .L46+36
 530 0048 9342     		cmp	r3, r2
 531 004a 1DD9     		bls	.L40
 213:Drivers/STM32F7xx_HAL_Driver/Src/stm32f7xx_ll_usb.c ****     {
 532              		.loc 1 213 10 is_stmt 1 view .LVU178
 213:Drivers/STM32F7xx_HAL_Driver/Src/stm32f7xx_ll_usb.c ****     {
 533              		.loc 1 213 34 is_stmt 0 view .LVU179
 534 004c 1D4B     		ldr	r3, .L46+40
 535 004e 0B44     		add	r3, r3, r1
 213:Drivers/STM32F7xx_HAL_Driver/Src/stm32f7xx_ll_usb.c ****     {
 536              		.loc 1 213 13 view .LVU180
 537 0050 1D4A     		ldr	r2, .L46+44
 538 0052 9342     		cmp	r3, r2
 539 0054 1AD3     		bcc	.L41
 218:Drivers/STM32F7xx_HAL_Driver/Src/stm32f7xx_ll_usb.c ****     {
 540              		.loc 1 218 10 is_stmt 1 view .LVU181
 218:Drivers/STM32F7xx_HAL_Driver/Src/stm32f7xx_ll_usb.c ****     {
 541              		.loc 1 218 34 is_stmt 0 view .LVU182
 542 0056 1D4B     		ldr	r3, .L46+48
 543 0058 0B44     		add	r3, r3, r1
 218:Drivers/STM32F7xx_HAL_Driver/Src/stm32f7xx_ll_usb.c ****     {
 544              		.loc 1 218 13 view .LVU183
 545 005a 1D4A     		ldr	r2, .L46+52
 546 005c 9342     		cmp	r3, r2
 547 005e 17D3     		bcc	.L42
 223:Drivers/STM32F7xx_HAL_Driver/Src/stm32f7xx_ll_usb.c ****     {
 548              		.loc 1 223 10 is_stmt 1 view .LVU184
 223:Drivers/STM32F7xx_HAL_Driver/Src/stm32f7xx_ll_usb.c ****     {
 549              		.loc 1 223 34 is_stmt 0 view .LVU185
 550 0060 1C4B     		ldr	r3, .L46+56
 551 0062 0B44     		add	r3, r3, r1
 223:Drivers/STM32F7xx_HAL_Driver/Src/stm32f7xx_ll_usb.c ****     {
 552              		.loc 1 223 13 view .LVU186
 553 0064 1C4A     		ldr	r2, .L46+60
 554 0066 9342     		cmp	r3, r2
 555 0068 14D3     		bcc	.L43
 228:Drivers/STM32F7xx_HAL_Driver/Src/stm32f7xx_ll_usb.c ****     {
 556              		.loc 1 228 10 is_stmt 1 view .LVU187
 228:Drivers/STM32F7xx_HAL_Driver/Src/stm32f7xx_ll_usb.c ****     {
 557              		.loc 1 228 34 is_stmt 0 view .LVU188
 558 006a 1C4B     		ldr	r3, .L46+64
 559 006c 0B44     		add	r3, r3, r1
 228:Drivers/STM32F7xx_HAL_Driver/Src/stm32f7xx_ll_usb.c ****     {
 560              		.loc 1 228 13 view .LVU189
 561 006e 1C4A     		ldr	r2, .L46+68
 562 0070 9342     		cmp	r3, r2
 563 0072 11D2     		bcs	.L44
 231:Drivers/STM32F7xx_HAL_Driver/Src/stm32f7xx_ll_usb.c ****     }
 564              		.loc 1 231 14 view .LVU190
 565 0074 0722     		movs	r2, #7
 566 0076 C6E7     		b	.L34
 567              	.L36:
 191:Drivers/STM32F7xx_HAL_Driver/Src/stm32f7xx_ll_usb.c ****     }
 568              		.loc 1 191 14 view .LVU191
 569 0078 0F22     		movs	r2, #15
 570 007a C4E7     		b	.L34
 571              	.L37:
ARM GAS  C:\Users\benny\AppData\Local\Temp\ccHko7Bj.s 			page 40


 196:Drivers/STM32F7xx_HAL_Driver/Src/stm32f7xx_ll_usb.c ****     }
 572              		.loc 1 196 14 view .LVU192
 573 007c 0E22     		movs	r2, #14
 574 007e C2E7     		b	.L34
 575              	.L38:
 201:Drivers/STM32F7xx_HAL_Driver/Src/stm32f7xx_ll_usb.c ****     }
 576              		.loc 1 201 14 view .LVU193
 577 0080 0D22     		movs	r2, #13
 578 0082 C0E7     		b	.L34
 579              	.L39:
 206:Drivers/STM32F7xx_HAL_Driver/Src/stm32f7xx_ll_usb.c ****     }
 580              		.loc 1 206 14 view .LVU194
 581 0084 0C22     		movs	r2, #12
 582 0086 BEE7     		b	.L34
 583              	.L40:
 211:Drivers/STM32F7xx_HAL_Driver/Src/stm32f7xx_ll_usb.c ****     }
 584              		.loc 1 211 14 view .LVU195
 585 0088 0B22     		movs	r2, #11
 586 008a BCE7     		b	.L34
 587              	.L41:
 216:Drivers/STM32F7xx_HAL_Driver/Src/stm32f7xx_ll_usb.c ****     }
 588              		.loc 1 216 14 view .LVU196
 589 008c 0A22     		movs	r2, #10
 590 008e BAE7     		b	.L34
 591              	.L42:
 221:Drivers/STM32F7xx_HAL_Driver/Src/stm32f7xx_ll_usb.c ****     }
 592              		.loc 1 221 14 view .LVU197
 593 0090 0922     		movs	r2, #9
 594 0092 B8E7     		b	.L34
 595              	.L43:
 226:Drivers/STM32F7xx_HAL_Driver/Src/stm32f7xx_ll_usb.c ****     }
 596              		.loc 1 226 14 view .LVU198
 597 0094 0822     		movs	r2, #8
 598 0096 B6E7     		b	.L34
 599              	.L44:
 236:Drivers/STM32F7xx_HAL_Driver/Src/stm32f7xx_ll_usb.c ****     }
 600              		.loc 1 236 14 view .LVU199
 601 0098 0622     		movs	r2, #6
 602 009a B4E7     		b	.L34
 603              	.L47:
 604              		.align	2
 605              	.L46:
 606 009c 405327FF 		.word	-14200000
 607 00a0 FF340C00 		.word	799999
 608 00a4 401E1BFF 		.word	-15000000
 609 00a8 3F420F00 		.word	999999
 610 00ac 00DC0BFF 		.word	-16000000
 611 00b0 7F4F1200 		.word	1199999
 612 00b4 808CF9FE 		.word	-17200000
 613 00b8 20D61300 		.word	1300000
 614 00bc 60B6E5FE 		.word	-18500000
 615 00c0 5FE31600 		.word	1499999
 616 00c4 00D3CEFE 		.word	-20000000
 617 00c8 40771B00 		.word	1800000
 618 00cc C05BB3FE 		.word	-21800000
 619 00d0 C0912100 		.word	2200000
 620 00d4 00CA91FE 		.word	-24000000
ARM GAS  C:\Users\benny\AppData\Local\Temp\ccHko7Bj.s 			page 41


 621 00d8 20753800 		.word	3700000
 622 00dc E05459FE 		.word	-27700000
 623 00e0 E09C4100 		.word	4300000
 624              		.cfi_endproc
 625              	.LFE142:
 627              		.section	.text.USB_EnableGlobalInt,"ax",%progbits
 628              		.align	1
 629              		.global	USB_EnableGlobalInt
 630              		.syntax unified
 631              		.thumb
 632              		.thumb_func
 634              	USB_EnableGlobalInt:
 635              	.LVL29:
 636              	.LFB143:
 261:Drivers/STM32F7xx_HAL_Driver/Src/stm32f7xx_ll_usb.c ****   USBx->GAHBCFG |= USB_OTG_GAHBCFG_GINT;
 637              		.loc 1 261 1 is_stmt 1 view -0
 638              		.cfi_startproc
 639              		@ args = 0, pretend = 0, frame = 0
 640              		@ frame_needed = 0, uses_anonymous_args = 0
 641              		@ link register save eliminated.
 262:Drivers/STM32F7xx_HAL_Driver/Src/stm32f7xx_ll_usb.c ****   return HAL_OK;
 642              		.loc 1 262 3 view .LVU201
 262:Drivers/STM32F7xx_HAL_Driver/Src/stm32f7xx_ll_usb.c ****   return HAL_OK;
 643              		.loc 1 262 7 is_stmt 0 view .LVU202
 644 0000 8368     		ldr	r3, [r0, #8]
 262:Drivers/STM32F7xx_HAL_Driver/Src/stm32f7xx_ll_usb.c ****   return HAL_OK;
 645              		.loc 1 262 17 view .LVU203
 646 0002 43F00103 		orr	r3, r3, #1
 647 0006 8360     		str	r3, [r0, #8]
 263:Drivers/STM32F7xx_HAL_Driver/Src/stm32f7xx_ll_usb.c **** }
 648              		.loc 1 263 3 is_stmt 1 view .LVU204
 264:Drivers/STM32F7xx_HAL_Driver/Src/stm32f7xx_ll_usb.c **** 
 649              		.loc 1 264 1 is_stmt 0 view .LVU205
 650 0008 0020     		movs	r0, #0
 651              	.LVL30:
 264:Drivers/STM32F7xx_HAL_Driver/Src/stm32f7xx_ll_usb.c **** 
 652              		.loc 1 264 1 view .LVU206
 653 000a 7047     		bx	lr
 654              		.cfi_endproc
 655              	.LFE143:
 657              		.section	.text.USB_DisableGlobalInt,"ax",%progbits
 658              		.align	1
 659              		.global	USB_DisableGlobalInt
 660              		.syntax unified
 661              		.thumb
 662              		.thumb_func
 664              	USB_DisableGlobalInt:
 665              	.LVL31:
 666              	.LFB144:
 273:Drivers/STM32F7xx_HAL_Driver/Src/stm32f7xx_ll_usb.c ****   USBx->GAHBCFG &= ~USB_OTG_GAHBCFG_GINT;
 667              		.loc 1 273 1 is_stmt 1 view -0
 668              		.cfi_startproc
 669              		@ args = 0, pretend = 0, frame = 0
 670              		@ frame_needed = 0, uses_anonymous_args = 0
 671              		@ link register save eliminated.
 274:Drivers/STM32F7xx_HAL_Driver/Src/stm32f7xx_ll_usb.c ****   return HAL_OK;
 672              		.loc 1 274 3 view .LVU208
ARM GAS  C:\Users\benny\AppData\Local\Temp\ccHko7Bj.s 			page 42


 274:Drivers/STM32F7xx_HAL_Driver/Src/stm32f7xx_ll_usb.c ****   return HAL_OK;
 673              		.loc 1 274 7 is_stmt 0 view .LVU209
 674 0000 8368     		ldr	r3, [r0, #8]
 274:Drivers/STM32F7xx_HAL_Driver/Src/stm32f7xx_ll_usb.c ****   return HAL_OK;
 675              		.loc 1 274 17 view .LVU210
 676 0002 23F00103 		bic	r3, r3, #1
 677 0006 8360     		str	r3, [r0, #8]
 275:Drivers/STM32F7xx_HAL_Driver/Src/stm32f7xx_ll_usb.c **** }
 678              		.loc 1 275 3 is_stmt 1 view .LVU211
 276:Drivers/STM32F7xx_HAL_Driver/Src/stm32f7xx_ll_usb.c **** 
 679              		.loc 1 276 1 is_stmt 0 view .LVU212
 680 0008 0020     		movs	r0, #0
 681              	.LVL32:
 276:Drivers/STM32F7xx_HAL_Driver/Src/stm32f7xx_ll_usb.c **** 
 682              		.loc 1 276 1 view .LVU213
 683 000a 7047     		bx	lr
 684              		.cfi_endproc
 685              	.LFE144:
 687              		.section	.text.USB_FlushTxFifo,"ax",%progbits
 688              		.align	1
 689              		.global	USB_FlushTxFifo
 690              		.syntax unified
 691              		.thumb
 692              		.thumb_func
 694              	USB_FlushTxFifo:
 695              	.LVL33:
 696              	.LFB147:
 504:Drivers/STM32F7xx_HAL_Driver/Src/stm32f7xx_ll_usb.c ****   __IO uint32_t count = 0U;
 697              		.loc 1 504 1 is_stmt 1 view -0
 698              		.cfi_startproc
 699              		@ args = 0, pretend = 0, frame = 8
 700              		@ frame_needed = 0, uses_anonymous_args = 0
 701              		@ link register save eliminated.
 504:Drivers/STM32F7xx_HAL_Driver/Src/stm32f7xx_ll_usb.c ****   __IO uint32_t count = 0U;
 702              		.loc 1 504 1 is_stmt 0 view .LVU215
 703 0000 82B0     		sub	sp, sp, #8
 704              	.LCFI11:
 705              		.cfi_def_cfa_offset 8
 505:Drivers/STM32F7xx_HAL_Driver/Src/stm32f7xx_ll_usb.c **** 
 706              		.loc 1 505 3 is_stmt 1 view .LVU216
 505:Drivers/STM32F7xx_HAL_Driver/Src/stm32f7xx_ll_usb.c **** 
 707              		.loc 1 505 17 is_stmt 0 view .LVU217
 708 0002 0023     		movs	r3, #0
 709 0004 0193     		str	r3, [sp, #4]
 710              	.L52:
 508:Drivers/STM32F7xx_HAL_Driver/Src/stm32f7xx_ll_usb.c ****   {
 711              		.loc 1 508 3 is_stmt 1 view .LVU218
 510:Drivers/STM32F7xx_HAL_Driver/Src/stm32f7xx_ll_usb.c **** 
 712              		.loc 1 510 5 view .LVU219
 510:Drivers/STM32F7xx_HAL_Driver/Src/stm32f7xx_ll_usb.c **** 
 713              		.loc 1 510 10 is_stmt 0 view .LVU220
 714 0006 019B     		ldr	r3, [sp, #4]
 715 0008 0133     		adds	r3, r3, #1
 716 000a 0193     		str	r3, [sp, #4]
 512:Drivers/STM32F7xx_HAL_Driver/Src/stm32f7xx_ll_usb.c ****     {
 717              		.loc 1 512 5 is_stmt 1 view .LVU221
 512:Drivers/STM32F7xx_HAL_Driver/Src/stm32f7xx_ll_usb.c ****     {
ARM GAS  C:\Users\benny\AppData\Local\Temp\ccHko7Bj.s 			page 43


 718              		.loc 1 512 15 is_stmt 0 view .LVU222
 719 000c 019B     		ldr	r3, [sp, #4]
 512:Drivers/STM32F7xx_HAL_Driver/Src/stm32f7xx_ll_usb.c ****     {
 720              		.loc 1 512 8 view .LVU223
 721 000e B3F1706F 		cmp	r3, #251658240
 722 0012 15D8     		bhi	.L54
 516:Drivers/STM32F7xx_HAL_Driver/Src/stm32f7xx_ll_usb.c **** 
 723              		.loc 1 516 53 is_stmt 1 view .LVU224
 516:Drivers/STM32F7xx_HAL_Driver/Src/stm32f7xx_ll_usb.c **** 
 724              		.loc 1 516 17 is_stmt 0 view .LVU225
 725 0014 0369     		ldr	r3, [r0, #16]
 516:Drivers/STM32F7xx_HAL_Driver/Src/stm32f7xx_ll_usb.c **** 
 726              		.loc 1 516 53 view .LVU226
 727 0016 002B     		cmp	r3, #0
 728 0018 F5DA     		bge	.L52
 519:Drivers/STM32F7xx_HAL_Driver/Src/stm32f7xx_ll_usb.c ****   USBx->GRSTCTL = (USB_OTG_GRSTCTL_TXFFLSH | (num << 6));
 729              		.loc 1 519 3 is_stmt 1 view .LVU227
 519:Drivers/STM32F7xx_HAL_Driver/Src/stm32f7xx_ll_usb.c ****   USBx->GRSTCTL = (USB_OTG_GRSTCTL_TXFFLSH | (num << 6));
 730              		.loc 1 519 9 is_stmt 0 view .LVU228
 731 001a 0023     		movs	r3, #0
 732 001c 0193     		str	r3, [sp, #4]
 520:Drivers/STM32F7xx_HAL_Driver/Src/stm32f7xx_ll_usb.c **** 
 733              		.loc 1 520 3 is_stmt 1 view .LVU229
 520:Drivers/STM32F7xx_HAL_Driver/Src/stm32f7xx_ll_usb.c **** 
 734              		.loc 1 520 51 is_stmt 0 view .LVU230
 735 001e 8901     		lsls	r1, r1, #6
 736              	.LVL34:
 520:Drivers/STM32F7xx_HAL_Driver/Src/stm32f7xx_ll_usb.c **** 
 737              		.loc 1 520 44 view .LVU231
 738 0020 41F02001 		orr	r1, r1, #32
 520:Drivers/STM32F7xx_HAL_Driver/Src/stm32f7xx_ll_usb.c **** 
 739              		.loc 1 520 17 view .LVU232
 740 0024 0161     		str	r1, [r0, #16]
 741              	.L53:
 522:Drivers/STM32F7xx_HAL_Driver/Src/stm32f7xx_ll_usb.c ****   {
 742              		.loc 1 522 3 is_stmt 1 view .LVU233
 524:Drivers/STM32F7xx_HAL_Driver/Src/stm32f7xx_ll_usb.c **** 
 743              		.loc 1 524 5 view .LVU234
 524:Drivers/STM32F7xx_HAL_Driver/Src/stm32f7xx_ll_usb.c **** 
 744              		.loc 1 524 10 is_stmt 0 view .LVU235
 745 0026 019B     		ldr	r3, [sp, #4]
 746 0028 0133     		adds	r3, r3, #1
 747 002a 0193     		str	r3, [sp, #4]
 526:Drivers/STM32F7xx_HAL_Driver/Src/stm32f7xx_ll_usb.c ****     {
 748              		.loc 1 526 5 is_stmt 1 view .LVU236
 526:Drivers/STM32F7xx_HAL_Driver/Src/stm32f7xx_ll_usb.c ****     {
 749              		.loc 1 526 15 is_stmt 0 view .LVU237
 750 002c 019B     		ldr	r3, [sp, #4]
 526:Drivers/STM32F7xx_HAL_Driver/Src/stm32f7xx_ll_usb.c ****     {
 751              		.loc 1 526 8 view .LVU238
 752 002e B3F1706F 		cmp	r3, #251658240
 753 0032 08D8     		bhi	.L55
 530:Drivers/STM32F7xx_HAL_Driver/Src/stm32f7xx_ll_usb.c **** 
 754              		.loc 1 530 54 is_stmt 1 view .LVU239
 530:Drivers/STM32F7xx_HAL_Driver/Src/stm32f7xx_ll_usb.c **** 
 755              		.loc 1 530 17 is_stmt 0 view .LVU240
 756 0034 0369     		ldr	r3, [r0, #16]
ARM GAS  C:\Users\benny\AppData\Local\Temp\ccHko7Bj.s 			page 44


 530:Drivers/STM32F7xx_HAL_Driver/Src/stm32f7xx_ll_usb.c **** 
 757              		.loc 1 530 54 view .LVU241
 758 0036 13F0200F 		tst	r3, #32
 759 003a F4D1     		bne	.L53
 532:Drivers/STM32F7xx_HAL_Driver/Src/stm32f7xx_ll_usb.c **** }
 760              		.loc 1 532 10 view .LVU242
 761 003c 0020     		movs	r0, #0
 762              	.LVL35:
 532:Drivers/STM32F7xx_HAL_Driver/Src/stm32f7xx_ll_usb.c **** }
 763              		.loc 1 532 10 view .LVU243
 764 003e 00E0     		b	.L51
 765              	.LVL36:
 766              	.L54:
 514:Drivers/STM32F7xx_HAL_Driver/Src/stm32f7xx_ll_usb.c ****     }
 767              		.loc 1 514 14 view .LVU244
 768 0040 0320     		movs	r0, #3
 769              	.LVL37:
 770              	.L51:
 533:Drivers/STM32F7xx_HAL_Driver/Src/stm32f7xx_ll_usb.c **** 
 771              		.loc 1 533 1 view .LVU245
 772 0042 02B0     		add	sp, sp, #8
 773              	.LCFI12:
 774              		.cfi_remember_state
 775              		.cfi_def_cfa_offset 0
 776              		@ sp needed
 777 0044 7047     		bx	lr
 778              	.LVL38:
 779              	.L55:
 780              	.LCFI13:
 781              		.cfi_restore_state
 528:Drivers/STM32F7xx_HAL_Driver/Src/stm32f7xx_ll_usb.c ****     }
 782              		.loc 1 528 14 view .LVU246
 783 0046 0320     		movs	r0, #3
 784              	.LVL39:
 528:Drivers/STM32F7xx_HAL_Driver/Src/stm32f7xx_ll_usb.c ****     }
 785              		.loc 1 528 14 view .LVU247
 786 0048 FBE7     		b	.L51
 787              		.cfi_endproc
 788              	.LFE147:
 790              		.section	.text.USB_FlushRxFifo,"ax",%progbits
 791              		.align	1
 792              		.global	USB_FlushRxFifo
 793              		.syntax unified
 794              		.thumb
 795              		.thumb_func
 797              	USB_FlushRxFifo:
 798              	.LVL40:
 799              	.LFB148:
 541:Drivers/STM32F7xx_HAL_Driver/Src/stm32f7xx_ll_usb.c ****   __IO uint32_t count = 0U;
 800              		.loc 1 541 1 is_stmt 1 view -0
 801              		.cfi_startproc
 802              		@ args = 0, pretend = 0, frame = 8
 803              		@ frame_needed = 0, uses_anonymous_args = 0
 804              		@ link register save eliminated.
 541:Drivers/STM32F7xx_HAL_Driver/Src/stm32f7xx_ll_usb.c ****   __IO uint32_t count = 0U;
 805              		.loc 1 541 1 is_stmt 0 view .LVU249
 806 0000 82B0     		sub	sp, sp, #8
ARM GAS  C:\Users\benny\AppData\Local\Temp\ccHko7Bj.s 			page 45


 807              	.LCFI14:
 808              		.cfi_def_cfa_offset 8
 542:Drivers/STM32F7xx_HAL_Driver/Src/stm32f7xx_ll_usb.c **** 
 809              		.loc 1 542 3 is_stmt 1 view .LVU250
 542:Drivers/STM32F7xx_HAL_Driver/Src/stm32f7xx_ll_usb.c **** 
 810              		.loc 1 542 17 is_stmt 0 view .LVU251
 811 0002 0023     		movs	r3, #0
 812 0004 0193     		str	r3, [sp, #4]
 813              	.L59:
 545:Drivers/STM32F7xx_HAL_Driver/Src/stm32f7xx_ll_usb.c ****   {
 814              		.loc 1 545 3 is_stmt 1 view .LVU252
 547:Drivers/STM32F7xx_HAL_Driver/Src/stm32f7xx_ll_usb.c **** 
 815              		.loc 1 547 5 view .LVU253
 547:Drivers/STM32F7xx_HAL_Driver/Src/stm32f7xx_ll_usb.c **** 
 816              		.loc 1 547 10 is_stmt 0 view .LVU254
 817 0006 019B     		ldr	r3, [sp, #4]
 818 0008 0133     		adds	r3, r3, #1
 819 000a 0193     		str	r3, [sp, #4]
 549:Drivers/STM32F7xx_HAL_Driver/Src/stm32f7xx_ll_usb.c ****     {
 820              		.loc 1 549 5 is_stmt 1 view .LVU255
 549:Drivers/STM32F7xx_HAL_Driver/Src/stm32f7xx_ll_usb.c ****     {
 821              		.loc 1 549 15 is_stmt 0 view .LVU256
 822 000c 019B     		ldr	r3, [sp, #4]
 549:Drivers/STM32F7xx_HAL_Driver/Src/stm32f7xx_ll_usb.c ****     {
 823              		.loc 1 549 8 view .LVU257
 824 000e B3F1706F 		cmp	r3, #251658240
 825 0012 13D8     		bhi	.L61
 553:Drivers/STM32F7xx_HAL_Driver/Src/stm32f7xx_ll_usb.c **** 
 826              		.loc 1 553 53 is_stmt 1 view .LVU258
 553:Drivers/STM32F7xx_HAL_Driver/Src/stm32f7xx_ll_usb.c **** 
 827              		.loc 1 553 17 is_stmt 0 view .LVU259
 828 0014 0369     		ldr	r3, [r0, #16]
 553:Drivers/STM32F7xx_HAL_Driver/Src/stm32f7xx_ll_usb.c **** 
 829              		.loc 1 553 53 view .LVU260
 830 0016 002B     		cmp	r3, #0
 831 0018 F5DA     		bge	.L59
 556:Drivers/STM32F7xx_HAL_Driver/Src/stm32f7xx_ll_usb.c ****   USBx->GRSTCTL = USB_OTG_GRSTCTL_RXFFLSH;
 832              		.loc 1 556 3 is_stmt 1 view .LVU261
 556:Drivers/STM32F7xx_HAL_Driver/Src/stm32f7xx_ll_usb.c ****   USBx->GRSTCTL = USB_OTG_GRSTCTL_RXFFLSH;
 833              		.loc 1 556 9 is_stmt 0 view .LVU262
 834 001a 0023     		movs	r3, #0
 835 001c 0193     		str	r3, [sp, #4]
 557:Drivers/STM32F7xx_HAL_Driver/Src/stm32f7xx_ll_usb.c **** 
 836              		.loc 1 557 3 is_stmt 1 view .LVU263
 557:Drivers/STM32F7xx_HAL_Driver/Src/stm32f7xx_ll_usb.c **** 
 837              		.loc 1 557 17 is_stmt 0 view .LVU264
 838 001e 1023     		movs	r3, #16
 839 0020 0361     		str	r3, [r0, #16]
 840              	.L60:
 559:Drivers/STM32F7xx_HAL_Driver/Src/stm32f7xx_ll_usb.c ****   {
 841              		.loc 1 559 3 is_stmt 1 view .LVU265
 561:Drivers/STM32F7xx_HAL_Driver/Src/stm32f7xx_ll_usb.c **** 
 842              		.loc 1 561 5 view .LVU266
 561:Drivers/STM32F7xx_HAL_Driver/Src/stm32f7xx_ll_usb.c **** 
 843              		.loc 1 561 10 is_stmt 0 view .LVU267
 844 0022 019B     		ldr	r3, [sp, #4]
 845 0024 0133     		adds	r3, r3, #1
ARM GAS  C:\Users\benny\AppData\Local\Temp\ccHko7Bj.s 			page 46


 846 0026 0193     		str	r3, [sp, #4]
 563:Drivers/STM32F7xx_HAL_Driver/Src/stm32f7xx_ll_usb.c ****     {
 847              		.loc 1 563 5 is_stmt 1 view .LVU268
 563:Drivers/STM32F7xx_HAL_Driver/Src/stm32f7xx_ll_usb.c ****     {
 848              		.loc 1 563 15 is_stmt 0 view .LVU269
 849 0028 019B     		ldr	r3, [sp, #4]
 563:Drivers/STM32F7xx_HAL_Driver/Src/stm32f7xx_ll_usb.c ****     {
 850              		.loc 1 563 8 view .LVU270
 851 002a B3F1706F 		cmp	r3, #251658240
 852 002e 08D8     		bhi	.L62
 567:Drivers/STM32F7xx_HAL_Driver/Src/stm32f7xx_ll_usb.c **** 
 853              		.loc 1 567 54 is_stmt 1 view .LVU271
 567:Drivers/STM32F7xx_HAL_Driver/Src/stm32f7xx_ll_usb.c **** 
 854              		.loc 1 567 17 is_stmt 0 view .LVU272
 855 0030 0369     		ldr	r3, [r0, #16]
 567:Drivers/STM32F7xx_HAL_Driver/Src/stm32f7xx_ll_usb.c **** 
 856              		.loc 1 567 54 view .LVU273
 857 0032 13F0100F 		tst	r3, #16
 858 0036 F4D1     		bne	.L60
 569:Drivers/STM32F7xx_HAL_Driver/Src/stm32f7xx_ll_usb.c **** }
 859              		.loc 1 569 10 view .LVU274
 860 0038 0020     		movs	r0, #0
 861              	.LVL41:
 569:Drivers/STM32F7xx_HAL_Driver/Src/stm32f7xx_ll_usb.c **** }
 862              		.loc 1 569 10 view .LVU275
 863 003a 00E0     		b	.L58
 864              	.LVL42:
 865              	.L61:
 551:Drivers/STM32F7xx_HAL_Driver/Src/stm32f7xx_ll_usb.c ****     }
 866              		.loc 1 551 14 view .LVU276
 867 003c 0320     		movs	r0, #3
 868              	.LVL43:
 869              	.L58:
 570:Drivers/STM32F7xx_HAL_Driver/Src/stm32f7xx_ll_usb.c **** 
 870              		.loc 1 570 1 view .LVU277
 871 003e 02B0     		add	sp, sp, #8
 872              	.LCFI15:
 873              		.cfi_remember_state
 874              		.cfi_def_cfa_offset 0
 875              		@ sp needed
 876 0040 7047     		bx	lr
 877              	.LVL44:
 878              	.L62:
 879              	.LCFI16:
 880              		.cfi_restore_state
 565:Drivers/STM32F7xx_HAL_Driver/Src/stm32f7xx_ll_usb.c ****     }
 881              		.loc 1 565 14 view .LVU278
 882 0042 0320     		movs	r0, #3
 883              	.LVL45:
 565:Drivers/STM32F7xx_HAL_Driver/Src/stm32f7xx_ll_usb.c ****     }
 884              		.loc 1 565 14 view .LVU279
 885 0044 FBE7     		b	.L58
 886              		.cfi_endproc
 887              	.LFE148:
 889              		.section	.text.USB_SetDevSpeed,"ax",%progbits
 890              		.align	1
 891              		.global	USB_SetDevSpeed
ARM GAS  C:\Users\benny\AppData\Local\Temp\ccHko7Bj.s 			page 47


 892              		.syntax unified
 893              		.thumb
 894              		.thumb_func
 896              	USB_SetDevSpeed:
 897              	.LVL46:
 898              	.LFB149:
 584:Drivers/STM32F7xx_HAL_Driver/Src/stm32f7xx_ll_usb.c ****   uint32_t USBx_BASE = (uint32_t)USBx;
 899              		.loc 1 584 1 is_stmt 1 view -0
 900              		.cfi_startproc
 901              		@ args = 0, pretend = 0, frame = 0
 902              		@ frame_needed = 0, uses_anonymous_args = 0
 903              		@ link register save eliminated.
 585:Drivers/STM32F7xx_HAL_Driver/Src/stm32f7xx_ll_usb.c **** 
 904              		.loc 1 585 3 view .LVU281
 587:Drivers/STM32F7xx_HAL_Driver/Src/stm32f7xx_ll_usb.c ****   return HAL_OK;
 905              		.loc 1 587 3 view .LVU282
 587:Drivers/STM32F7xx_HAL_Driver/Src/stm32f7xx_ll_usb.c ****   return HAL_OK;
 906              		.loc 1 587 14 is_stmt 0 view .LVU283
 907 0000 D0F80038 		ldr	r3, [r0, #2048]
 587:Drivers/STM32F7xx_HAL_Driver/Src/stm32f7xx_ll_usb.c ****   return HAL_OK;
 908              		.loc 1 587 21 view .LVU284
 909 0004 1943     		orrs	r1, r1, r3
 910              	.LVL47:
 587:Drivers/STM32F7xx_HAL_Driver/Src/stm32f7xx_ll_usb.c ****   return HAL_OK;
 911              		.loc 1 587 21 view .LVU285
 912 0006 C0F80018 		str	r1, [r0, #2048]
 588:Drivers/STM32F7xx_HAL_Driver/Src/stm32f7xx_ll_usb.c **** }
 913              		.loc 1 588 3 is_stmt 1 view .LVU286
 589:Drivers/STM32F7xx_HAL_Driver/Src/stm32f7xx_ll_usb.c **** 
 914              		.loc 1 589 1 is_stmt 0 view .LVU287
 915 000a 0020     		movs	r0, #0
 916              	.LVL48:
 589:Drivers/STM32F7xx_HAL_Driver/Src/stm32f7xx_ll_usb.c **** 
 917              		.loc 1 589 1 view .LVU288
 918 000c 7047     		bx	lr
 919              		.cfi_endproc
 920              	.LFE149:
 922              		.section	.text.USB_DevInit,"ax",%progbits
 923              		.align	1
 924              		.global	USB_DevInit
 925              		.syntax unified
 926              		.thumb
 927              		.thumb_func
 929              	USB_DevInit:
 930              	.LVL49:
 931              	.LFB146:
 335:Drivers/STM32F7xx_HAL_Driver/Src/stm32f7xx_ll_usb.c ****   HAL_StatusTypeDef ret = HAL_OK;
 932              		.loc 1 335 1 is_stmt 1 view -0
 933              		.cfi_startproc
 934              		@ args = 20, pretend = 16, frame = 0
 935              		@ frame_needed = 0, uses_anonymous_args = 0
 335:Drivers/STM32F7xx_HAL_Driver/Src/stm32f7xx_ll_usb.c ****   HAL_StatusTypeDef ret = HAL_OK;
 936              		.loc 1 335 1 is_stmt 0 view .LVU290
 937 0000 84B0     		sub	sp, sp, #16
 938              	.LCFI17:
 939              		.cfi_def_cfa_offset 16
 940 0002 F8B5     		push	{r3, r4, r5, r6, r7, lr}
ARM GAS  C:\Users\benny\AppData\Local\Temp\ccHko7Bj.s 			page 48


 941              	.LCFI18:
 942              		.cfi_def_cfa_offset 40
 943              		.cfi_offset 3, -40
 944              		.cfi_offset 4, -36
 945              		.cfi_offset 5, -32
 946              		.cfi_offset 6, -28
 947              		.cfi_offset 7, -24
 948              		.cfi_offset 14, -20
 949 0004 0446     		mov	r4, r0
 950 0006 07A8     		add	r0, sp, #28
 951              	.LVL50:
 335:Drivers/STM32F7xx_HAL_Driver/Src/stm32f7xx_ll_usb.c ****   HAL_StatusTypeDef ret = HAL_OK;
 952              		.loc 1 335 1 view .LVU291
 953 0008 80E80E00 		stm	r0, {r1, r2, r3}
 336:Drivers/STM32F7xx_HAL_Driver/Src/stm32f7xx_ll_usb.c ****   uint32_t USBx_BASE = (uint32_t)USBx;
 954              		.loc 1 336 3 is_stmt 1 view .LVU292
 955              	.LVL51:
 337:Drivers/STM32F7xx_HAL_Driver/Src/stm32f7xx_ll_usb.c ****   uint32_t i;
 956              		.loc 1 337 3 view .LVU293
 338:Drivers/STM32F7xx_HAL_Driver/Src/stm32f7xx_ll_usb.c **** 
 957              		.loc 1 338 3 view .LVU294
 340:Drivers/STM32F7xx_HAL_Driver/Src/stm32f7xx_ll_usb.c ****   {
 958              		.loc 1 340 3 view .LVU295
 340:Drivers/STM32F7xx_HAL_Driver/Src/stm32f7xx_ll_usb.c ****   {
 959              		.loc 1 340 10 is_stmt 0 view .LVU296
 960 000c 0023     		movs	r3, #0
 340:Drivers/STM32F7xx_HAL_Driver/Src/stm32f7xx_ll_usb.c ****   {
 961              		.loc 1 340 3 view .LVU297
 962 000e 06E0     		b	.L66
 963              	.LVL52:
 964              	.L67:
 342:Drivers/STM32F7xx_HAL_Driver/Src/stm32f7xx_ll_usb.c ****   }
 965              		.loc 1 342 5 is_stmt 1 discriminator 3 view .LVU298
 342:Drivers/STM32F7xx_HAL_Driver/Src/stm32f7xx_ll_usb.c ****   }
 966              		.loc 1 342 22 is_stmt 0 discriminator 3 view .LVU299
 967 0010 03F14002 		add	r2, r3, #64
 968 0014 04EB8202 		add	r2, r4, r2, lsl #2
 969 0018 0021     		movs	r1, #0
 970 001a 5160     		str	r1, [r2, #4]
 340:Drivers/STM32F7xx_HAL_Driver/Src/stm32f7xx_ll_usb.c ****   {
 971              		.loc 1 340 26 is_stmt 1 discriminator 3 view .LVU300
 972 001c 0133     		adds	r3, r3, #1
 973              	.LVL53:
 974              	.L66:
 340:Drivers/STM32F7xx_HAL_Driver/Src/stm32f7xx_ll_usb.c ****   {
 975              		.loc 1 340 18 discriminator 1 view .LVU301
 976 001e 0E2B     		cmp	r3, #14
 977 0020 F6D9     		bls	.L67
 346:Drivers/STM32F7xx_HAL_Driver/Src/stm32f7xx_ll_usb.c ****   {
 978              		.loc 1 346 3 view .LVU302
 346:Drivers/STM32F7xx_HAL_Driver/Src/stm32f7xx_ll_usb.c ****   {
 979              		.loc 1 346 10 is_stmt 0 view .LVU303
 980 0022 9DF82660 		ldrb	r6, [sp, #38]	@ zero_extendqisi2
 346:Drivers/STM32F7xx_HAL_Driver/Src/stm32f7xx_ll_usb.c ****   {
 981              		.loc 1 346 6 view .LVU304
 982 0026 16BB     		cbnz	r6, .L68
 348:Drivers/STM32F7xx_HAL_Driver/Src/stm32f7xx_ll_usb.c **** 
ARM GAS  C:\Users\benny\AppData\Local\Temp\ccHko7Bj.s 			page 49


 983              		.loc 1 348 5 is_stmt 1 view .LVU305
 348:Drivers/STM32F7xx_HAL_Driver/Src/stm32f7xx_ll_usb.c **** 
 984              		.loc 1 348 16 is_stmt 0 view .LVU306
 985 0028 D4F80438 		ldr	r3, [r4, #2052]
 986              	.LVL54:
 348:Drivers/STM32F7xx_HAL_Driver/Src/stm32f7xx_ll_usb.c **** 
 987              		.loc 1 348 23 view .LVU307
 988 002c 43F00203 		orr	r3, r3, #2
 989 0030 C4F80438 		str	r3, [r4, #2052]
 351:Drivers/STM32F7xx_HAL_Driver/Src/stm32f7xx_ll_usb.c **** 
 990              		.loc 1 351 5 is_stmt 1 view .LVU308
 351:Drivers/STM32F7xx_HAL_Driver/Src/stm32f7xx_ll_usb.c **** 
 991              		.loc 1 351 9 is_stmt 0 view .LVU309
 992 0034 A36B     		ldr	r3, [r4, #56]
 351:Drivers/STM32F7xx_HAL_Driver/Src/stm32f7xx_ll_usb.c **** 
 993              		.loc 1 351 17 view .LVU310
 994 0036 23F40013 		bic	r3, r3, #2097152
 995 003a A363     		str	r3, [r4, #56]
 354:Drivers/STM32F7xx_HAL_Driver/Src/stm32f7xx_ll_usb.c ****     USBx->GOTGCTL |= USB_OTG_GOTGCTL_BVALOVAL;
 996              		.loc 1 354 5 is_stmt 1 view .LVU311
 354:Drivers/STM32F7xx_HAL_Driver/Src/stm32f7xx_ll_usb.c ****     USBx->GOTGCTL |= USB_OTG_GOTGCTL_BVALOVAL;
 997              		.loc 1 354 9 is_stmt 0 view .LVU312
 998 003c 2368     		ldr	r3, [r4]
 354:Drivers/STM32F7xx_HAL_Driver/Src/stm32f7xx_ll_usb.c ****     USBx->GOTGCTL |= USB_OTG_GOTGCTL_BVALOVAL;
 999              		.loc 1 354 19 view .LVU313
 1000 003e 43F04003 		orr	r3, r3, #64
 1001 0042 2360     		str	r3, [r4]
 355:Drivers/STM32F7xx_HAL_Driver/Src/stm32f7xx_ll_usb.c ****   }
 1002              		.loc 1 355 5 is_stmt 1 view .LVU314
 355:Drivers/STM32F7xx_HAL_Driver/Src/stm32f7xx_ll_usb.c ****   }
 1003              		.loc 1 355 9 is_stmt 0 view .LVU315
 1004 0044 2368     		ldr	r3, [r4]
 355:Drivers/STM32F7xx_HAL_Driver/Src/stm32f7xx_ll_usb.c ****   }
 1005              		.loc 1 355 19 view .LVU316
 1006 0046 43F08003 		orr	r3, r3, #128
 1007 004a 2360     		str	r3, [r4]
 1008              	.L69:
 364:Drivers/STM32F7xx_HAL_Driver/Src/stm32f7xx_ll_usb.c **** 
 1009              		.loc 1 364 3 is_stmt 1 view .LVU317
 364:Drivers/STM32F7xx_HAL_Driver/Src/stm32f7xx_ll_usb.c **** 
 1010              		.loc 1 364 16 is_stmt 0 view .LVU318
 1011 004c 0023     		movs	r3, #0
 1012 004e C4F8003E 		str	r3, [r4, #3584]
 366:Drivers/STM32F7xx_HAL_Driver/Src/stm32f7xx_ll_usb.c ****   {
 1013              		.loc 1 366 3 is_stmt 1 view .LVU319
 366:Drivers/STM32F7xx_HAL_Driver/Src/stm32f7xx_ll_usb.c ****   {
 1014              		.loc 1 366 10 is_stmt 0 view .LVU320
 1015 0052 9DF82130 		ldrb	r3, [sp, #33]	@ zero_extendqisi2
 366:Drivers/STM32F7xx_HAL_Driver/Src/stm32f7xx_ll_usb.c ****   {
 1016              		.loc 1 366 6 view .LVU321
 1017 0056 012B     		cmp	r3, #1
 1018 0058 0ED0     		beq	.L93
 381:Drivers/STM32F7xx_HAL_Driver/Src/stm32f7xx_ll_usb.c ****   {
 1019              		.loc 1 381 8 is_stmt 1 view .LVU322
 381:Drivers/STM32F7xx_HAL_Driver/Src/stm32f7xx_ll_usb.c ****   {
 1020              		.loc 1 381 11 is_stmt 0 view .LVU323
 1021 005a 032B     		cmp	r3, #3
ARM GAS  C:\Users\benny\AppData\Local\Temp\ccHko7Bj.s 			page 50


 1022 005c 1ED1     		bne	.L73
 383:Drivers/STM32F7xx_HAL_Driver/Src/stm32f7xx_ll_usb.c ****     {
 1023              		.loc 1 383 5 is_stmt 1 view .LVU324
 383:Drivers/STM32F7xx_HAL_Driver/Src/stm32f7xx_ll_usb.c ****     {
 1024              		.loc 1 383 12 is_stmt 0 view .LVU325
 1025 005e 9DF81F30 		ldrb	r3, [sp, #31]	@ zero_extendqisi2
 383:Drivers/STM32F7xx_HAL_Driver/Src/stm32f7xx_ll_usb.c ****     {
 1026              		.loc 1 383 8 view .LVU326
 1027 0062 B3B9     		cbnz	r3, .L74
 386:Drivers/STM32F7xx_HAL_Driver/Src/stm32f7xx_ll_usb.c ****     }
 1028              		.loc 1 386 7 is_stmt 1 view .LVU327
 386:Drivers/STM32F7xx_HAL_Driver/Src/stm32f7xx_ll_usb.c ****     }
 1029              		.loc 1 386 13 is_stmt 0 view .LVU328
 1030 0064 0021     		movs	r1, #0
 1031 0066 2046     		mov	r0, r4
 1032 0068 FFF7FEFF 		bl	USB_SetDevSpeed
 1033              	.LVL55:
 1034 006c 1AE0     		b	.L72
 1035              	.LVL56:
 1036              	.L68:
 360:Drivers/STM32F7xx_HAL_Driver/Src/stm32f7xx_ll_usb.c ****   }
 1037              		.loc 1 360 5 is_stmt 1 view .LVU329
 360:Drivers/STM32F7xx_HAL_Driver/Src/stm32f7xx_ll_usb.c ****   }
 1038              		.loc 1 360 9 is_stmt 0 view .LVU330
 1039 006e A36B     		ldr	r3, [r4, #56]
 1040              	.LVL57:
 360:Drivers/STM32F7xx_HAL_Driver/Src/stm32f7xx_ll_usb.c ****   }
 1041              		.loc 1 360 17 view .LVU331
 1042 0070 43F40013 		orr	r3, r3, #2097152
 1043 0074 A363     		str	r3, [r4, #56]
 1044 0076 E9E7     		b	.L69
 1045              	.L93:
 368:Drivers/STM32F7xx_HAL_Driver/Src/stm32f7xx_ll_usb.c ****     {
 1046              		.loc 1 368 5 is_stmt 1 view .LVU332
 368:Drivers/STM32F7xx_HAL_Driver/Src/stm32f7xx_ll_usb.c ****     {
 1047              		.loc 1 368 12 is_stmt 0 view .LVU333
 1048 0078 9DF81F30 		ldrb	r3, [sp, #31]	@ zero_extendqisi2
 368:Drivers/STM32F7xx_HAL_Driver/Src/stm32f7xx_ll_usb.c ****     {
 1049              		.loc 1 368 8 view .LVU334
 1050 007c 23B9     		cbnz	r3, .L71
 371:Drivers/STM32F7xx_HAL_Driver/Src/stm32f7xx_ll_usb.c ****     }
 1051              		.loc 1 371 7 is_stmt 1 view .LVU335
 371:Drivers/STM32F7xx_HAL_Driver/Src/stm32f7xx_ll_usb.c ****     }
 1052              		.loc 1 371 13 is_stmt 0 view .LVU336
 1053 007e 0021     		movs	r1, #0
 1054 0080 2046     		mov	r0, r4
 1055 0082 FFF7FEFF 		bl	USB_SetDevSpeed
 1056              	.LVL58:
 1057 0086 0DE0     		b	.L72
 1058              	.L71:
 376:Drivers/STM32F7xx_HAL_Driver/Src/stm32f7xx_ll_usb.c ****     }
 1059              		.loc 1 376 7 is_stmt 1 view .LVU337
 376:Drivers/STM32F7xx_HAL_Driver/Src/stm32f7xx_ll_usb.c ****     }
 1060              		.loc 1 376 13 is_stmt 0 view .LVU338
 1061 0088 0121     		movs	r1, #1
 1062 008a 2046     		mov	r0, r4
 1063 008c FFF7FEFF 		bl	USB_SetDevSpeed
ARM GAS  C:\Users\benny\AppData\Local\Temp\ccHko7Bj.s 			page 51


 1064              	.LVL59:
 1065 0090 08E0     		b	.L72
 1066              	.L74:
 391:Drivers/STM32F7xx_HAL_Driver/Src/stm32f7xx_ll_usb.c ****     }
 1067              		.loc 1 391 7 is_stmt 1 view .LVU339
 391:Drivers/STM32F7xx_HAL_Driver/Src/stm32f7xx_ll_usb.c ****     }
 1068              		.loc 1 391 13 is_stmt 0 view .LVU340
 1069 0092 0121     		movs	r1, #1
 1070 0094 2046     		mov	r0, r4
 1071 0096 FFF7FEFF 		bl	USB_SetDevSpeed
 1072              	.LVL60:
 1073 009a 03E0     		b	.L72
 1074              	.L73:
 399:Drivers/STM32F7xx_HAL_Driver/Src/stm32f7xx_ll_usb.c ****   }
 1075              		.loc 1 399 5 is_stmt 1 view .LVU341
 399:Drivers/STM32F7xx_HAL_Driver/Src/stm32f7xx_ll_usb.c ****   }
 1076              		.loc 1 399 11 is_stmt 0 view .LVU342
 1077 009c 0321     		movs	r1, #3
 1078 009e 2046     		mov	r0, r4
 1079 00a0 FFF7FEFF 		bl	USB_SetDevSpeed
 1080              	.LVL61:
 1081              	.L72:
 403:Drivers/STM32F7xx_HAL_Driver/Src/stm32f7xx_ll_usb.c ****   {
 1082              		.loc 1 403 3 is_stmt 1 view .LVU343
 403:Drivers/STM32F7xx_HAL_Driver/Src/stm32f7xx_ll_usb.c ****   {
 1083              		.loc 1 403 7 is_stmt 0 view .LVU344
 1084 00a4 1021     		movs	r1, #16
 1085 00a6 2046     		mov	r0, r4
 1086 00a8 FFF7FEFF 		bl	USB_FlushTxFifo
 1087              	.LVL62:
 403:Drivers/STM32F7xx_HAL_Driver/Src/stm32f7xx_ll_usb.c ****   {
 1088              		.loc 1 403 6 view .LVU345
 1089 00ac 0546     		mov	r5, r0
 1090 00ae 00B1     		cbz	r0, .L75
 405:Drivers/STM32F7xx_HAL_Driver/Src/stm32f7xx_ll_usb.c ****   }
 1091              		.loc 1 405 9 view .LVU346
 1092 00b0 0125     		movs	r5, #1
 1093              	.L75:
 1094              	.LVL63:
 408:Drivers/STM32F7xx_HAL_Driver/Src/stm32f7xx_ll_usb.c ****   {
 1095              		.loc 1 408 3 is_stmt 1 view .LVU347
 408:Drivers/STM32F7xx_HAL_Driver/Src/stm32f7xx_ll_usb.c ****   {
 1096              		.loc 1 408 7 is_stmt 0 view .LVU348
 1097 00b2 2046     		mov	r0, r4
 1098 00b4 FFF7FEFF 		bl	USB_FlushRxFifo
 1099              	.LVL64:
 408:Drivers/STM32F7xx_HAL_Driver/Src/stm32f7xx_ll_usb.c ****   {
 1100              		.loc 1 408 6 view .LVU349
 1101 00b8 00B1     		cbz	r0, .L76
 410:Drivers/STM32F7xx_HAL_Driver/Src/stm32f7xx_ll_usb.c ****   }
 1102              		.loc 1 410 9 view .LVU350
 1103 00ba 0125     		movs	r5, #1
 1104              	.LVL65:
 1105              	.L76:
 414:Drivers/STM32F7xx_HAL_Driver/Src/stm32f7xx_ll_usb.c ****   USBx_DEVICE->DOEPMSK = 0U;
 1106              		.loc 1 414 3 is_stmt 1 view .LVU351
 1107 00bc 04F5006C 		add	ip, r4, #2048
ARM GAS  C:\Users\benny\AppData\Local\Temp\ccHko7Bj.s 			page 52


 414:Drivers/STM32F7xx_HAL_Driver/Src/stm32f7xx_ll_usb.c ****   USBx_DEVICE->DOEPMSK = 0U;
 1108              		.loc 1 414 24 is_stmt 0 view .LVU352
 1109 00c0 0023     		movs	r3, #0
 1110 00c2 CCF81030 		str	r3, [ip, #16]
 415:Drivers/STM32F7xx_HAL_Driver/Src/stm32f7xx_ll_usb.c ****   USBx_DEVICE->DAINTMSK = 0U;
 1111              		.loc 1 415 3 is_stmt 1 view .LVU353
 415:Drivers/STM32F7xx_HAL_Driver/Src/stm32f7xx_ll_usb.c ****   USBx_DEVICE->DAINTMSK = 0U;
 1112              		.loc 1 415 24 is_stmt 0 view .LVU354
 1113 00c6 CCF81430 		str	r3, [ip, #20]
 416:Drivers/STM32F7xx_HAL_Driver/Src/stm32f7xx_ll_usb.c **** 
 1114              		.loc 1 416 3 is_stmt 1 view .LVU355
 416:Drivers/STM32F7xx_HAL_Driver/Src/stm32f7xx_ll_usb.c **** 
 1115              		.loc 1 416 25 is_stmt 0 view .LVU356
 1116 00ca CCF81C30 		str	r3, [ip, #28]
 418:Drivers/STM32F7xx_HAL_Driver/Src/stm32f7xx_ll_usb.c ****   {
 1117              		.loc 1 418 3 is_stmt 1 view .LVU357
 1118              	.LVL66:
 418:Drivers/STM32F7xx_HAL_Driver/Src/stm32f7xx_ll_usb.c ****   {
 1119              		.loc 1 418 3 is_stmt 0 view .LVU358
 1120 00ce 0AE0     		b	.L77
 1121              	.LVL67:
 1122              	.L95:
 422:Drivers/STM32F7xx_HAL_Driver/Src/stm32f7xx_ll_usb.c ****       {
 1123              		.loc 1 422 7 is_stmt 1 view .LVU359
 422:Drivers/STM32F7xx_HAL_Driver/Src/stm32f7xx_ll_usb.c ****       {
 1124              		.loc 1 422 10 is_stmt 0 view .LVU360
 1125 00d0 CBB9     		cbnz	r3, .L79
 424:Drivers/STM32F7xx_HAL_Driver/Src/stm32f7xx_ll_usb.c ****       }
 1126              		.loc 1 424 9 is_stmt 1 view .LVU361
 424:Drivers/STM32F7xx_HAL_Driver/Src/stm32f7xx_ll_usb.c ****       }
 1127              		.loc 1 424 31 is_stmt 0 view .LVU362
 1128 00d2 4FF00060 		mov	r0, #134217728
 1129 00d6 C2F80009 		str	r0, [r2, #2304]
 1130              	.L80:
 436:Drivers/STM32F7xx_HAL_Driver/Src/stm32f7xx_ll_usb.c ****     USBx_INEP(i)->DIEPINT  = 0xFB7FU;
 1131              		.loc 1 436 5 is_stmt 1 discriminator 2 view .LVU363
 436:Drivers/STM32F7xx_HAL_Driver/Src/stm32f7xx_ll_usb.c ****     USBx_INEP(i)->DIEPINT  = 0xFB7FU;
 1132              		.loc 1 436 28 is_stmt 0 discriminator 2 view .LVU364
 1133 00da 0022     		movs	r2, #0
 1134 00dc 0A61     		str	r2, [r1, #16]
 437:Drivers/STM32F7xx_HAL_Driver/Src/stm32f7xx_ll_usb.c ****   }
 1135              		.loc 1 437 5 is_stmt 1 discriminator 2 view .LVU365
 437:Drivers/STM32F7xx_HAL_Driver/Src/stm32f7xx_ll_usb.c ****   }
 1136              		.loc 1 437 28 is_stmt 0 discriminator 2 view .LVU366
 1137 00de 4FF67F32 		movw	r2, #64383
 1138 00e2 8A60     		str	r2, [r1, #8]
 418:Drivers/STM32F7xx_HAL_Driver/Src/stm32f7xx_ll_usb.c ****   {
 1139              		.loc 1 418 40 is_stmt 1 discriminator 2 view .LVU367
 1140 00e4 0133     		adds	r3, r3, #1
 1141              	.LVL68:
 1142              	.L77:
 418:Drivers/STM32F7xx_HAL_Driver/Src/stm32f7xx_ll_usb.c ****   {
 1143              		.loc 1 418 18 discriminator 1 view .LVU368
 418:Drivers/STM32F7xx_HAL_Driver/Src/stm32f7xx_ll_usb.c ****   {
 1144              		.loc 1 418 23 is_stmt 0 discriminator 1 view .LVU369
 1145 00e6 9DF81C10 		ldrb	r1, [sp, #28]	@ zero_extendqisi2
 418:Drivers/STM32F7xx_HAL_Driver/Src/stm32f7xx_ll_usb.c ****   {
ARM GAS  C:\Users\benny\AppData\Local\Temp\ccHko7Bj.s 			page 53


 1146              		.loc 1 418 18 discriminator 1 view .LVU370
 1147 00ea 9942     		cmp	r1, r3
 1148 00ec 10D9     		bls	.L94
 420:Drivers/STM32F7xx_HAL_Driver/Src/stm32f7xx_ll_usb.c ****     {
 1149              		.loc 1 420 5 is_stmt 1 view .LVU371
 420:Drivers/STM32F7xx_HAL_Driver/Src/stm32f7xx_ll_usb.c ****     {
 1150              		.loc 1 420 10 is_stmt 0 view .LVU372
 1151 00ee 04EB4312 		add	r2, r4, r3, lsl #5
 1152 00f2 02F51061 		add	r1, r2, #2304
 420:Drivers/STM32F7xx_HAL_Driver/Src/stm32f7xx_ll_usb.c ****     {
 1153              		.loc 1 420 22 view .LVU373
 1154 00f6 D2F80009 		ldr	r0, [r2, #2304]
 420:Drivers/STM32F7xx_HAL_Driver/Src/stm32f7xx_ll_usb.c ****     {
 1155              		.loc 1 420 8 view .LVU374
 1156 00fa 0028     		cmp	r0, #0
 1157 00fc E8DB     		blt	.L95
 433:Drivers/STM32F7xx_HAL_Driver/Src/stm32f7xx_ll_usb.c ****     }
 1158              		.loc 1 433 7 is_stmt 1 view .LVU375
 433:Drivers/STM32F7xx_HAL_Driver/Src/stm32f7xx_ll_usb.c ****     }
 1159              		.loc 1 433 29 is_stmt 0 view .LVU376
 1160 00fe 0020     		movs	r0, #0
 1161 0100 C2F80009 		str	r0, [r2, #2304]
 1162 0104 E9E7     		b	.L80
 1163              	.L79:
 428:Drivers/STM32F7xx_HAL_Driver/Src/stm32f7xx_ll_usb.c ****       }
 1164              		.loc 1 428 9 is_stmt 1 view .LVU377
 428:Drivers/STM32F7xx_HAL_Driver/Src/stm32f7xx_ll_usb.c ****       }
 1165              		.loc 1 428 31 is_stmt 0 view .LVU378
 1166 0106 4FF09040 		mov	r0, #1207959552
 1167 010a C2F80009 		str	r0, [r2, #2304]
 1168 010e E4E7     		b	.L80
 1169              	.L94:
 440:Drivers/STM32F7xx_HAL_Driver/Src/stm32f7xx_ll_usb.c ****   {
 1170              		.loc 1 440 10 view .LVU379
 1171 0110 0023     		movs	r3, #0
 1172              	.LVL69:
 440:Drivers/STM32F7xx_HAL_Driver/Src/stm32f7xx_ll_usb.c ****   {
 1173              		.loc 1 440 10 view .LVU380
 1174 0112 0AE0     		b	.L82
 1175              	.LVL70:
 1176              	.L98:
 444:Drivers/STM32F7xx_HAL_Driver/Src/stm32f7xx_ll_usb.c ****       {
 1177              		.loc 1 444 7 is_stmt 1 view .LVU381
 444:Drivers/STM32F7xx_HAL_Driver/Src/stm32f7xx_ll_usb.c ****       {
 1178              		.loc 1 444 10 is_stmt 0 view .LVU382
 1179 0114 BBB1     		cbz	r3, .L96
 450:Drivers/STM32F7xx_HAL_Driver/Src/stm32f7xx_ll_usb.c ****       }
 1180              		.loc 1 450 9 is_stmt 1 view .LVU383
 450:Drivers/STM32F7xx_HAL_Driver/Src/stm32f7xx_ll_usb.c ****       }
 1181              		.loc 1 450 32 is_stmt 0 view .LVU384
 1182 0116 4FF09047 		mov	r7, #1207959552
 1183 011a C2F8007B 		str	r7, [r2, #2816]
 1184              	.L85:
 458:Drivers/STM32F7xx_HAL_Driver/Src/stm32f7xx_ll_usb.c ****     USBx_OUTEP(i)->DOEPINT  = 0xFB7FU;
 1185              		.loc 1 458 5 is_stmt 1 discriminator 2 view .LVU385
 458:Drivers/STM32F7xx_HAL_Driver/Src/stm32f7xx_ll_usb.c ****     USBx_OUTEP(i)->DOEPINT  = 0xFB7FU;
 1186              		.loc 1 458 29 is_stmt 0 discriminator 2 view .LVU386
ARM GAS  C:\Users\benny\AppData\Local\Temp\ccHko7Bj.s 			page 54


 1187 011e 0022     		movs	r2, #0
 1188 0120 0261     		str	r2, [r0, #16]
 459:Drivers/STM32F7xx_HAL_Driver/Src/stm32f7xx_ll_usb.c ****   }
 1189              		.loc 1 459 5 is_stmt 1 discriminator 2 view .LVU387
 459:Drivers/STM32F7xx_HAL_Driver/Src/stm32f7xx_ll_usb.c ****   }
 1190              		.loc 1 459 29 is_stmt 0 discriminator 2 view .LVU388
 1191 0122 4FF67F32 		movw	r2, #64383
 1192 0126 8260     		str	r2, [r0, #8]
 440:Drivers/STM32F7xx_HAL_Driver/Src/stm32f7xx_ll_usb.c ****   {
 1193              		.loc 1 440 40 is_stmt 1 discriminator 2 view .LVU389
 1194 0128 0133     		adds	r3, r3, #1
 1195              	.LVL71:
 1196              	.L82:
 440:Drivers/STM32F7xx_HAL_Driver/Src/stm32f7xx_ll_usb.c ****   {
 1197              		.loc 1 440 18 discriminator 1 view .LVU390
 1198 012a 9942     		cmp	r1, r3
 1199 012c 10D9     		bls	.L97
 442:Drivers/STM32F7xx_HAL_Driver/Src/stm32f7xx_ll_usb.c ****     {
 1200              		.loc 1 442 5 view .LVU391
 442:Drivers/STM32F7xx_HAL_Driver/Src/stm32f7xx_ll_usb.c ****     {
 1201              		.loc 1 442 10 is_stmt 0 view .LVU392
 1202 012e 04EB4312 		add	r2, r4, r3, lsl #5
 1203 0132 02F53060 		add	r0, r2, #2816
 442:Drivers/STM32F7xx_HAL_Driver/Src/stm32f7xx_ll_usb.c ****     {
 1204              		.loc 1 442 23 view .LVU393
 1205 0136 D2F8007B 		ldr	r7, [r2, #2816]
 442:Drivers/STM32F7xx_HAL_Driver/Src/stm32f7xx_ll_usb.c ****     {
 1206              		.loc 1 442 8 view .LVU394
 1207 013a 002F     		cmp	r7, #0
 1208 013c EADB     		blt	.L98
 455:Drivers/STM32F7xx_HAL_Driver/Src/stm32f7xx_ll_usb.c ****     }
 1209              		.loc 1 455 7 is_stmt 1 view .LVU395
 455:Drivers/STM32F7xx_HAL_Driver/Src/stm32f7xx_ll_usb.c ****     }
 1210              		.loc 1 455 30 is_stmt 0 view .LVU396
 1211 013e 0027     		movs	r7, #0
 1212 0140 C2F8007B 		str	r7, [r2, #2816]
 1213 0144 EBE7     		b	.L85
 1214              	.L96:
 446:Drivers/STM32F7xx_HAL_Driver/Src/stm32f7xx_ll_usb.c ****       }
 1215              		.loc 1 446 9 is_stmt 1 view .LVU397
 446:Drivers/STM32F7xx_HAL_Driver/Src/stm32f7xx_ll_usb.c ****       }
 1216              		.loc 1 446 32 is_stmt 0 view .LVU398
 1217 0146 4FF00067 		mov	r7, #134217728
 1218 014a C2F8007B 		str	r7, [r2, #2816]
 1219 014e E6E7     		b	.L85
 1220              	.L97:
 462:Drivers/STM32F7xx_HAL_Driver/Src/stm32f7xx_ll_usb.c **** 
 1221              		.loc 1 462 3 is_stmt 1 view .LVU399
 462:Drivers/STM32F7xx_HAL_Driver/Src/stm32f7xx_ll_usb.c **** 
 1222              		.loc 1 462 14 is_stmt 0 view .LVU400
 1223 0150 DCF81030 		ldr	r3, [ip, #16]
 1224              	.LVL72:
 462:Drivers/STM32F7xx_HAL_Driver/Src/stm32f7xx_ll_usb.c **** 
 1225              		.loc 1 462 24 view .LVU401
 1226 0154 23F48073 		bic	r3, r3, #256
 1227 0158 CCF81030 		str	r3, [ip, #16]
 465:Drivers/STM32F7xx_HAL_Driver/Src/stm32f7xx_ll_usb.c **** 
ARM GAS  C:\Users\benny\AppData\Local\Temp\ccHko7Bj.s 			page 55


 1228              		.loc 1 465 3 is_stmt 1 view .LVU402
 465:Drivers/STM32F7xx_HAL_Driver/Src/stm32f7xx_ll_usb.c **** 
 1229              		.loc 1 465 17 is_stmt 0 view .LVU403
 1230 015c 0023     		movs	r3, #0
 1231 015e A361     		str	r3, [r4, #24]
 468:Drivers/STM32F7xx_HAL_Driver/Src/stm32f7xx_ll_usb.c **** 
 1232              		.loc 1 468 3 is_stmt 1 view .LVU404
 468:Drivers/STM32F7xx_HAL_Driver/Src/stm32f7xx_ll_usb.c **** 
 1233              		.loc 1 468 17 is_stmt 0 view .LVU405
 1234 0160 6FF08043 		mvn	r3, #1073741824
 1235 0164 6361     		str	r3, [r4, #20]
 471:Drivers/STM32F7xx_HAL_Driver/Src/stm32f7xx_ll_usb.c ****   {
 1236              		.loc 1 471 3 is_stmt 1 view .LVU406
 471:Drivers/STM32F7xx_HAL_Driver/Src/stm32f7xx_ll_usb.c ****   {
 1237              		.loc 1 471 10 is_stmt 0 view .LVU407
 1238 0166 9DF81E30 		ldrb	r3, [sp, #30]	@ zero_extendqisi2
 471:Drivers/STM32F7xx_HAL_Driver/Src/stm32f7xx_ll_usb.c ****   {
 1239              		.loc 1 471 6 view .LVU408
 1240 016a 1BB9     		cbnz	r3, .L87
 473:Drivers/STM32F7xx_HAL_Driver/Src/stm32f7xx_ll_usb.c ****   }
 1241              		.loc 1 473 5 is_stmt 1 view .LVU409
 473:Drivers/STM32F7xx_HAL_Driver/Src/stm32f7xx_ll_usb.c ****   }
 1242              		.loc 1 473 9 is_stmt 0 view .LVU410
 1243 016c A369     		ldr	r3, [r4, #24]
 473:Drivers/STM32F7xx_HAL_Driver/Src/stm32f7xx_ll_usb.c ****   }
 1244              		.loc 1 473 19 view .LVU411
 1245 016e 43F01003 		orr	r3, r3, #16
 1246 0172 A361     		str	r3, [r4, #24]
 1247              	.L87:
 477:Drivers/STM32F7xx_HAL_Driver/Src/stm32f7xx_ll_usb.c ****                    USB_OTG_GINTMSK_ENUMDNEM | USB_OTG_GINTMSK_IEPINT |
 1248              		.loc 1 477 3 is_stmt 1 view .LVU412
 477:Drivers/STM32F7xx_HAL_Driver/Src/stm32f7xx_ll_usb.c ****                    USB_OTG_GINTMSK_ENUMDNEM | USB_OTG_GINTMSK_IEPINT |
 1249              		.loc 1 477 7 is_stmt 0 view .LVU413
 1250 0174 A269     		ldr	r2, [r4, #24]
 477:Drivers/STM32F7xx_HAL_Driver/Src/stm32f7xx_ll_usb.c ****                    USB_OTG_GINTMSK_ENUMDNEM | USB_OTG_GINTMSK_IEPINT |
 1251              		.loc 1 477 17 view .LVU414
 1252 0176 0B4B     		ldr	r3, .L100
 1253 0178 1343     		orrs	r3, r3, r2
 1254 017a A361     		str	r3, [r4, #24]
 482:Drivers/STM32F7xx_HAL_Driver/Src/stm32f7xx_ll_usb.c ****   {
 1255              		.loc 1 482 3 is_stmt 1 view .LVU415
 482:Drivers/STM32F7xx_HAL_Driver/Src/stm32f7xx_ll_usb.c ****   {
 1256              		.loc 1 482 10 is_stmt 0 view .LVU416
 1257 017c 9DF82230 		ldrb	r3, [sp, #34]	@ zero_extendqisi2
 482:Drivers/STM32F7xx_HAL_Driver/Src/stm32f7xx_ll_usb.c ****   {
 1258              		.loc 1 482 6 view .LVU417
 1259 0180 1BB1     		cbz	r3, .L88
 484:Drivers/STM32F7xx_HAL_Driver/Src/stm32f7xx_ll_usb.c ****   }
 1260              		.loc 1 484 5 is_stmt 1 view .LVU418
 484:Drivers/STM32F7xx_HAL_Driver/Src/stm32f7xx_ll_usb.c ****   }
 1261              		.loc 1 484 9 is_stmt 0 view .LVU419
 1262 0182 A369     		ldr	r3, [r4, #24]
 484:Drivers/STM32F7xx_HAL_Driver/Src/stm32f7xx_ll_usb.c ****   }
 1263              		.loc 1 484 19 view .LVU420
 1264 0184 43F00803 		orr	r3, r3, #8
 1265 0188 A361     		str	r3, [r4, #24]
 1266              	.L88:
ARM GAS  C:\Users\benny\AppData\Local\Temp\ccHko7Bj.s 			page 56


 487:Drivers/STM32F7xx_HAL_Driver/Src/stm32f7xx_ll_usb.c ****   {
 1267              		.loc 1 487 3 is_stmt 1 view .LVU421
 487:Drivers/STM32F7xx_HAL_Driver/Src/stm32f7xx_ll_usb.c ****   {
 1268              		.loc 1 487 6 is_stmt 0 view .LVU422
 1269 018a 012E     		cmp	r6, #1
 1270 018c 04D0     		beq	.L99
 1271              	.L89:
 492:Drivers/STM32F7xx_HAL_Driver/Src/stm32f7xx_ll_usb.c **** }
 1272              		.loc 1 492 3 is_stmt 1 view .LVU423
 493:Drivers/STM32F7xx_HAL_Driver/Src/stm32f7xx_ll_usb.c **** 
 1273              		.loc 1 493 1 is_stmt 0 view .LVU424
 1274 018e 2846     		mov	r0, r5
 1275 0190 BDE8F840 		pop	{r3, r4, r5, r6, r7, lr}
 1276              	.LCFI19:
 1277              		.cfi_remember_state
 1278              		.cfi_restore 14
 1279              		.cfi_restore 7
 1280              		.cfi_restore 6
 1281              		.cfi_restore 5
 1282              		.cfi_restore 4
 1283              		.cfi_restore 3
 1284              		.cfi_def_cfa_offset 16
 1285              	.LVL73:
 493:Drivers/STM32F7xx_HAL_Driver/Src/stm32f7xx_ll_usb.c **** 
 1286              		.loc 1 493 1 view .LVU425
 1287 0194 04B0     		add	sp, sp, #16
 1288              	.LCFI20:
 1289              		.cfi_def_cfa_offset 0
 1290 0196 7047     		bx	lr
 1291              	.LVL74:
 1292              	.L99:
 1293              	.LCFI21:
 1294              		.cfi_restore_state
 489:Drivers/STM32F7xx_HAL_Driver/Src/stm32f7xx_ll_usb.c ****   }
 1295              		.loc 1 489 5 is_stmt 1 view .LVU426
 489:Drivers/STM32F7xx_HAL_Driver/Src/stm32f7xx_ll_usb.c ****   }
 1296              		.loc 1 489 9 is_stmt 0 view .LVU427
 1297 0198 A269     		ldr	r2, [r4, #24]
 489:Drivers/STM32F7xx_HAL_Driver/Src/stm32f7xx_ll_usb.c ****   }
 1298              		.loc 1 489 19 view .LVU428
 1299 019a 034B     		ldr	r3, .L100+4
 1300 019c 1343     		orrs	r3, r3, r2
 1301 019e A361     		str	r3, [r4, #24]
 1302 01a0 F5E7     		b	.L89
 1303              	.L101:
 1304 01a2 00BF     		.align	2
 1305              	.L100:
 1306 01a4 00383C80 		.word	-2143537152
 1307 01a8 04000040 		.word	1073741828
 1308              		.cfi_endproc
 1309              	.LFE146:
 1311              		.section	.text.USB_GetDevSpeed,"ax",%progbits
 1312              		.align	1
 1313              		.global	USB_GetDevSpeed
 1314              		.syntax unified
 1315              		.thumb
 1316              		.thumb_func
ARM GAS  C:\Users\benny\AppData\Local\Temp\ccHko7Bj.s 			page 57


 1318              	USB_GetDevSpeed:
 1319              	.LVL75:
 1320              	.LFB150:
 600:Drivers/STM32F7xx_HAL_Driver/Src/stm32f7xx_ll_usb.c ****   uint32_t USBx_BASE = (uint32_t)USBx;
 1321              		.loc 1 600 1 is_stmt 1 view -0
 1322              		.cfi_startproc
 1323              		@ args = 0, pretend = 0, frame = 0
 1324              		@ frame_needed = 0, uses_anonymous_args = 0
 1325              		@ link register save eliminated.
 601:Drivers/STM32F7xx_HAL_Driver/Src/stm32f7xx_ll_usb.c ****   uint8_t speed;
 1326              		.loc 1 601 3 view .LVU430
 602:Drivers/STM32F7xx_HAL_Driver/Src/stm32f7xx_ll_usb.c ****   uint32_t DevEnumSpeed = USBx_DEVICE->DSTS & USB_OTG_DSTS_ENUMSPD;
 1327              		.loc 1 602 3 view .LVU431
 603:Drivers/STM32F7xx_HAL_Driver/Src/stm32f7xx_ll_usb.c **** 
 1328              		.loc 1 603 3 view .LVU432
 603:Drivers/STM32F7xx_HAL_Driver/Src/stm32f7xx_ll_usb.c **** 
 1329              		.loc 1 603 38 is_stmt 0 view .LVU433
 1330 0000 D0F80838 		ldr	r3, [r0, #2056]
 1331              	.LVL76:
 605:Drivers/STM32F7xx_HAL_Driver/Src/stm32f7xx_ll_usb.c ****   {
 1332              		.loc 1 605 3 is_stmt 1 view .LVU434
 605:Drivers/STM32F7xx_HAL_Driver/Src/stm32f7xx_ll_usb.c ****   {
 1333              		.loc 1 605 6 is_stmt 0 view .LVU435
 1334 0004 13F00603 		ands	r3, r3, #6
 1335              	.LVL77:
 605:Drivers/STM32F7xx_HAL_Driver/Src/stm32f7xx_ll_usb.c ****   {
 1336              		.loc 1 605 6 view .LVU436
 1337 0008 05D0     		beq	.L104
 609:Drivers/STM32F7xx_HAL_Driver/Src/stm32f7xx_ll_usb.c ****            (DevEnumSpeed == DSTS_ENUMSPD_FS_PHY_48MHZ))
 1338              		.loc 1 609 8 is_stmt 1 view .LVU437
 609:Drivers/STM32F7xx_HAL_Driver/Src/stm32f7xx_ll_usb.c ****            (DevEnumSpeed == DSTS_ENUMSPD_FS_PHY_48MHZ))
 1339              		.loc 1 609 11 is_stmt 0 view .LVU438
 1340 000a 062B     		cmp	r3, #6
 1341 000c 18BF     		it	ne
 1342 000e 022B     		cmpne	r3, #2
 1343 0010 03D1     		bne	.L105
 612:Drivers/STM32F7xx_HAL_Driver/Src/stm32f7xx_ll_usb.c ****   }
 1344              		.loc 1 612 11 view .LVU439
 1345 0012 0220     		movs	r0, #2
 1346              	.LVL78:
 612:Drivers/STM32F7xx_HAL_Driver/Src/stm32f7xx_ll_usb.c ****   }
 1347              		.loc 1 612 11 view .LVU440
 1348 0014 7047     		bx	lr
 1349              	.LVL79:
 1350              	.L104:
 607:Drivers/STM32F7xx_HAL_Driver/Src/stm32f7xx_ll_usb.c ****   }
 1351              		.loc 1 607 11 view .LVU441
 1352 0016 0020     		movs	r0, #0
 1353              	.LVL80:
 607:Drivers/STM32F7xx_HAL_Driver/Src/stm32f7xx_ll_usb.c ****   }
 1354              		.loc 1 607 11 view .LVU442
 1355 0018 7047     		bx	lr
 1356              	.LVL81:
 1357              	.L105:
 616:Drivers/STM32F7xx_HAL_Driver/Src/stm32f7xx_ll_usb.c ****   }
 1358              		.loc 1 616 11 view .LVU443
 1359 001a 0F20     		movs	r0, #15
ARM GAS  C:\Users\benny\AppData\Local\Temp\ccHko7Bj.s 			page 58


 1360              	.LVL82:
 619:Drivers/STM32F7xx_HAL_Driver/Src/stm32f7xx_ll_usb.c **** }
 1361              		.loc 1 619 3 is_stmt 1 view .LVU444
 620:Drivers/STM32F7xx_HAL_Driver/Src/stm32f7xx_ll_usb.c **** 
 1362              		.loc 1 620 1 is_stmt 0 view .LVU445
 1363 001c 7047     		bx	lr
 1364              		.cfi_endproc
 1365              	.LFE150:
 1367              		.section	.text.USB_ActivateEndpoint,"ax",%progbits
 1368              		.align	1
 1369              		.global	USB_ActivateEndpoint
 1370              		.syntax unified
 1371              		.thumb
 1372              		.thumb_func
 1374              	USB_ActivateEndpoint:
 1375              	.LVL83:
 1376              	.LFB151:
 629:Drivers/STM32F7xx_HAL_Driver/Src/stm32f7xx_ll_usb.c ****   uint32_t USBx_BASE = (uint32_t)USBx;
 1377              		.loc 1 629 1 is_stmt 1 view -0
 1378              		.cfi_startproc
 1379              		@ args = 0, pretend = 0, frame = 0
 1380              		@ frame_needed = 0, uses_anonymous_args = 0
 629:Drivers/STM32F7xx_HAL_Driver/Src/stm32f7xx_ll_usb.c ****   uint32_t USBx_BASE = (uint32_t)USBx;
 1381              		.loc 1 629 1 is_stmt 0 view .LVU447
 1382 0000 10B5     		push	{r4, lr}
 1383              	.LCFI22:
 1384              		.cfi_def_cfa_offset 8
 1385              		.cfi_offset 4, -8
 1386              		.cfi_offset 14, -4
 630:Drivers/STM32F7xx_HAL_Driver/Src/stm32f7xx_ll_usb.c ****   uint32_t epnum = (uint32_t)ep->num;
 1387              		.loc 1 630 3 is_stmt 1 view .LVU448
 1388              	.LVL84:
 631:Drivers/STM32F7xx_HAL_Driver/Src/stm32f7xx_ll_usb.c **** 
 1389              		.loc 1 631 3 view .LVU449
 631:Drivers/STM32F7xx_HAL_Driver/Src/stm32f7xx_ll_usb.c **** 
 1390              		.loc 1 631 32 is_stmt 0 view .LVU450
 1391 0002 91F800C0 		ldrb	ip, [r1]	@ zero_extendqisi2
 1392              	.LVL85:
 633:Drivers/STM32F7xx_HAL_Driver/Src/stm32f7xx_ll_usb.c ****   {
 1393              		.loc 1 633 3 is_stmt 1 view .LVU451
 633:Drivers/STM32F7xx_HAL_Driver/Src/stm32f7xx_ll_usb.c ****   {
 1394              		.loc 1 633 9 is_stmt 0 view .LVU452
 1395 0006 4B78     		ldrb	r3, [r1, #1]	@ zero_extendqisi2
 633:Drivers/STM32F7xx_HAL_Driver/Src/stm32f7xx_ll_usb.c ****   {
 1396              		.loc 1 633 6 view .LVU453
 1397 0008 012B     		cmp	r3, #1
 1398 000a 21D0     		beq	.L110
 647:Drivers/STM32F7xx_HAL_Driver/Src/stm32f7xx_ll_usb.c **** 
 1399              		.loc 1 647 5 is_stmt 1 view .LVU454
 647:Drivers/STM32F7xx_HAL_Driver/Src/stm32f7xx_ll_usb.c **** 
 1400              		.loc 1 647 16 is_stmt 0 view .LVU455
 1401 000c 00F5006E 		add	lr, r0, #2048
 1402 0010 D0F81C38 		ldr	r3, [r0, #2076]
 647:Drivers/STM32F7xx_HAL_Driver/Src/stm32f7xx_ll_usb.c **** 
 1403              		.loc 1 647 82 view .LVU456
 1404 0014 0CF00F04 		and	r4, ip, #15
 647:Drivers/STM32F7xx_HAL_Driver/Src/stm32f7xx_ll_usb.c **** 
ARM GAS  C:\Users\benny\AppData\Local\Temp\ccHko7Bj.s 			page 59


 1405              		.loc 1 647 55 view .LVU457
 1406 0018 0122     		movs	r2, #1
 1407 001a A240     		lsls	r2, r2, r4
 647:Drivers/STM32F7xx_HAL_Driver/Src/stm32f7xx_ll_usb.c **** 
 1408              		.loc 1 647 27 view .LVU458
 1409 001c 43EA0243 		orr	r3, r3, r2, lsl #16
 1410 0020 C0F81C38 		str	r3, [r0, #2076]
 649:Drivers/STM32F7xx_HAL_Driver/Src/stm32f7xx_ll_usb.c ****     {
 1411              		.loc 1 649 5 is_stmt 1 view .LVU459
 649:Drivers/STM32F7xx_HAL_Driver/Src/stm32f7xx_ll_usb.c ****     {
 1412              		.loc 1 649 11 is_stmt 0 view .LVU460
 1413 0024 00EB4C10 		add	r0, r0, ip, lsl #5
 1414              	.LVL86:
 649:Drivers/STM32F7xx_HAL_Driver/Src/stm32f7xx_ll_usb.c ****     {
 1415              		.loc 1 649 28 view .LVU461
 1416 0028 D0F8003B 		ldr	r3, [r0, #2816]
 649:Drivers/STM32F7xx_HAL_Driver/Src/stm32f7xx_ll_usb.c ****     {
 1417              		.loc 1 649 8 view .LVU462
 1418 002c 13F4004F 		tst	r3, #32768
 1419 0030 0CD1     		bne	.L108
 651:Drivers/STM32F7xx_HAL_Driver/Src/stm32f7xx_ll_usb.c ****                                     ((uint32_t)ep->type << 18) |
 1420              		.loc 1 651 7 is_stmt 1 view .LVU463
 651:Drivers/STM32F7xx_HAL_Driver/Src/stm32f7xx_ll_usb.c ****                                     ((uint32_t)ep->type << 18) |
 1421              		.loc 1 651 24 is_stmt 0 view .LVU464
 1422 0032 D0F8002B 		ldr	r2, [r0, #2816]
 651:Drivers/STM32F7xx_HAL_Driver/Src/stm32f7xx_ll_usb.c ****                                     ((uint32_t)ep->type << 18) |
 1423              		.loc 1 651 40 view .LVU465
 1424 0036 8B68     		ldr	r3, [r1, #8]
 651:Drivers/STM32F7xx_HAL_Driver/Src/stm32f7xx_ll_usb.c ****                                     ((uint32_t)ep->type << 18) |
 1425              		.loc 1 651 52 view .LVU466
 1426 0038 C3F30A03 		ubfx	r3, r3, #0, #11
 652:Drivers/STM32F7xx_HAL_Driver/Src/stm32f7xx_ll_usb.c ****                                     USB_OTG_DIEPCTL_SD0PID_SEVNFRM |
 1427              		.loc 1 652 50 view .LVU467
 1428 003c 0979     		ldrb	r1, [r1, #4]	@ zero_extendqisi2
 1429              	.LVL87:
 651:Drivers/STM32F7xx_HAL_Driver/Src/stm32f7xx_ll_usb.c ****                                     ((uint32_t)ep->type << 18) |
 1430              		.loc 1 651 77 view .LVU468
 1431 003e 43EA8143 		orr	r3, r3, r1, lsl #18
 651:Drivers/STM32F7xx_HAL_Driver/Src/stm32f7xx_ll_usb.c ****                                     ((uint32_t)ep->type << 18) |
 1432              		.loc 1 651 34 view .LVU469
 1433 0042 1A43     		orrs	r2, r2, r3
 1434 0044 134B     		ldr	r3, .L111
 1435 0046 1343     		orrs	r3, r3, r2
 1436 0048 C0F8003B 		str	r3, [r0, #2816]
 1437              	.LVL88:
 1438              	.L108:
 657:Drivers/STM32F7xx_HAL_Driver/Src/stm32f7xx_ll_usb.c **** }
 1439              		.loc 1 657 3 is_stmt 1 view .LVU470
 658:Drivers/STM32F7xx_HAL_Driver/Src/stm32f7xx_ll_usb.c **** 
 1440              		.loc 1 658 1 is_stmt 0 view .LVU471
 1441 004c 0020     		movs	r0, #0
 1442 004e 10BD     		pop	{r4, pc}
 1443              	.LVL89:
 1444              	.L110:
 635:Drivers/STM32F7xx_HAL_Driver/Src/stm32f7xx_ll_usb.c **** 
 1445              		.loc 1 635 5 is_stmt 1 view .LVU472
 635:Drivers/STM32F7xx_HAL_Driver/Src/stm32f7xx_ll_usb.c **** 
ARM GAS  C:\Users\benny\AppData\Local\Temp\ccHko7Bj.s 			page 60


 1446              		.loc 1 635 16 is_stmt 0 view .LVU473
 1447 0050 D0F81C28 		ldr	r2, [r0, #2076]
 635:Drivers/STM32F7xx_HAL_Driver/Src/stm32f7xx_ll_usb.c **** 
 1448              		.loc 1 635 81 view .LVU474
 1449 0054 0CF00F0E 		and	lr, ip, #15
 635:Drivers/STM32F7xx_HAL_Driver/Src/stm32f7xx_ll_usb.c **** 
 1450              		.loc 1 635 54 view .LVU475
 1451 0058 03FA0EF3 		lsl	r3, r3, lr
 635:Drivers/STM32F7xx_HAL_Driver/Src/stm32f7xx_ll_usb.c **** 
 1452              		.loc 1 635 52 view .LVU476
 1453 005c 9BB2     		uxth	r3, r3
 635:Drivers/STM32F7xx_HAL_Driver/Src/stm32f7xx_ll_usb.c **** 
 1454              		.loc 1 635 27 view .LVU477
 1455 005e 1343     		orrs	r3, r3, r2
 1456 0060 C0F81C38 		str	r3, [r0, #2076]
 637:Drivers/STM32F7xx_HAL_Driver/Src/stm32f7xx_ll_usb.c ****     {
 1457              		.loc 1 637 5 is_stmt 1 view .LVU478
 637:Drivers/STM32F7xx_HAL_Driver/Src/stm32f7xx_ll_usb.c ****     {
 1458              		.loc 1 637 10 is_stmt 0 view .LVU479
 1459 0064 00EB4C10 		add	r0, r0, ip, lsl #5
 1460              	.LVL90:
 637:Drivers/STM32F7xx_HAL_Driver/Src/stm32f7xx_ll_usb.c ****     {
 1461              		.loc 1 637 26 view .LVU480
 1462 0068 D0F80039 		ldr	r3, [r0, #2304]
 637:Drivers/STM32F7xx_HAL_Driver/Src/stm32f7xx_ll_usb.c ****     {
 1463              		.loc 1 637 8 view .LVU481
 1464 006c 13F4004F 		tst	r3, #32768
 1465 0070 ECD1     		bne	.L108
 639:Drivers/STM32F7xx_HAL_Driver/Src/stm32f7xx_ll_usb.c ****                                    ((uint32_t)ep->type << 18) | (epnum << 22) |
 1466              		.loc 1 639 7 is_stmt 1 view .LVU482
 639:Drivers/STM32F7xx_HAL_Driver/Src/stm32f7xx_ll_usb.c ****                                    ((uint32_t)ep->type << 18) | (epnum << 22) |
 1467              		.loc 1 639 23 is_stmt 0 view .LVU483
 1468 0072 D0F80029 		ldr	r2, [r0, #2304]
 639:Drivers/STM32F7xx_HAL_Driver/Src/stm32f7xx_ll_usb.c ****                                    ((uint32_t)ep->type << 18) | (epnum << 22) |
 1469              		.loc 1 639 39 view .LVU484
 1470 0076 8B68     		ldr	r3, [r1, #8]
 639:Drivers/STM32F7xx_HAL_Driver/Src/stm32f7xx_ll_usb.c ****                                    ((uint32_t)ep->type << 18) | (epnum << 22) |
 1471              		.loc 1 639 51 view .LVU485
 1472 0078 C3F30A03 		ubfx	r3, r3, #0, #11
 640:Drivers/STM32F7xx_HAL_Driver/Src/stm32f7xx_ll_usb.c ****                                    USB_OTG_DIEPCTL_SD0PID_SEVNFRM |
 1473              		.loc 1 640 49 view .LVU486
 1474 007c 0979     		ldrb	r1, [r1, #4]	@ zero_extendqisi2
 1475              	.LVL91:
 639:Drivers/STM32F7xx_HAL_Driver/Src/stm32f7xx_ll_usb.c ****                                    ((uint32_t)ep->type << 18) | (epnum << 22) |
 1476              		.loc 1 639 76 view .LVU487
 1477 007e 43EA8143 		orr	r3, r3, r1, lsl #18
 640:Drivers/STM32F7xx_HAL_Driver/Src/stm32f7xx_ll_usb.c ****                                    USB_OTG_DIEPCTL_SD0PID_SEVNFRM |
 1478              		.loc 1 640 63 view .LVU488
 1479 0082 43EA8C53 		orr	r3, r3, ip, lsl #22
 639:Drivers/STM32F7xx_HAL_Driver/Src/stm32f7xx_ll_usb.c ****                                    ((uint32_t)ep->type << 18) | (epnum << 22) |
 1480              		.loc 1 639 33 view .LVU489
 1481 0086 1A43     		orrs	r2, r2, r3
 1482 0088 024B     		ldr	r3, .L111
 1483 008a 1343     		orrs	r3, r3, r2
 1484 008c C0F80039 		str	r3, [r0, #2304]
 1485 0090 DCE7     		b	.L108
 1486              	.L112:
ARM GAS  C:\Users\benny\AppData\Local\Temp\ccHko7Bj.s 			page 61


 1487 0092 00BF     		.align	2
 1488              	.L111:
 1489 0094 00800010 		.word	268468224
 1490              		.cfi_endproc
 1491              	.LFE151:
 1493              		.section	.text.USB_ActivateDedicatedEndpoint,"ax",%progbits
 1494              		.align	1
 1495              		.global	USB_ActivateDedicatedEndpoint
 1496              		.syntax unified
 1497              		.thumb
 1498              		.thumb_func
 1500              	USB_ActivateDedicatedEndpoint:
 1501              	.LVL92:
 1502              	.LFB152:
 667:Drivers/STM32F7xx_HAL_Driver/Src/stm32f7xx_ll_usb.c ****   uint32_t USBx_BASE = (uint32_t)USBx;
 1503              		.loc 1 667 1 is_stmt 1 view -0
 1504              		.cfi_startproc
 1505              		@ args = 0, pretend = 0, frame = 0
 1506              		@ frame_needed = 0, uses_anonymous_args = 0
 1507              		@ link register save eliminated.
 667:Drivers/STM32F7xx_HAL_Driver/Src/stm32f7xx_ll_usb.c ****   uint32_t USBx_BASE = (uint32_t)USBx;
 1508              		.loc 1 667 1 is_stmt 0 view .LVU491
 1509 0000 30B4     		push	{r4, r5}
 1510              	.LCFI23:
 1511              		.cfi_def_cfa_offset 8
 1512              		.cfi_offset 4, -8
 1513              		.cfi_offset 5, -4
 668:Drivers/STM32F7xx_HAL_Driver/Src/stm32f7xx_ll_usb.c ****   uint32_t epnum = (uint32_t)ep->num;
 1514              		.loc 1 668 3 is_stmt 1 view .LVU492
 1515              	.LVL93:
 669:Drivers/STM32F7xx_HAL_Driver/Src/stm32f7xx_ll_usb.c **** 
 1516              		.loc 1 669 3 view .LVU493
 669:Drivers/STM32F7xx_HAL_Driver/Src/stm32f7xx_ll_usb.c **** 
 1517              		.loc 1 669 32 is_stmt 0 view .LVU494
 1518 0002 0A78     		ldrb	r2, [r1]	@ zero_extendqisi2
 1519              	.LVL94:
 672:Drivers/STM32F7xx_HAL_Driver/Src/stm32f7xx_ll_usb.c ****   {
 1520              		.loc 1 672 3 is_stmt 1 view .LVU495
 672:Drivers/STM32F7xx_HAL_Driver/Src/stm32f7xx_ll_usb.c ****   {
 1521              		.loc 1 672 9 is_stmt 0 view .LVU496
 1522 0004 4B78     		ldrb	r3, [r1, #1]	@ zero_extendqisi2
 672:Drivers/STM32F7xx_HAL_Driver/Src/stm32f7xx_ll_usb.c ****   {
 1523              		.loc 1 672 6 view .LVU497
 1524 0006 012B     		cmp	r3, #1
 1525 0008 23D0     		beq	.L119
 686:Drivers/STM32F7xx_HAL_Driver/Src/stm32f7xx_ll_usb.c ****     {
 1526              		.loc 1 686 5 is_stmt 1 view .LVU498
 686:Drivers/STM32F7xx_HAL_Driver/Src/stm32f7xx_ll_usb.c ****     {
 1527              		.loc 1 686 11 is_stmt 0 view .LVU499
 1528 000a 00EB421C 		add	ip, r0, r2, lsl #5
 686:Drivers/STM32F7xx_HAL_Driver/Src/stm32f7xx_ll_usb.c ****     {
 1529              		.loc 1 686 28 view .LVU500
 1530 000e DCF8003B 		ldr	r3, [ip, #2816]
 686:Drivers/STM32F7xx_HAL_Driver/Src/stm32f7xx_ll_usb.c ****     {
 1531              		.loc 1 686 8 view .LVU501
 1532 0012 13F4004F 		tst	r3, #32768
 1533 0016 0ED1     		bne	.L117
ARM GAS  C:\Users\benny\AppData\Local\Temp\ccHko7Bj.s 			page 62


 688:Drivers/STM32F7xx_HAL_Driver/Src/stm32f7xx_ll_usb.c ****                                     ((uint32_t)ep->type << 18) | (epnum << 22) |
 1534              		.loc 1 688 7 is_stmt 1 view .LVU502
 688:Drivers/STM32F7xx_HAL_Driver/Src/stm32f7xx_ll_usb.c ****                                     ((uint32_t)ep->type << 18) | (epnum << 22) |
 1535              		.loc 1 688 24 is_stmt 0 view .LVU503
 1536 0018 DCF8004B 		ldr	r4, [ip, #2816]
 688:Drivers/STM32F7xx_HAL_Driver/Src/stm32f7xx_ll_usb.c ****                                     ((uint32_t)ep->type << 18) | (epnum << 22) |
 1537              		.loc 1 688 40 view .LVU504
 1538 001c 8B68     		ldr	r3, [r1, #8]
 688:Drivers/STM32F7xx_HAL_Driver/Src/stm32f7xx_ll_usb.c ****                                     ((uint32_t)ep->type << 18) | (epnum << 22) |
 1539              		.loc 1 688 52 view .LVU505
 1540 001e C3F30A03 		ubfx	r3, r3, #0, #11
 689:Drivers/STM32F7xx_HAL_Driver/Src/stm32f7xx_ll_usb.c ****                                     USB_OTG_DOEPCTL_USBAEP;
 1541              		.loc 1 689 50 view .LVU506
 1542 0022 0D79     		ldrb	r5, [r1, #4]	@ zero_extendqisi2
 688:Drivers/STM32F7xx_HAL_Driver/Src/stm32f7xx_ll_usb.c ****                                     ((uint32_t)ep->type << 18) | (epnum << 22) |
 1543              		.loc 1 688 77 view .LVU507
 1544 0024 43EA8543 		orr	r3, r3, r5, lsl #18
 689:Drivers/STM32F7xx_HAL_Driver/Src/stm32f7xx_ll_usb.c ****                                     USB_OTG_DOEPCTL_USBAEP;
 1545              		.loc 1 689 64 view .LVU508
 1546 0028 43EA8253 		orr	r3, r3, r2, lsl #22
 688:Drivers/STM32F7xx_HAL_Driver/Src/stm32f7xx_ll_usb.c ****                                     ((uint32_t)ep->type << 18) | (epnum << 22) |
 1547              		.loc 1 688 34 view .LVU509
 1548 002c 2343     		orrs	r3, r3, r4
 1549 002e 43F40043 		orr	r3, r3, #32768
 1550 0032 CCF8003B 		str	r3, [ip, #2816]
 1551              	.L117:
 693:Drivers/STM32F7xx_HAL_Driver/Src/stm32f7xx_ll_usb.c ****   }
 1552              		.loc 1 693 5 is_stmt 1 view .LVU510
 693:Drivers/STM32F7xx_HAL_Driver/Src/stm32f7xx_ll_usb.c ****   }
 1553              		.loc 1 693 16 is_stmt 0 view .LVU511
 1554 0036 D0F83C38 		ldr	r3, [r0, #2108]
 693:Drivers/STM32F7xx_HAL_Driver/Src/stm32f7xx_ll_usb.c ****   }
 1555              		.loc 1 693 76 view .LVU512
 1556 003a 0978     		ldrb	r1, [r1]	@ zero_extendqisi2
 1557              	.LVL95:
 693:Drivers/STM32F7xx_HAL_Driver/Src/stm32f7xx_ll_usb.c ****   }
 1558              		.loc 1 693 82 view .LVU513
 1559 003c 01F00F01 		and	r1, r1, #15
 693:Drivers/STM32F7xx_HAL_Driver/Src/stm32f7xx_ll_usb.c ****   }
 1560              		.loc 1 693 55 view .LVU514
 1561 0040 0122     		movs	r2, #1
 1562              	.LVL96:
 693:Drivers/STM32F7xx_HAL_Driver/Src/stm32f7xx_ll_usb.c ****   }
 1563              		.loc 1 693 55 view .LVU515
 1564 0042 8A40     		lsls	r2, r2, r1
 693:Drivers/STM32F7xx_HAL_Driver/Src/stm32f7xx_ll_usb.c ****   }
 1565              		.loc 1 693 27 view .LVU516
 1566 0044 43EA0243 		orr	r3, r3, r2, lsl #16
 1567 0048 C0F83C38 		str	r3, [r0, #2108]
 1568              	.L116:
 696:Drivers/STM32F7xx_HAL_Driver/Src/stm32f7xx_ll_usb.c **** }
 1569              		.loc 1 696 3 is_stmt 1 view .LVU517
 697:Drivers/STM32F7xx_HAL_Driver/Src/stm32f7xx_ll_usb.c **** 
 1570              		.loc 1 697 1 is_stmt 0 view .LVU518
 1571 004c 0020     		movs	r0, #0
 1572              	.LVL97:
 697:Drivers/STM32F7xx_HAL_Driver/Src/stm32f7xx_ll_usb.c **** 
ARM GAS  C:\Users\benny\AppData\Local\Temp\ccHko7Bj.s 			page 63


 1573              		.loc 1 697 1 view .LVU519
 1574 004e 30BC     		pop	{r4, r5}
 1575              	.LCFI24:
 1576              		.cfi_remember_state
 1577              		.cfi_restore 5
 1578              		.cfi_restore 4
 1579              		.cfi_def_cfa_offset 0
 1580 0050 7047     		bx	lr
 1581              	.LVL98:
 1582              	.L119:
 1583              	.LCFI25:
 1584              		.cfi_restore_state
 674:Drivers/STM32F7xx_HAL_Driver/Src/stm32f7xx_ll_usb.c ****     {
 1585              		.loc 1 674 5 is_stmt 1 view .LVU520
 674:Drivers/STM32F7xx_HAL_Driver/Src/stm32f7xx_ll_usb.c ****     {
 1586              		.loc 1 674 11 is_stmt 0 view .LVU521
 1587 0052 00EB4214 		add	r4, r0, r2, lsl #5
 674:Drivers/STM32F7xx_HAL_Driver/Src/stm32f7xx_ll_usb.c ****     {
 1588              		.loc 1 674 27 view .LVU522
 1589 0056 D4F80039 		ldr	r3, [r4, #2304]
 674:Drivers/STM32F7xx_HAL_Driver/Src/stm32f7xx_ll_usb.c ****     {
 1590              		.loc 1 674 8 view .LVU523
 1591 005a 13F4004F 		tst	r3, #32768
 1592 005e 10D1     		bne	.L115
 676:Drivers/STM32F7xx_HAL_Driver/Src/stm32f7xx_ll_usb.c ****                                    ((uint32_t)ep->type << 18) | (epnum << 22) |
 1593              		.loc 1 676 7 is_stmt 1 view .LVU524
 676:Drivers/STM32F7xx_HAL_Driver/Src/stm32f7xx_ll_usb.c ****                                    ((uint32_t)ep->type << 18) | (epnum << 22) |
 1594              		.loc 1 676 23 is_stmt 0 view .LVU525
 1595 0060 D4F80059 		ldr	r5, [r4, #2304]
 676:Drivers/STM32F7xx_HAL_Driver/Src/stm32f7xx_ll_usb.c ****                                    ((uint32_t)ep->type << 18) | (epnum << 22) |
 1596              		.loc 1 676 39 view .LVU526
 1597 0064 8B68     		ldr	r3, [r1, #8]
 676:Drivers/STM32F7xx_HAL_Driver/Src/stm32f7xx_ll_usb.c ****                                    ((uint32_t)ep->type << 18) | (epnum << 22) |
 1598              		.loc 1 676 51 view .LVU527
 1599 0066 C3F30A03 		ubfx	r3, r3, #0, #11
 677:Drivers/STM32F7xx_HAL_Driver/Src/stm32f7xx_ll_usb.c ****                                    USB_OTG_DIEPCTL_SD0PID_SEVNFRM |
 1600              		.loc 1 677 49 view .LVU528
 1601 006a 91F804C0 		ldrb	ip, [r1, #4]	@ zero_extendqisi2
 676:Drivers/STM32F7xx_HAL_Driver/Src/stm32f7xx_ll_usb.c ****                                    ((uint32_t)ep->type << 18) | (epnum << 22) |
 1602              		.loc 1 676 76 view .LVU529
 1603 006e 43EA8C43 		orr	r3, r3, ip, lsl #18
 677:Drivers/STM32F7xx_HAL_Driver/Src/stm32f7xx_ll_usb.c ****                                    USB_OTG_DIEPCTL_SD0PID_SEVNFRM |
 1604              		.loc 1 677 63 view .LVU530
 1605 0072 43EA8253 		orr	r3, r3, r2, lsl #22
 676:Drivers/STM32F7xx_HAL_Driver/Src/stm32f7xx_ll_usb.c ****                                    ((uint32_t)ep->type << 18) | (epnum << 22) |
 1606              		.loc 1 676 33 view .LVU531
 1607 0076 45EA0302 		orr	r2, r5, r3
 1608              	.LVL99:
 676:Drivers/STM32F7xx_HAL_Driver/Src/stm32f7xx_ll_usb.c ****                                    ((uint32_t)ep->type << 18) | (epnum << 22) |
 1609              		.loc 1 676 33 view .LVU532
 1610 007a 084B     		ldr	r3, .L120
 1611 007c 1343     		orrs	r3, r3, r2
 1612 007e C4F80039 		str	r3, [r4, #2304]
 1613              	.LVL100:
 1614              	.L115:
 682:Drivers/STM32F7xx_HAL_Driver/Src/stm32f7xx_ll_usb.c ****   }
 1615              		.loc 1 682 5 is_stmt 1 view .LVU533
ARM GAS  C:\Users\benny\AppData\Local\Temp\ccHko7Bj.s 			page 64


 682:Drivers/STM32F7xx_HAL_Driver/Src/stm32f7xx_ll_usb.c ****   }
 1616              		.loc 1 682 16 is_stmt 0 view .LVU534
 1617 0082 D0F83C28 		ldr	r2, [r0, #2108]
 682:Drivers/STM32F7xx_HAL_Driver/Src/stm32f7xx_ll_usb.c ****   }
 1618              		.loc 1 682 75 view .LVU535
 1619 0086 0978     		ldrb	r1, [r1]	@ zero_extendqisi2
 1620              	.LVL101:
 682:Drivers/STM32F7xx_HAL_Driver/Src/stm32f7xx_ll_usb.c ****   }
 1621              		.loc 1 682 81 view .LVU536
 1622 0088 01F00F01 		and	r1, r1, #15
 682:Drivers/STM32F7xx_HAL_Driver/Src/stm32f7xx_ll_usb.c ****   }
 1623              		.loc 1 682 54 view .LVU537
 1624 008c 0123     		movs	r3, #1
 1625 008e 8B40     		lsls	r3, r3, r1
 682:Drivers/STM32F7xx_HAL_Driver/Src/stm32f7xx_ll_usb.c ****   }
 1626              		.loc 1 682 52 view .LVU538
 1627 0090 9BB2     		uxth	r3, r3
 682:Drivers/STM32F7xx_HAL_Driver/Src/stm32f7xx_ll_usb.c ****   }
 1628              		.loc 1 682 27 view .LVU539
 1629 0092 1343     		orrs	r3, r3, r2
 1630 0094 C0F83C38 		str	r3, [r0, #2108]
 1631 0098 D8E7     		b	.L116
 1632              	.L121:
 1633 009a 00BF     		.align	2
 1634              	.L120:
 1635 009c 00800010 		.word	268468224
 1636              		.cfi_endproc
 1637              	.LFE152:
 1639              		.section	.text.USB_DeactivateEndpoint,"ax",%progbits
 1640              		.align	1
 1641              		.global	USB_DeactivateEndpoint
 1642              		.syntax unified
 1643              		.thumb
 1644              		.thumb_func
 1646              	USB_DeactivateEndpoint:
 1647              	.LVL102:
 1648              	.LFB153:
 706:Drivers/STM32F7xx_HAL_Driver/Src/stm32f7xx_ll_usb.c ****   uint32_t USBx_BASE = (uint32_t)USBx;
 1649              		.loc 1 706 1 is_stmt 1 view -0
 1650              		.cfi_startproc
 1651              		@ args = 0, pretend = 0, frame = 0
 1652              		@ frame_needed = 0, uses_anonymous_args = 0
 1653              		@ link register save eliminated.
 706:Drivers/STM32F7xx_HAL_Driver/Src/stm32f7xx_ll_usb.c ****   uint32_t USBx_BASE = (uint32_t)USBx;
 1654              		.loc 1 706 1 is_stmt 0 view .LVU541
 1655 0000 30B4     		push	{r4, r5}
 1656              	.LCFI26:
 1657              		.cfi_def_cfa_offset 8
 1658              		.cfi_offset 4, -8
 1659              		.cfi_offset 5, -4
 707:Drivers/STM32F7xx_HAL_Driver/Src/stm32f7xx_ll_usb.c ****   uint32_t epnum = (uint32_t)ep->num;
 1660              		.loc 1 707 3 is_stmt 1 view .LVU542
 1661              	.LVL103:
 708:Drivers/STM32F7xx_HAL_Driver/Src/stm32f7xx_ll_usb.c **** 
 1662              		.loc 1 708 3 view .LVU543
 708:Drivers/STM32F7xx_HAL_Driver/Src/stm32f7xx_ll_usb.c **** 
 1663              		.loc 1 708 32 is_stmt 0 view .LVU544
ARM GAS  C:\Users\benny\AppData\Local\Temp\ccHko7Bj.s 			page 65


 1664 0002 0B78     		ldrb	r3, [r1]	@ zero_extendqisi2
 1665              	.LVL104:
 711:Drivers/STM32F7xx_HAL_Driver/Src/stm32f7xx_ll_usb.c ****   {
 1666              		.loc 1 711 3 is_stmt 1 view .LVU545
 711:Drivers/STM32F7xx_HAL_Driver/Src/stm32f7xx_ll_usb.c ****   {
 1667              		.loc 1 711 9 is_stmt 0 view .LVU546
 1668 0004 4A78     		ldrb	r2, [r1, #1]	@ zero_extendqisi2
 711:Drivers/STM32F7xx_HAL_Driver/Src/stm32f7xx_ll_usb.c ****   {
 1669              		.loc 1 711 6 view .LVU547
 1670 0006 012A     		cmp	r2, #1
 1671 0008 26D0     		beq	.L128
 729:Drivers/STM32F7xx_HAL_Driver/Src/stm32f7xx_ll_usb.c ****     {
 1672              		.loc 1 729 5 is_stmt 1 view .LVU548
 729:Drivers/STM32F7xx_HAL_Driver/Src/stm32f7xx_ll_usb.c ****     {
 1673              		.loc 1 729 10 is_stmt 0 view .LVU549
 1674 000a 00EB4313 		add	r3, r0, r3, lsl #5
 1675              	.LVL105:
 729:Drivers/STM32F7xx_HAL_Driver/Src/stm32f7xx_ll_usb.c ****     {
 1676              		.loc 1 729 27 view .LVU550
 1677 000e D3F8002B 		ldr	r2, [r3, #2816]
 729:Drivers/STM32F7xx_HAL_Driver/Src/stm32f7xx_ll_usb.c ****     {
 1678              		.loc 1 729 8 view .LVU551
 1679 0012 002A     		cmp	r2, #0
 1680 0014 52DB     		blt	.L129
 1681              	.LVL106:
 1682              	.L126:
 735:Drivers/STM32F7xx_HAL_Driver/Src/stm32f7xx_ll_usb.c ****     USBx_DEVICE->DAINTMSK &= ~(USB_OTG_DAINTMSK_OEPM & ((uint32_t)(1UL << (ep->num & EP_ADDR_MSK)) 
 1683              		.loc 1 735 5 is_stmt 1 view .LVU552
 735:Drivers/STM32F7xx_HAL_Driver/Src/stm32f7xx_ll_usb.c ****     USBx_DEVICE->DAINTMSK &= ~(USB_OTG_DAINTMSK_OEPM & ((uint32_t)(1UL << (ep->num & EP_ADDR_MSK)) 
 1684              		.loc 1 735 16 is_stmt 0 view .LVU553
 1685 0016 D0F83C48 		ldr	r4, [r0, #2108]
 735:Drivers/STM32F7xx_HAL_Driver/Src/stm32f7xx_ll_usb.c ****     USBx_DEVICE->DAINTMSK &= ~(USB_OTG_DAINTMSK_OEPM & ((uint32_t)(1UL << (ep->num & EP_ADDR_MSK)) 
 1686              		.loc 1 735 78 view .LVU554
 1687 001a 0A78     		ldrb	r2, [r1]	@ zero_extendqisi2
 735:Drivers/STM32F7xx_HAL_Driver/Src/stm32f7xx_ll_usb.c ****     USBx_DEVICE->DAINTMSK &= ~(USB_OTG_DAINTMSK_OEPM & ((uint32_t)(1UL << (ep->num & EP_ADDR_MSK)) 
 1688              		.loc 1 735 84 view .LVU555
 1689 001c 02F00F02 		and	r2, r2, #15
 735:Drivers/STM32F7xx_HAL_Driver/Src/stm32f7xx_ll_usb.c ****     USBx_DEVICE->DAINTMSK &= ~(USB_OTG_DAINTMSK_OEPM & ((uint32_t)(1UL << (ep->num & EP_ADDR_MSK)) 
 1690              		.loc 1 735 57 view .LVU556
 1691 0020 4FF0010C 		mov	ip, #1
 1692 0024 0CFA02F2 		lsl	r2, ip, r2
 735:Drivers/STM32F7xx_HAL_Driver/Src/stm32f7xx_ll_usb.c ****     USBx_DEVICE->DAINTMSK &= ~(USB_OTG_DAINTMSK_OEPM & ((uint32_t)(1UL << (ep->num & EP_ADDR_MSK)) 
 1693              		.loc 1 735 27 view .LVU557
 1694 0028 24EA0242 		bic	r2, r4, r2, lsl #16
 1695 002c C0F83C28 		str	r2, [r0, #2108]
 736:Drivers/STM32F7xx_HAL_Driver/Src/stm32f7xx_ll_usb.c ****     USBx_OUTEP(epnum)->DOEPCTL &= ~(USB_OTG_DOEPCTL_USBAEP |
 1696              		.loc 1 736 5 is_stmt 1 view .LVU558
 736:Drivers/STM32F7xx_HAL_Driver/Src/stm32f7xx_ll_usb.c ****     USBx_OUTEP(epnum)->DOEPCTL &= ~(USB_OTG_DOEPCTL_USBAEP |
 1697              		.loc 1 736 16 is_stmt 0 view .LVU559
 1698 0030 D0F81C28 		ldr	r2, [r0, #2076]
 736:Drivers/STM32F7xx_HAL_Driver/Src/stm32f7xx_ll_usb.c ****     USBx_OUTEP(epnum)->DOEPCTL &= ~(USB_OTG_DOEPCTL_USBAEP |
 1699              		.loc 1 736 78 view .LVU560
 1700 0034 0978     		ldrb	r1, [r1]	@ zero_extendqisi2
 1701              	.LVL107:
 736:Drivers/STM32F7xx_HAL_Driver/Src/stm32f7xx_ll_usb.c ****     USBx_OUTEP(epnum)->DOEPCTL &= ~(USB_OTG_DOEPCTL_USBAEP |
 1702              		.loc 1 736 84 view .LVU561
 1703 0036 01F00F01 		and	r1, r1, #15
ARM GAS  C:\Users\benny\AppData\Local\Temp\ccHko7Bj.s 			page 66


 736:Drivers/STM32F7xx_HAL_Driver/Src/stm32f7xx_ll_usb.c ****     USBx_OUTEP(epnum)->DOEPCTL &= ~(USB_OTG_DOEPCTL_USBAEP |
 1704              		.loc 1 736 57 view .LVU562
 1705 003a 0CFA01FC 		lsl	ip, ip, r1
 736:Drivers/STM32F7xx_HAL_Driver/Src/stm32f7xx_ll_usb.c ****     USBx_OUTEP(epnum)->DOEPCTL &= ~(USB_OTG_DOEPCTL_USBAEP |
 1706              		.loc 1 736 27 view .LVU563
 1707 003e 22EA0C42 		bic	r2, r2, ip, lsl #16
 1708 0042 C0F81C28 		str	r2, [r0, #2076]
 737:Drivers/STM32F7xx_HAL_Driver/Src/stm32f7xx_ll_usb.c ****                                     USB_OTG_DOEPCTL_MPSIZ |
 1709              		.loc 1 737 5 is_stmt 1 view .LVU564
 737:Drivers/STM32F7xx_HAL_Driver/Src/stm32f7xx_ll_usb.c ****                                     USB_OTG_DOEPCTL_MPSIZ |
 1710              		.loc 1 737 22 is_stmt 0 view .LVU565
 1711 0046 D3F8001B 		ldr	r1, [r3, #2816]
 737:Drivers/STM32F7xx_HAL_Driver/Src/stm32f7xx_ll_usb.c ****                                     USB_OTG_DOEPCTL_MPSIZ |
 1712              		.loc 1 737 32 view .LVU566
 1713 004a 234A     		ldr	r2, .L131
 1714 004c 0A40     		ands	r2, r2, r1
 1715 004e C3F8002B 		str	r2, [r3, #2816]
 1716              	.L125:
 743:Drivers/STM32F7xx_HAL_Driver/Src/stm32f7xx_ll_usb.c **** }
 1717              		.loc 1 743 3 is_stmt 1 view .LVU567
 744:Drivers/STM32F7xx_HAL_Driver/Src/stm32f7xx_ll_usb.c **** 
 1718              		.loc 1 744 1 is_stmt 0 view .LVU568
 1719 0052 0020     		movs	r0, #0
 1720              	.LVL108:
 744:Drivers/STM32F7xx_HAL_Driver/Src/stm32f7xx_ll_usb.c **** 
 1721              		.loc 1 744 1 view .LVU569
 1722 0054 30BC     		pop	{r4, r5}
 1723              	.LCFI27:
 1724              		.cfi_remember_state
 1725              		.cfi_restore 5
 1726              		.cfi_restore 4
 1727              		.cfi_def_cfa_offset 0
 1728 0056 7047     		bx	lr
 1729              	.LVL109:
 1730              	.L128:
 1731              	.LCFI28:
 1732              		.cfi_restore_state
 713:Drivers/STM32F7xx_HAL_Driver/Src/stm32f7xx_ll_usb.c ****     {
 1733              		.loc 1 713 5 is_stmt 1 view .LVU570
 713:Drivers/STM32F7xx_HAL_Driver/Src/stm32f7xx_ll_usb.c ****     {
 1734              		.loc 1 713 10 is_stmt 0 view .LVU571
 1735 0058 00EB4313 		add	r3, r0, r3, lsl #5
 1736              	.LVL110:
 713:Drivers/STM32F7xx_HAL_Driver/Src/stm32f7xx_ll_usb.c ****     {
 1737              		.loc 1 713 26 view .LVU572
 1738 005c D3F80029 		ldr	r2, [r3, #2304]
 713:Drivers/STM32F7xx_HAL_Driver/Src/stm32f7xx_ll_usb.c ****     {
 1739              		.loc 1 713 8 view .LVU573
 1740 0060 002A     		cmp	r2, #0
 1741 0062 1EDB     		blt	.L130
 1742              	.LVL111:
 1743              	.L124:
 719:Drivers/STM32F7xx_HAL_Driver/Src/stm32f7xx_ll_usb.c ****     USBx_DEVICE->DAINTMSK &= ~(USB_OTG_DAINTMSK_IEPM & (uint32_t)(1UL << (ep->num & EP_ADDR_MSK)));
 1744              		.loc 1 719 5 is_stmt 1 view .LVU574
 719:Drivers/STM32F7xx_HAL_Driver/Src/stm32f7xx_ll_usb.c ****     USBx_DEVICE->DAINTMSK &= ~(USB_OTG_DAINTMSK_IEPM & (uint32_t)(1UL << (ep->num & EP_ADDR_MSK)));
 1745              		.loc 1 719 16 is_stmt 0 view .LVU575
 1746 0064 D0F83C58 		ldr	r5, [r0, #2108]
ARM GAS  C:\Users\benny\AppData\Local\Temp\ccHko7Bj.s 			page 67


 719:Drivers/STM32F7xx_HAL_Driver/Src/stm32f7xx_ll_usb.c ****     USBx_DEVICE->DAINTMSK &= ~(USB_OTG_DAINTMSK_IEPM & (uint32_t)(1UL << (ep->num & EP_ADDR_MSK)));
 1747              		.loc 1 719 77 view .LVU576
 1748 0068 0A78     		ldrb	r2, [r1]	@ zero_extendqisi2
 719:Drivers/STM32F7xx_HAL_Driver/Src/stm32f7xx_ll_usb.c ****     USBx_DEVICE->DAINTMSK &= ~(USB_OTG_DAINTMSK_IEPM & (uint32_t)(1UL << (ep->num & EP_ADDR_MSK)));
 1749              		.loc 1 719 83 view .LVU577
 1750 006a 02F00F02 		and	r2, r2, #15
 719:Drivers/STM32F7xx_HAL_Driver/Src/stm32f7xx_ll_usb.c ****     USBx_DEVICE->DAINTMSK &= ~(USB_OTG_DAINTMSK_IEPM & (uint32_t)(1UL << (ep->num & EP_ADDR_MSK)));
 1751              		.loc 1 719 56 view .LVU578
 1752 006e 0124     		movs	r4, #1
 1753 0070 04FA02F2 		lsl	r2, r4, r2
 719:Drivers/STM32F7xx_HAL_Driver/Src/stm32f7xx_ll_usb.c ****     USBx_DEVICE->DAINTMSK &= ~(USB_OTG_DAINTMSK_IEPM & (uint32_t)(1UL << (ep->num & EP_ADDR_MSK)));
 1754              		.loc 1 719 54 view .LVU579
 1755 0074 92B2     		uxth	r2, r2
 719:Drivers/STM32F7xx_HAL_Driver/Src/stm32f7xx_ll_usb.c ****     USBx_DEVICE->DAINTMSK &= ~(USB_OTG_DAINTMSK_IEPM & (uint32_t)(1UL << (ep->num & EP_ADDR_MSK)));
 1756              		.loc 1 719 27 view .LVU580
 1757 0076 25EA0202 		bic	r2, r5, r2
 1758 007a C0F83C28 		str	r2, [r0, #2108]
 720:Drivers/STM32F7xx_HAL_Driver/Src/stm32f7xx_ll_usb.c ****     USBx_INEP(epnum)->DIEPCTL &= ~(USB_OTG_DIEPCTL_USBAEP |
 1759              		.loc 1 720 5 is_stmt 1 view .LVU581
 720:Drivers/STM32F7xx_HAL_Driver/Src/stm32f7xx_ll_usb.c ****     USBx_INEP(epnum)->DIEPCTL &= ~(USB_OTG_DIEPCTL_USBAEP |
 1760              		.loc 1 720 16 is_stmt 0 view .LVU582
 1761 007e D0F81C28 		ldr	r2, [r0, #2076]
 720:Drivers/STM32F7xx_HAL_Driver/Src/stm32f7xx_ll_usb.c ****     USBx_INEP(epnum)->DIEPCTL &= ~(USB_OTG_DIEPCTL_USBAEP |
 1762              		.loc 1 720 77 view .LVU583
 1763 0082 0978     		ldrb	r1, [r1]	@ zero_extendqisi2
 1764              	.LVL112:
 720:Drivers/STM32F7xx_HAL_Driver/Src/stm32f7xx_ll_usb.c ****     USBx_INEP(epnum)->DIEPCTL &= ~(USB_OTG_DIEPCTL_USBAEP |
 1765              		.loc 1 720 83 view .LVU584
 1766 0084 01F00F01 		and	r1, r1, #15
 720:Drivers/STM32F7xx_HAL_Driver/Src/stm32f7xx_ll_usb.c ****     USBx_INEP(epnum)->DIEPCTL &= ~(USB_OTG_DIEPCTL_USBAEP |
 1767              		.loc 1 720 56 view .LVU585
 1768 0088 8C40     		lsls	r4, r4, r1
 720:Drivers/STM32F7xx_HAL_Driver/Src/stm32f7xx_ll_usb.c ****     USBx_INEP(epnum)->DIEPCTL &= ~(USB_OTG_DIEPCTL_USBAEP |
 1769              		.loc 1 720 54 view .LVU586
 1770 008a A4B2     		uxth	r4, r4
 720:Drivers/STM32F7xx_HAL_Driver/Src/stm32f7xx_ll_usb.c ****     USBx_INEP(epnum)->DIEPCTL &= ~(USB_OTG_DIEPCTL_USBAEP |
 1771              		.loc 1 720 27 view .LVU587
 1772 008c 22EA0402 		bic	r2, r2, r4
 1773 0090 C0F81C28 		str	r2, [r0, #2076]
 721:Drivers/STM32F7xx_HAL_Driver/Src/stm32f7xx_ll_usb.c ****                                    USB_OTG_DIEPCTL_MPSIZ |
 1774              		.loc 1 721 5 is_stmt 1 view .LVU588
 721:Drivers/STM32F7xx_HAL_Driver/Src/stm32f7xx_ll_usb.c ****                                    USB_OTG_DIEPCTL_MPSIZ |
 1775              		.loc 1 721 21 is_stmt 0 view .LVU589
 1776 0094 D3F80019 		ldr	r1, [r3, #2304]
 721:Drivers/STM32F7xx_HAL_Driver/Src/stm32f7xx_ll_usb.c ****                                    USB_OTG_DIEPCTL_MPSIZ |
 1777              		.loc 1 721 31 view .LVU590
 1778 0098 104A     		ldr	r2, .L131+4
 1779 009a 0A40     		ands	r2, r2, r1
 1780 009c C3F80029 		str	r2, [r3, #2304]
 1781 00a0 D7E7     		b	.L125
 1782              	.LVL113:
 1783              	.L130:
 715:Drivers/STM32F7xx_HAL_Driver/Src/stm32f7xx_ll_usb.c ****       USBx_INEP(epnum)->DIEPCTL |= USB_OTG_DIEPCTL_EPDIS;
 1784              		.loc 1 715 7 is_stmt 1 view .LVU591
 715:Drivers/STM32F7xx_HAL_Driver/Src/stm32f7xx_ll_usb.c ****       USBx_INEP(epnum)->DIEPCTL |= USB_OTG_DIEPCTL_EPDIS;
 1785              		.loc 1 715 23 is_stmt 0 view .LVU592
 1786 00a2 D3F80029 		ldr	r2, [r3, #2304]
ARM GAS  C:\Users\benny\AppData\Local\Temp\ccHko7Bj.s 			page 68


 715:Drivers/STM32F7xx_HAL_Driver/Src/stm32f7xx_ll_usb.c ****       USBx_INEP(epnum)->DIEPCTL |= USB_OTG_DIEPCTL_EPDIS;
 1787              		.loc 1 715 33 view .LVU593
 1788 00a6 42F00062 		orr	r2, r2, #134217728
 1789 00aa C3F80029 		str	r2, [r3, #2304]
 1790              	.LVL114:
 716:Drivers/STM32F7xx_HAL_Driver/Src/stm32f7xx_ll_usb.c ****     }
 1791              		.loc 1 716 7 is_stmt 1 view .LVU594
 716:Drivers/STM32F7xx_HAL_Driver/Src/stm32f7xx_ll_usb.c ****     }
 1792              		.loc 1 716 23 is_stmt 0 view .LVU595
 1793 00ae D3F80029 		ldr	r2, [r3, #2304]
 716:Drivers/STM32F7xx_HAL_Driver/Src/stm32f7xx_ll_usb.c ****     }
 1794              		.loc 1 716 33 view .LVU596
 1795 00b2 42F08042 		orr	r2, r2, #1073741824
 1796 00b6 C3F80029 		str	r2, [r3, #2304]
 1797 00ba D3E7     		b	.L124
 1798              	.LVL115:
 1799              	.L129:
 731:Drivers/STM32F7xx_HAL_Driver/Src/stm32f7xx_ll_usb.c ****       USBx_OUTEP(epnum)->DOEPCTL |= USB_OTG_DOEPCTL_EPDIS;
 1800              		.loc 1 731 7 is_stmt 1 view .LVU597
 731:Drivers/STM32F7xx_HAL_Driver/Src/stm32f7xx_ll_usb.c ****       USBx_OUTEP(epnum)->DOEPCTL |= USB_OTG_DOEPCTL_EPDIS;
 1801              		.loc 1 731 24 is_stmt 0 view .LVU598
 1802 00bc D3F8002B 		ldr	r2, [r3, #2816]
 731:Drivers/STM32F7xx_HAL_Driver/Src/stm32f7xx_ll_usb.c ****       USBx_OUTEP(epnum)->DOEPCTL |= USB_OTG_DOEPCTL_EPDIS;
 1803              		.loc 1 731 34 view .LVU599
 1804 00c0 42F00062 		orr	r2, r2, #134217728
 1805 00c4 C3F8002B 		str	r2, [r3, #2816]
 1806              	.LVL116:
 732:Drivers/STM32F7xx_HAL_Driver/Src/stm32f7xx_ll_usb.c ****     }
 1807              		.loc 1 732 7 is_stmt 1 view .LVU600
 732:Drivers/STM32F7xx_HAL_Driver/Src/stm32f7xx_ll_usb.c ****     }
 1808              		.loc 1 732 24 is_stmt 0 view .LVU601
 1809 00c8 D3F8002B 		ldr	r2, [r3, #2816]
 732:Drivers/STM32F7xx_HAL_Driver/Src/stm32f7xx_ll_usb.c ****     }
 1810              		.loc 1 732 34 view .LVU602
 1811 00cc 42F08042 		orr	r2, r2, #1073741824
 1812 00d0 C3F8002B 		str	r2, [r3, #2816]
 1813 00d4 9FE7     		b	.L126
 1814              	.L132:
 1815 00d6 00BF     		.align	2
 1816              	.L131:
 1817 00d8 0078F3EF 		.word	-269256704
 1818 00dc 007833EC 		.word	-332171264
 1819              		.cfi_endproc
 1820              	.LFE153:
 1822              		.section	.text.USB_DeactivateDedicatedEndpoint,"ax",%progbits
 1823              		.align	1
 1824              		.global	USB_DeactivateDedicatedEndpoint
 1825              		.syntax unified
 1826              		.thumb
 1827              		.thumb_func
 1829              	USB_DeactivateDedicatedEndpoint:
 1830              	.LVL117:
 1831              	.LFB154:
 753:Drivers/STM32F7xx_HAL_Driver/Src/stm32f7xx_ll_usb.c ****   uint32_t USBx_BASE = (uint32_t)USBx;
 1832              		.loc 1 753 1 is_stmt 1 view -0
 1833              		.cfi_startproc
 1834              		@ args = 0, pretend = 0, frame = 0
ARM GAS  C:\Users\benny\AppData\Local\Temp\ccHko7Bj.s 			page 69


 1835              		@ frame_needed = 0, uses_anonymous_args = 0
 1836              		@ link register save eliminated.
 754:Drivers/STM32F7xx_HAL_Driver/Src/stm32f7xx_ll_usb.c ****   uint32_t epnum = (uint32_t)ep->num;
 1837              		.loc 1 754 3 view .LVU604
 755:Drivers/STM32F7xx_HAL_Driver/Src/stm32f7xx_ll_usb.c **** 
 1838              		.loc 1 755 3 view .LVU605
 755:Drivers/STM32F7xx_HAL_Driver/Src/stm32f7xx_ll_usb.c **** 
 1839              		.loc 1 755 32 is_stmt 0 view .LVU606
 1840 0000 0B78     		ldrb	r3, [r1]	@ zero_extendqisi2
 1841              	.LVL118:
 758:Drivers/STM32F7xx_HAL_Driver/Src/stm32f7xx_ll_usb.c ****   {
 1842              		.loc 1 758 3 is_stmt 1 view .LVU607
 758:Drivers/STM32F7xx_HAL_Driver/Src/stm32f7xx_ll_usb.c ****   {
 1843              		.loc 1 758 9 is_stmt 0 view .LVU608
 1844 0002 4A78     		ldrb	r2, [r1, #1]	@ zero_extendqisi2
 758:Drivers/STM32F7xx_HAL_Driver/Src/stm32f7xx_ll_usb.c ****   {
 1845              		.loc 1 758 6 view .LVU609
 1846 0004 012A     		cmp	r2, #1
 1847 0006 18D0     		beq	.L138
 771:Drivers/STM32F7xx_HAL_Driver/Src/stm32f7xx_ll_usb.c ****     {
 1848              		.loc 1 771 5 is_stmt 1 view .LVU610
 771:Drivers/STM32F7xx_HAL_Driver/Src/stm32f7xx_ll_usb.c ****     {
 1849              		.loc 1 771 10 is_stmt 0 view .LVU611
 1850 0008 00EB4313 		add	r3, r0, r3, lsl #5
 1851              	.LVL119:
 771:Drivers/STM32F7xx_HAL_Driver/Src/stm32f7xx_ll_usb.c ****     {
 1852              		.loc 1 771 27 view .LVU612
 1853 000c D3F8002B 		ldr	r2, [r3, #2816]
 771:Drivers/STM32F7xx_HAL_Driver/Src/stm32f7xx_ll_usb.c ****     {
 1854              		.loc 1 771 8 view .LVU613
 1855 0010 002A     		cmp	r2, #0
 1856 0012 38DB     		blt	.L139
 1857              	.LVL120:
 1858              	.L137:
 777:Drivers/STM32F7xx_HAL_Driver/Src/stm32f7xx_ll_usb.c ****     USBx_DEVICE->DAINTMSK &= ~(USB_OTG_DAINTMSK_OEPM & ((uint32_t)(1UL << (ep->num & EP_ADDR_MSK)) 
 1859              		.loc 1 777 5 is_stmt 1 view .LVU614
 777:Drivers/STM32F7xx_HAL_Driver/Src/stm32f7xx_ll_usb.c ****     USBx_DEVICE->DAINTMSK &= ~(USB_OTG_DAINTMSK_OEPM & ((uint32_t)(1UL << (ep->num & EP_ADDR_MSK)) 
 1860              		.loc 1 777 22 is_stmt 0 view .LVU615
 1861 0014 D3F8002B 		ldr	r2, [r3, #2816]
 777:Drivers/STM32F7xx_HAL_Driver/Src/stm32f7xx_ll_usb.c ****     USBx_DEVICE->DAINTMSK &= ~(USB_OTG_DAINTMSK_OEPM & ((uint32_t)(1UL << (ep->num & EP_ADDR_MSK)) 
 1862              		.loc 1 777 32 view .LVU616
 1863 0018 22F40042 		bic	r2, r2, #32768
 1864 001c C3F8002B 		str	r2, [r3, #2816]
 778:Drivers/STM32F7xx_HAL_Driver/Src/stm32f7xx_ll_usb.c ****   }
 1865              		.loc 1 778 5 is_stmt 1 view .LVU617
 778:Drivers/STM32F7xx_HAL_Driver/Src/stm32f7xx_ll_usb.c ****   }
 1866              		.loc 1 778 16 is_stmt 0 view .LVU618
 1867 0020 D0F81C38 		ldr	r3, [r0, #2076]
 778:Drivers/STM32F7xx_HAL_Driver/Src/stm32f7xx_ll_usb.c ****   }
 1868              		.loc 1 778 78 view .LVU619
 1869 0024 0978     		ldrb	r1, [r1]	@ zero_extendqisi2
 1870              	.LVL121:
 778:Drivers/STM32F7xx_HAL_Driver/Src/stm32f7xx_ll_usb.c ****   }
 1871              		.loc 1 778 84 view .LVU620
 1872 0026 01F00F01 		and	r1, r1, #15
 778:Drivers/STM32F7xx_HAL_Driver/Src/stm32f7xx_ll_usb.c ****   }
 1873              		.loc 1 778 57 view .LVU621
ARM GAS  C:\Users\benny\AppData\Local\Temp\ccHko7Bj.s 			page 70


 1874 002a 0122     		movs	r2, #1
 1875 002c 8A40     		lsls	r2, r2, r1
 778:Drivers/STM32F7xx_HAL_Driver/Src/stm32f7xx_ll_usb.c ****   }
 1876              		.loc 1 778 27 view .LVU622
 1877 002e 23EA0243 		bic	r3, r3, r2, lsl #16
 1878 0032 C0F81C38 		str	r3, [r0, #2076]
 1879              	.L136:
 781:Drivers/STM32F7xx_HAL_Driver/Src/stm32f7xx_ll_usb.c **** }
 1880              		.loc 1 781 3 is_stmt 1 view .LVU623
 782:Drivers/STM32F7xx_HAL_Driver/Src/stm32f7xx_ll_usb.c **** 
 1881              		.loc 1 782 1 is_stmt 0 view .LVU624
 1882 0036 0020     		movs	r0, #0
 1883              	.LVL122:
 782:Drivers/STM32F7xx_HAL_Driver/Src/stm32f7xx_ll_usb.c **** 
 1884              		.loc 1 782 1 view .LVU625
 1885 0038 7047     		bx	lr
 1886              	.LVL123:
 1887              	.L138:
 760:Drivers/STM32F7xx_HAL_Driver/Src/stm32f7xx_ll_usb.c ****     {
 1888              		.loc 1 760 5 is_stmt 1 view .LVU626
 760:Drivers/STM32F7xx_HAL_Driver/Src/stm32f7xx_ll_usb.c ****     {
 1889              		.loc 1 760 10 is_stmt 0 view .LVU627
 1890 003a 00EB4313 		add	r3, r0, r3, lsl #5
 1891              	.LVL124:
 760:Drivers/STM32F7xx_HAL_Driver/Src/stm32f7xx_ll_usb.c ****     {
 1892              		.loc 1 760 26 view .LVU628
 1893 003e D3F80029 		ldr	r2, [r3, #2304]
 760:Drivers/STM32F7xx_HAL_Driver/Src/stm32f7xx_ll_usb.c ****     {
 1894              		.loc 1 760 8 view .LVU629
 1895 0042 002A     		cmp	r2, #0
 1896 0044 12DB     		blt	.L140
 1897              	.LVL125:
 1898              	.L135:
 766:Drivers/STM32F7xx_HAL_Driver/Src/stm32f7xx_ll_usb.c ****     USBx_DEVICE->DAINTMSK &= ~(USB_OTG_DAINTMSK_IEPM & (uint32_t)(1UL << (ep->num & EP_ADDR_MSK)));
 1899              		.loc 1 766 5 is_stmt 1 view .LVU630
 766:Drivers/STM32F7xx_HAL_Driver/Src/stm32f7xx_ll_usb.c ****     USBx_DEVICE->DAINTMSK &= ~(USB_OTG_DAINTMSK_IEPM & (uint32_t)(1UL << (ep->num & EP_ADDR_MSK)));
 1900              		.loc 1 766 21 is_stmt 0 view .LVU631
 1901 0046 D3F80029 		ldr	r2, [r3, #2304]
 766:Drivers/STM32F7xx_HAL_Driver/Src/stm32f7xx_ll_usb.c ****     USBx_DEVICE->DAINTMSK &= ~(USB_OTG_DAINTMSK_IEPM & (uint32_t)(1UL << (ep->num & EP_ADDR_MSK)));
 1902              		.loc 1 766 31 view .LVU632
 1903 004a 22F40042 		bic	r2, r2, #32768
 1904 004e C3F80029 		str	r2, [r3, #2304]
 767:Drivers/STM32F7xx_HAL_Driver/Src/stm32f7xx_ll_usb.c ****   }
 1905              		.loc 1 767 5 is_stmt 1 view .LVU633
 767:Drivers/STM32F7xx_HAL_Driver/Src/stm32f7xx_ll_usb.c ****   }
 1906              		.loc 1 767 16 is_stmt 0 view .LVU634
 1907 0052 D0F81C28 		ldr	r2, [r0, #2076]
 767:Drivers/STM32F7xx_HAL_Driver/Src/stm32f7xx_ll_usb.c ****   }
 1908              		.loc 1 767 77 view .LVU635
 1909 0056 0978     		ldrb	r1, [r1]	@ zero_extendqisi2
 1910              	.LVL126:
 767:Drivers/STM32F7xx_HAL_Driver/Src/stm32f7xx_ll_usb.c ****   }
 1911              		.loc 1 767 83 view .LVU636
 1912 0058 01F00F01 		and	r1, r1, #15
 767:Drivers/STM32F7xx_HAL_Driver/Src/stm32f7xx_ll_usb.c ****   }
 1913              		.loc 1 767 56 view .LVU637
 1914 005c 0123     		movs	r3, #1
ARM GAS  C:\Users\benny\AppData\Local\Temp\ccHko7Bj.s 			page 71


 1915 005e 8B40     		lsls	r3, r3, r1
 767:Drivers/STM32F7xx_HAL_Driver/Src/stm32f7xx_ll_usb.c ****   }
 1916              		.loc 1 767 54 view .LVU638
 1917 0060 9BB2     		uxth	r3, r3
 767:Drivers/STM32F7xx_HAL_Driver/Src/stm32f7xx_ll_usb.c ****   }
 1918              		.loc 1 767 27 view .LVU639
 1919 0062 22EA0303 		bic	r3, r2, r3
 1920 0066 C0F81C38 		str	r3, [r0, #2076]
 1921 006a E4E7     		b	.L136
 1922              	.LVL127:
 1923              	.L140:
 762:Drivers/STM32F7xx_HAL_Driver/Src/stm32f7xx_ll_usb.c ****       USBx_INEP(epnum)->DIEPCTL  |= USB_OTG_DIEPCTL_EPDIS;
 1924              		.loc 1 762 7 is_stmt 1 view .LVU640
 762:Drivers/STM32F7xx_HAL_Driver/Src/stm32f7xx_ll_usb.c ****       USBx_INEP(epnum)->DIEPCTL  |= USB_OTG_DIEPCTL_EPDIS;
 1925              		.loc 1 762 23 is_stmt 0 view .LVU641
 1926 006c D3F80029 		ldr	r2, [r3, #2304]
 762:Drivers/STM32F7xx_HAL_Driver/Src/stm32f7xx_ll_usb.c ****       USBx_INEP(epnum)->DIEPCTL  |= USB_OTG_DIEPCTL_EPDIS;
 1927              		.loc 1 762 34 view .LVU642
 1928 0070 42F00062 		orr	r2, r2, #134217728
 1929 0074 C3F80029 		str	r2, [r3, #2304]
 1930              	.LVL128:
 763:Drivers/STM32F7xx_HAL_Driver/Src/stm32f7xx_ll_usb.c ****     }
 1931              		.loc 1 763 7 is_stmt 1 view .LVU643
 763:Drivers/STM32F7xx_HAL_Driver/Src/stm32f7xx_ll_usb.c ****     }
 1932              		.loc 1 763 23 is_stmt 0 view .LVU644
 1933 0078 D3F80029 		ldr	r2, [r3, #2304]
 763:Drivers/STM32F7xx_HAL_Driver/Src/stm32f7xx_ll_usb.c ****     }
 1934              		.loc 1 763 34 view .LVU645
 1935 007c 42F08042 		orr	r2, r2, #1073741824
 1936 0080 C3F80029 		str	r2, [r3, #2304]
 1937 0084 DFE7     		b	.L135
 1938              	.LVL129:
 1939              	.L139:
 773:Drivers/STM32F7xx_HAL_Driver/Src/stm32f7xx_ll_usb.c ****       USBx_OUTEP(epnum)->DOEPCTL  |= USB_OTG_DOEPCTL_EPDIS;
 1940              		.loc 1 773 7 is_stmt 1 view .LVU646
 773:Drivers/STM32F7xx_HAL_Driver/Src/stm32f7xx_ll_usb.c ****       USBx_OUTEP(epnum)->DOEPCTL  |= USB_OTG_DOEPCTL_EPDIS;
 1941              		.loc 1 773 24 is_stmt 0 view .LVU647
 1942 0086 D3F8002B 		ldr	r2, [r3, #2816]
 773:Drivers/STM32F7xx_HAL_Driver/Src/stm32f7xx_ll_usb.c ****       USBx_OUTEP(epnum)->DOEPCTL  |= USB_OTG_DOEPCTL_EPDIS;
 1943              		.loc 1 773 35 view .LVU648
 1944 008a 42F00062 		orr	r2, r2, #134217728
 1945 008e C3F8002B 		str	r2, [r3, #2816]
 1946              	.LVL130:
 774:Drivers/STM32F7xx_HAL_Driver/Src/stm32f7xx_ll_usb.c ****     }
 1947              		.loc 1 774 7 is_stmt 1 view .LVU649
 774:Drivers/STM32F7xx_HAL_Driver/Src/stm32f7xx_ll_usb.c ****     }
 1948              		.loc 1 774 24 is_stmt 0 view .LVU650
 1949 0092 D3F8002B 		ldr	r2, [r3, #2816]
 774:Drivers/STM32F7xx_HAL_Driver/Src/stm32f7xx_ll_usb.c ****     }
 1950              		.loc 1 774 35 view .LVU651
 1951 0096 42F08042 		orr	r2, r2, #1073741824
 1952 009a C3F8002B 		str	r2, [r3, #2816]
 1953 009e B9E7     		b	.L137
 1954              		.cfi_endproc
 1955              	.LFE154:
 1957              		.section	.text.USB_EPStopXfer,"ax",%progbits
 1958              		.align	1
ARM GAS  C:\Users\benny\AppData\Local\Temp\ccHko7Bj.s 			page 72


 1959              		.global	USB_EPStopXfer
 1960              		.syntax unified
 1961              		.thumb
 1962              		.thumb_func
 1964              	USB_EPStopXfer:
 1965              	.LVL131:
 1966              	.LFB156:
 967:Drivers/STM32F7xx_HAL_Driver/Src/stm32f7xx_ll_usb.c ****   __IO uint32_t count = 0U;
 1967              		.loc 1 967 1 is_stmt 1 view -0
 1968              		.cfi_startproc
 1969              		@ args = 0, pretend = 0, frame = 8
 1970              		@ frame_needed = 0, uses_anonymous_args = 0
 1971              		@ link register save eliminated.
 967:Drivers/STM32F7xx_HAL_Driver/Src/stm32f7xx_ll_usb.c ****   __IO uint32_t count = 0U;
 1972              		.loc 1 967 1 is_stmt 0 view .LVU653
 1973 0000 10B4     		push	{r4}
 1974              	.LCFI29:
 1975              		.cfi_def_cfa_offset 4
 1976              		.cfi_offset 4, -4
 1977 0002 83B0     		sub	sp, sp, #12
 1978              	.LCFI30:
 1979              		.cfi_def_cfa_offset 16
 1980 0004 0246     		mov	r2, r0
 968:Drivers/STM32F7xx_HAL_Driver/Src/stm32f7xx_ll_usb.c ****   HAL_StatusTypeDef ret = HAL_OK;
 1981              		.loc 1 968 3 is_stmt 1 view .LVU654
 968:Drivers/STM32F7xx_HAL_Driver/Src/stm32f7xx_ll_usb.c ****   HAL_StatusTypeDef ret = HAL_OK;
 1982              		.loc 1 968 17 is_stmt 0 view .LVU655
 1983 0006 0023     		movs	r3, #0
 1984 0008 0193     		str	r3, [sp, #4]
 969:Drivers/STM32F7xx_HAL_Driver/Src/stm32f7xx_ll_usb.c ****   uint32_t USBx_BASE = (uint32_t)USBx;
 1985              		.loc 1 969 3 is_stmt 1 view .LVU656
 1986              	.LVL132:
 970:Drivers/STM32F7xx_HAL_Driver/Src/stm32f7xx_ll_usb.c **** 
 1987              		.loc 1 970 3 view .LVU657
 973:Drivers/STM32F7xx_HAL_Driver/Src/stm32f7xx_ll_usb.c ****   {
 1988              		.loc 1 973 3 view .LVU658
 973:Drivers/STM32F7xx_HAL_Driver/Src/stm32f7xx_ll_usb.c ****   {
 1989              		.loc 1 973 9 is_stmt 0 view .LVU659
 1990 000a 4878     		ldrb	r0, [r1, #1]	@ zero_extendqisi2
 1991              	.LVL133:
 973:Drivers/STM32F7xx_HAL_Driver/Src/stm32f7xx_ll_usb.c ****   {
 1992              		.loc 1 973 6 view .LVU660
 1993 000c 0128     		cmp	r0, #1
 1994 000e 0BD0     		beq	.L150
 995:Drivers/STM32F7xx_HAL_Driver/Src/stm32f7xx_ll_usb.c ****     {
 1995              		.loc 1 995 5 is_stmt 1 view .LVU661
 995:Drivers/STM32F7xx_HAL_Driver/Src/stm32f7xx_ll_usb.c ****     {
 1996              		.loc 1 995 11 is_stmt 0 view .LVU662
 1997 0010 0B78     		ldrb	r3, [r1]	@ zero_extendqisi2
 1998 0012 02EB4313 		add	r3, r2, r3, lsl #5
 995:Drivers/STM32F7xx_HAL_Driver/Src/stm32f7xx_ll_usb.c ****     {
 1999              		.loc 1 995 30 view .LVU663
 2000 0016 D3F8000B 		ldr	r0, [r3, #2816]
 995:Drivers/STM32F7xx_HAL_Driver/Src/stm32f7xx_ll_usb.c ****     {
 2001              		.loc 1 995 8 view .LVU664
 2002 001a 0028     		cmp	r0, #0
 2003 001c 2DDB     		blt	.L151
ARM GAS  C:\Users\benny\AppData\Local\Temp\ccHko7Bj.s 			page 73


 969:Drivers/STM32F7xx_HAL_Driver/Src/stm32f7xx_ll_usb.c ****   uint32_t USBx_BASE = (uint32_t)USBx;
 2004              		.loc 1 969 21 view .LVU665
 2005 001e 0020     		movs	r0, #0
 2006              	.L143:
 2007              	.LVL134:
1013:Drivers/STM32F7xx_HAL_Driver/Src/stm32f7xx_ll_usb.c **** }
 2008              		.loc 1 1013 3 is_stmt 1 view .LVU666
1014:Drivers/STM32F7xx_HAL_Driver/Src/stm32f7xx_ll_usb.c **** 
 2009              		.loc 1 1014 1 is_stmt 0 view .LVU667
 2010 0020 03B0     		add	sp, sp, #12
 2011              	.LCFI31:
 2012              		.cfi_remember_state
 2013              		.cfi_def_cfa_offset 4
 2014              		@ sp needed
 2015 0022 5DF8044B 		ldr	r4, [sp], #4
 2016              	.LCFI32:
 2017              		.cfi_restore 4
 2018              		.cfi_def_cfa_offset 0
 2019 0026 7047     		bx	lr
 2020              	.LVL135:
 2021              	.L150:
 2022              	.LCFI33:
 2023              		.cfi_restore_state
 976:Drivers/STM32F7xx_HAL_Driver/Src/stm32f7xx_ll_usb.c ****     {
 2024              		.loc 1 976 5 is_stmt 1 view .LVU668
 976:Drivers/STM32F7xx_HAL_Driver/Src/stm32f7xx_ll_usb.c ****     {
 2025              		.loc 1 976 11 is_stmt 0 view .LVU669
 2026 0028 0B78     		ldrb	r3, [r1]	@ zero_extendqisi2
 2027 002a 02EB4313 		add	r3, r2, r3, lsl #5
 976:Drivers/STM32F7xx_HAL_Driver/Src/stm32f7xx_ll_usb.c ****     {
 2028              		.loc 1 976 29 view .LVU670
 2029 002e D3F80049 		ldr	r4, [r3, #2304]
 976:Drivers/STM32F7xx_HAL_Driver/Src/stm32f7xx_ll_usb.c ****     {
 2030              		.loc 1 976 8 view .LVU671
 2031 0032 002C     		cmp	r4, #0
 2032 0034 01DB     		blt	.L152
 969:Drivers/STM32F7xx_HAL_Driver/Src/stm32f7xx_ll_usb.c ****   uint32_t USBx_BASE = (uint32_t)USBx;
 2033              		.loc 1 969 21 view .LVU672
 2034 0036 0020     		movs	r0, #0
 2035 0038 F2E7     		b	.L143
 2036              	.L152:
 978:Drivers/STM32F7xx_HAL_Driver/Src/stm32f7xx_ll_usb.c ****       USBx_INEP(ep->num)->DIEPCTL |= (USB_OTG_DIEPCTL_EPDIS);
 2037              		.loc 1 978 7 is_stmt 1 view .LVU673
 978:Drivers/STM32F7xx_HAL_Driver/Src/stm32f7xx_ll_usb.c ****       USBx_INEP(ep->num)->DIEPCTL |= (USB_OTG_DIEPCTL_EPDIS);
 2038              		.loc 1 978 25 is_stmt 0 view .LVU674
 2039 003a D3F80049 		ldr	r4, [r3, #2304]
 978:Drivers/STM32F7xx_HAL_Driver/Src/stm32f7xx_ll_usb.c ****       USBx_INEP(ep->num)->DIEPCTL |= (USB_OTG_DIEPCTL_EPDIS);
 2040              		.loc 1 978 35 view .LVU675
 2041 003e 44F00064 		orr	r4, r4, #134217728
 2042 0042 C3F80049 		str	r4, [r3, #2304]
 979:Drivers/STM32F7xx_HAL_Driver/Src/stm32f7xx_ll_usb.c **** 
 2043              		.loc 1 979 7 is_stmt 1 view .LVU676
 2044 0046 0B78     		ldrb	r3, [r1]	@ zero_extendqisi2
 979:Drivers/STM32F7xx_HAL_Driver/Src/stm32f7xx_ll_usb.c **** 
 2045              		.loc 1 979 25 is_stmt 0 view .LVU677
 2046 0048 02EB4313 		add	r3, r2, r3, lsl #5
 2047 004c D3F80049 		ldr	r4, [r3, #2304]
ARM GAS  C:\Users\benny\AppData\Local\Temp\ccHko7Bj.s 			page 74


 979:Drivers/STM32F7xx_HAL_Driver/Src/stm32f7xx_ll_usb.c **** 
 2048              		.loc 1 979 35 view .LVU678
 2049 0050 44F08044 		orr	r4, r4, #1073741824
 2050 0054 C3F80049 		str	r4, [r3, #2304]
 2051              	.L144:
 981:Drivers/STM32F7xx_HAL_Driver/Src/stm32f7xx_ll_usb.c ****       {
 2052              		.loc 1 981 7 is_stmt 1 view .LVU679
 983:Drivers/STM32F7xx_HAL_Driver/Src/stm32f7xx_ll_usb.c **** 
 2053              		.loc 1 983 9 view .LVU680
 983:Drivers/STM32F7xx_HAL_Driver/Src/stm32f7xx_ll_usb.c **** 
 2054              		.loc 1 983 14 is_stmt 0 view .LVU681
 2055 0058 019B     		ldr	r3, [sp, #4]
 2056 005a 0133     		adds	r3, r3, #1
 2057 005c 0193     		str	r3, [sp, #4]
 985:Drivers/STM32F7xx_HAL_Driver/Src/stm32f7xx_ll_usb.c ****         {
 2058              		.loc 1 985 9 is_stmt 1 view .LVU682
 985:Drivers/STM32F7xx_HAL_Driver/Src/stm32f7xx_ll_usb.c ****         {
 2059              		.loc 1 985 19 is_stmt 0 view .LVU683
 2060 005e 019C     		ldr	r4, [sp, #4]
 985:Drivers/STM32F7xx_HAL_Driver/Src/stm32f7xx_ll_usb.c ****         {
 2061              		.loc 1 985 12 view .LVU684
 2062 0060 42F21073 		movw	r3, #10000
 2063 0064 9C42     		cmp	r4, r3
 2064 0066 DBD8     		bhi	.L143
 990:Drivers/STM32F7xx_HAL_Driver/Src/stm32f7xx_ll_usb.c ****     }
 2065              		.loc 1 990 72 is_stmt 1 view .LVU685
 990:Drivers/STM32F7xx_HAL_Driver/Src/stm32f7xx_ll_usb.c ****     }
 2066              		.loc 1 990 18 is_stmt 0 view .LVU686
 2067 0068 0B78     		ldrb	r3, [r1]	@ zero_extendqisi2
 2068 006a 02EB4313 		add	r3, r2, r3, lsl #5
 990:Drivers/STM32F7xx_HAL_Driver/Src/stm32f7xx_ll_usb.c ****     }
 2069              		.loc 1 990 36 view .LVU687
 2070 006e D3F80039 		ldr	r3, [r3, #2304]
 990:Drivers/STM32F7xx_HAL_Driver/Src/stm32f7xx_ll_usb.c ****     }
 2071              		.loc 1 990 72 view .LVU688
 2072 0072 002B     		cmp	r3, #0
 2073 0074 F0DB     		blt	.L144
 969:Drivers/STM32F7xx_HAL_Driver/Src/stm32f7xx_ll_usb.c ****   uint32_t USBx_BASE = (uint32_t)USBx;
 2074              		.loc 1 969 21 view .LVU689
 2075 0076 0020     		movs	r0, #0
 2076 0078 D2E7     		b	.L143
 2077              	.L151:
 997:Drivers/STM32F7xx_HAL_Driver/Src/stm32f7xx_ll_usb.c ****       USBx_OUTEP(ep->num)->DOEPCTL |= (USB_OTG_DOEPCTL_EPDIS);
 2078              		.loc 1 997 7 is_stmt 1 view .LVU690
 997:Drivers/STM32F7xx_HAL_Driver/Src/stm32f7xx_ll_usb.c ****       USBx_OUTEP(ep->num)->DOEPCTL |= (USB_OTG_DOEPCTL_EPDIS);
 2079              		.loc 1 997 26 is_stmt 0 view .LVU691
 2080 007a D3F8000B 		ldr	r0, [r3, #2816]
 997:Drivers/STM32F7xx_HAL_Driver/Src/stm32f7xx_ll_usb.c ****       USBx_OUTEP(ep->num)->DOEPCTL |= (USB_OTG_DOEPCTL_EPDIS);
 2081              		.loc 1 997 36 view .LVU692
 2082 007e 40F00060 		orr	r0, r0, #134217728
 2083 0082 C3F8000B 		str	r0, [r3, #2816]
 998:Drivers/STM32F7xx_HAL_Driver/Src/stm32f7xx_ll_usb.c **** 
 2084              		.loc 1 998 7 is_stmt 1 view .LVU693
 2085 0086 0B78     		ldrb	r3, [r1]	@ zero_extendqisi2
 998:Drivers/STM32F7xx_HAL_Driver/Src/stm32f7xx_ll_usb.c **** 
 2086              		.loc 1 998 26 is_stmt 0 view .LVU694
 2087 0088 02EB4313 		add	r3, r2, r3, lsl #5
ARM GAS  C:\Users\benny\AppData\Local\Temp\ccHko7Bj.s 			page 75


 2088 008c D3F8000B 		ldr	r0, [r3, #2816]
 998:Drivers/STM32F7xx_HAL_Driver/Src/stm32f7xx_ll_usb.c **** 
 2089              		.loc 1 998 36 view .LVU695
 2090 0090 40F08040 		orr	r0, r0, #1073741824
 2091 0094 C3F8000B 		str	r0, [r3, #2816]
 2092              	.L145:
1000:Drivers/STM32F7xx_HAL_Driver/Src/stm32f7xx_ll_usb.c ****       {
 2093              		.loc 1 1000 7 is_stmt 1 view .LVU696
1002:Drivers/STM32F7xx_HAL_Driver/Src/stm32f7xx_ll_usb.c **** 
 2094              		.loc 1 1002 9 view .LVU697
1002:Drivers/STM32F7xx_HAL_Driver/Src/stm32f7xx_ll_usb.c **** 
 2095              		.loc 1 1002 14 is_stmt 0 view .LVU698
 2096 0098 019B     		ldr	r3, [sp, #4]
 2097 009a 0133     		adds	r3, r3, #1
 2098 009c 0193     		str	r3, [sp, #4]
1004:Drivers/STM32F7xx_HAL_Driver/Src/stm32f7xx_ll_usb.c ****         {
 2099              		.loc 1 1004 9 is_stmt 1 view .LVU699
1004:Drivers/STM32F7xx_HAL_Driver/Src/stm32f7xx_ll_usb.c ****         {
 2100              		.loc 1 1004 19 is_stmt 0 view .LVU700
 2101 009e 0198     		ldr	r0, [sp, #4]
1004:Drivers/STM32F7xx_HAL_Driver/Src/stm32f7xx_ll_usb.c ****         {
 2102              		.loc 1 1004 12 view .LVU701
 2103 00a0 42F21073 		movw	r3, #10000
 2104 00a4 9842     		cmp	r0, r3
 2105 00a6 08D8     		bhi	.L148
1009:Drivers/STM32F7xx_HAL_Driver/Src/stm32f7xx_ll_usb.c ****     }
 2106              		.loc 1 1009 73 is_stmt 1 view .LVU702
1009:Drivers/STM32F7xx_HAL_Driver/Src/stm32f7xx_ll_usb.c ****     }
 2107              		.loc 1 1009 18 is_stmt 0 view .LVU703
 2108 00a8 0B78     		ldrb	r3, [r1]	@ zero_extendqisi2
 2109 00aa 02EB4313 		add	r3, r2, r3, lsl #5
1009:Drivers/STM32F7xx_HAL_Driver/Src/stm32f7xx_ll_usb.c ****     }
 2110              		.loc 1 1009 37 view .LVU704
 2111 00ae D3F8003B 		ldr	r3, [r3, #2816]
1009:Drivers/STM32F7xx_HAL_Driver/Src/stm32f7xx_ll_usb.c ****     }
 2112              		.loc 1 1009 73 view .LVU705
 2113 00b2 002B     		cmp	r3, #0
 2114 00b4 F0DB     		blt	.L145
 969:Drivers/STM32F7xx_HAL_Driver/Src/stm32f7xx_ll_usb.c ****   uint32_t USBx_BASE = (uint32_t)USBx;
 2115              		.loc 1 969 21 view .LVU706
 2116 00b6 0020     		movs	r0, #0
 2117 00b8 B2E7     		b	.L143
 2118              	.L148:
1006:Drivers/STM32F7xx_HAL_Driver/Src/stm32f7xx_ll_usb.c ****           break;
 2119              		.loc 1 1006 15 view .LVU707
 2120 00ba 0120     		movs	r0, #1
 2121 00bc B0E7     		b	.L143
 2122              		.cfi_endproc
 2123              	.LFE156:
 2125              		.section	.text.USB_WritePacket,"ax",%progbits
 2126              		.align	1
 2127              		.global	USB_WritePacket
 2128              		.syntax unified
 2129              		.thumb
 2130              		.thumb_func
 2132              	USB_WritePacket:
 2133              	.LVL136:
ARM GAS  C:\Users\benny\AppData\Local\Temp\ccHko7Bj.s 			page 76


 2134              	.LFB157:
1032:Drivers/STM32F7xx_HAL_Driver/Src/stm32f7xx_ll_usb.c ****   uint32_t USBx_BASE = (uint32_t)USBx;
 2135              		.loc 1 1032 1 is_stmt 1 view -0
 2136              		.cfi_startproc
 2137              		@ args = 4, pretend = 0, frame = 0
 2138              		@ frame_needed = 0, uses_anonymous_args = 0
1032:Drivers/STM32F7xx_HAL_Driver/Src/stm32f7xx_ll_usb.c ****   uint32_t USBx_BASE = (uint32_t)USBx;
 2139              		.loc 1 1032 1 is_stmt 0 view .LVU709
 2140 0000 10B5     		push	{r4, lr}
 2141              	.LCFI34:
 2142              		.cfi_def_cfa_offset 8
 2143              		.cfi_offset 4, -8
 2144              		.cfi_offset 14, -4
 2145 0002 9DF80840 		ldrb	r4, [sp, #8]	@ zero_extendqisi2
1033:Drivers/STM32F7xx_HAL_Driver/Src/stm32f7xx_ll_usb.c ****   uint8_t *pSrc = src;
 2146              		.loc 1 1033 3 is_stmt 1 view .LVU710
 2147              	.LVL137:
1034:Drivers/STM32F7xx_HAL_Driver/Src/stm32f7xx_ll_usb.c ****   uint32_t count32b;
 2148              		.loc 1 1034 3 view .LVU711
1035:Drivers/STM32F7xx_HAL_Driver/Src/stm32f7xx_ll_usb.c ****   uint32_t i;
 2149              		.loc 1 1035 3 view .LVU712
1036:Drivers/STM32F7xx_HAL_Driver/Src/stm32f7xx_ll_usb.c **** 
 2150              		.loc 1 1036 3 view .LVU713
1038:Drivers/STM32F7xx_HAL_Driver/Src/stm32f7xx_ll_usb.c ****   {
 2151              		.loc 1 1038 3 view .LVU714
1038:Drivers/STM32F7xx_HAL_Driver/Src/stm32f7xx_ll_usb.c ****   {
 2152              		.loc 1 1038 6 is_stmt 0 view .LVU715
 2153 0006 84B9     		cbnz	r4, .L154
1040:Drivers/STM32F7xx_HAL_Driver/Src/stm32f7xx_ll_usb.c ****     for (i = 0U; i < count32b; i++)
 2154              		.loc 1 1040 5 is_stmt 1 view .LVU716
1040:Drivers/STM32F7xx_HAL_Driver/Src/stm32f7xx_ll_usb.c ****     for (i = 0U; i < count32b; i++)
 2155              		.loc 1 1040 31 is_stmt 0 view .LVU717
 2156 0008 0333     		adds	r3, r3, #3
 2157              	.LVL138:
1040:Drivers/STM32F7xx_HAL_Driver/Src/stm32f7xx_ll_usb.c ****     for (i = 0U; i < count32b; i++)
 2158              		.loc 1 1040 14 view .LVU718
 2159 000a 4FEA930E 		lsr	lr, r3, #2
 2160              	.LVL139:
1041:Drivers/STM32F7xx_HAL_Driver/Src/stm32f7xx_ll_usb.c ****     {
 2161              		.loc 1 1041 5 is_stmt 1 view .LVU719
1041:Drivers/STM32F7xx_HAL_Driver/Src/stm32f7xx_ll_usb.c ****     {
 2162              		.loc 1 1041 12 is_stmt 0 view .LVU720
 2163 000e 4FF0000C 		mov	ip, #0
1041:Drivers/STM32F7xx_HAL_Driver/Src/stm32f7xx_ll_usb.c ****     {
 2164              		.loc 1 1041 5 view .LVU721
 2165 0012 08E0     		b	.L155
 2166              	.LVL140:
 2167              	.L156:
1043:Drivers/STM32F7xx_HAL_Driver/Src/stm32f7xx_ll_usb.c ****       pSrc++;
 2168              		.loc 1 1043 7 is_stmt 1 discriminator 3 view .LVU722
 2169 0014 00EB0233 		add	r3, r0, r2, lsl #12
 2170 0018 03F58053 		add	r3, r3, #4096
1043:Drivers/STM32F7xx_HAL_Driver/Src/stm32f7xx_ll_usb.c ****       pSrc++;
 2171              		.loc 1 1043 41 is_stmt 0 discriminator 3 view .LVU723
 2172 001c 51F8044B 		ldr	r4, [r1], #4	@ unaligned
 2173              	.LVL141:
1043:Drivers/STM32F7xx_HAL_Driver/Src/stm32f7xx_ll_usb.c ****       pSrc++;
ARM GAS  C:\Users\benny\AppData\Local\Temp\ccHko7Bj.s 			page 77


 2174              		.loc 1 1043 39 discriminator 3 view .LVU724
 2175 0020 1C60     		str	r4, [r3]
1044:Drivers/STM32F7xx_HAL_Driver/Src/stm32f7xx_ll_usb.c ****       pSrc++;
 2176              		.loc 1 1044 7 is_stmt 1 discriminator 3 view .LVU725
 2177              	.LVL142:
1045:Drivers/STM32F7xx_HAL_Driver/Src/stm32f7xx_ll_usb.c ****       pSrc++;
 2178              		.loc 1 1045 7 discriminator 3 view .LVU726
1046:Drivers/STM32F7xx_HAL_Driver/Src/stm32f7xx_ll_usb.c ****       pSrc++;
 2179              		.loc 1 1046 7 discriminator 3 view .LVU727
1047:Drivers/STM32F7xx_HAL_Driver/Src/stm32f7xx_ll_usb.c ****     }
 2180              		.loc 1 1047 7 discriminator 3 view .LVU728
1041:Drivers/STM32F7xx_HAL_Driver/Src/stm32f7xx_ll_usb.c ****     {
 2181              		.loc 1 1041 33 discriminator 3 view .LVU729
 2182 0022 0CF1010C 		add	ip, ip, #1
 2183              	.LVL143:
 2184              	.L155:
1041:Drivers/STM32F7xx_HAL_Driver/Src/stm32f7xx_ll_usb.c ****     {
 2185              		.loc 1 1041 20 discriminator 1 view .LVU730
 2186 0026 F445     		cmp	ip, lr
 2187 0028 F4D3     		bcc	.L156
 2188              	.LVL144:
 2189              	.L154:
1051:Drivers/STM32F7xx_HAL_Driver/Src/stm32f7xx_ll_usb.c **** }
 2190              		.loc 1 1051 3 view .LVU731
1052:Drivers/STM32F7xx_HAL_Driver/Src/stm32f7xx_ll_usb.c **** 
 2191              		.loc 1 1052 1 is_stmt 0 view .LVU732
 2192 002a 0020     		movs	r0, #0
 2193              	.LVL145:
1052:Drivers/STM32F7xx_HAL_Driver/Src/stm32f7xx_ll_usb.c **** 
 2194              		.loc 1 1052 1 view .LVU733
 2195 002c 10BD     		pop	{r4, pc}
1052:Drivers/STM32F7xx_HAL_Driver/Src/stm32f7xx_ll_usb.c **** 
 2196              		.loc 1 1052 1 view .LVU734
 2197              		.cfi_endproc
 2198              	.LFE157:
 2200              		.section	.text.USB_EPStartXfer,"ax",%progbits
 2201              		.align	1
 2202              		.global	USB_EPStartXfer
 2203              		.syntax unified
 2204              		.thumb
 2205              		.thumb_func
 2207              	USB_EPStartXfer:
 2208              	.LVL146:
 2209              	.LFB155:
 795:Drivers/STM32F7xx_HAL_Driver/Src/stm32f7xx_ll_usb.c ****   uint32_t USBx_BASE = (uint32_t)USBx;
 2210              		.loc 1 795 1 is_stmt 1 view -0
 2211              		.cfi_startproc
 2212              		@ args = 0, pretend = 0, frame = 0
 2213              		@ frame_needed = 0, uses_anonymous_args = 0
 795:Drivers/STM32F7xx_HAL_Driver/Src/stm32f7xx_ll_usb.c ****   uint32_t USBx_BASE = (uint32_t)USBx;
 2214              		.loc 1 795 1 is_stmt 0 view .LVU736
 2215 0000 F0B5     		push	{r4, r5, r6, r7, lr}
 2216              	.LCFI35:
 2217              		.cfi_def_cfa_offset 20
 2218              		.cfi_offset 4, -20
 2219              		.cfi_offset 5, -16
 2220              		.cfi_offset 6, -12
ARM GAS  C:\Users\benny\AppData\Local\Temp\ccHko7Bj.s 			page 78


 2221              		.cfi_offset 7, -8
 2222              		.cfi_offset 14, -4
 2223 0002 83B0     		sub	sp, sp, #12
 2224              	.LCFI36:
 2225              		.cfi_def_cfa_offset 32
 796:Drivers/STM32F7xx_HAL_Driver/Src/stm32f7xx_ll_usb.c ****   uint32_t epnum = (uint32_t)ep->num;
 2226              		.loc 1 796 3 is_stmt 1 view .LVU737
 2227              	.LVL147:
 797:Drivers/STM32F7xx_HAL_Driver/Src/stm32f7xx_ll_usb.c ****   uint16_t pktcnt;
 2228              		.loc 1 797 3 view .LVU738
 797:Drivers/STM32F7xx_HAL_Driver/Src/stm32f7xx_ll_usb.c ****   uint16_t pktcnt;
 2229              		.loc 1 797 32 is_stmt 0 view .LVU739
 2230 0004 0C78     		ldrb	r4, [r1]	@ zero_extendqisi2
 2231              	.LVL148:
 798:Drivers/STM32F7xx_HAL_Driver/Src/stm32f7xx_ll_usb.c **** 
 2232              		.loc 1 798 3 is_stmt 1 view .LVU740
 801:Drivers/STM32F7xx_HAL_Driver/Src/stm32f7xx_ll_usb.c ****   {
 2233              		.loc 1 801 3 view .LVU741
 801:Drivers/STM32F7xx_HAL_Driver/Src/stm32f7xx_ll_usb.c ****   {
 2234              		.loc 1 801 9 is_stmt 0 view .LVU742
 2235 0006 4B78     		ldrb	r3, [r1, #1]	@ zero_extendqisi2
 801:Drivers/STM32F7xx_HAL_Driver/Src/stm32f7xx_ll_usb.c ****   {
 2236              		.loc 1 801 6 view .LVU743
 2237 0008 012B     		cmp	r3, #1
 2238 000a 2DD0     		beq	.L181
 900:Drivers/STM32F7xx_HAL_Driver/Src/stm32f7xx_ll_usb.c ****     USBx_OUTEP(epnum)->DOEPTSIZ &= ~(USB_OTG_DOEPTSIZ_PKTCNT);
 2239              		.loc 1 900 5 is_stmt 1 view .LVU744
 900:Drivers/STM32F7xx_HAL_Driver/Src/stm32f7xx_ll_usb.c ****     USBx_OUTEP(epnum)->DOEPTSIZ &= ~(USB_OTG_DOEPTSIZ_PKTCNT);
 2240              		.loc 1 900 22 is_stmt 0 view .LVU745
 2241 000c 00EB441C 		add	ip, r0, r4, lsl #5
 2242 0010 0CF53063 		add	r3, ip, #2816
 2243 0014 1E69     		ldr	r6, [r3, #16]
 900:Drivers/STM32F7xx_HAL_Driver/Src/stm32f7xx_ll_usb.c ****     USBx_OUTEP(epnum)->DOEPTSIZ &= ~(USB_OTG_DOEPTSIZ_PKTCNT);
 2244              		.loc 1 900 33 view .LVU746
 2245 0016 864D     		ldr	r5, .L186
 2246 0018 3540     		ands	r5, r5, r6
 2247 001a 1D61     		str	r5, [r3, #16]
 901:Drivers/STM32F7xx_HAL_Driver/Src/stm32f7xx_ll_usb.c **** 
 2248              		.loc 1 901 5 is_stmt 1 view .LVU747
 901:Drivers/STM32F7xx_HAL_Driver/Src/stm32f7xx_ll_usb.c **** 
 2249              		.loc 1 901 22 is_stmt 0 view .LVU748
 2250 001c 1E69     		ldr	r6, [r3, #16]
 901:Drivers/STM32F7xx_HAL_Driver/Src/stm32f7xx_ll_usb.c **** 
 2251              		.loc 1 901 33 view .LVU749
 2252 001e 854D     		ldr	r5, .L186+4
 2253 0020 3540     		ands	r5, r5, r6
 2254 0022 1D61     		str	r5, [r3, #16]
 903:Drivers/STM32F7xx_HAL_Driver/Src/stm32f7xx_ll_usb.c ****     {
 2255              		.loc 1 903 5 is_stmt 1 view .LVU750
 903:Drivers/STM32F7xx_HAL_Driver/Src/stm32f7xx_ll_usb.c ****     {
 2256              		.loc 1 903 8 is_stmt 0 view .LVU751
 2257 0024 002C     		cmp	r4, #0
 2258 0026 40F0C780 		bne	.L173
 905:Drivers/STM32F7xx_HAL_Driver/Src/stm32f7xx_ll_usb.c ****       {
 2259              		.loc 1 905 7 is_stmt 1 view .LVU752
 905:Drivers/STM32F7xx_HAL_Driver/Src/stm32f7xx_ll_usb.c ****       {
 2260              		.loc 1 905 13 is_stmt 0 view .LVU753
ARM GAS  C:\Users\benny\AppData\Local\Temp\ccHko7Bj.s 			page 79


 2261 002a 0C69     		ldr	r4, [r1, #16]
 2262              	.LVL149:
 905:Drivers/STM32F7xx_HAL_Driver/Src/stm32f7xx_ll_usb.c ****       {
 2263              		.loc 1 905 10 view .LVU754
 2264 002c 0CB1     		cbz	r4, .L174
 907:Drivers/STM32F7xx_HAL_Driver/Src/stm32f7xx_ll_usb.c ****       }
 2265              		.loc 1 907 9 is_stmt 1 view .LVU755
 907:Drivers/STM32F7xx_HAL_Driver/Src/stm32f7xx_ll_usb.c ****       }
 2266              		.loc 1 907 26 is_stmt 0 view .LVU756
 2267 002e 8C68     		ldr	r4, [r1, #8]
 907:Drivers/STM32F7xx_HAL_Driver/Src/stm32f7xx_ll_usb.c ****       }
 2268              		.loc 1 907 22 view .LVU757
 2269 0030 0C61     		str	r4, [r1, #16]
 2270              	.L174:
 911:Drivers/STM32F7xx_HAL_Driver/Src/stm32f7xx_ll_usb.c **** 
 2271              		.loc 1 911 7 is_stmt 1 view .LVU758
 911:Drivers/STM32F7xx_HAL_Driver/Src/stm32f7xx_ll_usb.c **** 
 2272              		.loc 1 911 25 is_stmt 0 view .LVU759
 2273 0032 8C68     		ldr	r4, [r1, #8]
 911:Drivers/STM32F7xx_HAL_Driver/Src/stm32f7xx_ll_usb.c **** 
 2274              		.loc 1 911 21 view .LVU760
 2275 0034 0C62     		str	r4, [r1, #32]
 913:Drivers/STM32F7xx_HAL_Driver/Src/stm32f7xx_ll_usb.c ****       USBx_OUTEP(epnum)->DOEPTSIZ |= (USB_OTG_DOEPTSIZ_PKTCNT & (1U << 19));
 2276              		.loc 1 913 7 is_stmt 1 view .LVU761
 913:Drivers/STM32F7xx_HAL_Driver/Src/stm32f7xx_ll_usb.c ****       USBx_OUTEP(epnum)->DOEPTSIZ |= (USB_OTG_DOEPTSIZ_PKTCNT & (1U << 19));
 2277              		.loc 1 913 24 is_stmt 0 view .LVU762
 2278 0036 1D69     		ldr	r5, [r3, #16]
 913:Drivers/STM32F7xx_HAL_Driver/Src/stm32f7xx_ll_usb.c ****       USBx_OUTEP(epnum)->DOEPTSIZ |= (USB_OTG_DOEPTSIZ_PKTCNT & (1U << 19));
 2279              		.loc 1 913 63 view .LVU763
 2280 0038 C4F31204 		ubfx	r4, r4, #0, #19
 913:Drivers/STM32F7xx_HAL_Driver/Src/stm32f7xx_ll_usb.c ****       USBx_OUTEP(epnum)->DOEPTSIZ |= (USB_OTG_DOEPTSIZ_PKTCNT & (1U << 19));
 2281              		.loc 1 913 35 view .LVU764
 2282 003c 2C43     		orrs	r4, r4, r5
 2283 003e 1C61     		str	r4, [r3, #16]
 914:Drivers/STM32F7xx_HAL_Driver/Src/stm32f7xx_ll_usb.c ****     }
 2284              		.loc 1 914 7 is_stmt 1 view .LVU765
 914:Drivers/STM32F7xx_HAL_Driver/Src/stm32f7xx_ll_usb.c ****     }
 2285              		.loc 1 914 24 is_stmt 0 view .LVU766
 2286 0040 1C69     		ldr	r4, [r3, #16]
 914:Drivers/STM32F7xx_HAL_Driver/Src/stm32f7xx_ll_usb.c ****     }
 2287              		.loc 1 914 35 view .LVU767
 2288 0042 44F40024 		orr	r4, r4, #524288
 2289 0046 1C61     		str	r4, [r3, #16]
 2290              	.L175:
 933:Drivers/STM32F7xx_HAL_Driver/Src/stm32f7xx_ll_usb.c ****     {
 2291              		.loc 1 933 5 is_stmt 1 view .LVU768
 933:Drivers/STM32F7xx_HAL_Driver/Src/stm32f7xx_ll_usb.c ****     {
 2292              		.loc 1 933 8 is_stmt 0 view .LVU769
 2293 0048 012A     		cmp	r2, #1
 2294 004a 00F0D880 		beq	.L182
 2295              	.LVL150:
 2296              	.L177:
 941:Drivers/STM32F7xx_HAL_Driver/Src/stm32f7xx_ll_usb.c ****     {
 2297              		.loc 1 941 5 is_stmt 1 view .LVU770
 941:Drivers/STM32F7xx_HAL_Driver/Src/stm32f7xx_ll_usb.c ****     {
 2298              		.loc 1 941 11 is_stmt 0 view .LVU771
 2299 004e 0B79     		ldrb	r3, [r1, #4]	@ zero_extendqisi2
ARM GAS  C:\Users\benny\AppData\Local\Temp\ccHko7Bj.s 			page 80


 941:Drivers/STM32F7xx_HAL_Driver/Src/stm32f7xx_ll_usb.c ****     {
 2300              		.loc 1 941 8 view .LVU772
 2301 0050 012B     		cmp	r3, #1
 2302 0052 00F0DA80 		beq	.L183
 2303              	.L178:
 953:Drivers/STM32F7xx_HAL_Driver/Src/stm32f7xx_ll_usb.c ****   }
 2304              		.loc 1 953 5 is_stmt 1 view .LVU773
 953:Drivers/STM32F7xx_HAL_Driver/Src/stm32f7xx_ll_usb.c ****   }
 2305              		.loc 1 953 22 is_stmt 0 view .LVU774
 2306 0056 DCF8003B 		ldr	r3, [ip, #2816]
 953:Drivers/STM32F7xx_HAL_Driver/Src/stm32f7xx_ll_usb.c ****   }
 2307              		.loc 1 953 32 view .LVU775
 2308 005a 43F00443 		orr	r3, r3, #-2080374784
 2309 005e CCF8003B 		str	r3, [ip, #2816]
 2310              	.LVL151:
 2311              	.L169:
 956:Drivers/STM32F7xx_HAL_Driver/Src/stm32f7xx_ll_usb.c **** }
 2312              		.loc 1 956 3 is_stmt 1 view .LVU776
 957:Drivers/STM32F7xx_HAL_Driver/Src/stm32f7xx_ll_usb.c **** 
 2313              		.loc 1 957 1 is_stmt 0 view .LVU777
 2314 0062 0020     		movs	r0, #0
 2315 0064 03B0     		add	sp, sp, #12
 2316              	.LCFI37:
 2317              		.cfi_remember_state
 2318              		.cfi_def_cfa_offset 20
 2319              		@ sp needed
 2320 0066 F0BD     		pop	{r4, r5, r6, r7, pc}
 2321              	.LVL152:
 2322              	.L181:
 2323              	.LCFI38:
 2324              		.cfi_restore_state
 804:Drivers/STM32F7xx_HAL_Driver/Src/stm32f7xx_ll_usb.c ****     {
 2325              		.loc 1 804 5 is_stmt 1 view .LVU778
 804:Drivers/STM32F7xx_HAL_Driver/Src/stm32f7xx_ll_usb.c ****     {
 2326              		.loc 1 804 11 is_stmt 0 view .LVU779
 2327 0068 0B69     		ldr	r3, [r1, #16]
 804:Drivers/STM32F7xx_HAL_Driver/Src/stm32f7xx_ll_usb.c ****     {
 2328              		.loc 1 804 8 view .LVU780
 2329 006a 73BB     		cbnz	r3, .L160
 806:Drivers/STM32F7xx_HAL_Driver/Src/stm32f7xx_ll_usb.c ****       USBx_INEP(epnum)->DIEPTSIZ |= (USB_OTG_DIEPTSIZ_PKTCNT & (1U << 19));
 2330              		.loc 1 806 7 is_stmt 1 view .LVU781
 806:Drivers/STM32F7xx_HAL_Driver/Src/stm32f7xx_ll_usb.c ****       USBx_INEP(epnum)->DIEPTSIZ |= (USB_OTG_DIEPTSIZ_PKTCNT & (1U << 19));
 2331              		.loc 1 806 23 is_stmt 0 view .LVU782
 2332 006c 00EB4413 		add	r3, r0, r4, lsl #5
 2333 0070 D3F81069 		ldr	r6, [r3, #2320]
 806:Drivers/STM32F7xx_HAL_Driver/Src/stm32f7xx_ll_usb.c ****       USBx_INEP(epnum)->DIEPTSIZ |= (USB_OTG_DIEPTSIZ_PKTCNT & (1U << 19));
 2334              		.loc 1 806 34 view .LVU783
 2335 0074 6F4D     		ldr	r5, .L186+4
 2336 0076 3540     		ands	r5, r5, r6
 2337 0078 C3F81059 		str	r5, [r3, #2320]
 807:Drivers/STM32F7xx_HAL_Driver/Src/stm32f7xx_ll_usb.c ****       USBx_INEP(epnum)->DIEPTSIZ &= ~(USB_OTG_DIEPTSIZ_XFRSIZ);
 2338              		.loc 1 807 7 is_stmt 1 view .LVU784
 807:Drivers/STM32F7xx_HAL_Driver/Src/stm32f7xx_ll_usb.c ****       USBx_INEP(epnum)->DIEPTSIZ &= ~(USB_OTG_DIEPTSIZ_XFRSIZ);
 2339              		.loc 1 807 23 is_stmt 0 view .LVU785
 2340 007c D3F81059 		ldr	r5, [r3, #2320]
 807:Drivers/STM32F7xx_HAL_Driver/Src/stm32f7xx_ll_usb.c ****       USBx_INEP(epnum)->DIEPTSIZ &= ~(USB_OTG_DIEPTSIZ_XFRSIZ);
 2341              		.loc 1 807 34 view .LVU786
ARM GAS  C:\Users\benny\AppData\Local\Temp\ccHko7Bj.s 			page 81


 2342 0080 45F40025 		orr	r5, r5, #524288
 2343 0084 C3F81059 		str	r5, [r3, #2320]
 808:Drivers/STM32F7xx_HAL_Driver/Src/stm32f7xx_ll_usb.c ****     }
 2344              		.loc 1 808 7 is_stmt 1 view .LVU787
 808:Drivers/STM32F7xx_HAL_Driver/Src/stm32f7xx_ll_usb.c ****     }
 2345              		.loc 1 808 23 is_stmt 0 view .LVU788
 2346 0088 D3F81069 		ldr	r6, [r3, #2320]
 808:Drivers/STM32F7xx_HAL_Driver/Src/stm32f7xx_ll_usb.c ****     }
 2347              		.loc 1 808 34 view .LVU789
 2348 008c 684D     		ldr	r5, .L186
 2349 008e 3540     		ands	r5, r5, r6
 2350 0090 C3F81059 		str	r5, [r3, #2320]
 2351              	.L161:
 844:Drivers/STM32F7xx_HAL_Driver/Src/stm32f7xx_ll_usb.c ****     {
 2352              		.loc 1 844 5 is_stmt 1 view .LVU790
 844:Drivers/STM32F7xx_HAL_Driver/Src/stm32f7xx_ll_usb.c ****     {
 2353              		.loc 1 844 8 is_stmt 0 view .LVU791
 2354 0094 012A     		cmp	r2, #1
 2355 0096 4DD0     		beq	.L184
 869:Drivers/STM32F7xx_HAL_Driver/Src/stm32f7xx_ll_usb.c **** 
 2356              		.loc 1 869 7 is_stmt 1 view .LVU792
 869:Drivers/STM32F7xx_HAL_Driver/Src/stm32f7xx_ll_usb.c **** 
 2357              		.loc 1 869 23 is_stmt 0 view .LVU793
 2358 0098 00EB4414 		add	r4, r0, r4, lsl #5
 2359              	.LVL153:
 869:Drivers/STM32F7xx_HAL_Driver/Src/stm32f7xx_ll_usb.c **** 
 2360              		.loc 1 869 23 view .LVU794
 2361 009c D4F80039 		ldr	r3, [r4, #2304]
 869:Drivers/STM32F7xx_HAL_Driver/Src/stm32f7xx_ll_usb.c **** 
 2362              		.loc 1 869 33 view .LVU795
 2363 00a0 43F00443 		orr	r3, r3, #-2080374784
 2364 00a4 C4F80039 		str	r3, [r4, #2304]
 871:Drivers/STM32F7xx_HAL_Driver/Src/stm32f7xx_ll_usb.c ****       {
 2365              		.loc 1 871 7 is_stmt 1 view .LVU796
 871:Drivers/STM32F7xx_HAL_Driver/Src/stm32f7xx_ll_usb.c ****       {
 2366              		.loc 1 871 13 is_stmt 0 view .LVU797
 2367 00a8 0B79     		ldrb	r3, [r1, #4]	@ zero_extendqisi2
 871:Drivers/STM32F7xx_HAL_Driver/Src/stm32f7xx_ll_usb.c ****       {
 2368              		.loc 1 871 10 view .LVU798
 2369 00aa 012B     		cmp	r3, #1
 2370 00ac 6BD0     		beq	.L170
 874:Drivers/STM32F7xx_HAL_Driver/Src/stm32f7xx_ll_usb.c ****         {
 2371              		.loc 1 874 9 is_stmt 1 view .LVU799
 874:Drivers/STM32F7xx_HAL_Driver/Src/stm32f7xx_ll_usb.c ****         {
 2372              		.loc 1 874 15 is_stmt 0 view .LVU800
 2373 00ae 0B69     		ldr	r3, [r1, #16]
 874:Drivers/STM32F7xx_HAL_Driver/Src/stm32f7xx_ll_usb.c ****         {
 2374              		.loc 1 874 12 view .LVU801
 2375 00b0 002B     		cmp	r3, #0
 2376 00b2 D6D0     		beq	.L169
 876:Drivers/STM32F7xx_HAL_Driver/Src/stm32f7xx_ll_usb.c ****         }
 2377              		.loc 1 876 11 is_stmt 1 view .LVU802
 876:Drivers/STM32F7xx_HAL_Driver/Src/stm32f7xx_ll_usb.c ****         }
 2378              		.loc 1 876 22 is_stmt 0 view .LVU803
 2379 00b4 D0F83438 		ldr	r3, [r0, #2100]
 876:Drivers/STM32F7xx_HAL_Driver/Src/stm32f7xx_ll_usb.c ****         }
 2380              		.loc 1 876 48 view .LVU804
ARM GAS  C:\Users\benny\AppData\Local\Temp\ccHko7Bj.s 			page 82


 2381 00b8 0978     		ldrb	r1, [r1]	@ zero_extendqisi2
 2382              	.LVL154:
 876:Drivers/STM32F7xx_HAL_Driver/Src/stm32f7xx_ll_usb.c ****         }
 2383              		.loc 1 876 54 view .LVU805
 2384 00ba 01F00F01 		and	r1, r1, #15
 876:Drivers/STM32F7xx_HAL_Driver/Src/stm32f7xx_ll_usb.c ****         }
 2385              		.loc 1 876 42 view .LVU806
 2386 00be 0122     		movs	r2, #1
 2387              	.LVL155:
 876:Drivers/STM32F7xx_HAL_Driver/Src/stm32f7xx_ll_usb.c ****         }
 2388              		.loc 1 876 42 view .LVU807
 2389 00c0 8A40     		lsls	r2, r2, r1
 876:Drivers/STM32F7xx_HAL_Driver/Src/stm32f7xx_ll_usb.c ****         }
 2390              		.loc 1 876 35 view .LVU808
 2391 00c2 1343     		orrs	r3, r3, r2
 2392 00c4 C0F83438 		str	r3, [r0, #2100]
 2393 00c8 CBE7     		b	.L169
 2394              	.LVL156:
 2395              	.L160:
 817:Drivers/STM32F7xx_HAL_Driver/Src/stm32f7xx_ll_usb.c ****       USBx_INEP(epnum)->DIEPTSIZ &= ~(USB_OTG_DIEPTSIZ_PKTCNT);
 2396              		.loc 1 817 7 is_stmt 1 view .LVU809
 817:Drivers/STM32F7xx_HAL_Driver/Src/stm32f7xx_ll_usb.c ****       USBx_INEP(epnum)->DIEPTSIZ &= ~(USB_OTG_DIEPTSIZ_PKTCNT);
 2397              		.loc 1 817 23 is_stmt 0 view .LVU810
 2398 00ca 00EB4413 		add	r3, r0, r4, lsl #5
 2399 00ce 03F51063 		add	r3, r3, #2304
 2400 00d2 1E69     		ldr	r6, [r3, #16]
 817:Drivers/STM32F7xx_HAL_Driver/Src/stm32f7xx_ll_usb.c ****       USBx_INEP(epnum)->DIEPTSIZ &= ~(USB_OTG_DIEPTSIZ_PKTCNT);
 2401              		.loc 1 817 34 view .LVU811
 2402 00d4 564D     		ldr	r5, .L186
 2403 00d6 3540     		ands	r5, r5, r6
 2404 00d8 1D61     		str	r5, [r3, #16]
 818:Drivers/STM32F7xx_HAL_Driver/Src/stm32f7xx_ll_usb.c **** 
 2405              		.loc 1 818 7 is_stmt 1 view .LVU812
 818:Drivers/STM32F7xx_HAL_Driver/Src/stm32f7xx_ll_usb.c **** 
 2406              		.loc 1 818 23 is_stmt 0 view .LVU813
 2407 00da 1E69     		ldr	r6, [r3, #16]
 818:Drivers/STM32F7xx_HAL_Driver/Src/stm32f7xx_ll_usb.c **** 
 2408              		.loc 1 818 34 view .LVU814
 2409 00dc 554D     		ldr	r5, .L186+4
 2410 00de 3540     		ands	r5, r5, r6
 2411 00e0 1D61     		str	r5, [r3, #16]
 820:Drivers/STM32F7xx_HAL_Driver/Src/stm32f7xx_ll_usb.c ****       {
 2412              		.loc 1 820 7 is_stmt 1 view .LVU815
 820:Drivers/STM32F7xx_HAL_Driver/Src/stm32f7xx_ll_usb.c ****       {
 2413              		.loc 1 820 10 is_stmt 0 view .LVU816
 2414 00e2 D4B9     		cbnz	r4, .L162
 822:Drivers/STM32F7xx_HAL_Driver/Src/stm32f7xx_ll_usb.c ****         {
 2415              		.loc 1 822 9 is_stmt 1 view .LVU817
 822:Drivers/STM32F7xx_HAL_Driver/Src/stm32f7xx_ll_usb.c ****         {
 2416              		.loc 1 822 15 is_stmt 0 view .LVU818
 2417 00e4 0E69     		ldr	r6, [r1, #16]
 822:Drivers/STM32F7xx_HAL_Driver/Src/stm32f7xx_ll_usb.c ****         {
 2418              		.loc 1 822 30 view .LVU819
 2419 00e6 8D68     		ldr	r5, [r1, #8]
 822:Drivers/STM32F7xx_HAL_Driver/Src/stm32f7xx_ll_usb.c ****         {
 2420              		.loc 1 822 12 view .LVU820
 2421 00e8 AE42     		cmp	r6, r5
ARM GAS  C:\Users\benny\AppData\Local\Temp\ccHko7Bj.s 			page 83


 2422 00ea 00D9     		bls	.L163
 824:Drivers/STM32F7xx_HAL_Driver/Src/stm32f7xx_ll_usb.c ****         }
 2423              		.loc 1 824 11 is_stmt 1 view .LVU821
 824:Drivers/STM32F7xx_HAL_Driver/Src/stm32f7xx_ll_usb.c ****         }
 2424              		.loc 1 824 24 is_stmt 0 view .LVU822
 2425 00ec 0D61     		str	r5, [r1, #16]
 2426              	.L163:
 827:Drivers/STM32F7xx_HAL_Driver/Src/stm32f7xx_ll_usb.c ****       }
 2427              		.loc 1 827 9 is_stmt 1 view .LVU823
 827:Drivers/STM32F7xx_HAL_Driver/Src/stm32f7xx_ll_usb.c ****       }
 2428              		.loc 1 827 25 is_stmt 0 view .LVU824
 2429 00ee 1D69     		ldr	r5, [r3, #16]
 827:Drivers/STM32F7xx_HAL_Driver/Src/stm32f7xx_ll_usb.c ****       }
 2430              		.loc 1 827 36 view .LVU825
 2431 00f0 45F40025 		orr	r5, r5, #524288
 2432 00f4 1D61     		str	r5, [r3, #16]
 2433              	.L164:
 835:Drivers/STM32F7xx_HAL_Driver/Src/stm32f7xx_ll_usb.c **** 
 2434              		.loc 1 835 7 is_stmt 1 view .LVU826
 835:Drivers/STM32F7xx_HAL_Driver/Src/stm32f7xx_ll_usb.c **** 
 2435              		.loc 1 835 23 is_stmt 0 view .LVU827
 2436 00f6 1D69     		ldr	r5, [r3, #16]
 835:Drivers/STM32F7xx_HAL_Driver/Src/stm32f7xx_ll_usb.c **** 
 2437              		.loc 1 835 66 view .LVU828
 2438 00f8 0E69     		ldr	r6, [r1, #16]
 835:Drivers/STM32F7xx_HAL_Driver/Src/stm32f7xx_ll_usb.c **** 
 2439              		.loc 1 835 62 view .LVU829
 2440 00fa C6F31206 		ubfx	r6, r6, #0, #19
 835:Drivers/STM32F7xx_HAL_Driver/Src/stm32f7xx_ll_usb.c **** 
 2441              		.loc 1 835 34 view .LVU830
 2442 00fe 3543     		orrs	r5, r5, r6
 2443 0100 1D61     		str	r5, [r3, #16]
 837:Drivers/STM32F7xx_HAL_Driver/Src/stm32f7xx_ll_usb.c ****       {
 2444              		.loc 1 837 7 is_stmt 1 view .LVU831
 837:Drivers/STM32F7xx_HAL_Driver/Src/stm32f7xx_ll_usb.c ****       {
 2445              		.loc 1 837 13 is_stmt 0 view .LVU832
 2446 0102 0D79     		ldrb	r5, [r1, #4]	@ zero_extendqisi2
 837:Drivers/STM32F7xx_HAL_Driver/Src/stm32f7xx_ll_usb.c ****       {
 2447              		.loc 1 837 10 view .LVU833
 2448 0104 012D     		cmp	r5, #1
 2449 0106 C5D1     		bne	.L161
 839:Drivers/STM32F7xx_HAL_Driver/Src/stm32f7xx_ll_usb.c ****         USBx_INEP(epnum)->DIEPTSIZ |= (USB_OTG_DIEPTSIZ_MULCNT & (1U << 29));
 2450              		.loc 1 839 9 is_stmt 1 view .LVU834
 839:Drivers/STM32F7xx_HAL_Driver/Src/stm32f7xx_ll_usb.c ****         USBx_INEP(epnum)->DIEPTSIZ |= (USB_OTG_DIEPTSIZ_MULCNT & (1U << 29));
 2451              		.loc 1 839 25 is_stmt 0 view .LVU835
 2452 0108 1D69     		ldr	r5, [r3, #16]
 839:Drivers/STM32F7xx_HAL_Driver/Src/stm32f7xx_ll_usb.c ****         USBx_INEP(epnum)->DIEPTSIZ |= (USB_OTG_DIEPTSIZ_MULCNT & (1U << 29));
 2453              		.loc 1 839 36 view .LVU836
 2454 010a 25F0C045 		bic	r5, r5, #1610612736
 2455 010e 1D61     		str	r5, [r3, #16]
 840:Drivers/STM32F7xx_HAL_Driver/Src/stm32f7xx_ll_usb.c ****       }
 2456              		.loc 1 840 9 is_stmt 1 view .LVU837
 840:Drivers/STM32F7xx_HAL_Driver/Src/stm32f7xx_ll_usb.c ****       }
 2457              		.loc 1 840 25 is_stmt 0 view .LVU838
 2458 0110 1D69     		ldr	r5, [r3, #16]
 840:Drivers/STM32F7xx_HAL_Driver/Src/stm32f7xx_ll_usb.c ****       }
 2459              		.loc 1 840 36 view .LVU839
ARM GAS  C:\Users\benny\AppData\Local\Temp\ccHko7Bj.s 			page 84


 2460 0112 45F00055 		orr	r5, r5, #536870912
 2461 0116 1D61     		str	r5, [r3, #16]
 2462 0118 BCE7     		b	.L161
 2463              	.L162:
 831:Drivers/STM32F7xx_HAL_Driver/Src/stm32f7xx_ll_usb.c ****                                        (((ep->xfer_len + ep->maxpacket - 1U) / ep->maxpacket) << 19
 2464              		.loc 1 831 9 is_stmt 1 view .LVU840
 831:Drivers/STM32F7xx_HAL_Driver/Src/stm32f7xx_ll_usb.c ****                                        (((ep->xfer_len + ep->maxpacket - 1U) / ep->maxpacket) << 19
 2465              		.loc 1 831 25 is_stmt 0 view .LVU841
 2466 011a 1E69     		ldr	r6, [r3, #16]
 832:Drivers/STM32F7xx_HAL_Driver/Src/stm32f7xx_ll_usb.c ****       }
 2467              		.loc 1 832 45 view .LVU842
 2468 011c 0D69     		ldr	r5, [r1, #16]
 832:Drivers/STM32F7xx_HAL_Driver/Src/stm32f7xx_ll_usb.c ****       }
 2469              		.loc 1 832 60 view .LVU843
 2470 011e 8F68     		ldr	r7, [r1, #8]
 832:Drivers/STM32F7xx_HAL_Driver/Src/stm32f7xx_ll_usb.c ****       }
 2471              		.loc 1 832 56 view .LVU844
 2472 0120 3D44     		add	r5, r5, r7
 832:Drivers/STM32F7xx_HAL_Driver/Src/stm32f7xx_ll_usb.c ****       }
 2473              		.loc 1 832 72 view .LVU845
 2474 0122 013D     		subs	r5, r5, #1
 832:Drivers/STM32F7xx_HAL_Driver/Src/stm32f7xx_ll_usb.c ****       }
 2475              		.loc 1 832 78 view .LVU846
 2476 0124 B5FBF7F5 		udiv	r5, r5, r7
 831:Drivers/STM32F7xx_HAL_Driver/Src/stm32f7xx_ll_usb.c ****                                        (((ep->xfer_len + ep->maxpacket - 1U) / ep->maxpacket) << 19
 2477              		.loc 1 831 64 view .LVU847
 2478 0128 434F     		ldr	r7, .L186+8
 2479 012a 07EAC545 		and	r5, r7, r5, lsl #19
 831:Drivers/STM32F7xx_HAL_Driver/Src/stm32f7xx_ll_usb.c ****                                        (((ep->xfer_len + ep->maxpacket - 1U) / ep->maxpacket) << 19
 2480              		.loc 1 831 36 view .LVU848
 2481 012e 3543     		orrs	r5, r5, r6
 2482 0130 1D61     		str	r5, [r3, #16]
 2483 0132 E0E7     		b	.L164
 2484              	.L184:
 846:Drivers/STM32F7xx_HAL_Driver/Src/stm32f7xx_ll_usb.c ****       {
 2485              		.loc 1 846 7 is_stmt 1 view .LVU849
 846:Drivers/STM32F7xx_HAL_Driver/Src/stm32f7xx_ll_usb.c ****       {
 2486              		.loc 1 846 23 is_stmt 0 view .LVU850
 2487 0134 CB69     		ldr	r3, [r1, #28]
 846:Drivers/STM32F7xx_HAL_Driver/Src/stm32f7xx_ll_usb.c ****       {
 2488              		.loc 1 846 10 view .LVU851
 2489 0136 1BB1     		cbz	r3, .L166
 848:Drivers/STM32F7xx_HAL_Driver/Src/stm32f7xx_ll_usb.c ****       }
 2490              		.loc 1 848 9 is_stmt 1 view .LVU852
 2491 0138 00EB4412 		add	r2, r0, r4, lsl #5
 2492              	.LVL157:
 848:Drivers/STM32F7xx_HAL_Driver/Src/stm32f7xx_ll_usb.c ****       }
 2493              		.loc 1 848 35 is_stmt 0 view .LVU853
 2494 013c C2F81439 		str	r3, [r2, #2324]
 2495              	.L166:
 851:Drivers/STM32F7xx_HAL_Driver/Src/stm32f7xx_ll_usb.c ****       {
 2496              		.loc 1 851 7 is_stmt 1 view .LVU854
 851:Drivers/STM32F7xx_HAL_Driver/Src/stm32f7xx_ll_usb.c ****       {
 2497              		.loc 1 851 13 is_stmt 0 view .LVU855
 2498 0140 0B79     		ldrb	r3, [r1, #4]	@ zero_extendqisi2
 851:Drivers/STM32F7xx_HAL_Driver/Src/stm32f7xx_ll_usb.c ****       {
 2499              		.loc 1 851 10 view .LVU856
ARM GAS  C:\Users\benny\AppData\Local\Temp\ccHko7Bj.s 			page 85


 2500 0142 012B     		cmp	r3, #1
 2501 0144 08D0     		beq	.L185
 2502              	.L167:
 864:Drivers/STM32F7xx_HAL_Driver/Src/stm32f7xx_ll_usb.c ****     }
 2503              		.loc 1 864 7 is_stmt 1 view .LVU857
 864:Drivers/STM32F7xx_HAL_Driver/Src/stm32f7xx_ll_usb.c ****     }
 2504              		.loc 1 864 23 is_stmt 0 view .LVU858
 2505 0146 00EB4414 		add	r4, r0, r4, lsl #5
 2506              	.LVL158:
 864:Drivers/STM32F7xx_HAL_Driver/Src/stm32f7xx_ll_usb.c ****     }
 2507              		.loc 1 864 23 view .LVU859
 2508 014a D4F80039 		ldr	r3, [r4, #2304]
 864:Drivers/STM32F7xx_HAL_Driver/Src/stm32f7xx_ll_usb.c ****     }
 2509              		.loc 1 864 33 view .LVU860
 2510 014e 43F00443 		orr	r3, r3, #-2080374784
 2511 0152 C4F80039 		str	r3, [r4, #2304]
 2512 0156 84E7     		b	.L169
 2513              	.LVL159:
 2514              	.L185:
 853:Drivers/STM32F7xx_HAL_Driver/Src/stm32f7xx_ll_usb.c ****         {
 2515              		.loc 1 853 9 is_stmt 1 view .LVU861
 853:Drivers/STM32F7xx_HAL_Driver/Src/stm32f7xx_ll_usb.c ****         {
 2516              		.loc 1 853 25 is_stmt 0 view .LVU862
 2517 0158 D0F80838 		ldr	r3, [r0, #2056]
 853:Drivers/STM32F7xx_HAL_Driver/Src/stm32f7xx_ll_usb.c ****         {
 2518              		.loc 1 853 12 view .LVU863
 2519 015c 13F4807F 		tst	r3, #256
 2520 0160 08D1     		bne	.L168
 855:Drivers/STM32F7xx_HAL_Driver/Src/stm32f7xx_ll_usb.c ****         }
 2521              		.loc 1 855 11 is_stmt 1 view .LVU864
 855:Drivers/STM32F7xx_HAL_Driver/Src/stm32f7xx_ll_usb.c ****         }
 2522              		.loc 1 855 27 is_stmt 0 view .LVU865
 2523 0162 00EB4412 		add	r2, r0, r4, lsl #5
 2524 0166 D2F80039 		ldr	r3, [r2, #2304]
 855:Drivers/STM32F7xx_HAL_Driver/Src/stm32f7xx_ll_usb.c ****         }
 2525              		.loc 1 855 37 view .LVU866
 2526 016a 43F00053 		orr	r3, r3, #536870912
 2527 016e C2F80039 		str	r3, [r2, #2304]
 2528 0172 E8E7     		b	.L167
 2529              	.L168:
 859:Drivers/STM32F7xx_HAL_Driver/Src/stm32f7xx_ll_usb.c ****         }
 2530              		.loc 1 859 11 is_stmt 1 view .LVU867
 859:Drivers/STM32F7xx_HAL_Driver/Src/stm32f7xx_ll_usb.c ****         }
 2531              		.loc 1 859 27 is_stmt 0 view .LVU868
 2532 0174 00EB4412 		add	r2, r0, r4, lsl #5
 2533 0178 D2F80039 		ldr	r3, [r2, #2304]
 859:Drivers/STM32F7xx_HAL_Driver/Src/stm32f7xx_ll_usb.c ****         }
 2534              		.loc 1 859 37 view .LVU869
 2535 017c 43F08053 		orr	r3, r3, #268435456
 2536 0180 C2F80039 		str	r3, [r2, #2304]
 2537 0184 DFE7     		b	.L167
 2538              	.LVL160:
 2539              	.L170:
 881:Drivers/STM32F7xx_HAL_Driver/Src/stm32f7xx_ll_usb.c ****         {
 2540              		.loc 1 881 9 is_stmt 1 view .LVU870
 881:Drivers/STM32F7xx_HAL_Driver/Src/stm32f7xx_ll_usb.c ****         {
 2541              		.loc 1 881 25 is_stmt 0 view .LVU871
ARM GAS  C:\Users\benny\AppData\Local\Temp\ccHko7Bj.s 			page 86


 2542 0186 D0F80838 		ldr	r3, [r0, #2056]
 881:Drivers/STM32F7xx_HAL_Driver/Src/stm32f7xx_ll_usb.c ****         {
 2543              		.loc 1 881 12 view .LVU872
 2544 018a 13F4807F 		tst	r3, #256
 2545 018e 0CD1     		bne	.L171
 883:Drivers/STM32F7xx_HAL_Driver/Src/stm32f7xx_ll_usb.c ****         }
 2546              		.loc 1 883 11 is_stmt 1 view .LVU873
 883:Drivers/STM32F7xx_HAL_Driver/Src/stm32f7xx_ll_usb.c ****         }
 2547              		.loc 1 883 27 is_stmt 0 view .LVU874
 2548 0190 D4F80039 		ldr	r3, [r4, #2304]
 883:Drivers/STM32F7xx_HAL_Driver/Src/stm32f7xx_ll_usb.c ****         }
 2549              		.loc 1 883 37 view .LVU875
 2550 0194 43F00053 		orr	r3, r3, #536870912
 2551 0198 C4F80039 		str	r3, [r4, #2304]
 2552              	.L172:
 890:Drivers/STM32F7xx_HAL_Driver/Src/stm32f7xx_ll_usb.c ****       }
 2553              		.loc 1 890 9 is_stmt 1 view .LVU876
 890:Drivers/STM32F7xx_HAL_Driver/Src/stm32f7xx_ll_usb.c ****       }
 2554              		.loc 1 890 15 is_stmt 0 view .LVU877
 2555 019c 0092     		str	r2, [sp]
 2556 019e 0B8A     		ldrh	r3, [r1, #16]
 2557 01a0 0A78     		ldrb	r2, [r1]	@ zero_extendqisi2
 2558              	.LVL161:
 890:Drivers/STM32F7xx_HAL_Driver/Src/stm32f7xx_ll_usb.c ****       }
 2559              		.loc 1 890 15 view .LVU878
 2560 01a2 C968     		ldr	r1, [r1, #12]
 2561              	.LVL162:
 890:Drivers/STM32F7xx_HAL_Driver/Src/stm32f7xx_ll_usb.c ****       }
 2562              		.loc 1 890 15 view .LVU879
 2563 01a4 FFF7FEFF 		bl	USB_WritePacket
 2564              	.LVL163:
 890:Drivers/STM32F7xx_HAL_Driver/Src/stm32f7xx_ll_usb.c ****       }
 2565              		.loc 1 890 15 view .LVU880
 2566 01a8 5BE7     		b	.L169
 2567              	.LVL164:
 2568              	.L171:
 887:Drivers/STM32F7xx_HAL_Driver/Src/stm32f7xx_ll_usb.c ****         }
 2569              		.loc 1 887 11 is_stmt 1 view .LVU881
 887:Drivers/STM32F7xx_HAL_Driver/Src/stm32f7xx_ll_usb.c ****         }
 2570              		.loc 1 887 27 is_stmt 0 view .LVU882
 2571 01aa D4F80039 		ldr	r3, [r4, #2304]
 887:Drivers/STM32F7xx_HAL_Driver/Src/stm32f7xx_ll_usb.c ****         }
 2572              		.loc 1 887 37 view .LVU883
 2573 01ae 43F08053 		orr	r3, r3, #268435456
 2574 01b2 C4F80039 		str	r3, [r4, #2304]
 2575 01b6 F1E7     		b	.L172
 2576              	.LVL165:
 2577              	.L173:
 918:Drivers/STM32F7xx_HAL_Driver/Src/stm32f7xx_ll_usb.c ****       {
 2578              		.loc 1 918 7 is_stmt 1 view .LVU884
 918:Drivers/STM32F7xx_HAL_Driver/Src/stm32f7xx_ll_usb.c ****       {
 2579              		.loc 1 918 13 is_stmt 0 view .LVU885
 2580 01b8 0C69     		ldr	r4, [r1, #16]
 2581              	.LVL166:
 918:Drivers/STM32F7xx_HAL_Driver/Src/stm32f7xx_ll_usb.c ****       {
 2582              		.loc 1 918 10 view .LVU886
 2583 01ba 54B9     		cbnz	r4, .L176
ARM GAS  C:\Users\benny\AppData\Local\Temp\ccHko7Bj.s 			page 87


 920:Drivers/STM32F7xx_HAL_Driver/Src/stm32f7xx_ll_usb.c ****         USBx_OUTEP(epnum)->DOEPTSIZ |= (USB_OTG_DOEPTSIZ_PKTCNT & (1U << 19));
 2584              		.loc 1 920 9 is_stmt 1 view .LVU887
 920:Drivers/STM32F7xx_HAL_Driver/Src/stm32f7xx_ll_usb.c ****         USBx_OUTEP(epnum)->DOEPTSIZ |= (USB_OTG_DOEPTSIZ_PKTCNT & (1U << 19));
 2585              		.loc 1 920 26 is_stmt 0 view .LVU888
 2586 01bc 1C69     		ldr	r4, [r3, #16]
 920:Drivers/STM32F7xx_HAL_Driver/Src/stm32f7xx_ll_usb.c ****         USBx_OUTEP(epnum)->DOEPTSIZ |= (USB_OTG_DOEPTSIZ_PKTCNT & (1U << 19));
 2587              		.loc 1 920 69 view .LVU889
 2588 01be 8D68     		ldr	r5, [r1, #8]
 920:Drivers/STM32F7xx_HAL_Driver/Src/stm32f7xx_ll_usb.c ****         USBx_OUTEP(epnum)->DOEPTSIZ |= (USB_OTG_DOEPTSIZ_PKTCNT & (1U << 19));
 2589              		.loc 1 920 65 view .LVU890
 2590 01c0 C5F31205 		ubfx	r5, r5, #0, #19
 920:Drivers/STM32F7xx_HAL_Driver/Src/stm32f7xx_ll_usb.c ****         USBx_OUTEP(epnum)->DOEPTSIZ |= (USB_OTG_DOEPTSIZ_PKTCNT & (1U << 19));
 2591              		.loc 1 920 37 view .LVU891
 2592 01c4 2C43     		orrs	r4, r4, r5
 2593 01c6 1C61     		str	r4, [r3, #16]
 921:Drivers/STM32F7xx_HAL_Driver/Src/stm32f7xx_ll_usb.c ****       }
 2594              		.loc 1 921 9 is_stmt 1 view .LVU892
 921:Drivers/STM32F7xx_HAL_Driver/Src/stm32f7xx_ll_usb.c ****       }
 2595              		.loc 1 921 26 is_stmt 0 view .LVU893
 2596 01c8 1C69     		ldr	r4, [r3, #16]
 921:Drivers/STM32F7xx_HAL_Driver/Src/stm32f7xx_ll_usb.c ****       }
 2597              		.loc 1 921 37 view .LVU894
 2598 01ca 44F40024 		orr	r4, r4, #524288
 2599 01ce 1C61     		str	r4, [r3, #16]
 2600 01d0 3AE7     		b	.L175
 2601              	.L176:
 925:Drivers/STM32F7xx_HAL_Driver/Src/stm32f7xx_ll_usb.c ****         ep->xfer_size = ep->maxpacket * pktcnt;
 2602              		.loc 1 925 9 is_stmt 1 view .LVU895
 925:Drivers/STM32F7xx_HAL_Driver/Src/stm32f7xx_ll_usb.c ****         ep->xfer_size = ep->maxpacket * pktcnt;
 2603              		.loc 1 925 47 is_stmt 0 view .LVU896
 2604 01d2 8D68     		ldr	r5, [r1, #8]
 925:Drivers/STM32F7xx_HAL_Driver/Src/stm32f7xx_ll_usb.c ****         ep->xfer_size = ep->maxpacket * pktcnt;
 2605              		.loc 1 925 43 view .LVU897
 2606 01d4 2C44     		add	r4, r4, r5
 925:Drivers/STM32F7xx_HAL_Driver/Src/stm32f7xx_ll_usb.c ****         ep->xfer_size = ep->maxpacket * pktcnt;
 2607              		.loc 1 925 59 view .LVU898
 2608 01d6 013C     		subs	r4, r4, #1
 925:Drivers/STM32F7xx_HAL_Driver/Src/stm32f7xx_ll_usb.c ****         ep->xfer_size = ep->maxpacket * pktcnt;
 2609              		.loc 1 925 65 view .LVU899
 2610 01d8 B4FBF5F4 		udiv	r4, r4, r5
 2611              	.LVL167:
 926:Drivers/STM32F7xx_HAL_Driver/Src/stm32f7xx_ll_usb.c **** 
 2612              		.loc 1 926 9 is_stmt 1 view .LVU900
 2613 01dc A4B2     		uxth	r4, r4
 926:Drivers/STM32F7xx_HAL_Driver/Src/stm32f7xx_ll_usb.c **** 
 2614              		.loc 1 926 39 is_stmt 0 view .LVU901
 2615 01de 04FB05F5 		mul	r5, r4, r5
 926:Drivers/STM32F7xx_HAL_Driver/Src/stm32f7xx_ll_usb.c **** 
 2616              		.loc 1 926 23 view .LVU902
 2617 01e2 0D62     		str	r5, [r1, #32]
 928:Drivers/STM32F7xx_HAL_Driver/Src/stm32f7xx_ll_usb.c ****         USBx_OUTEP(epnum)->DOEPTSIZ |= USB_OTG_DOEPTSIZ_XFRSIZ & ep->xfer_size;
 2618              		.loc 1 928 9 is_stmt 1 view .LVU903
 928:Drivers/STM32F7xx_HAL_Driver/Src/stm32f7xx_ll_usb.c ****         USBx_OUTEP(epnum)->DOEPTSIZ |= USB_OTG_DOEPTSIZ_XFRSIZ & ep->xfer_size;
 2619              		.loc 1 928 26 is_stmt 0 view .LVU904
 2620 01e4 1D69     		ldr	r5, [r3, #16]
 928:Drivers/STM32F7xx_HAL_Driver/Src/stm32f7xx_ll_usb.c ****         USBx_OUTEP(epnum)->DOEPTSIZ |= USB_OTG_DOEPTSIZ_XFRSIZ & ep->xfer_size;
 2621              		.loc 1 928 64 view .LVU905
ARM GAS  C:\Users\benny\AppData\Local\Temp\ccHko7Bj.s 			page 88


 2622 01e6 144E     		ldr	r6, .L186+8
 2623 01e8 06EAC444 		and	r4, r6, r4, lsl #19
 2624              	.LVL168:
 928:Drivers/STM32F7xx_HAL_Driver/Src/stm32f7xx_ll_usb.c ****         USBx_OUTEP(epnum)->DOEPTSIZ |= USB_OTG_DOEPTSIZ_XFRSIZ & ep->xfer_size;
 2625              		.loc 1 928 37 view .LVU906
 2626 01ec 2C43     		orrs	r4, r4, r5
 2627 01ee 1C61     		str	r4, [r3, #16]
 2628              	.LVL169:
 929:Drivers/STM32F7xx_HAL_Driver/Src/stm32f7xx_ll_usb.c ****       }
 2629              		.loc 1 929 9 is_stmt 1 view .LVU907
 929:Drivers/STM32F7xx_HAL_Driver/Src/stm32f7xx_ll_usb.c ****       }
 2630              		.loc 1 929 26 is_stmt 0 view .LVU908
 2631 01f0 1C69     		ldr	r4, [r3, #16]
 929:Drivers/STM32F7xx_HAL_Driver/Src/stm32f7xx_ll_usb.c ****       }
 2632              		.loc 1 929 68 view .LVU909
 2633 01f2 0D6A     		ldr	r5, [r1, #32]
 929:Drivers/STM32F7xx_HAL_Driver/Src/stm32f7xx_ll_usb.c ****       }
 2634              		.loc 1 929 64 view .LVU910
 2635 01f4 C5F31205 		ubfx	r5, r5, #0, #19
 929:Drivers/STM32F7xx_HAL_Driver/Src/stm32f7xx_ll_usb.c ****       }
 2636              		.loc 1 929 37 view .LVU911
 2637 01f8 2C43     		orrs	r4, r4, r5
 2638 01fa 1C61     		str	r4, [r3, #16]
 2639 01fc 24E7     		b	.L175
 2640              	.LVL170:
 2641              	.L182:
 935:Drivers/STM32F7xx_HAL_Driver/Src/stm32f7xx_ll_usb.c ****       {
 2642              		.loc 1 935 7 is_stmt 1 view .LVU912
 935:Drivers/STM32F7xx_HAL_Driver/Src/stm32f7xx_ll_usb.c ****       {
 2643              		.loc 1 935 23 is_stmt 0 view .LVU913
 2644 01fe CA68     		ldr	r2, [r1, #12]
 2645              	.LVL171:
 935:Drivers/STM32F7xx_HAL_Driver/Src/stm32f7xx_ll_usb.c ****       {
 2646              		.loc 1 935 10 view .LVU914
 2647 0200 002A     		cmp	r2, #0
 2648 0202 3FF424AF 		beq	.L177
 937:Drivers/STM32F7xx_HAL_Driver/Src/stm32f7xx_ll_usb.c ****       }
 2649              		.loc 1 937 9 is_stmt 1 view .LVU915
 937:Drivers/STM32F7xx_HAL_Driver/Src/stm32f7xx_ll_usb.c ****       }
 2650              		.loc 1 937 36 is_stmt 0 view .LVU916
 2651 0206 5A61     		str	r2, [r3, #20]
 2652 0208 21E7     		b	.L177
 2653              	.L183:
 943:Drivers/STM32F7xx_HAL_Driver/Src/stm32f7xx_ll_usb.c ****       {
 2654              		.loc 1 943 7 is_stmt 1 view .LVU917
 943:Drivers/STM32F7xx_HAL_Driver/Src/stm32f7xx_ll_usb.c ****       {
 2655              		.loc 1 943 23 is_stmt 0 view .LVU918
 2656 020a D0F80838 		ldr	r3, [r0, #2056]
 943:Drivers/STM32F7xx_HAL_Driver/Src/stm32f7xx_ll_usb.c ****       {
 2657              		.loc 1 943 10 view .LVU919
 2658 020e 13F4807F 		tst	r3, #256
 2659 0212 06D1     		bne	.L179
 945:Drivers/STM32F7xx_HAL_Driver/Src/stm32f7xx_ll_usb.c ****       }
 2660              		.loc 1 945 9 is_stmt 1 view .LVU920
 945:Drivers/STM32F7xx_HAL_Driver/Src/stm32f7xx_ll_usb.c ****       }
 2661              		.loc 1 945 26 is_stmt 0 view .LVU921
 2662 0214 DCF8003B 		ldr	r3, [ip, #2816]
ARM GAS  C:\Users\benny\AppData\Local\Temp\ccHko7Bj.s 			page 89


 945:Drivers/STM32F7xx_HAL_Driver/Src/stm32f7xx_ll_usb.c ****       }
 2663              		.loc 1 945 36 view .LVU922
 2664 0218 43F00053 		orr	r3, r3, #536870912
 2665 021c CCF8003B 		str	r3, [ip, #2816]
 2666 0220 19E7     		b	.L178
 2667              	.L179:
 949:Drivers/STM32F7xx_HAL_Driver/Src/stm32f7xx_ll_usb.c ****       }
 2668              		.loc 1 949 9 is_stmt 1 view .LVU923
 949:Drivers/STM32F7xx_HAL_Driver/Src/stm32f7xx_ll_usb.c ****       }
 2669              		.loc 1 949 26 is_stmt 0 view .LVU924
 2670 0222 DCF8003B 		ldr	r3, [ip, #2816]
 949:Drivers/STM32F7xx_HAL_Driver/Src/stm32f7xx_ll_usb.c ****       }
 2671              		.loc 1 949 36 view .LVU925
 2672 0226 43F08053 		orr	r3, r3, #268435456
 2673 022a CCF8003B 		str	r3, [ip, #2816]
 2674 022e 12E7     		b	.L178
 2675              	.L187:
 2676              		.align	2
 2677              	.L186:
 2678 0230 0000F8FF 		.word	-524288
 2679 0234 FFFF07E0 		.word	-536346625
 2680 0238 0000F81F 		.word	536346624
 2681              		.cfi_endproc
 2682              	.LFE155:
 2684              		.section	.text.USB_ReadPacket,"ax",%progbits
 2685              		.align	1
 2686              		.global	USB_ReadPacket
 2687              		.syntax unified
 2688              		.thumb
 2689              		.thumb_func
 2691              	USB_ReadPacket:
 2692              	.LVL172:
 2693              	.LFB158:
1062:Drivers/STM32F7xx_HAL_Driver/Src/stm32f7xx_ll_usb.c ****   uint32_t USBx_BASE = (uint32_t)USBx;
 2694              		.loc 1 1062 1 is_stmt 1 view -0
 2695              		.cfi_startproc
 2696              		@ args = 0, pretend = 0, frame = 0
 2697              		@ frame_needed = 0, uses_anonymous_args = 0
1062:Drivers/STM32F7xx_HAL_Driver/Src/stm32f7xx_ll_usb.c ****   uint32_t USBx_BASE = (uint32_t)USBx;
 2698              		.loc 1 1062 1 is_stmt 0 view .LVU927
 2699 0000 10B5     		push	{r4, lr}
 2700              	.LCFI39:
 2701              		.cfi_def_cfa_offset 8
 2702              		.cfi_offset 4, -8
 2703              		.cfi_offset 14, -4
 2704 0002 8446     		mov	ip, r0
 2705 0004 0846     		mov	r0, r1
 2706              	.LVL173:
1063:Drivers/STM32F7xx_HAL_Driver/Src/stm32f7xx_ll_usb.c ****   uint8_t *pDest = dest;
 2707              		.loc 1 1063 3 is_stmt 1 view .LVU928
1064:Drivers/STM32F7xx_HAL_Driver/Src/stm32f7xx_ll_usb.c ****   uint32_t pData;
 2708              		.loc 1 1064 3 view .LVU929
1065:Drivers/STM32F7xx_HAL_Driver/Src/stm32f7xx_ll_usb.c ****   uint32_t i;
 2709              		.loc 1 1065 3 view .LVU930
1066:Drivers/STM32F7xx_HAL_Driver/Src/stm32f7xx_ll_usb.c ****   uint32_t count32b = (uint32_t)len >> 2U;
 2710              		.loc 1 1066 3 view .LVU931
1067:Drivers/STM32F7xx_HAL_Driver/Src/stm32f7xx_ll_usb.c ****   uint16_t remaining_bytes = len % 4U;
ARM GAS  C:\Users\benny\AppData\Local\Temp\ccHko7Bj.s 			page 90


 2711              		.loc 1 1067 3 view .LVU932
1067:Drivers/STM32F7xx_HAL_Driver/Src/stm32f7xx_ll_usb.c ****   uint16_t remaining_bytes = len % 4U;
 2712              		.loc 1 1067 37 is_stmt 0 view .LVU933
 2713 0006 4FEA920E 		lsr	lr, r2, #2
 2714              	.LVL174:
1068:Drivers/STM32F7xx_HAL_Driver/Src/stm32f7xx_ll_usb.c **** 
 2715              		.loc 1 1068 3 is_stmt 1 view .LVU934
1068:Drivers/STM32F7xx_HAL_Driver/Src/stm32f7xx_ll_usb.c **** 
 2716              		.loc 1 1068 12 is_stmt 0 view .LVU935
 2717 000a 02F00302 		and	r2, r2, #3
 2718              	.LVL175:
1070:Drivers/STM32F7xx_HAL_Driver/Src/stm32f7xx_ll_usb.c ****   {
 2719              		.loc 1 1070 3 is_stmt 1 view .LVU936
1070:Drivers/STM32F7xx_HAL_Driver/Src/stm32f7xx_ll_usb.c ****   {
 2720              		.loc 1 1070 10 is_stmt 0 view .LVU937
 2721 000e 0023     		movs	r3, #0
1070:Drivers/STM32F7xx_HAL_Driver/Src/stm32f7xx_ll_usb.c ****   {
 2722              		.loc 1 1070 3 view .LVU938
 2723 0010 05E0     		b	.L189
 2724              	.LVL176:
 2725              	.L190:
1072:Drivers/STM32F7xx_HAL_Driver/Src/stm32f7xx_ll_usb.c ****     pDest++;
 2726              		.loc 1 1072 5 is_stmt 1 discriminator 3 view .LVU939
 2727 0012 0CF58051 		add	r1, ip, #4096
 2728 0016 0968     		ldr	r1, [r1]
 2729 0018 40F8041B 		str	r1, [r0], #4	@ unaligned
 2730              	.LVL177:
1073:Drivers/STM32F7xx_HAL_Driver/Src/stm32f7xx_ll_usb.c ****     pDest++;
 2731              		.loc 1 1073 5 discriminator 3 view .LVU940
1074:Drivers/STM32F7xx_HAL_Driver/Src/stm32f7xx_ll_usb.c ****     pDest++;
 2732              		.loc 1 1074 5 discriminator 3 view .LVU941
1075:Drivers/STM32F7xx_HAL_Driver/Src/stm32f7xx_ll_usb.c ****     pDest++;
 2733              		.loc 1 1075 5 discriminator 3 view .LVU942
1076:Drivers/STM32F7xx_HAL_Driver/Src/stm32f7xx_ll_usb.c ****   }
 2734              		.loc 1 1076 5 discriminator 3 view .LVU943
1070:Drivers/STM32F7xx_HAL_Driver/Src/stm32f7xx_ll_usb.c ****   {
 2735              		.loc 1 1070 31 discriminator 3 view .LVU944
 2736 001c 0133     		adds	r3, r3, #1
 2737              	.LVL178:
 2738              	.L189:
1070:Drivers/STM32F7xx_HAL_Driver/Src/stm32f7xx_ll_usb.c ****   {
 2739              		.loc 1 1070 18 discriminator 1 view .LVU945
 2740 001e 7345     		cmp	r3, lr
 2741 0020 F7D3     		bcc	.L190
1080:Drivers/STM32F7xx_HAL_Driver/Src/stm32f7xx_ll_usb.c ****   {
 2742              		.loc 1 1080 3 view .LVU946
1080:Drivers/STM32F7xx_HAL_Driver/Src/stm32f7xx_ll_usb.c ****   {
 2743              		.loc 1 1080 6 is_stmt 0 view .LVU947
 2744 0022 7AB1     		cbz	r2, .L191
1082:Drivers/STM32F7xx_HAL_Driver/Src/stm32f7xx_ll_usb.c ****     __UNALIGNED_UINT32_WRITE(&pData, USBx_DFIFO(0U));
 2745              		.loc 1 1082 5 is_stmt 1 view .LVU948
 2746              	.LVL179:
1083:Drivers/STM32F7xx_HAL_Driver/Src/stm32f7xx_ll_usb.c **** 
 2747              		.loc 1 1083 5 view .LVU949
 2748 0024 0CF5805C 		add	ip, ip, #4096
 2749              	.LVL180:
1083:Drivers/STM32F7xx_HAL_Driver/Src/stm32f7xx_ll_usb.c **** 
ARM GAS  C:\Users\benny\AppData\Local\Temp\ccHko7Bj.s 			page 91


 2750              		.loc 1 1083 5 is_stmt 0 view .LVU950
 2751 0028 DCF80040 		ldr	r4, [ip]
1082:Drivers/STM32F7xx_HAL_Driver/Src/stm32f7xx_ll_usb.c ****     __UNALIGNED_UINT32_WRITE(&pData, USBx_DFIFO(0U));
 2752              		.loc 1 1082 7 view .LVU951
 2753 002c 0021     		movs	r1, #0
 2754              	.LVL181:
 2755              	.L192:
1085:Drivers/STM32F7xx_HAL_Driver/Src/stm32f7xx_ll_usb.c ****     {
 2756              		.loc 1 1085 5 is_stmt 1 discriminator 1 view .LVU952
1087:Drivers/STM32F7xx_HAL_Driver/Src/stm32f7xx_ll_usb.c ****       i++;
 2757              		.loc 1 1087 7 discriminator 1 view .LVU953
1087:Drivers/STM32F7xx_HAL_Driver/Src/stm32f7xx_ll_usb.c ****       i++;
 2758              		.loc 1 1087 50 is_stmt 0 discriminator 1 view .LVU954
 2759 002e CBB2     		uxtb	r3, r1
 2760 0030 DB00     		lsls	r3, r3, #3
1087:Drivers/STM32F7xx_HAL_Driver/Src/stm32f7xx_ll_usb.c ****       i++;
 2761              		.loc 1 1087 43 discriminator 1 view .LVU955
 2762 0032 24FA03F3 		lsr	r3, r4, r3
1087:Drivers/STM32F7xx_HAL_Driver/Src/stm32f7xx_ll_usb.c ****       i++;
 2763              		.loc 1 1087 25 discriminator 1 view .LVU956
 2764 0036 00F8013B 		strb	r3, [r0], #1
 2765              	.LVL182:
1088:Drivers/STM32F7xx_HAL_Driver/Src/stm32f7xx_ll_usb.c ****       pDest++;
 2766              		.loc 1 1088 7 is_stmt 1 discriminator 1 view .LVU957
1088:Drivers/STM32F7xx_HAL_Driver/Src/stm32f7xx_ll_usb.c ****       pDest++;
 2767              		.loc 1 1088 8 is_stmt 0 discriminator 1 view .LVU958
 2768 003a 0131     		adds	r1, r1, #1
 2769              	.LVL183:
1089:Drivers/STM32F7xx_HAL_Driver/Src/stm32f7xx_ll_usb.c ****       remaining_bytes--;
 2770              		.loc 1 1089 7 is_stmt 1 discriminator 1 view .LVU959
1090:Drivers/STM32F7xx_HAL_Driver/Src/stm32f7xx_ll_usb.c ****     } while (remaining_bytes != 0U);
 2771              		.loc 1 1090 7 discriminator 1 view .LVU960
1090:Drivers/STM32F7xx_HAL_Driver/Src/stm32f7xx_ll_usb.c ****     } while (remaining_bytes != 0U);
 2772              		.loc 1 1090 22 is_stmt 0 discriminator 1 view .LVU961
 2773 003c 013A     		subs	r2, r2, #1
 2774              	.LVL184:
1090:Drivers/STM32F7xx_HAL_Driver/Src/stm32f7xx_ll_usb.c ****     } while (remaining_bytes != 0U);
 2775              		.loc 1 1090 22 discriminator 1 view .LVU962
 2776 003e 92B2     		uxth	r2, r2
 2777              	.LVL185:
1091:Drivers/STM32F7xx_HAL_Driver/Src/stm32f7xx_ll_usb.c ****   }
 2778              		.loc 1 1091 30 is_stmt 1 discriminator 1 view .LVU963
 2779 0040 002A     		cmp	r2, #0
 2780 0042 F4D1     		bne	.L192
 2781              	.LVL186:
 2782              	.L191:
1094:Drivers/STM32F7xx_HAL_Driver/Src/stm32f7xx_ll_usb.c **** }
 2783              		.loc 1 1094 3 view .LVU964
1095:Drivers/STM32F7xx_HAL_Driver/Src/stm32f7xx_ll_usb.c **** 
 2784              		.loc 1 1095 1 is_stmt 0 view .LVU965
 2785 0044 10BD     		pop	{r4, pc}
 2786              		.cfi_endproc
 2787              	.LFE158:
 2789              		.section	.text.USB_EPSetStall,"ax",%progbits
 2790              		.align	1
 2791              		.global	USB_EPSetStall
 2792              		.syntax unified
ARM GAS  C:\Users\benny\AppData\Local\Temp\ccHko7Bj.s 			page 92


 2793              		.thumb
 2794              		.thumb_func
 2796              	USB_EPSetStall:
 2797              	.LVL187:
 2798              	.LFB159:
1104:Drivers/STM32F7xx_HAL_Driver/Src/stm32f7xx_ll_usb.c ****   uint32_t USBx_BASE = (uint32_t)USBx;
 2799              		.loc 1 1104 1 is_stmt 1 view -0
 2800              		.cfi_startproc
 2801              		@ args = 0, pretend = 0, frame = 0
 2802              		@ frame_needed = 0, uses_anonymous_args = 0
 2803              		@ link register save eliminated.
1105:Drivers/STM32F7xx_HAL_Driver/Src/stm32f7xx_ll_usb.c ****   uint32_t epnum = (uint32_t)ep->num;
 2804              		.loc 1 1105 3 view .LVU967
1106:Drivers/STM32F7xx_HAL_Driver/Src/stm32f7xx_ll_usb.c **** 
 2805              		.loc 1 1106 3 view .LVU968
1106:Drivers/STM32F7xx_HAL_Driver/Src/stm32f7xx_ll_usb.c **** 
 2806              		.loc 1 1106 32 is_stmt 0 view .LVU969
 2807 0000 0B78     		ldrb	r3, [r1]	@ zero_extendqisi2
 2808              	.LVL188:
1108:Drivers/STM32F7xx_HAL_Driver/Src/stm32f7xx_ll_usb.c ****   {
 2809              		.loc 1 1108 3 is_stmt 1 view .LVU970
1108:Drivers/STM32F7xx_HAL_Driver/Src/stm32f7xx_ll_usb.c ****   {
 2810              		.loc 1 1108 9 is_stmt 0 view .LVU971
 2811 0002 4A78     		ldrb	r2, [r1, #1]	@ zero_extendqisi2
1108:Drivers/STM32F7xx_HAL_Driver/Src/stm32f7xx_ll_usb.c ****   {
 2812              		.loc 1 1108 6 view .LVU972
 2813 0004 012A     		cmp	r2, #1
 2814 0006 14D0     		beq	.L199
1118:Drivers/STM32F7xx_HAL_Driver/Src/stm32f7xx_ll_usb.c ****     {
 2815              		.loc 1 1118 5 is_stmt 1 view .LVU973
1118:Drivers/STM32F7xx_HAL_Driver/Src/stm32f7xx_ll_usb.c ****     {
 2816              		.loc 1 1118 11 is_stmt 0 view .LVU974
 2817 0008 00EB4310 		add	r0, r0, r3, lsl #5
 2818              	.LVL189:
1118:Drivers/STM32F7xx_HAL_Driver/Src/stm32f7xx_ll_usb.c ****     {
 2819              		.loc 1 1118 28 view .LVU975
 2820 000c D0F8002B 		ldr	r2, [r0, #2816]
1118:Drivers/STM32F7xx_HAL_Driver/Src/stm32f7xx_ll_usb.c ****     {
 2821              		.loc 1 1118 8 view .LVU976
 2822 0010 002A     		cmp	r2, #0
 2823 0012 06DB     		blt	.L198
1118:Drivers/STM32F7xx_HAL_Driver/Src/stm32f7xx_ll_usb.c ****     {
 2824              		.loc 1 1118 70 discriminator 1 view .LVU977
 2825 0014 2BB1     		cbz	r3, .L198
1120:Drivers/STM32F7xx_HAL_Driver/Src/stm32f7xx_ll_usb.c ****     }
 2826              		.loc 1 1120 7 is_stmt 1 view .LVU978
1120:Drivers/STM32F7xx_HAL_Driver/Src/stm32f7xx_ll_usb.c ****     }
 2827              		.loc 1 1120 24 is_stmt 0 view .LVU979
 2828 0016 D0F8003B 		ldr	r3, [r0, #2816]
 2829              	.LVL190:
1120:Drivers/STM32F7xx_HAL_Driver/Src/stm32f7xx_ll_usb.c ****     }
 2830              		.loc 1 1120 34 view .LVU980
 2831 001a 23F08043 		bic	r3, r3, #1073741824
 2832 001e C0F8003B 		str	r3, [r0, #2816]
 2833              	.LVL191:
 2834              	.L198:
1122:Drivers/STM32F7xx_HAL_Driver/Src/stm32f7xx_ll_usb.c ****   }
ARM GAS  C:\Users\benny\AppData\Local\Temp\ccHko7Bj.s 			page 93


 2835              		.loc 1 1122 5 is_stmt 1 view .LVU981
1122:Drivers/STM32F7xx_HAL_Driver/Src/stm32f7xx_ll_usb.c ****   }
 2836              		.loc 1 1122 22 is_stmt 0 view .LVU982
 2837 0022 D0F8003B 		ldr	r3, [r0, #2816]
1122:Drivers/STM32F7xx_HAL_Driver/Src/stm32f7xx_ll_usb.c ****   }
 2838              		.loc 1 1122 32 view .LVU983
 2839 0026 43F40013 		orr	r3, r3, #2097152
 2840 002a C0F8003B 		str	r3, [r0, #2816]
 2841              	.L197:
1125:Drivers/STM32F7xx_HAL_Driver/Src/stm32f7xx_ll_usb.c **** }
 2842              		.loc 1 1125 3 is_stmt 1 view .LVU984
1126:Drivers/STM32F7xx_HAL_Driver/Src/stm32f7xx_ll_usb.c **** 
 2843              		.loc 1 1126 1 is_stmt 0 view .LVU985
 2844 002e 0020     		movs	r0, #0
 2845 0030 7047     		bx	lr
 2846              	.LVL192:
 2847              	.L199:
1110:Drivers/STM32F7xx_HAL_Driver/Src/stm32f7xx_ll_usb.c ****     {
 2848              		.loc 1 1110 5 is_stmt 1 view .LVU986
1110:Drivers/STM32F7xx_HAL_Driver/Src/stm32f7xx_ll_usb.c ****     {
 2849              		.loc 1 1110 11 is_stmt 0 view .LVU987
 2850 0032 00EB4310 		add	r0, r0, r3, lsl #5
 2851              	.LVL193:
1110:Drivers/STM32F7xx_HAL_Driver/Src/stm32f7xx_ll_usb.c ****     {
 2852              		.loc 1 1110 27 view .LVU988
 2853 0036 D0F80029 		ldr	r2, [r0, #2304]
1110:Drivers/STM32F7xx_HAL_Driver/Src/stm32f7xx_ll_usb.c ****     {
 2854              		.loc 1 1110 8 view .LVU989
 2855 003a 002A     		cmp	r2, #0
 2856 003c 06DB     		blt	.L196
1110:Drivers/STM32F7xx_HAL_Driver/Src/stm32f7xx_ll_usb.c ****     {
 2857              		.loc 1 1110 69 discriminator 1 view .LVU990
 2858 003e 2BB1     		cbz	r3, .L196
1112:Drivers/STM32F7xx_HAL_Driver/Src/stm32f7xx_ll_usb.c ****     }
 2859              		.loc 1 1112 7 is_stmt 1 view .LVU991
1112:Drivers/STM32F7xx_HAL_Driver/Src/stm32f7xx_ll_usb.c ****     }
 2860              		.loc 1 1112 23 is_stmt 0 view .LVU992
 2861 0040 D0F80039 		ldr	r3, [r0, #2304]
 2862              	.LVL194:
1112:Drivers/STM32F7xx_HAL_Driver/Src/stm32f7xx_ll_usb.c ****     }
 2863              		.loc 1 1112 33 view .LVU993
 2864 0044 23F08043 		bic	r3, r3, #1073741824
 2865 0048 C0F80039 		str	r3, [r0, #2304]
 2866              	.LVL195:
 2867              	.L196:
1114:Drivers/STM32F7xx_HAL_Driver/Src/stm32f7xx_ll_usb.c ****   }
 2868              		.loc 1 1114 5 is_stmt 1 view .LVU994
1114:Drivers/STM32F7xx_HAL_Driver/Src/stm32f7xx_ll_usb.c ****   }
 2869              		.loc 1 1114 21 is_stmt 0 view .LVU995
 2870 004c D0F80039 		ldr	r3, [r0, #2304]
1114:Drivers/STM32F7xx_HAL_Driver/Src/stm32f7xx_ll_usb.c ****   }
 2871              		.loc 1 1114 31 view .LVU996
 2872 0050 43F40013 		orr	r3, r3, #2097152
 2873 0054 C0F80039 		str	r3, [r0, #2304]
 2874 0058 E9E7     		b	.L197
 2875              		.cfi_endproc
 2876              	.LFE159:
ARM GAS  C:\Users\benny\AppData\Local\Temp\ccHko7Bj.s 			page 94


 2878              		.section	.text.USB_EPClearStall,"ax",%progbits
 2879              		.align	1
 2880              		.global	USB_EPClearStall
 2881              		.syntax unified
 2882              		.thumb
 2883              		.thumb_func
 2885              	USB_EPClearStall:
 2886              	.LVL196:
 2887              	.LFB160:
1135:Drivers/STM32F7xx_HAL_Driver/Src/stm32f7xx_ll_usb.c ****   uint32_t USBx_BASE = (uint32_t)USBx;
 2888              		.loc 1 1135 1 is_stmt 1 view -0
 2889              		.cfi_startproc
 2890              		@ args = 0, pretend = 0, frame = 0
 2891              		@ frame_needed = 0, uses_anonymous_args = 0
 2892              		@ link register save eliminated.
1136:Drivers/STM32F7xx_HAL_Driver/Src/stm32f7xx_ll_usb.c ****   uint32_t epnum = (uint32_t)ep->num;
 2893              		.loc 1 1136 3 view .LVU998
1137:Drivers/STM32F7xx_HAL_Driver/Src/stm32f7xx_ll_usb.c **** 
 2894              		.loc 1 1137 3 view .LVU999
1137:Drivers/STM32F7xx_HAL_Driver/Src/stm32f7xx_ll_usb.c **** 
 2895              		.loc 1 1137 32 is_stmt 0 view .LVU1000
 2896 0000 0B78     		ldrb	r3, [r1]	@ zero_extendqisi2
 2897              	.LVL197:
1139:Drivers/STM32F7xx_HAL_Driver/Src/stm32f7xx_ll_usb.c ****   {
 2898              		.loc 1 1139 3 is_stmt 1 view .LVU1001
1139:Drivers/STM32F7xx_HAL_Driver/Src/stm32f7xx_ll_usb.c ****   {
 2899              		.loc 1 1139 9 is_stmt 0 view .LVU1002
 2900 0002 4A78     		ldrb	r2, [r1, #1]	@ zero_extendqisi2
1139:Drivers/STM32F7xx_HAL_Driver/Src/stm32f7xx_ll_usb.c ****   {
 2901              		.loc 1 1139 6 view .LVU1003
 2902 0004 012A     		cmp	r2, #1
 2903 0006 0ED0     		beq	.L203
1149:Drivers/STM32F7xx_HAL_Driver/Src/stm32f7xx_ll_usb.c ****     if ((ep->type == EP_TYPE_INTR) || (ep->type == EP_TYPE_BULK))
 2904              		.loc 1 1149 5 is_stmt 1 view .LVU1004
1149:Drivers/STM32F7xx_HAL_Driver/Src/stm32f7xx_ll_usb.c ****     if ((ep->type == EP_TYPE_INTR) || (ep->type == EP_TYPE_BULK))
 2905              		.loc 1 1149 22 is_stmt 0 view .LVU1005
 2906 0008 00EB4310 		add	r0, r0, r3, lsl #5
 2907              	.LVL198:
1149:Drivers/STM32F7xx_HAL_Driver/Src/stm32f7xx_ll_usb.c ****     if ((ep->type == EP_TYPE_INTR) || (ep->type == EP_TYPE_BULK))
 2908              		.loc 1 1149 22 view .LVU1006
 2909 000c D0F8003B 		ldr	r3, [r0, #2816]
 2910              	.LVL199:
1149:Drivers/STM32F7xx_HAL_Driver/Src/stm32f7xx_ll_usb.c ****     if ((ep->type == EP_TYPE_INTR) || (ep->type == EP_TYPE_BULK))
 2911              		.loc 1 1149 32 view .LVU1007
 2912 0010 23F40013 		bic	r3, r3, #2097152
 2913 0014 C0F8003B 		str	r3, [r0, #2816]
 2914              	.LVL200:
1150:Drivers/STM32F7xx_HAL_Driver/Src/stm32f7xx_ll_usb.c ****     {
 2915              		.loc 1 1150 5 is_stmt 1 view .LVU1008
1150:Drivers/STM32F7xx_HAL_Driver/Src/stm32f7xx_ll_usb.c ****     {
 2916              		.loc 1 1150 12 is_stmt 0 view .LVU1009
 2917 0018 0B79     		ldrb	r3, [r1, #4]	@ zero_extendqisi2
1150:Drivers/STM32F7xx_HAL_Driver/Src/stm32f7xx_ll_usb.c ****     {
 2918              		.loc 1 1150 36 view .LVU1010
 2919 001a 023B     		subs	r3, r3, #2
 2920 001c DBB2     		uxtb	r3, r3
1150:Drivers/STM32F7xx_HAL_Driver/Src/stm32f7xx_ll_usb.c ****     {
ARM GAS  C:\Users\benny\AppData\Local\Temp\ccHko7Bj.s 			page 95


 2921              		.loc 1 1150 8 view .LVU1011
 2922 001e 012B     		cmp	r3, #1
 2923 0020 15D9     		bls	.L204
 2924              	.L202:
1155:Drivers/STM32F7xx_HAL_Driver/Src/stm32f7xx_ll_usb.c **** }
 2925              		.loc 1 1155 3 is_stmt 1 view .LVU1012
1156:Drivers/STM32F7xx_HAL_Driver/Src/stm32f7xx_ll_usb.c **** 
 2926              		.loc 1 1156 1 is_stmt 0 view .LVU1013
 2927 0022 0020     		movs	r0, #0
 2928 0024 7047     		bx	lr
 2929              	.LVL201:
 2930              	.L203:
1141:Drivers/STM32F7xx_HAL_Driver/Src/stm32f7xx_ll_usb.c ****     if ((ep->type == EP_TYPE_INTR) || (ep->type == EP_TYPE_BULK))
 2931              		.loc 1 1141 5 is_stmt 1 view .LVU1014
1141:Drivers/STM32F7xx_HAL_Driver/Src/stm32f7xx_ll_usb.c ****     if ((ep->type == EP_TYPE_INTR) || (ep->type == EP_TYPE_BULK))
 2932              		.loc 1 1141 21 is_stmt 0 view .LVU1015
 2933 0026 00EB4310 		add	r0, r0, r3, lsl #5
 2934              	.LVL202:
1141:Drivers/STM32F7xx_HAL_Driver/Src/stm32f7xx_ll_usb.c ****     if ((ep->type == EP_TYPE_INTR) || (ep->type == EP_TYPE_BULK))
 2935              		.loc 1 1141 21 view .LVU1016
 2936 002a D0F80039 		ldr	r3, [r0, #2304]
 2937              	.LVL203:
1141:Drivers/STM32F7xx_HAL_Driver/Src/stm32f7xx_ll_usb.c ****     if ((ep->type == EP_TYPE_INTR) || (ep->type == EP_TYPE_BULK))
 2938              		.loc 1 1141 31 view .LVU1017
 2939 002e 23F40013 		bic	r3, r3, #2097152
 2940 0032 C0F80039 		str	r3, [r0, #2304]
 2941              	.LVL204:
1142:Drivers/STM32F7xx_HAL_Driver/Src/stm32f7xx_ll_usb.c ****     {
 2942              		.loc 1 1142 5 is_stmt 1 view .LVU1018
1142:Drivers/STM32F7xx_HAL_Driver/Src/stm32f7xx_ll_usb.c ****     {
 2943              		.loc 1 1142 12 is_stmt 0 view .LVU1019
 2944 0036 0B79     		ldrb	r3, [r1, #4]	@ zero_extendqisi2
1142:Drivers/STM32F7xx_HAL_Driver/Src/stm32f7xx_ll_usb.c ****     {
 2945              		.loc 1 1142 36 view .LVU1020
 2946 0038 023B     		subs	r3, r3, #2
 2947 003a DBB2     		uxtb	r3, r3
1142:Drivers/STM32F7xx_HAL_Driver/Src/stm32f7xx_ll_usb.c ****     {
 2948              		.loc 1 1142 8 view .LVU1021
 2949 003c 012B     		cmp	r3, #1
 2950 003e F0D8     		bhi	.L202
1144:Drivers/STM32F7xx_HAL_Driver/Src/stm32f7xx_ll_usb.c ****     }
 2951              		.loc 1 1144 7 is_stmt 1 view .LVU1022
1144:Drivers/STM32F7xx_HAL_Driver/Src/stm32f7xx_ll_usb.c ****     }
 2952              		.loc 1 1144 23 is_stmt 0 view .LVU1023
 2953 0040 D0F80039 		ldr	r3, [r0, #2304]
1144:Drivers/STM32F7xx_HAL_Driver/Src/stm32f7xx_ll_usb.c ****     }
 2954              		.loc 1 1144 33 view .LVU1024
 2955 0044 43F08053 		orr	r3, r3, #268435456
 2956 0048 C0F80039 		str	r3, [r0, #2304]
 2957 004c E9E7     		b	.L202
 2958              	.L204:
1152:Drivers/STM32F7xx_HAL_Driver/Src/stm32f7xx_ll_usb.c ****     }
 2959              		.loc 1 1152 7 is_stmt 1 view .LVU1025
1152:Drivers/STM32F7xx_HAL_Driver/Src/stm32f7xx_ll_usb.c ****     }
 2960              		.loc 1 1152 24 is_stmt 0 view .LVU1026
 2961 004e D0F8003B 		ldr	r3, [r0, #2816]
1152:Drivers/STM32F7xx_HAL_Driver/Src/stm32f7xx_ll_usb.c ****     }
ARM GAS  C:\Users\benny\AppData\Local\Temp\ccHko7Bj.s 			page 96


 2962              		.loc 1 1152 34 view .LVU1027
 2963 0052 43F08053 		orr	r3, r3, #268435456
 2964 0056 C0F8003B 		str	r3, [r0, #2816]
 2965 005a E2E7     		b	.L202
 2966              		.cfi_endproc
 2967              	.LFE160:
 2969              		.section	.text.USB_StopDevice,"ax",%progbits
 2970              		.align	1
 2971              		.global	USB_StopDevice
 2972              		.syntax unified
 2973              		.thumb
 2974              		.thumb_func
 2976              	USB_StopDevice:
 2977              	.LVL205:
 2978              	.LFB161:
1164:Drivers/STM32F7xx_HAL_Driver/Src/stm32f7xx_ll_usb.c ****   HAL_StatusTypeDef ret;
 2979              		.loc 1 1164 1 is_stmt 1 view -0
 2980              		.cfi_startproc
 2981              		@ args = 0, pretend = 0, frame = 0
 2982              		@ frame_needed = 0, uses_anonymous_args = 0
1164:Drivers/STM32F7xx_HAL_Driver/Src/stm32f7xx_ll_usb.c ****   HAL_StatusTypeDef ret;
 2983              		.loc 1 1164 1 is_stmt 0 view .LVU1029
 2984 0000 10B5     		push	{r4, lr}
 2985              	.LCFI40:
 2986              		.cfi_def_cfa_offset 8
 2987              		.cfi_offset 4, -8
 2988              		.cfi_offset 14, -4
 2989 0002 0446     		mov	r4, r0
1165:Drivers/STM32F7xx_HAL_Driver/Src/stm32f7xx_ll_usb.c ****   uint32_t USBx_BASE = (uint32_t)USBx;
 2990              		.loc 1 1165 3 is_stmt 1 view .LVU1030
1166:Drivers/STM32F7xx_HAL_Driver/Src/stm32f7xx_ll_usb.c ****   uint32_t i;
 2991              		.loc 1 1166 3 view .LVU1031
 2992              	.LVL206:
1167:Drivers/STM32F7xx_HAL_Driver/Src/stm32f7xx_ll_usb.c **** 
 2993              		.loc 1 1167 3 view .LVU1032
1170:Drivers/STM32F7xx_HAL_Driver/Src/stm32f7xx_ll_usb.c ****   {
 2994              		.loc 1 1170 3 view .LVU1033
1170:Drivers/STM32F7xx_HAL_Driver/Src/stm32f7xx_ll_usb.c ****   {
 2995              		.loc 1 1170 10 is_stmt 0 view .LVU1034
 2996 0004 0022     		movs	r2, #0
1170:Drivers/STM32F7xx_HAL_Driver/Src/stm32f7xx_ll_usb.c ****   {
 2997              		.loc 1 1170 3 view .LVU1035
 2998 0006 08E0     		b	.L206
 2999              	.LVL207:
 3000              	.L207:
1172:Drivers/STM32F7xx_HAL_Driver/Src/stm32f7xx_ll_usb.c ****     USBx_OUTEP(i)->DOEPINT = 0xFB7FU;
 3001              		.loc 1 1172 5 is_stmt 1 discriminator 3 view .LVU1036
 3002 0008 04EB4213 		add	r3, r4, r2, lsl #5
1172:Drivers/STM32F7xx_HAL_Driver/Src/stm32f7xx_ll_usb.c ****     USBx_OUTEP(i)->DOEPINT = 0xFB7FU;
 3003              		.loc 1 1172 27 is_stmt 0 discriminator 3 view .LVU1037
 3004 000c 4FF67F31 		movw	r1, #64383
 3005 0010 C3F80819 		str	r1, [r3, #2312]
1173:Drivers/STM32F7xx_HAL_Driver/Src/stm32f7xx_ll_usb.c ****   }
 3006              		.loc 1 1173 5 is_stmt 1 discriminator 3 view .LVU1038
1173:Drivers/STM32F7xx_HAL_Driver/Src/stm32f7xx_ll_usb.c ****   }
 3007              		.loc 1 1173 28 is_stmt 0 discriminator 3 view .LVU1039
 3008 0014 C3F8081B 		str	r1, [r3, #2824]
ARM GAS  C:\Users\benny\AppData\Local\Temp\ccHko7Bj.s 			page 97


1170:Drivers/STM32F7xx_HAL_Driver/Src/stm32f7xx_ll_usb.c ****   {
 3009              		.loc 1 1170 26 is_stmt 1 discriminator 3 view .LVU1040
 3010 0018 0132     		adds	r2, r2, #1
 3011              	.LVL208:
 3012              	.L206:
1170:Drivers/STM32F7xx_HAL_Driver/Src/stm32f7xx_ll_usb.c ****   {
 3013              		.loc 1 1170 18 discriminator 1 view .LVU1041
 3014 001a 0E2A     		cmp	r2, #14
 3015 001c F4D9     		bls	.L207
1177:Drivers/STM32F7xx_HAL_Driver/Src/stm32f7xx_ll_usb.c ****   USBx_DEVICE->DOEPMSK  = 0U;
 3016              		.loc 1 1177 3 view .LVU1042
1177:Drivers/STM32F7xx_HAL_Driver/Src/stm32f7xx_ll_usb.c ****   USBx_DEVICE->DOEPMSK  = 0U;
 3017              		.loc 1 1177 25 is_stmt 0 view .LVU1043
 3018 001e 0022     		movs	r2, #0
 3019              	.LVL209:
1177:Drivers/STM32F7xx_HAL_Driver/Src/stm32f7xx_ll_usb.c ****   USBx_DEVICE->DOEPMSK  = 0U;
 3020              		.loc 1 1177 25 view .LVU1044
 3021 0020 C4F81028 		str	r2, [r4, #2064]
1178:Drivers/STM32F7xx_HAL_Driver/Src/stm32f7xx_ll_usb.c ****   USBx_DEVICE->DAINTMSK = 0U;
 3022              		.loc 1 1178 3 is_stmt 1 view .LVU1045
1178:Drivers/STM32F7xx_HAL_Driver/Src/stm32f7xx_ll_usb.c ****   USBx_DEVICE->DAINTMSK = 0U;
 3023              		.loc 1 1178 25 is_stmt 0 view .LVU1046
 3024 0024 C4F81428 		str	r2, [r4, #2068]
1179:Drivers/STM32F7xx_HAL_Driver/Src/stm32f7xx_ll_usb.c **** 
 3025              		.loc 1 1179 3 is_stmt 1 view .LVU1047
1179:Drivers/STM32F7xx_HAL_Driver/Src/stm32f7xx_ll_usb.c **** 
 3026              		.loc 1 1179 25 is_stmt 0 view .LVU1048
 3027 0028 C4F81C28 		str	r2, [r4, #2076]
1182:Drivers/STM32F7xx_HAL_Driver/Src/stm32f7xx_ll_usb.c ****   if (ret != HAL_OK)
 3028              		.loc 1 1182 3 is_stmt 1 view .LVU1049
1182:Drivers/STM32F7xx_HAL_Driver/Src/stm32f7xx_ll_usb.c ****   if (ret != HAL_OK)
 3029              		.loc 1 1182 9 is_stmt 0 view .LVU1050
 3030 002c 2046     		mov	r0, r4
 3031              	.LVL210:
1182:Drivers/STM32F7xx_HAL_Driver/Src/stm32f7xx_ll_usb.c ****   if (ret != HAL_OK)
 3032              		.loc 1 1182 9 view .LVU1051
 3033 002e FFF7FEFF 		bl	USB_FlushRxFifo
 3034              	.LVL211:
1183:Drivers/STM32F7xx_HAL_Driver/Src/stm32f7xx_ll_usb.c ****   {
 3035              		.loc 1 1183 3 is_stmt 1 view .LVU1052
1183:Drivers/STM32F7xx_HAL_Driver/Src/stm32f7xx_ll_usb.c ****   {
 3036              		.loc 1 1183 6 is_stmt 0 view .LVU1053
 3037 0032 00B1     		cbz	r0, .L210
 3038              	.L208:
1195:Drivers/STM32F7xx_HAL_Driver/Src/stm32f7xx_ll_usb.c **** 
 3039              		.loc 1 1195 1 view .LVU1054
 3040 0034 10BD     		pop	{r4, pc}
 3041              	.LVL212:
 3042              	.L210:
1188:Drivers/STM32F7xx_HAL_Driver/Src/stm32f7xx_ll_usb.c ****   if (ret != HAL_OK)
 3043              		.loc 1 1188 3 is_stmt 1 view .LVU1055
1188:Drivers/STM32F7xx_HAL_Driver/Src/stm32f7xx_ll_usb.c ****   if (ret != HAL_OK)
 3044              		.loc 1 1188 9 is_stmt 0 view .LVU1056
 3045 0036 1021     		movs	r1, #16
 3046 0038 2046     		mov	r0, r4
 3047              	.LVL213:
1188:Drivers/STM32F7xx_HAL_Driver/Src/stm32f7xx_ll_usb.c ****   if (ret != HAL_OK)
ARM GAS  C:\Users\benny\AppData\Local\Temp\ccHko7Bj.s 			page 98


 3048              		.loc 1 1188 9 view .LVU1057
 3049 003a FFF7FEFF 		bl	USB_FlushTxFifo
 3050              	.LVL214:
1189:Drivers/STM32F7xx_HAL_Driver/Src/stm32f7xx_ll_usb.c ****   {
 3051              		.loc 1 1189 3 is_stmt 1 view .LVU1058
 3052 003e F9E7     		b	.L208
 3053              		.cfi_endproc
 3054              	.LFE161:
 3056              		.section	.text.USB_SetDevAddress,"ax",%progbits
 3057              		.align	1
 3058              		.global	USB_SetDevAddress
 3059              		.syntax unified
 3060              		.thumb
 3061              		.thumb_func
 3063              	USB_SetDevAddress:
 3064              	.LVL215:
 3065              	.LFB162:
1205:Drivers/STM32F7xx_HAL_Driver/Src/stm32f7xx_ll_usb.c ****   uint32_t USBx_BASE = (uint32_t)USBx;
 3066              		.loc 1 1205 1 view -0
 3067              		.cfi_startproc
 3068              		@ args = 0, pretend = 0, frame = 0
 3069              		@ frame_needed = 0, uses_anonymous_args = 0
 3070              		@ link register save eliminated.
1206:Drivers/STM32F7xx_HAL_Driver/Src/stm32f7xx_ll_usb.c **** 
 3071              		.loc 1 1206 3 view .LVU1060
1208:Drivers/STM32F7xx_HAL_Driver/Src/stm32f7xx_ll_usb.c ****   USBx_DEVICE->DCFG |= ((uint32_t)address << 4) & USB_OTG_DCFG_DAD;
 3072              		.loc 1 1208 3 view .LVU1061
1208:Drivers/STM32F7xx_HAL_Driver/Src/stm32f7xx_ll_usb.c ****   USBx_DEVICE->DCFG |= ((uint32_t)address << 4) & USB_OTG_DCFG_DAD;
 3073              		.loc 1 1208 14 is_stmt 0 view .LVU1062
 3074 0000 D0F80038 		ldr	r3, [r0, #2048]
1208:Drivers/STM32F7xx_HAL_Driver/Src/stm32f7xx_ll_usb.c ****   USBx_DEVICE->DCFG |= ((uint32_t)address << 4) & USB_OTG_DCFG_DAD;
 3075              		.loc 1 1208 21 view .LVU1063
 3076 0004 23F4FE63 		bic	r3, r3, #2032
 3077 0008 C0F80038 		str	r3, [r0, #2048]
1209:Drivers/STM32F7xx_HAL_Driver/Src/stm32f7xx_ll_usb.c **** 
 3078              		.loc 1 1209 3 is_stmt 1 view .LVU1064
1209:Drivers/STM32F7xx_HAL_Driver/Src/stm32f7xx_ll_usb.c **** 
 3079              		.loc 1 1209 14 is_stmt 0 view .LVU1065
 3080 000c D0F80038 		ldr	r3, [r0, #2048]
1209:Drivers/STM32F7xx_HAL_Driver/Src/stm32f7xx_ll_usb.c **** 
 3081              		.loc 1 1209 43 view .LVU1066
 3082 0010 0901     		lsls	r1, r1, #4
 3083              	.LVL216:
1209:Drivers/STM32F7xx_HAL_Driver/Src/stm32f7xx_ll_usb.c **** 
 3084              		.loc 1 1209 49 view .LVU1067
 3085 0012 01F4FE61 		and	r1, r1, #2032
1209:Drivers/STM32F7xx_HAL_Driver/Src/stm32f7xx_ll_usb.c **** 
 3086              		.loc 1 1209 21 view .LVU1068
 3087 0016 0B43     		orrs	r3, r3, r1
 3088 0018 C0F80038 		str	r3, [r0, #2048]
1211:Drivers/STM32F7xx_HAL_Driver/Src/stm32f7xx_ll_usb.c **** }
 3089              		.loc 1 1211 3 is_stmt 1 view .LVU1069
1212:Drivers/STM32F7xx_HAL_Driver/Src/stm32f7xx_ll_usb.c **** 
 3090              		.loc 1 1212 1 is_stmt 0 view .LVU1070
 3091 001c 0020     		movs	r0, #0
 3092              	.LVL217:
1212:Drivers/STM32F7xx_HAL_Driver/Src/stm32f7xx_ll_usb.c **** 
ARM GAS  C:\Users\benny\AppData\Local\Temp\ccHko7Bj.s 			page 99


 3093              		.loc 1 1212 1 view .LVU1071
 3094 001e 7047     		bx	lr
 3095              		.cfi_endproc
 3096              	.LFE162:
 3098              		.section	.text.USB_DevConnect,"ax",%progbits
 3099              		.align	1
 3100              		.global	USB_DevConnect
 3101              		.syntax unified
 3102              		.thumb
 3103              		.thumb_func
 3105              	USB_DevConnect:
 3106              	.LVL218:
 3107              	.LFB163:
1220:Drivers/STM32F7xx_HAL_Driver/Src/stm32f7xx_ll_usb.c ****   uint32_t USBx_BASE = (uint32_t)USBx;
 3108              		.loc 1 1220 1 is_stmt 1 view -0
 3109              		.cfi_startproc
 3110              		@ args = 0, pretend = 0, frame = 0
 3111              		@ frame_needed = 0, uses_anonymous_args = 0
 3112              		@ link register save eliminated.
1221:Drivers/STM32F7xx_HAL_Driver/Src/stm32f7xx_ll_usb.c **** 
 3113              		.loc 1 1221 3 view .LVU1073
1224:Drivers/STM32F7xx_HAL_Driver/Src/stm32f7xx_ll_usb.c **** 
 3114              		.loc 1 1224 3 view .LVU1074
 3115 0000 D0F8003E 		ldr	r3, [r0, #3584]
1224:Drivers/STM32F7xx_HAL_Driver/Src/stm32f7xx_ll_usb.c **** 
 3116              		.loc 1 1224 16 is_stmt 0 view .LVU1075
 3117 0004 23F00303 		bic	r3, r3, #3
 3118 0008 C0F8003E 		str	r3, [r0, #3584]
1226:Drivers/STM32F7xx_HAL_Driver/Src/stm32f7xx_ll_usb.c **** 
 3119              		.loc 1 1226 3 is_stmt 1 view .LVU1076
1226:Drivers/STM32F7xx_HAL_Driver/Src/stm32f7xx_ll_usb.c **** 
 3120              		.loc 1 1226 14 is_stmt 0 view .LVU1077
 3121 000c D0F80438 		ldr	r3, [r0, #2052]
1226:Drivers/STM32F7xx_HAL_Driver/Src/stm32f7xx_ll_usb.c **** 
 3122              		.loc 1 1226 21 view .LVU1078
 3123 0010 23F00203 		bic	r3, r3, #2
 3124 0014 C0F80438 		str	r3, [r0, #2052]
1228:Drivers/STM32F7xx_HAL_Driver/Src/stm32f7xx_ll_usb.c **** }
 3125              		.loc 1 1228 3 is_stmt 1 view .LVU1079
1229:Drivers/STM32F7xx_HAL_Driver/Src/stm32f7xx_ll_usb.c **** 
 3126              		.loc 1 1229 1 is_stmt 0 view .LVU1080
 3127 0018 0020     		movs	r0, #0
 3128              	.LVL219:
1229:Drivers/STM32F7xx_HAL_Driver/Src/stm32f7xx_ll_usb.c **** 
 3129              		.loc 1 1229 1 view .LVU1081
 3130 001a 7047     		bx	lr
 3131              		.cfi_endproc
 3132              	.LFE163:
 3134              		.section	.text.USB_DevDisconnect,"ax",%progbits
 3135              		.align	1
 3136              		.global	USB_DevDisconnect
 3137              		.syntax unified
 3138              		.thumb
 3139              		.thumb_func
 3141              	USB_DevDisconnect:
 3142              	.LVL220:
 3143              	.LFB164:
ARM GAS  C:\Users\benny\AppData\Local\Temp\ccHko7Bj.s 			page 100


1237:Drivers/STM32F7xx_HAL_Driver/Src/stm32f7xx_ll_usb.c ****   uint32_t USBx_BASE = (uint32_t)USBx;
 3144              		.loc 1 1237 1 is_stmt 1 view -0
 3145              		.cfi_startproc
 3146              		@ args = 0, pretend = 0, frame = 0
 3147              		@ frame_needed = 0, uses_anonymous_args = 0
 3148              		@ link register save eliminated.
1238:Drivers/STM32F7xx_HAL_Driver/Src/stm32f7xx_ll_usb.c **** 
 3149              		.loc 1 1238 3 view .LVU1083
1241:Drivers/STM32F7xx_HAL_Driver/Src/stm32f7xx_ll_usb.c **** 
 3150              		.loc 1 1241 3 view .LVU1084
 3151 0000 D0F8003E 		ldr	r3, [r0, #3584]
1241:Drivers/STM32F7xx_HAL_Driver/Src/stm32f7xx_ll_usb.c **** 
 3152              		.loc 1 1241 16 is_stmt 0 view .LVU1085
 3153 0004 23F00303 		bic	r3, r3, #3
 3154 0008 C0F8003E 		str	r3, [r0, #3584]
1243:Drivers/STM32F7xx_HAL_Driver/Src/stm32f7xx_ll_usb.c **** 
 3155              		.loc 1 1243 3 is_stmt 1 view .LVU1086
1243:Drivers/STM32F7xx_HAL_Driver/Src/stm32f7xx_ll_usb.c **** 
 3156              		.loc 1 1243 14 is_stmt 0 view .LVU1087
 3157 000c D0F80438 		ldr	r3, [r0, #2052]
1243:Drivers/STM32F7xx_HAL_Driver/Src/stm32f7xx_ll_usb.c **** 
 3158              		.loc 1 1243 21 view .LVU1088
 3159 0010 43F00203 		orr	r3, r3, #2
 3160 0014 C0F80438 		str	r3, [r0, #2052]
1245:Drivers/STM32F7xx_HAL_Driver/Src/stm32f7xx_ll_usb.c **** }
 3161              		.loc 1 1245 3 is_stmt 1 view .LVU1089
1246:Drivers/STM32F7xx_HAL_Driver/Src/stm32f7xx_ll_usb.c **** 
 3162              		.loc 1 1246 1 is_stmt 0 view .LVU1090
 3163 0018 0020     		movs	r0, #0
 3164              	.LVL221:
1246:Drivers/STM32F7xx_HAL_Driver/Src/stm32f7xx_ll_usb.c **** 
 3165              		.loc 1 1246 1 view .LVU1091
 3166 001a 7047     		bx	lr
 3167              		.cfi_endproc
 3168              	.LFE164:
 3170              		.section	.text.USB_ReadInterrupts,"ax",%progbits
 3171              		.align	1
 3172              		.global	USB_ReadInterrupts
 3173              		.syntax unified
 3174              		.thumb
 3175              		.thumb_func
 3177              	USB_ReadInterrupts:
 3178              	.LVL222:
 3179              	.LFB165:
1254:Drivers/STM32F7xx_HAL_Driver/Src/stm32f7xx_ll_usb.c ****   uint32_t tmpreg;
 3180              		.loc 1 1254 1 is_stmt 1 view -0
 3181              		.cfi_startproc
 3182              		@ args = 0, pretend = 0, frame = 0
 3183              		@ frame_needed = 0, uses_anonymous_args = 0
 3184              		@ link register save eliminated.
1255:Drivers/STM32F7xx_HAL_Driver/Src/stm32f7xx_ll_usb.c **** 
 3185              		.loc 1 1255 3 view .LVU1093
1257:Drivers/STM32F7xx_HAL_Driver/Src/stm32f7xx_ll_usb.c ****   tmpreg &= USBx->GINTMSK;
 3186              		.loc 1 1257 3 view .LVU1094
1257:Drivers/STM32F7xx_HAL_Driver/Src/stm32f7xx_ll_usb.c ****   tmpreg &= USBx->GINTMSK;
 3187              		.loc 1 1257 10 is_stmt 0 view .LVU1095
 3188 0000 4269     		ldr	r2, [r0, #20]
ARM GAS  C:\Users\benny\AppData\Local\Temp\ccHko7Bj.s 			page 101


 3189              	.LVL223:
1258:Drivers/STM32F7xx_HAL_Driver/Src/stm32f7xx_ll_usb.c **** 
 3190              		.loc 1 1258 3 is_stmt 1 view .LVU1096
1258:Drivers/STM32F7xx_HAL_Driver/Src/stm32f7xx_ll_usb.c **** 
 3191              		.loc 1 1258 17 is_stmt 0 view .LVU1097
 3192 0002 8069     		ldr	r0, [r0, #24]
 3193              	.LVL224:
1260:Drivers/STM32F7xx_HAL_Driver/Src/stm32f7xx_ll_usb.c **** }
 3194              		.loc 1 1260 3 is_stmt 1 view .LVU1098
1261:Drivers/STM32F7xx_HAL_Driver/Src/stm32f7xx_ll_usb.c **** 
 3195              		.loc 1 1261 1 is_stmt 0 view .LVU1099
 3196 0004 1040     		ands	r0, r0, r2
 3197              	.LVL225:
1261:Drivers/STM32F7xx_HAL_Driver/Src/stm32f7xx_ll_usb.c **** 
 3198              		.loc 1 1261 1 view .LVU1100
 3199 0006 7047     		bx	lr
 3200              		.cfi_endproc
 3201              	.LFE165:
 3203              		.section	.text.USB_ReadChInterrupts,"ax",%progbits
 3204              		.align	1
 3205              		.global	USB_ReadChInterrupts
 3206              		.syntax unified
 3207              		.thumb
 3208              		.thumb_func
 3210              	USB_ReadChInterrupts:
 3211              	.LVL226:
 3212              	.LFB166:
1270:Drivers/STM32F7xx_HAL_Driver/Src/stm32f7xx_ll_usb.c ****   uint32_t USBx_BASE = (uint32_t)USBx;
 3213              		.loc 1 1270 1 is_stmt 1 view -0
 3214              		.cfi_startproc
 3215              		@ args = 0, pretend = 0, frame = 0
 3216              		@ frame_needed = 0, uses_anonymous_args = 0
 3217              		@ link register save eliminated.
1271:Drivers/STM32F7xx_HAL_Driver/Src/stm32f7xx_ll_usb.c ****   uint32_t tmpreg;
 3218              		.loc 1 1271 3 view .LVU1102
1272:Drivers/STM32F7xx_HAL_Driver/Src/stm32f7xx_ll_usb.c **** 
 3219              		.loc 1 1272 3 view .LVU1103
1274:Drivers/STM32F7xx_HAL_Driver/Src/stm32f7xx_ll_usb.c ****   tmpreg &= USBx_HC(chnum)->HCINTMSK;
 3220              		.loc 1 1274 3 view .LVU1104
1274:Drivers/STM32F7xx_HAL_Driver/Src/stm32f7xx_ll_usb.c ****   tmpreg &= USBx_HC(chnum)->HCINTMSK;
 3221              		.loc 1 1274 12 is_stmt 0 view .LVU1105
 3222 0000 00EB4110 		add	r0, r0, r1, lsl #5
 3223              	.LVL227:
1274:Drivers/STM32F7xx_HAL_Driver/Src/stm32f7xx_ll_usb.c ****   tmpreg &= USBx_HC(chnum)->HCINTMSK;
 3224              		.loc 1 1274 12 view .LVU1106
 3225 0004 00F5A063 		add	r3, r0, #1280
1274:Drivers/STM32F7xx_HAL_Driver/Src/stm32f7xx_ll_usb.c ****   tmpreg &= USBx_HC(chnum)->HCINTMSK;
 3226              		.loc 1 1274 10 view .LVU1107
 3227 0008 D0F80805 		ldr	r0, [r0, #1288]
 3228              	.LVL228:
1275:Drivers/STM32F7xx_HAL_Driver/Src/stm32f7xx_ll_usb.c **** 
 3229              		.loc 1 1275 3 is_stmt 1 view .LVU1108
1275:Drivers/STM32F7xx_HAL_Driver/Src/stm32f7xx_ll_usb.c **** 
 3230              		.loc 1 1275 27 is_stmt 0 view .LVU1109
 3231 000c DB68     		ldr	r3, [r3, #12]
 3232              	.LVL229:
1277:Drivers/STM32F7xx_HAL_Driver/Src/stm32f7xx_ll_usb.c **** }
ARM GAS  C:\Users\benny\AppData\Local\Temp\ccHko7Bj.s 			page 102


 3233              		.loc 1 1277 3 is_stmt 1 view .LVU1110
1278:Drivers/STM32F7xx_HAL_Driver/Src/stm32f7xx_ll_usb.c **** 
 3234              		.loc 1 1278 1 is_stmt 0 view .LVU1111
 3235 000e 1840     		ands	r0, r0, r3
 3236              	.LVL230:
1278:Drivers/STM32F7xx_HAL_Driver/Src/stm32f7xx_ll_usb.c **** 
 3237              		.loc 1 1278 1 view .LVU1112
 3238 0010 7047     		bx	lr
 3239              		.cfi_endproc
 3240              	.LFE166:
 3242              		.section	.text.USB_ReadDevAllOutEpInterrupt,"ax",%progbits
 3243              		.align	1
 3244              		.global	USB_ReadDevAllOutEpInterrupt
 3245              		.syntax unified
 3246              		.thumb
 3247              		.thumb_func
 3249              	USB_ReadDevAllOutEpInterrupt:
 3250              	.LVL231:
 3251              	.LFB167:
1286:Drivers/STM32F7xx_HAL_Driver/Src/stm32f7xx_ll_usb.c ****   uint32_t USBx_BASE = (uint32_t)USBx;
 3252              		.loc 1 1286 1 is_stmt 1 view -0
 3253              		.cfi_startproc
 3254              		@ args = 0, pretend = 0, frame = 0
 3255              		@ frame_needed = 0, uses_anonymous_args = 0
 3256              		@ link register save eliminated.
1287:Drivers/STM32F7xx_HAL_Driver/Src/stm32f7xx_ll_usb.c ****   uint32_t tmpreg;
 3257              		.loc 1 1287 3 view .LVU1114
1288:Drivers/STM32F7xx_HAL_Driver/Src/stm32f7xx_ll_usb.c **** 
 3258              		.loc 1 1288 3 view .LVU1115
1290:Drivers/STM32F7xx_HAL_Driver/Src/stm32f7xx_ll_usb.c ****   tmpreg &= USBx_DEVICE->DAINTMSK;
 3259              		.loc 1 1290 3 view .LVU1116
1290:Drivers/STM32F7xx_HAL_Driver/Src/stm32f7xx_ll_usb.c ****   tmpreg &= USBx_DEVICE->DAINTMSK;
 3260              		.loc 1 1290 11 is_stmt 0 view .LVU1117
 3261 0000 D0F81838 		ldr	r3, [r0, #2072]
1290:Drivers/STM32F7xx_HAL_Driver/Src/stm32f7xx_ll_usb.c ****   tmpreg &= USBx_DEVICE->DAINTMSK;
 3262              		.loc 1 1290 13 view .LVU1118
 3263 0004 00F50060 		add	r0, r0, #2048
 3264              	.LVL232:
1291:Drivers/STM32F7xx_HAL_Driver/Src/stm32f7xx_ll_usb.c **** 
 3265              		.loc 1 1291 3 is_stmt 1 view .LVU1119
1291:Drivers/STM32F7xx_HAL_Driver/Src/stm32f7xx_ll_usb.c **** 
 3266              		.loc 1 1291 24 is_stmt 0 view .LVU1120
 3267 0008 C069     		ldr	r0, [r0, #28]
 3268              	.LVL233:
1291:Drivers/STM32F7xx_HAL_Driver/Src/stm32f7xx_ll_usb.c **** 
 3269              		.loc 1 1291 10 view .LVU1121
 3270 000a 1840     		ands	r0, r0, r3
 3271              	.LVL234:
1293:Drivers/STM32F7xx_HAL_Driver/Src/stm32f7xx_ll_usb.c **** }
 3272              		.loc 1 1293 3 is_stmt 1 view .LVU1122
1294:Drivers/STM32F7xx_HAL_Driver/Src/stm32f7xx_ll_usb.c **** 
 3273              		.loc 1 1294 1 is_stmt 0 view .LVU1123
 3274 000c 000C     		lsrs	r0, r0, #16
 3275              	.LVL235:
1294:Drivers/STM32F7xx_HAL_Driver/Src/stm32f7xx_ll_usb.c **** 
 3276              		.loc 1 1294 1 view .LVU1124
 3277 000e 7047     		bx	lr
ARM GAS  C:\Users\benny\AppData\Local\Temp\ccHko7Bj.s 			page 103


 3278              		.cfi_endproc
 3279              	.LFE167:
 3281              		.section	.text.USB_ReadDevAllInEpInterrupt,"ax",%progbits
 3282              		.align	1
 3283              		.global	USB_ReadDevAllInEpInterrupt
 3284              		.syntax unified
 3285              		.thumb
 3286              		.thumb_func
 3288              	USB_ReadDevAllInEpInterrupt:
 3289              	.LVL236:
 3290              	.LFB168:
1302:Drivers/STM32F7xx_HAL_Driver/Src/stm32f7xx_ll_usb.c ****   uint32_t USBx_BASE = (uint32_t)USBx;
 3291              		.loc 1 1302 1 is_stmt 1 view -0
 3292              		.cfi_startproc
 3293              		@ args = 0, pretend = 0, frame = 0
 3294              		@ frame_needed = 0, uses_anonymous_args = 0
 3295              		@ link register save eliminated.
1303:Drivers/STM32F7xx_HAL_Driver/Src/stm32f7xx_ll_usb.c ****   uint32_t tmpreg;
 3296              		.loc 1 1303 3 view .LVU1126
1304:Drivers/STM32F7xx_HAL_Driver/Src/stm32f7xx_ll_usb.c **** 
 3297              		.loc 1 1304 3 view .LVU1127
1306:Drivers/STM32F7xx_HAL_Driver/Src/stm32f7xx_ll_usb.c ****   tmpreg &= USBx_DEVICE->DAINTMSK;
 3298              		.loc 1 1306 3 view .LVU1128
1306:Drivers/STM32F7xx_HAL_Driver/Src/stm32f7xx_ll_usb.c ****   tmpreg &= USBx_DEVICE->DAINTMSK;
 3299              		.loc 1 1306 11 is_stmt 0 view .LVU1129
 3300 0000 D0F81838 		ldr	r3, [r0, #2072]
1306:Drivers/STM32F7xx_HAL_Driver/Src/stm32f7xx_ll_usb.c ****   tmpreg &= USBx_DEVICE->DAINTMSK;
 3301              		.loc 1 1306 13 view .LVU1130
 3302 0004 00F50060 		add	r0, r0, #2048
 3303              	.LVL237:
1307:Drivers/STM32F7xx_HAL_Driver/Src/stm32f7xx_ll_usb.c **** 
 3304              		.loc 1 1307 3 is_stmt 1 view .LVU1131
1307:Drivers/STM32F7xx_HAL_Driver/Src/stm32f7xx_ll_usb.c **** 
 3305              		.loc 1 1307 24 is_stmt 0 view .LVU1132
 3306 0008 C069     		ldr	r0, [r0, #28]
 3307              	.LVL238:
1307:Drivers/STM32F7xx_HAL_Driver/Src/stm32f7xx_ll_usb.c **** 
 3308              		.loc 1 1307 10 view .LVU1133
 3309 000a 1840     		ands	r0, r0, r3
 3310              	.LVL239:
1309:Drivers/STM32F7xx_HAL_Driver/Src/stm32f7xx_ll_usb.c **** }
 3311              		.loc 1 1309 3 is_stmt 1 view .LVU1134
1310:Drivers/STM32F7xx_HAL_Driver/Src/stm32f7xx_ll_usb.c **** 
 3312              		.loc 1 1310 1 is_stmt 0 view .LVU1135
 3313 000c 80B2     		uxth	r0, r0
 3314              	.LVL240:
1310:Drivers/STM32F7xx_HAL_Driver/Src/stm32f7xx_ll_usb.c **** 
 3315              		.loc 1 1310 1 view .LVU1136
 3316 000e 7047     		bx	lr
 3317              		.cfi_endproc
 3318              	.LFE168:
 3320              		.section	.text.USB_ReadDevOutEPInterrupt,"ax",%progbits
 3321              		.align	1
 3322              		.global	USB_ReadDevOutEPInterrupt
 3323              		.syntax unified
 3324              		.thumb
 3325              		.thumb_func
ARM GAS  C:\Users\benny\AppData\Local\Temp\ccHko7Bj.s 			page 104


 3327              	USB_ReadDevOutEPInterrupt:
 3328              	.LVL241:
 3329              	.LFB169:
1320:Drivers/STM32F7xx_HAL_Driver/Src/stm32f7xx_ll_usb.c ****   uint32_t USBx_BASE = (uint32_t)USBx;
 3330              		.loc 1 1320 1 is_stmt 1 view -0
 3331              		.cfi_startproc
 3332              		@ args = 0, pretend = 0, frame = 0
 3333              		@ frame_needed = 0, uses_anonymous_args = 0
 3334              		@ link register save eliminated.
1321:Drivers/STM32F7xx_HAL_Driver/Src/stm32f7xx_ll_usb.c ****   uint32_t tmpreg;
 3335              		.loc 1 1321 3 view .LVU1138
1322:Drivers/STM32F7xx_HAL_Driver/Src/stm32f7xx_ll_usb.c **** 
 3336              		.loc 1 1322 3 view .LVU1139
1324:Drivers/STM32F7xx_HAL_Driver/Src/stm32f7xx_ll_usb.c ****   tmpreg &= USBx_DEVICE->DOEPMSK;
 3337              		.loc 1 1324 3 view .LVU1140
1324:Drivers/STM32F7xx_HAL_Driver/Src/stm32f7xx_ll_usb.c ****   tmpreg &= USBx_DEVICE->DOEPMSK;
 3338              		.loc 1 1324 13 is_stmt 0 view .LVU1141
 3339 0000 00EB4111 		add	r1, r0, r1, lsl #5
 3340              	.LVL242:
1324:Drivers/STM32F7xx_HAL_Driver/Src/stm32f7xx_ll_usb.c ****   tmpreg &= USBx_DEVICE->DOEPMSK;
 3341              		.loc 1 1324 11 view .LVU1142
 3342 0004 D1F8082B 		ldr	r2, [r1, #2824]
 3343              	.LVL243:
1325:Drivers/STM32F7xx_HAL_Driver/Src/stm32f7xx_ll_usb.c **** 
 3344              		.loc 1 1325 3 is_stmt 1 view .LVU1143
1325:Drivers/STM32F7xx_HAL_Driver/Src/stm32f7xx_ll_usb.c **** 
 3345              		.loc 1 1325 13 is_stmt 0 view .LVU1144
 3346 0008 00F50060 		add	r0, r0, #2048
 3347              	.LVL244:
1325:Drivers/STM32F7xx_HAL_Driver/Src/stm32f7xx_ll_usb.c **** 
 3348              		.loc 1 1325 24 view .LVU1145
 3349 000c 4069     		ldr	r0, [r0, #20]
 3350              	.LVL245:
1327:Drivers/STM32F7xx_HAL_Driver/Src/stm32f7xx_ll_usb.c **** }
 3351              		.loc 1 1327 3 is_stmt 1 view .LVU1146
1328:Drivers/STM32F7xx_HAL_Driver/Src/stm32f7xx_ll_usb.c **** 
 3352              		.loc 1 1328 1 is_stmt 0 view .LVU1147
 3353 000e 1040     		ands	r0, r0, r2
 3354              	.LVL246:
1328:Drivers/STM32F7xx_HAL_Driver/Src/stm32f7xx_ll_usb.c **** 
 3355              		.loc 1 1328 1 view .LVU1148
 3356 0010 7047     		bx	lr
 3357              		.cfi_endproc
 3358              	.LFE169:
 3360              		.section	.text.USB_ReadDevInEPInterrupt,"ax",%progbits
 3361              		.align	1
 3362              		.global	USB_ReadDevInEPInterrupt
 3363              		.syntax unified
 3364              		.thumb
 3365              		.thumb_func
 3367              	USB_ReadDevInEPInterrupt:
 3368              	.LVL247:
 3369              	.LFB170:
1338:Drivers/STM32F7xx_HAL_Driver/Src/stm32f7xx_ll_usb.c ****   uint32_t USBx_BASE = (uint32_t)USBx;
 3370              		.loc 1 1338 1 is_stmt 1 view -0
 3371              		.cfi_startproc
 3372              		@ args = 0, pretend = 0, frame = 0
ARM GAS  C:\Users\benny\AppData\Local\Temp\ccHko7Bj.s 			page 105


 3373              		@ frame_needed = 0, uses_anonymous_args = 0
 3374              		@ link register save eliminated.
1339:Drivers/STM32F7xx_HAL_Driver/Src/stm32f7xx_ll_usb.c ****   uint32_t tmpreg;
 3375              		.loc 1 1339 3 view .LVU1150
1340:Drivers/STM32F7xx_HAL_Driver/Src/stm32f7xx_ll_usb.c ****   uint32_t msk;
 3376              		.loc 1 1340 3 view .LVU1151
1341:Drivers/STM32F7xx_HAL_Driver/Src/stm32f7xx_ll_usb.c ****   uint32_t emp;
 3377              		.loc 1 1341 3 view .LVU1152
1342:Drivers/STM32F7xx_HAL_Driver/Src/stm32f7xx_ll_usb.c **** 
 3378              		.loc 1 1342 3 view .LVU1153
1344:Drivers/STM32F7xx_HAL_Driver/Src/stm32f7xx_ll_usb.c ****   emp = USBx_DEVICE->DIEPEMPMSK;
 3379              		.loc 1 1344 3 view .LVU1154
1344:Drivers/STM32F7xx_HAL_Driver/Src/stm32f7xx_ll_usb.c ****   emp = USBx_DEVICE->DIEPEMPMSK;
 3380              		.loc 1 1344 7 is_stmt 0 view .LVU1155
 3381 0000 D0F81028 		ldr	r2, [r0, #2064]
 3382              	.LVL248:
1345:Drivers/STM32F7xx_HAL_Driver/Src/stm32f7xx_ll_usb.c ****   msk |= ((emp >> (epnum & EP_ADDR_MSK)) & 0x1U) << 7;
 3383              		.loc 1 1345 3 is_stmt 1 view .LVU1156
1345:Drivers/STM32F7xx_HAL_Driver/Src/stm32f7xx_ll_usb.c ****   msk |= ((emp >> (epnum & EP_ADDR_MSK)) & 0x1U) << 7;
 3384              		.loc 1 1345 7 is_stmt 0 view .LVU1157
 3385 0004 D0F83438 		ldr	r3, [r0, #2100]
 3386              	.LVL249:
1346:Drivers/STM32F7xx_HAL_Driver/Src/stm32f7xx_ll_usb.c ****   tmpreg = USBx_INEP((uint32_t)epnum)->DIEPINT & msk;
 3387              		.loc 1 1346 3 is_stmt 1 view .LVU1158
1346:Drivers/STM32F7xx_HAL_Driver/Src/stm32f7xx_ll_usb.c ****   tmpreg = USBx_INEP((uint32_t)epnum)->DIEPINT & msk;
 3388              		.loc 1 1346 26 is_stmt 0 view .LVU1159
 3389 0008 01F00F0C 		and	ip, r1, #15
1346:Drivers/STM32F7xx_HAL_Driver/Src/stm32f7xx_ll_usb.c ****   tmpreg = USBx_INEP((uint32_t)epnum)->DIEPINT & msk;
 3390              		.loc 1 1346 16 view .LVU1160
 3391 000c 23FA0CF3 		lsr	r3, r3, ip
 3392              	.LVL250:
1346:Drivers/STM32F7xx_HAL_Driver/Src/stm32f7xx_ll_usb.c ****   tmpreg = USBx_INEP((uint32_t)epnum)->DIEPINT & msk;
 3393              		.loc 1 1346 50 view .LVU1161
 3394 0010 DB01     		lsls	r3, r3, #7
 3395 0012 DBB2     		uxtb	r3, r3
1346:Drivers/STM32F7xx_HAL_Driver/Src/stm32f7xx_ll_usb.c ****   tmpreg = USBx_INEP((uint32_t)epnum)->DIEPINT & msk;
 3396              		.loc 1 1346 7 view .LVU1162
 3397 0014 1343     		orrs	r3, r3, r2
 3398              	.LVL251:
1347:Drivers/STM32F7xx_HAL_Driver/Src/stm32f7xx_ll_usb.c **** 
 3399              		.loc 1 1347 3 is_stmt 1 view .LVU1163
1347:Drivers/STM32F7xx_HAL_Driver/Src/stm32f7xx_ll_usb.c **** 
 3400              		.loc 1 1347 12 is_stmt 0 view .LVU1164
 3401 0016 00EB4110 		add	r0, r0, r1, lsl #5
 3402              	.LVL252:
1347:Drivers/STM32F7xx_HAL_Driver/Src/stm32f7xx_ll_usb.c **** 
 3403              		.loc 1 1347 12 view .LVU1165
 3404 001a 00F51060 		add	r0, r0, #2304
1347:Drivers/STM32F7xx_HAL_Driver/Src/stm32f7xx_ll_usb.c **** 
 3405              		.loc 1 1347 38 view .LVU1166
 3406 001e 8068     		ldr	r0, [r0, #8]
 3407              	.LVL253:
1349:Drivers/STM32F7xx_HAL_Driver/Src/stm32f7xx_ll_usb.c **** }
 3408              		.loc 1 1349 3 is_stmt 1 view .LVU1167
1350:Drivers/STM32F7xx_HAL_Driver/Src/stm32f7xx_ll_usb.c **** 
 3409              		.loc 1 1350 1 is_stmt 0 view .LVU1168
 3410 0020 1840     		ands	r0, r0, r3
ARM GAS  C:\Users\benny\AppData\Local\Temp\ccHko7Bj.s 			page 106


 3411              	.LVL254:
1350:Drivers/STM32F7xx_HAL_Driver/Src/stm32f7xx_ll_usb.c **** 
 3412              		.loc 1 1350 1 view .LVU1169
 3413 0022 7047     		bx	lr
 3414              		.cfi_endproc
 3415              	.LFE170:
 3417              		.section	.text.USB_ClearInterrupts,"ax",%progbits
 3418              		.align	1
 3419              		.global	USB_ClearInterrupts
 3420              		.syntax unified
 3421              		.thumb
 3422              		.thumb_func
 3424              	USB_ClearInterrupts:
 3425              	.LVL255:
 3426              	.LFB171:
1359:Drivers/STM32F7xx_HAL_Driver/Src/stm32f7xx_ll_usb.c ****   USBx->GINTSTS &= interrupt;
 3427              		.loc 1 1359 1 is_stmt 1 view -0
 3428              		.cfi_startproc
 3429              		@ args = 0, pretend = 0, frame = 0
 3430              		@ frame_needed = 0, uses_anonymous_args = 0
 3431              		@ link register save eliminated.
1360:Drivers/STM32F7xx_HAL_Driver/Src/stm32f7xx_ll_usb.c **** }
 3432              		.loc 1 1360 3 view .LVU1171
1360:Drivers/STM32F7xx_HAL_Driver/Src/stm32f7xx_ll_usb.c **** }
 3433              		.loc 1 1360 7 is_stmt 0 view .LVU1172
 3434 0000 4369     		ldr	r3, [r0, #20]
1360:Drivers/STM32F7xx_HAL_Driver/Src/stm32f7xx_ll_usb.c **** }
 3435              		.loc 1 1360 17 view .LVU1173
 3436 0002 0B40     		ands	r3, r3, r1
 3437 0004 4361     		str	r3, [r0, #20]
1361:Drivers/STM32F7xx_HAL_Driver/Src/stm32f7xx_ll_usb.c **** 
 3438              		.loc 1 1361 1 view .LVU1174
 3439 0006 7047     		bx	lr
 3440              		.cfi_endproc
 3441              	.LFE171:
 3443              		.section	.text.USB_GetMode,"ax",%progbits
 3444              		.align	1
 3445              		.global	USB_GetMode
 3446              		.syntax unified
 3447              		.thumb
 3448              		.thumb_func
 3450              	USB_GetMode:
 3451              	.LVL256:
 3452              	.LFB172:
1372:Drivers/STM32F7xx_HAL_Driver/Src/stm32f7xx_ll_usb.c ****   return ((USBx->GINTSTS) & 0x1U);
 3453              		.loc 1 1372 1 is_stmt 1 view -0
 3454              		.cfi_startproc
 3455              		@ args = 0, pretend = 0, frame = 0
 3456              		@ frame_needed = 0, uses_anonymous_args = 0
 3457              		@ link register save eliminated.
1373:Drivers/STM32F7xx_HAL_Driver/Src/stm32f7xx_ll_usb.c **** }
 3458              		.loc 1 1373 3 view .LVU1176
1373:Drivers/STM32F7xx_HAL_Driver/Src/stm32f7xx_ll_usb.c **** }
 3459              		.loc 1 1373 16 is_stmt 0 view .LVU1177
 3460 0000 4069     		ldr	r0, [r0, #20]
 3461              	.LVL257:
1374:Drivers/STM32F7xx_HAL_Driver/Src/stm32f7xx_ll_usb.c **** 
ARM GAS  C:\Users\benny\AppData\Local\Temp\ccHko7Bj.s 			page 107


 3462              		.loc 1 1374 1 view .LVU1178
 3463 0002 00F00100 		and	r0, r0, #1
 3464 0006 7047     		bx	lr
 3465              		.cfi_endproc
 3466              	.LFE172:
 3468              		.section	.text.USB_SetCurrentMode,"ax",%progbits
 3469              		.align	1
 3470              		.global	USB_SetCurrentMode
 3471              		.syntax unified
 3472              		.thumb
 3473              		.thumb_func
 3475              	USB_SetCurrentMode:
 3476              	.LVL258:
 3477              	.LFB145:
 288:Drivers/STM32F7xx_HAL_Driver/Src/stm32f7xx_ll_usb.c ****   uint32_t ms = 0U;
 3478              		.loc 1 288 1 is_stmt 1 view -0
 3479              		.cfi_startproc
 3480              		@ args = 0, pretend = 0, frame = 0
 3481              		@ frame_needed = 0, uses_anonymous_args = 0
 288:Drivers/STM32F7xx_HAL_Driver/Src/stm32f7xx_ll_usb.c ****   uint32_t ms = 0U;
 3482              		.loc 1 288 1 is_stmt 0 view .LVU1180
 3483 0000 38B5     		push	{r3, r4, r5, lr}
 3484              	.LCFI41:
 3485              		.cfi_def_cfa_offset 16
 3486              		.cfi_offset 3, -16
 3487              		.cfi_offset 4, -12
 3488              		.cfi_offset 5, -8
 3489              		.cfi_offset 14, -4
 3490 0002 0546     		mov	r5, r0
 289:Drivers/STM32F7xx_HAL_Driver/Src/stm32f7xx_ll_usb.c **** 
 3491              		.loc 1 289 3 is_stmt 1 view .LVU1181
 3492              	.LVL259:
 291:Drivers/STM32F7xx_HAL_Driver/Src/stm32f7xx_ll_usb.c **** 
 3493              		.loc 1 291 3 view .LVU1182
 291:Drivers/STM32F7xx_HAL_Driver/Src/stm32f7xx_ll_usb.c **** 
 3494              		.loc 1 291 7 is_stmt 0 view .LVU1183
 3495 0004 C368     		ldr	r3, [r0, #12]
 291:Drivers/STM32F7xx_HAL_Driver/Src/stm32f7xx_ll_usb.c **** 
 3496              		.loc 1 291 17 view .LVU1184
 3497 0006 23F0C043 		bic	r3, r3, #1610612736
 3498 000a C360     		str	r3, [r0, #12]
 293:Drivers/STM32F7xx_HAL_Driver/Src/stm32f7xx_ll_usb.c ****   {
 3499              		.loc 1 293 3 is_stmt 1 view .LVU1185
 293:Drivers/STM32F7xx_HAL_Driver/Src/stm32f7xx_ll_usb.c ****   {
 3500              		.loc 1 293 6 is_stmt 0 view .LVU1186
 3501 000c 0129     		cmp	r1, #1
 3502 000e 13D0     		beq	.L231
 303:Drivers/STM32F7xx_HAL_Driver/Src/stm32f7xx_ll_usb.c ****   {
 3503              		.loc 1 303 8 is_stmt 1 view .LVU1187
 303:Drivers/STM32F7xx_HAL_Driver/Src/stm32f7xx_ll_usb.c ****   {
 3504              		.loc 1 303 11 is_stmt 0 view .LVU1188
 3505 0010 19BB     		cbnz	r1, .L228
 305:Drivers/STM32F7xx_HAL_Driver/Src/stm32f7xx_ll_usb.c **** 
 3506              		.loc 1 305 5 is_stmt 1 view .LVU1189
 305:Drivers/STM32F7xx_HAL_Driver/Src/stm32f7xx_ll_usb.c **** 
 3507              		.loc 1 305 9 is_stmt 0 view .LVU1190
 3508 0012 C368     		ldr	r3, [r0, #12]
ARM GAS  C:\Users\benny\AppData\Local\Temp\ccHko7Bj.s 			page 108


 305:Drivers/STM32F7xx_HAL_Driver/Src/stm32f7xx_ll_usb.c **** 
 3509              		.loc 1 305 19 view .LVU1191
 3510 0014 43F08043 		orr	r3, r3, #1073741824
 3511 0018 C360     		str	r3, [r0, #12]
 289:Drivers/STM32F7xx_HAL_Driver/Src/stm32f7xx_ll_usb.c **** 
 3512              		.loc 1 289 12 view .LVU1192
 3513 001a 0024     		movs	r4, #0
 3514              	.LVL260:
 3515              	.L227:
 307:Drivers/STM32F7xx_HAL_Driver/Src/stm32f7xx_ll_usb.c ****     {
 3516              		.loc 1 307 5 is_stmt 1 discriminator 2 view .LVU1193
 309:Drivers/STM32F7xx_HAL_Driver/Src/stm32f7xx_ll_usb.c ****       ms += 10U;
 3517              		.loc 1 309 7 discriminator 2 view .LVU1194
 3518 001c 0A20     		movs	r0, #10
 3519 001e FFF7FEFF 		bl	HAL_Delay
 3520              	.LVL261:
 310:Drivers/STM32F7xx_HAL_Driver/Src/stm32f7xx_ll_usb.c ****     } while ((USB_GetMode(USBx) != (uint32_t)USB_DEVICE_MODE) && (ms < HAL_USB_CURRENT_MODE_MAX_DEL
 3521              		.loc 1 310 7 discriminator 2 view .LVU1195
 310:Drivers/STM32F7xx_HAL_Driver/Src/stm32f7xx_ll_usb.c ****     } while ((USB_GetMode(USBx) != (uint32_t)USB_DEVICE_MODE) && (ms < HAL_USB_CURRENT_MODE_MAX_DEL
 3522              		.loc 1 310 10 is_stmt 0 discriminator 2 view .LVU1196
 3523 0022 0A34     		adds	r4, r4, #10
 3524              	.LVL262:
 311:Drivers/STM32F7xx_HAL_Driver/Src/stm32f7xx_ll_usb.c ****   }
 3525              		.loc 1 311 63 is_stmt 1 discriminator 2 view .LVU1197
 311:Drivers/STM32F7xx_HAL_Driver/Src/stm32f7xx_ll_usb.c ****   }
 3526              		.loc 1 311 15 is_stmt 0 discriminator 2 view .LVU1198
 3527 0024 2846     		mov	r0, r5
 3528 0026 FFF7FEFF 		bl	USB_GetMode
 3529              	.LVL263:
 311:Drivers/STM32F7xx_HAL_Driver/Src/stm32f7xx_ll_usb.c ****   }
 3530              		.loc 1 311 63 discriminator 2 view .LVU1199
 3531 002a 08B1     		cbz	r0, .L224
 311:Drivers/STM32F7xx_HAL_Driver/Src/stm32f7xx_ll_usb.c ****   }
 3532              		.loc 1 311 63 discriminator 1 view .LVU1200
 3533 002c C72C     		cmp	r4, #199
 3534 002e F5D9     		bls	.L227
 3535              	.L224:
 318:Drivers/STM32F7xx_HAL_Driver/Src/stm32f7xx_ll_usb.c ****   {
 3536              		.loc 1 318 3 is_stmt 1 view .LVU1201
 318:Drivers/STM32F7xx_HAL_Driver/Src/stm32f7xx_ll_usb.c ****   {
 3537              		.loc 1 318 6 is_stmt 0 view .LVU1202
 3538 0030 C82C     		cmp	r4, #200
 3539 0032 14D0     		beq	.L229
 323:Drivers/STM32F7xx_HAL_Driver/Src/stm32f7xx_ll_usb.c **** }
 3540              		.loc 1 323 10 view .LVU1203
 3541 0034 0020     		movs	r0, #0
 3542              	.LVL264:
 3543              	.L226:
 324:Drivers/STM32F7xx_HAL_Driver/Src/stm32f7xx_ll_usb.c **** 
 3544              		.loc 1 324 1 view .LVU1204
 3545 0036 38BD     		pop	{r3, r4, r5, pc}
 3546              	.LVL265:
 3547              	.L231:
 295:Drivers/STM32F7xx_HAL_Driver/Src/stm32f7xx_ll_usb.c **** 
 3548              		.loc 1 295 5 is_stmt 1 view .LVU1205
 295:Drivers/STM32F7xx_HAL_Driver/Src/stm32f7xx_ll_usb.c **** 
 3549              		.loc 1 295 9 is_stmt 0 view .LVU1206
ARM GAS  C:\Users\benny\AppData\Local\Temp\ccHko7Bj.s 			page 109


 3550 0038 C368     		ldr	r3, [r0, #12]
 295:Drivers/STM32F7xx_HAL_Driver/Src/stm32f7xx_ll_usb.c **** 
 3551              		.loc 1 295 19 view .LVU1207
 3552 003a 43F00053 		orr	r3, r3, #536870912
 3553 003e C360     		str	r3, [r0, #12]
 289:Drivers/STM32F7xx_HAL_Driver/Src/stm32f7xx_ll_usb.c **** 
 3554              		.loc 1 289 12 view .LVU1208
 3555 0040 0024     		movs	r4, #0
 3556              	.LVL266:
 3557              	.L225:
 297:Drivers/STM32F7xx_HAL_Driver/Src/stm32f7xx_ll_usb.c ****     {
 3558              		.loc 1 297 5 is_stmt 1 discriminator 2 view .LVU1209
 299:Drivers/STM32F7xx_HAL_Driver/Src/stm32f7xx_ll_usb.c ****       ms += 10U;
 3559              		.loc 1 299 7 discriminator 2 view .LVU1210
 3560 0042 0A20     		movs	r0, #10
 3561 0044 FFF7FEFF 		bl	HAL_Delay
 3562              	.LVL267:
 300:Drivers/STM32F7xx_HAL_Driver/Src/stm32f7xx_ll_usb.c ****     } while ((USB_GetMode(USBx) != (uint32_t)USB_HOST_MODE) && (ms < HAL_USB_CURRENT_MODE_MAX_DELAY
 3563              		.loc 1 300 7 discriminator 2 view .LVU1211
 300:Drivers/STM32F7xx_HAL_Driver/Src/stm32f7xx_ll_usb.c ****     } while ((USB_GetMode(USBx) != (uint32_t)USB_HOST_MODE) && (ms < HAL_USB_CURRENT_MODE_MAX_DELAY
 3564              		.loc 1 300 10 is_stmt 0 discriminator 2 view .LVU1212
 3565 0048 0A34     		adds	r4, r4, #10
 3566              	.LVL268:
 301:Drivers/STM32F7xx_HAL_Driver/Src/stm32f7xx_ll_usb.c ****   }
 3567              		.loc 1 301 61 is_stmt 1 discriminator 2 view .LVU1213
 301:Drivers/STM32F7xx_HAL_Driver/Src/stm32f7xx_ll_usb.c ****   }
 3568              		.loc 1 301 15 is_stmt 0 discriminator 2 view .LVU1214
 3569 004a 2846     		mov	r0, r5
 3570 004c FFF7FEFF 		bl	USB_GetMode
 3571              	.LVL269:
 301:Drivers/STM32F7xx_HAL_Driver/Src/stm32f7xx_ll_usb.c ****   }
 3572              		.loc 1 301 61 discriminator 2 view .LVU1215
 3573 0050 0128     		cmp	r0, #1
 3574 0052 EDD0     		beq	.L224
 301:Drivers/STM32F7xx_HAL_Driver/Src/stm32f7xx_ll_usb.c ****   }
 3575              		.loc 1 301 61 discriminator 1 view .LVU1216
 3576 0054 C72C     		cmp	r4, #199
 3577 0056 F4D9     		bls	.L225
 3578 0058 EAE7     		b	.L224
 3579              	.LVL270:
 3580              	.L228:
 315:Drivers/STM32F7xx_HAL_Driver/Src/stm32f7xx_ll_usb.c ****   }
 3581              		.loc 1 315 12 view .LVU1217
 3582 005a 0120     		movs	r0, #1
 3583              	.LVL271:
 315:Drivers/STM32F7xx_HAL_Driver/Src/stm32f7xx_ll_usb.c ****   }
 3584              		.loc 1 315 12 view .LVU1218
 3585 005c EBE7     		b	.L226
 3586              	.LVL272:
 3587              	.L229:
 320:Drivers/STM32F7xx_HAL_Driver/Src/stm32f7xx_ll_usb.c ****   }
 3588              		.loc 1 320 12 view .LVU1219
 3589 005e 0120     		movs	r0, #1
 3590 0060 E9E7     		b	.L226
 3591              		.cfi_endproc
 3592              	.LFE145:
 3594              		.section	.text.USB_ActivateSetup,"ax",%progbits
ARM GAS  C:\Users\benny\AppData\Local\Temp\ccHko7Bj.s 			page 110


 3595              		.align	1
 3596              		.global	USB_ActivateSetup
 3597              		.syntax unified
 3598              		.thumb
 3599              		.thumb_func
 3601              	USB_ActivateSetup:
 3602              	.LVL273:
 3603              	.LFB173:
1382:Drivers/STM32F7xx_HAL_Driver/Src/stm32f7xx_ll_usb.c ****   uint32_t USBx_BASE = (uint32_t)USBx;
 3604              		.loc 1 1382 1 is_stmt 1 view -0
 3605              		.cfi_startproc
 3606              		@ args = 0, pretend = 0, frame = 0
 3607              		@ frame_needed = 0, uses_anonymous_args = 0
 3608              		@ link register save eliminated.
1383:Drivers/STM32F7xx_HAL_Driver/Src/stm32f7xx_ll_usb.c **** 
 3609              		.loc 1 1383 3 view .LVU1221
1386:Drivers/STM32F7xx_HAL_Driver/Src/stm32f7xx_ll_usb.c **** 
 3610              		.loc 1 1386 3 view .LVU1222
1386:Drivers/STM32F7xx_HAL_Driver/Src/stm32f7xx_ll_usb.c **** 
 3611              		.loc 1 1386 16 is_stmt 0 view .LVU1223
 3612 0000 D0F80029 		ldr	r2, [r0, #2304]
1386:Drivers/STM32F7xx_HAL_Driver/Src/stm32f7xx_ll_usb.c **** 
 3613              		.loc 1 1386 26 view .LVU1224
 3614 0004 054B     		ldr	r3, .L233
 3615 0006 1340     		ands	r3, r3, r2
 3616 0008 C0F80039 		str	r3, [r0, #2304]
1388:Drivers/STM32F7xx_HAL_Driver/Src/stm32f7xx_ll_usb.c **** 
 3617              		.loc 1 1388 3 is_stmt 1 view .LVU1225
1388:Drivers/STM32F7xx_HAL_Driver/Src/stm32f7xx_ll_usb.c **** 
 3618              		.loc 1 1388 14 is_stmt 0 view .LVU1226
 3619 000c D0F80438 		ldr	r3, [r0, #2052]
1388:Drivers/STM32F7xx_HAL_Driver/Src/stm32f7xx_ll_usb.c **** 
 3620              		.loc 1 1388 21 view .LVU1227
 3621 0010 43F48073 		orr	r3, r3, #256
 3622 0014 C0F80438 		str	r3, [r0, #2052]
1390:Drivers/STM32F7xx_HAL_Driver/Src/stm32f7xx_ll_usb.c **** }
 3623              		.loc 1 1390 3 is_stmt 1 view .LVU1228
1391:Drivers/STM32F7xx_HAL_Driver/Src/stm32f7xx_ll_usb.c **** 
 3624              		.loc 1 1391 1 is_stmt 0 view .LVU1229
 3625 0018 0020     		movs	r0, #0
 3626              	.LVL274:
1391:Drivers/STM32F7xx_HAL_Driver/Src/stm32f7xx_ll_usb.c **** 
 3627              		.loc 1 1391 1 view .LVU1230
 3628 001a 7047     		bx	lr
 3629              	.L234:
 3630              		.align	2
 3631              	.L233:
 3632 001c 00F8FFFF 		.word	-2048
 3633              		.cfi_endproc
 3634              	.LFE173:
 3636              		.section	.text.USB_EP0_OutStart,"ax",%progbits
 3637              		.align	1
 3638              		.global	USB_EP0_OutStart
 3639              		.syntax unified
 3640              		.thumb
 3641              		.thumb_func
 3643              	USB_EP0_OutStart:
ARM GAS  C:\Users\benny\AppData\Local\Temp\ccHko7Bj.s 			page 111


 3644              	.LVL275:
 3645              	.LFB174:
1404:Drivers/STM32F7xx_HAL_Driver/Src/stm32f7xx_ll_usb.c ****   uint32_t USBx_BASE = (uint32_t)USBx;
 3646              		.loc 1 1404 1 is_stmt 1 view -0
 3647              		.cfi_startproc
 3648              		@ args = 0, pretend = 0, frame = 0
 3649              		@ frame_needed = 0, uses_anonymous_args = 0
 3650              		@ link register save eliminated.
1404:Drivers/STM32F7xx_HAL_Driver/Src/stm32f7xx_ll_usb.c ****   uint32_t USBx_BASE = (uint32_t)USBx;
 3651              		.loc 1 1404 1 is_stmt 0 view .LVU1232
 3652 0000 10B4     		push	{r4}
 3653              	.LCFI42:
 3654              		.cfi_def_cfa_offset 4
 3655              		.cfi_offset 4, -4
1405:Drivers/STM32F7xx_HAL_Driver/Src/stm32f7xx_ll_usb.c ****   uint32_t gSNPSiD = *(__IO const uint32_t *)(&USBx->CID + 0x1U);
 3656              		.loc 1 1405 3 is_stmt 1 view .LVU1233
 3657              	.LVL276:
1406:Drivers/STM32F7xx_HAL_Driver/Src/stm32f7xx_ll_usb.c **** 
 3658              		.loc 1 1406 3 view .LVU1234
1406:Drivers/STM32F7xx_HAL_Driver/Src/stm32f7xx_ll_usb.c **** 
 3659              		.loc 1 1406 12 is_stmt 0 view .LVU1235
 3660 0002 046C     		ldr	r4, [r0, #64]
 3661              	.LVL277:
1408:Drivers/STM32F7xx_HAL_Driver/Src/stm32f7xx_ll_usb.c ****   {
 3662              		.loc 1 1408 3 is_stmt 1 view .LVU1236
1408:Drivers/STM32F7xx_HAL_Driver/Src/stm32f7xx_ll_usb.c ****   {
 3663              		.loc 1 1408 6 is_stmt 0 view .LVU1237
 3664 0004 154B     		ldr	r3, .L240
 3665 0006 9C42     		cmp	r4, r3
 3666 0008 03D9     		bls	.L236
1410:Drivers/STM32F7xx_HAL_Driver/Src/stm32f7xx_ll_usb.c ****     {
 3667              		.loc 1 1410 5 is_stmt 1 view .LVU1238
1410:Drivers/STM32F7xx_HAL_Driver/Src/stm32f7xx_ll_usb.c ****     {
 3668              		.loc 1 1410 24 is_stmt 0 view .LVU1239
 3669 000a D0F8003B 		ldr	r3, [r0, #2816]
1410:Drivers/STM32F7xx_HAL_Driver/Src/stm32f7xx_ll_usb.c ****     {
 3670              		.loc 1 1410 8 view .LVU1240
 3671 000e 002B     		cmp	r3, #0
 3672 0010 16DB     		blt	.L237
 3673              	.L236:
1416:Drivers/STM32F7xx_HAL_Driver/Src/stm32f7xx_ll_usb.c ****   USBx_OUTEP(0U)->DOEPTSIZ |= (USB_OTG_DOEPTSIZ_PKTCNT & (1U << 19));
 3674              		.loc 1 1416 3 is_stmt 1 view .LVU1241
1416:Drivers/STM32F7xx_HAL_Driver/Src/stm32f7xx_ll_usb.c ****   USBx_OUTEP(0U)->DOEPTSIZ |= (USB_OTG_DOEPTSIZ_PKTCNT & (1U << 19));
 3675              		.loc 1 1416 28 is_stmt 0 view .LVU1242
 3676 0012 0024     		movs	r4, #0
 3677              	.LVL278:
1416:Drivers/STM32F7xx_HAL_Driver/Src/stm32f7xx_ll_usb.c ****   USBx_OUTEP(0U)->DOEPTSIZ |= (USB_OTG_DOEPTSIZ_PKTCNT & (1U << 19));
 3678              		.loc 1 1416 28 view .LVU1243
 3679 0014 C0F8104B 		str	r4, [r0, #2832]
1417:Drivers/STM32F7xx_HAL_Driver/Src/stm32f7xx_ll_usb.c ****   USBx_OUTEP(0U)->DOEPTSIZ |= (3U * 8U);
 3680              		.loc 1 1417 3 is_stmt 1 view .LVU1244
1417:Drivers/STM32F7xx_HAL_Driver/Src/stm32f7xx_ll_usb.c ****   USBx_OUTEP(0U)->DOEPTSIZ |= (3U * 8U);
 3681              		.loc 1 1417 17 is_stmt 0 view .LVU1245
 3682 0018 D0F8104B 		ldr	r4, [r0, #2832]
1417:Drivers/STM32F7xx_HAL_Driver/Src/stm32f7xx_ll_usb.c ****   USBx_OUTEP(0U)->DOEPTSIZ |= (3U * 8U);
 3683              		.loc 1 1417 28 view .LVU1246
 3684 001c 44F40024 		orr	r4, r4, #524288
ARM GAS  C:\Users\benny\AppData\Local\Temp\ccHko7Bj.s 			page 112


 3685 0020 C0F8104B 		str	r4, [r0, #2832]
1418:Drivers/STM32F7xx_HAL_Driver/Src/stm32f7xx_ll_usb.c ****   USBx_OUTEP(0U)->DOEPTSIZ |=  USB_OTG_DOEPTSIZ_STUPCNT;
 3686              		.loc 1 1418 3 is_stmt 1 view .LVU1247
1418:Drivers/STM32F7xx_HAL_Driver/Src/stm32f7xx_ll_usb.c ****   USBx_OUTEP(0U)->DOEPTSIZ |=  USB_OTG_DOEPTSIZ_STUPCNT;
 3687              		.loc 1 1418 17 is_stmt 0 view .LVU1248
 3688 0024 D0F8104B 		ldr	r4, [r0, #2832]
1418:Drivers/STM32F7xx_HAL_Driver/Src/stm32f7xx_ll_usb.c ****   USBx_OUTEP(0U)->DOEPTSIZ |=  USB_OTG_DOEPTSIZ_STUPCNT;
 3689              		.loc 1 1418 28 view .LVU1249
 3690 0028 44F01804 		orr	r4, r4, #24
 3691 002c C0F8104B 		str	r4, [r0, #2832]
1419:Drivers/STM32F7xx_HAL_Driver/Src/stm32f7xx_ll_usb.c **** 
 3692              		.loc 1 1419 3 is_stmt 1 view .LVU1250
1419:Drivers/STM32F7xx_HAL_Driver/Src/stm32f7xx_ll_usb.c **** 
 3693              		.loc 1 1419 17 is_stmt 0 view .LVU1251
 3694 0030 D0F8104B 		ldr	r4, [r0, #2832]
1419:Drivers/STM32F7xx_HAL_Driver/Src/stm32f7xx_ll_usb.c **** 
 3695              		.loc 1 1419 28 view .LVU1252
 3696 0034 44F0C044 		orr	r4, r4, #1610612736
 3697 0038 C0F8104B 		str	r4, [r0, #2832]
1421:Drivers/STM32F7xx_HAL_Driver/Src/stm32f7xx_ll_usb.c ****   {
 3698              		.loc 1 1421 3 is_stmt 1 view .LVU1253
1421:Drivers/STM32F7xx_HAL_Driver/Src/stm32f7xx_ll_usb.c ****   {
 3699              		.loc 1 1421 6 is_stmt 0 view .LVU1254
 3700 003c 0129     		cmp	r1, #1
 3701 003e 03D0     		beq	.L239
 3702              	.L237:
1429:Drivers/STM32F7xx_HAL_Driver/Src/stm32f7xx_ll_usb.c **** 
 3703              		.loc 1 1429 1 view .LVU1255
 3704 0040 0020     		movs	r0, #0
 3705              	.LVL279:
1429:Drivers/STM32F7xx_HAL_Driver/Src/stm32f7xx_ll_usb.c **** 
 3706              		.loc 1 1429 1 view .LVU1256
 3707 0042 5DF8044B 		ldr	r4, [sp], #4
 3708              	.LCFI43:
 3709              		.cfi_remember_state
 3710              		.cfi_restore 4
 3711              		.cfi_def_cfa_offset 0
 3712 0046 7047     		bx	lr
 3713              	.LVL280:
 3714              	.L239:
 3715              	.LCFI44:
 3716              		.cfi_restore_state
1423:Drivers/STM32F7xx_HAL_Driver/Src/stm32f7xx_ll_usb.c ****     /* EP enable */
 3717              		.loc 1 1423 5 is_stmt 1 view .LVU1257
1423:Drivers/STM32F7xx_HAL_Driver/Src/stm32f7xx_ll_usb.c ****     /* EP enable */
 3718              		.loc 1 1423 29 is_stmt 0 view .LVU1258
 3719 0048 C0F8142B 		str	r2, [r0, #2836]
1425:Drivers/STM32F7xx_HAL_Driver/Src/stm32f7xx_ll_usb.c ****   }
 3720              		.loc 1 1425 5 is_stmt 1 view .LVU1259
1425:Drivers/STM32F7xx_HAL_Driver/Src/stm32f7xx_ll_usb.c ****   }
 3721              		.loc 1 1425 19 is_stmt 0 view .LVU1260
 3722 004c D0F8003B 		ldr	r3, [r0, #2816]
1425:Drivers/STM32F7xx_HAL_Driver/Src/stm32f7xx_ll_usb.c ****   }
 3723              		.loc 1 1425 29 view .LVU1261
 3724 0050 43F08023 		orr	r3, r3, #-2147450880
 3725 0054 C0F8003B 		str	r3, [r0, #2816]
 3726 0058 F2E7     		b	.L237
ARM GAS  C:\Users\benny\AppData\Local\Temp\ccHko7Bj.s 			page 113


 3727              	.L241:
 3728 005a 00BF     		.align	2
 3729              	.L240:
 3730 005c 0A30544F 		.word	1330917386
 3731              		.cfi_endproc
 3732              	.LFE174:
 3734              		.section	.text.USB_HostInit,"ax",%progbits
 3735              		.align	1
 3736              		.global	USB_HostInit
 3737              		.syntax unified
 3738              		.thumb
 3739              		.thumb_func
 3741              	USB_HostInit:
 3742              	.LVL281:
 3743              	.LFB177:
1536:Drivers/STM32F7xx_HAL_Driver/Src/stm32f7xx_ll_usb.c **** 
1537:Drivers/STM32F7xx_HAL_Driver/Src/stm32f7xx_ll_usb.c **** #endif /* USBPHYC */
1538:Drivers/STM32F7xx_HAL_Driver/Src/stm32f7xx_ll_usb.c **** /**
1539:Drivers/STM32F7xx_HAL_Driver/Src/stm32f7xx_ll_usb.c ****   * @brief  USB_HostInit : Initializes the USB OTG controller registers
1540:Drivers/STM32F7xx_HAL_Driver/Src/stm32f7xx_ll_usb.c ****   *         for Host mode
1541:Drivers/STM32F7xx_HAL_Driver/Src/stm32f7xx_ll_usb.c ****   * @param  USBx  Selected device
1542:Drivers/STM32F7xx_HAL_Driver/Src/stm32f7xx_ll_usb.c ****   * @param  cfg   pointer to a USB_OTG_CfgTypeDef structure that contains
1543:Drivers/STM32F7xx_HAL_Driver/Src/stm32f7xx_ll_usb.c ****   *         the configuration information for the specified USBx peripheral.
1544:Drivers/STM32F7xx_HAL_Driver/Src/stm32f7xx_ll_usb.c ****   * @retval HAL status
1545:Drivers/STM32F7xx_HAL_Driver/Src/stm32f7xx_ll_usb.c ****   */
1546:Drivers/STM32F7xx_HAL_Driver/Src/stm32f7xx_ll_usb.c **** HAL_StatusTypeDef USB_HostInit(USB_OTG_GlobalTypeDef *USBx, USB_OTG_CfgTypeDef cfg)
1547:Drivers/STM32F7xx_HAL_Driver/Src/stm32f7xx_ll_usb.c **** {
 3744              		.loc 1 1547 1 is_stmt 1 view -0
 3745              		.cfi_startproc
 3746              		@ args = 20, pretend = 16, frame = 0
 3747              		@ frame_needed = 0, uses_anonymous_args = 0
 3748              		.loc 1 1547 1 is_stmt 0 view .LVU1263
 3749 0000 84B0     		sub	sp, sp, #16
 3750              	.LCFI45:
 3751              		.cfi_def_cfa_offset 16
 3752 0002 38B5     		push	{r3, r4, r5, lr}
 3753              	.LCFI46:
 3754              		.cfi_def_cfa_offset 32
 3755              		.cfi_offset 3, -32
 3756              		.cfi_offset 4, -28
 3757              		.cfi_offset 5, -24
 3758              		.cfi_offset 14, -20
 3759 0004 0446     		mov	r4, r0
 3760 0006 05A8     		add	r0, sp, #20
 3761              	.LVL282:
 3762              		.loc 1 1547 1 view .LVU1264
 3763 0008 80E80E00 		stm	r0, {r1, r2, r3}
1548:Drivers/STM32F7xx_HAL_Driver/Src/stm32f7xx_ll_usb.c ****   HAL_StatusTypeDef ret = HAL_OK;
 3764              		.loc 1 1548 3 is_stmt 1 view .LVU1265
 3765              	.LVL283:
1549:Drivers/STM32F7xx_HAL_Driver/Src/stm32f7xx_ll_usb.c ****   uint32_t USBx_BASE = (uint32_t)USBx;
 3766              		.loc 1 1549 3 view .LVU1266
1550:Drivers/STM32F7xx_HAL_Driver/Src/stm32f7xx_ll_usb.c ****   uint32_t i;
 3767              		.loc 1 1550 3 view .LVU1267
1551:Drivers/STM32F7xx_HAL_Driver/Src/stm32f7xx_ll_usb.c **** 
1552:Drivers/STM32F7xx_HAL_Driver/Src/stm32f7xx_ll_usb.c ****   /* Restart the Phy Clock */
1553:Drivers/STM32F7xx_HAL_Driver/Src/stm32f7xx_ll_usb.c ****   USBx_PCGCCTL = 0U;
ARM GAS  C:\Users\benny\AppData\Local\Temp\ccHko7Bj.s 			page 114


 3768              		.loc 1 1553 3 view .LVU1268
 3769              		.loc 1 1553 16 is_stmt 0 view .LVU1269
 3770 000c 0023     		movs	r3, #0
 3771 000e C4F8003E 		str	r3, [r4, #3584]
1554:Drivers/STM32F7xx_HAL_Driver/Src/stm32f7xx_ll_usb.c **** 
1555:Drivers/STM32F7xx_HAL_Driver/Src/stm32f7xx_ll_usb.c ****   /* Disable VBUS sensing */
1556:Drivers/STM32F7xx_HAL_Driver/Src/stm32f7xx_ll_usb.c ****   USBx->GCCFG &= ~(USB_OTG_GCCFG_VBDEN);
 3772              		.loc 1 1556 3 is_stmt 1 view .LVU1270
 3773              		.loc 1 1556 7 is_stmt 0 view .LVU1271
 3774 0012 A36B     		ldr	r3, [r4, #56]
 3775              		.loc 1 1556 15 view .LVU1272
 3776 0014 23F40013 		bic	r3, r3, #2097152
 3777 0018 A363     		str	r3, [r4, #56]
1557:Drivers/STM32F7xx_HAL_Driver/Src/stm32f7xx_ll_usb.c **** 
1558:Drivers/STM32F7xx_HAL_Driver/Src/stm32f7xx_ll_usb.c ****   if ((USBx->GUSBCFG & USB_OTG_GUSBCFG_PHYSEL) == 0U)
 3778              		.loc 1 1558 3 is_stmt 1 view .LVU1273
 3779              		.loc 1 1558 12 is_stmt 0 view .LVU1274
 3780 001a E368     		ldr	r3, [r4, #12]
 3781              		.loc 1 1558 6 view .LVU1275
 3782 001c 13F0400F 		tst	r3, #64
 3783 0020 11D1     		bne	.L243
1559:Drivers/STM32F7xx_HAL_Driver/Src/stm32f7xx_ll_usb.c ****   {
1560:Drivers/STM32F7xx_HAL_Driver/Src/stm32f7xx_ll_usb.c ****     if (cfg.speed == USBH_FSLS_SPEED)
 3784              		.loc 1 1560 5 is_stmt 1 view .LVU1276
 3785              		.loc 1 1560 12 is_stmt 0 view .LVU1277
 3786 0022 9DF81730 		ldrb	r3, [sp, #23]	@ zero_extendqisi2
 3787              		.loc 1 1560 8 view .LVU1278
 3788 0026 012B     		cmp	r3, #1
 3789 0028 06D0     		beq	.L256
1561:Drivers/STM32F7xx_HAL_Driver/Src/stm32f7xx_ll_usb.c ****     {
1562:Drivers/STM32F7xx_HAL_Driver/Src/stm32f7xx_ll_usb.c ****       /* Force Device Enumeration to FS/LS mode only */
1563:Drivers/STM32F7xx_HAL_Driver/Src/stm32f7xx_ll_usb.c ****       USBx_HOST->HCFG |= USB_OTG_HCFG_FSLSS;
1564:Drivers/STM32F7xx_HAL_Driver/Src/stm32f7xx_ll_usb.c ****     }
1565:Drivers/STM32F7xx_HAL_Driver/Src/stm32f7xx_ll_usb.c ****     else
1566:Drivers/STM32F7xx_HAL_Driver/Src/stm32f7xx_ll_usb.c ****     {
1567:Drivers/STM32F7xx_HAL_Driver/Src/stm32f7xx_ll_usb.c ****       /* Set default Max speed support */
1568:Drivers/STM32F7xx_HAL_Driver/Src/stm32f7xx_ll_usb.c ****       USBx_HOST->HCFG &= ~(USB_OTG_HCFG_FSLSS);
 3790              		.loc 1 1568 7 is_stmt 1 view .LVU1279
 3791              		.loc 1 1568 16 is_stmt 0 view .LVU1280
 3792 002a D4F80034 		ldr	r3, [r4, #1024]
 3793              		.loc 1 1568 23 view .LVU1281
 3794 002e 23F00403 		bic	r3, r3, #4
 3795 0032 C4F80034 		str	r3, [r4, #1024]
 3796 0036 0CE0     		b	.L245
 3797              	.L256:
1563:Drivers/STM32F7xx_HAL_Driver/Src/stm32f7xx_ll_usb.c ****     }
 3798              		.loc 1 1563 7 is_stmt 1 view .LVU1282
1563:Drivers/STM32F7xx_HAL_Driver/Src/stm32f7xx_ll_usb.c ****     }
 3799              		.loc 1 1563 16 is_stmt 0 view .LVU1283
 3800 0038 D4F80034 		ldr	r3, [r4, #1024]
1563:Drivers/STM32F7xx_HAL_Driver/Src/stm32f7xx_ll_usb.c ****     }
 3801              		.loc 1 1563 23 view .LVU1284
 3802 003c 43F00403 		orr	r3, r3, #4
 3803 0040 C4F80034 		str	r3, [r4, #1024]
 3804 0044 05E0     		b	.L245
 3805              	.L243:
1569:Drivers/STM32F7xx_HAL_Driver/Src/stm32f7xx_ll_usb.c ****     }
ARM GAS  C:\Users\benny\AppData\Local\Temp\ccHko7Bj.s 			page 115


1570:Drivers/STM32F7xx_HAL_Driver/Src/stm32f7xx_ll_usb.c ****   }
1571:Drivers/STM32F7xx_HAL_Driver/Src/stm32f7xx_ll_usb.c ****   else
1572:Drivers/STM32F7xx_HAL_Driver/Src/stm32f7xx_ll_usb.c ****   {
1573:Drivers/STM32F7xx_HAL_Driver/Src/stm32f7xx_ll_usb.c ****     /* Set default Max speed support */
1574:Drivers/STM32F7xx_HAL_Driver/Src/stm32f7xx_ll_usb.c ****     USBx_HOST->HCFG &= ~(USB_OTG_HCFG_FSLSS);
 3806              		.loc 1 1574 5 is_stmt 1 view .LVU1285
 3807              		.loc 1 1574 14 is_stmt 0 view .LVU1286
 3808 0046 D4F80034 		ldr	r3, [r4, #1024]
 3809              		.loc 1 1574 21 view .LVU1287
 3810 004a 23F00403 		bic	r3, r3, #4
 3811 004e C4F80034 		str	r3, [r4, #1024]
 3812              	.L245:
1575:Drivers/STM32F7xx_HAL_Driver/Src/stm32f7xx_ll_usb.c ****   }
1576:Drivers/STM32F7xx_HAL_Driver/Src/stm32f7xx_ll_usb.c **** 
1577:Drivers/STM32F7xx_HAL_Driver/Src/stm32f7xx_ll_usb.c ****   /* Make sure the FIFOs are flushed. */
1578:Drivers/STM32F7xx_HAL_Driver/Src/stm32f7xx_ll_usb.c ****   if (USB_FlushTxFifo(USBx, 0x10U) != HAL_OK) /* all Tx FIFOs */
 3813              		.loc 1 1578 3 is_stmt 1 view .LVU1288
 3814              		.loc 1 1578 7 is_stmt 0 view .LVU1289
 3815 0052 1021     		movs	r1, #16
 3816 0054 2046     		mov	r0, r4
 3817 0056 FFF7FEFF 		bl	USB_FlushTxFifo
 3818              	.LVL284:
 3819              		.loc 1 1578 6 view .LVU1290
 3820 005a 0546     		mov	r5, r0
 3821 005c 00B1     		cbz	r0, .L246
1579:Drivers/STM32F7xx_HAL_Driver/Src/stm32f7xx_ll_usb.c ****   {
1580:Drivers/STM32F7xx_HAL_Driver/Src/stm32f7xx_ll_usb.c ****     ret = HAL_ERROR;
 3822              		.loc 1 1580 9 view .LVU1291
 3823 005e 0125     		movs	r5, #1
 3824              	.L246:
 3825              	.LVL285:
1581:Drivers/STM32F7xx_HAL_Driver/Src/stm32f7xx_ll_usb.c ****   }
1582:Drivers/STM32F7xx_HAL_Driver/Src/stm32f7xx_ll_usb.c **** 
1583:Drivers/STM32F7xx_HAL_Driver/Src/stm32f7xx_ll_usb.c ****   if (USB_FlushRxFifo(USBx) != HAL_OK)
 3826              		.loc 1 1583 3 is_stmt 1 view .LVU1292
 3827              		.loc 1 1583 7 is_stmt 0 view .LVU1293
 3828 0060 2046     		mov	r0, r4
 3829 0062 FFF7FEFF 		bl	USB_FlushRxFifo
 3830              	.LVL286:
 3831              		.loc 1 1583 6 view .LVU1294
 3832 0066 00B1     		cbz	r0, .L247
1584:Drivers/STM32F7xx_HAL_Driver/Src/stm32f7xx_ll_usb.c ****   {
1585:Drivers/STM32F7xx_HAL_Driver/Src/stm32f7xx_ll_usb.c ****     ret = HAL_ERROR;
 3833              		.loc 1 1585 9 view .LVU1295
 3834 0068 0125     		movs	r5, #1
 3835              	.LVL287:
 3836              	.L247:
1586:Drivers/STM32F7xx_HAL_Driver/Src/stm32f7xx_ll_usb.c ****   }
1587:Drivers/STM32F7xx_HAL_Driver/Src/stm32f7xx_ll_usb.c **** 
1588:Drivers/STM32F7xx_HAL_Driver/Src/stm32f7xx_ll_usb.c ****   /* Clear all pending HC Interrupts */
1589:Drivers/STM32F7xx_HAL_Driver/Src/stm32f7xx_ll_usb.c ****   for (i = 0U; i < cfg.Host_channels; i++)
 3837              		.loc 1 1589 3 is_stmt 1 view .LVU1296
 3838              		.loc 1 1589 10 is_stmt 0 view .LVU1297
 3839 006a 0022     		movs	r2, #0
 3840              		.loc 1 1589 3 view .LVU1298
 3841 006c 09E0     		b	.L248
 3842              	.LVL288:
ARM GAS  C:\Users\benny\AppData\Local\Temp\ccHko7Bj.s 			page 116


 3843              	.L249:
1590:Drivers/STM32F7xx_HAL_Driver/Src/stm32f7xx_ll_usb.c ****   {
1591:Drivers/STM32F7xx_HAL_Driver/Src/stm32f7xx_ll_usb.c ****     USBx_HC(i)->HCINT = CLEAR_INTERRUPT_MASK;
 3844              		.loc 1 1591 5 is_stmt 1 discriminator 3 view .LVU1299
 3845 006e 04EB4213 		add	r3, r4, r2, lsl #5
 3846              		.loc 1 1591 23 is_stmt 0 discriminator 3 view .LVU1300
 3847 0072 4FF0FF31 		mov	r1, #-1
 3848 0076 C3F80815 		str	r1, [r3, #1288]
1592:Drivers/STM32F7xx_HAL_Driver/Src/stm32f7xx_ll_usb.c ****     USBx_HC(i)->HCINTMSK = 0U;
 3849              		.loc 1 1592 5 is_stmt 1 discriminator 3 view .LVU1301
 3850              		.loc 1 1592 26 is_stmt 0 discriminator 3 view .LVU1302
 3851 007a 0021     		movs	r1, #0
 3852 007c C3F80C15 		str	r1, [r3, #1292]
1589:Drivers/STM32F7xx_HAL_Driver/Src/stm32f7xx_ll_usb.c ****   {
 3853              		.loc 1 1589 40 is_stmt 1 discriminator 3 view .LVU1303
 3854 0080 0132     		adds	r2, r2, #1
 3855              	.LVL289:
 3856              	.L248:
1589:Drivers/STM32F7xx_HAL_Driver/Src/stm32f7xx_ll_usb.c ****   {
 3857              		.loc 1 1589 18 discriminator 1 view .LVU1304
1589:Drivers/STM32F7xx_HAL_Driver/Src/stm32f7xx_ll_usb.c ****   {
 3858              		.loc 1 1589 23 is_stmt 0 discriminator 1 view .LVU1305
 3859 0082 9DF81530 		ldrb	r3, [sp, #21]	@ zero_extendqisi2
1589:Drivers/STM32F7xx_HAL_Driver/Src/stm32f7xx_ll_usb.c ****   {
 3860              		.loc 1 1589 18 discriminator 1 view .LVU1306
 3861 0086 9342     		cmp	r3, r2
 3862 0088 F1D8     		bhi	.L249
1593:Drivers/STM32F7xx_HAL_Driver/Src/stm32f7xx_ll_usb.c ****   }
1594:Drivers/STM32F7xx_HAL_Driver/Src/stm32f7xx_ll_usb.c **** 
1595:Drivers/STM32F7xx_HAL_Driver/Src/stm32f7xx_ll_usb.c ****   /* Disable all interrupts. */
1596:Drivers/STM32F7xx_HAL_Driver/Src/stm32f7xx_ll_usb.c ****   USBx->GINTMSK = 0U;
 3863              		.loc 1 1596 3 is_stmt 1 view .LVU1307
 3864              		.loc 1 1596 17 is_stmt 0 view .LVU1308
 3865 008a 0023     		movs	r3, #0
 3866 008c A361     		str	r3, [r4, #24]
1597:Drivers/STM32F7xx_HAL_Driver/Src/stm32f7xx_ll_usb.c **** 
1598:Drivers/STM32F7xx_HAL_Driver/Src/stm32f7xx_ll_usb.c ****   /* Clear any pending interrupts */
1599:Drivers/STM32F7xx_HAL_Driver/Src/stm32f7xx_ll_usb.c ****   USBx->GINTSTS = CLEAR_INTERRUPT_MASK;
 3867              		.loc 1 1599 3 is_stmt 1 view .LVU1309
 3868              		.loc 1 1599 17 is_stmt 0 view .LVU1310
 3869 008e 4FF0FF33 		mov	r3, #-1
 3870 0092 6361     		str	r3, [r4, #20]
1600:Drivers/STM32F7xx_HAL_Driver/Src/stm32f7xx_ll_usb.c **** #if defined (USB_OTG_HS)
1601:Drivers/STM32F7xx_HAL_Driver/Src/stm32f7xx_ll_usb.c ****   if (USBx == USB_OTG_HS)
 3871              		.loc 1 1601 3 is_stmt 1 view .LVU1311
 3872              		.loc 1 1601 6 is_stmt 0 view .LVU1312
 3873 0094 124B     		ldr	r3, .L258
 3874 0096 9C42     		cmp	r4, r3
 3875 0098 17D0     		beq	.L257
1602:Drivers/STM32F7xx_HAL_Driver/Src/stm32f7xx_ll_usb.c ****   {
1603:Drivers/STM32F7xx_HAL_Driver/Src/stm32f7xx_ll_usb.c ****     /* set Rx FIFO size */
1604:Drivers/STM32F7xx_HAL_Driver/Src/stm32f7xx_ll_usb.c ****     USBx->GRXFSIZ  = 0x200U;
1605:Drivers/STM32F7xx_HAL_Driver/Src/stm32f7xx_ll_usb.c ****     USBx->DIEPTXF0_HNPTXFSIZ = (uint32_t)(((0x100U << 16) & USB_OTG_NPTXFD) | 0x200U);
1606:Drivers/STM32F7xx_HAL_Driver/Src/stm32f7xx_ll_usb.c ****     USBx->HPTXFSIZ = (uint32_t)(((0xE0U << 16) & USB_OTG_HPTXFSIZ_PTXFD) | 0x300U);
1607:Drivers/STM32F7xx_HAL_Driver/Src/stm32f7xx_ll_usb.c ****   }
1608:Drivers/STM32F7xx_HAL_Driver/Src/stm32f7xx_ll_usb.c ****   else
1609:Drivers/STM32F7xx_HAL_Driver/Src/stm32f7xx_ll_usb.c **** #endif /* defined (USB_OTG_HS) */
ARM GAS  C:\Users\benny\AppData\Local\Temp\ccHko7Bj.s 			page 117


1610:Drivers/STM32F7xx_HAL_Driver/Src/stm32f7xx_ll_usb.c ****   {
1611:Drivers/STM32F7xx_HAL_Driver/Src/stm32f7xx_ll_usb.c ****     /* set Rx FIFO size */
1612:Drivers/STM32F7xx_HAL_Driver/Src/stm32f7xx_ll_usb.c ****     USBx->GRXFSIZ  = 0x80U;
 3876              		.loc 1 1612 5 is_stmt 1 view .LVU1313
 3877              		.loc 1 1612 20 is_stmt 0 view .LVU1314
 3878 009a 8023     		movs	r3, #128
 3879 009c 6362     		str	r3, [r4, #36]
1613:Drivers/STM32F7xx_HAL_Driver/Src/stm32f7xx_ll_usb.c ****     USBx->DIEPTXF0_HNPTXFSIZ = (uint32_t)(((0x60U << 16) & USB_OTG_NPTXFD) | 0x80U);
 3880              		.loc 1 1613 5 is_stmt 1 view .LVU1315
 3881              		.loc 1 1613 30 is_stmt 0 view .LVU1316
 3882 009e 03F5C003 		add	r3, r3, #6291456
 3883 00a2 A362     		str	r3, [r4, #40]
1614:Drivers/STM32F7xx_HAL_Driver/Src/stm32f7xx_ll_usb.c ****     USBx->HPTXFSIZ = (uint32_t)(((0x40U << 16)& USB_OTG_HPTXFSIZ_PTXFD) | 0xE0U);
 3884              		.loc 1 1614 5 is_stmt 1 view .LVU1317
 3885              		.loc 1 1614 20 is_stmt 0 view .LVU1318
 3886 00a4 0F4B     		ldr	r3, .L258+4
 3887 00a6 C4F80031 		str	r3, [r4, #256]
 3888              	.L251:
1615:Drivers/STM32F7xx_HAL_Driver/Src/stm32f7xx_ll_usb.c ****   }
1616:Drivers/STM32F7xx_HAL_Driver/Src/stm32f7xx_ll_usb.c **** 
1617:Drivers/STM32F7xx_HAL_Driver/Src/stm32f7xx_ll_usb.c ****   /* Enable the common interrupts */
1618:Drivers/STM32F7xx_HAL_Driver/Src/stm32f7xx_ll_usb.c ****   if (cfg.dma_enable == 0U)
 3889              		.loc 1 1618 3 is_stmt 1 view .LVU1319
 3890              		.loc 1 1618 10 is_stmt 0 view .LVU1320
 3891 00aa 9DF81630 		ldrb	r3, [sp, #22]	@ zero_extendqisi2
 3892              		.loc 1 1618 6 view .LVU1321
 3893 00ae 1BB9     		cbnz	r3, .L252
1619:Drivers/STM32F7xx_HAL_Driver/Src/stm32f7xx_ll_usb.c ****   {
1620:Drivers/STM32F7xx_HAL_Driver/Src/stm32f7xx_ll_usb.c ****     USBx->GINTMSK |= USB_OTG_GINTMSK_RXFLVLM;
 3894              		.loc 1 1620 5 is_stmt 1 view .LVU1322
 3895              		.loc 1 1620 9 is_stmt 0 view .LVU1323
 3896 00b0 A369     		ldr	r3, [r4, #24]
 3897              		.loc 1 1620 19 view .LVU1324
 3898 00b2 43F01003 		orr	r3, r3, #16
 3899 00b6 A361     		str	r3, [r4, #24]
 3900              	.L252:
1621:Drivers/STM32F7xx_HAL_Driver/Src/stm32f7xx_ll_usb.c ****   }
1622:Drivers/STM32F7xx_HAL_Driver/Src/stm32f7xx_ll_usb.c **** 
1623:Drivers/STM32F7xx_HAL_Driver/Src/stm32f7xx_ll_usb.c ****   /* Enable interrupts matching to the Host mode ONLY */
1624:Drivers/STM32F7xx_HAL_Driver/Src/stm32f7xx_ll_usb.c ****   USBx->GINTMSK |= (USB_OTG_GINTMSK_PRTIM            | USB_OTG_GINTMSK_HCIM | \
 3901              		.loc 1 1624 3 is_stmt 1 view .LVU1325
 3902              		.loc 1 1624 7 is_stmt 0 view .LVU1326
 3903 00b8 A269     		ldr	r2, [r4, #24]
 3904              	.LVL290:
 3905              		.loc 1 1624 17 view .LVU1327
 3906 00ba 0B4B     		ldr	r3, .L258+8
 3907 00bc 1343     		orrs	r3, r3, r2
 3908 00be A361     		str	r3, [r4, #24]
1625:Drivers/STM32F7xx_HAL_Driver/Src/stm32f7xx_ll_usb.c ****                     USB_OTG_GINTMSK_SOFM             | USB_OTG_GINTSTS_DISCINT | \
1626:Drivers/STM32F7xx_HAL_Driver/Src/stm32f7xx_ll_usb.c ****                     USB_OTG_GINTMSK_PXFRM_IISOOXFRM  | USB_OTG_GINTMSK_WUIM);
1627:Drivers/STM32F7xx_HAL_Driver/Src/stm32f7xx_ll_usb.c **** 
1628:Drivers/STM32F7xx_HAL_Driver/Src/stm32f7xx_ll_usb.c ****   return ret;
 3909              		.loc 1 1628 3 is_stmt 1 view .LVU1328
1629:Drivers/STM32F7xx_HAL_Driver/Src/stm32f7xx_ll_usb.c **** }
 3910              		.loc 1 1629 1 is_stmt 0 view .LVU1329
 3911 00c0 2846     		mov	r0, r5
 3912 00c2 BDE83840 		pop	{r3, r4, r5, lr}
ARM GAS  C:\Users\benny\AppData\Local\Temp\ccHko7Bj.s 			page 118


 3913              	.LCFI47:
 3914              		.cfi_remember_state
 3915              		.cfi_restore 14
 3916              		.cfi_restore 5
 3917              		.cfi_restore 4
 3918              		.cfi_restore 3
 3919              		.cfi_def_cfa_offset 16
 3920              	.LVL291:
 3921              		.loc 1 1629 1 view .LVU1330
 3922 00c6 04B0     		add	sp, sp, #16
 3923              	.LCFI48:
 3924              		.cfi_def_cfa_offset 0
 3925 00c8 7047     		bx	lr
 3926              	.LVL292:
 3927              	.L257:
 3928              	.LCFI49:
 3929              		.cfi_restore_state
1604:Drivers/STM32F7xx_HAL_Driver/Src/stm32f7xx_ll_usb.c ****     USBx->DIEPTXF0_HNPTXFSIZ = (uint32_t)(((0x100U << 16) & USB_OTG_NPTXFD) | 0x200U);
 3930              		.loc 1 1604 5 is_stmt 1 view .LVU1331
1604:Drivers/STM32F7xx_HAL_Driver/Src/stm32f7xx_ll_usb.c ****     USBx->DIEPTXF0_HNPTXFSIZ = (uint32_t)(((0x100U << 16) & USB_OTG_NPTXFD) | 0x200U);
 3931              		.loc 1 1604 20 is_stmt 0 view .LVU1332
 3932 00ca 4FF40073 		mov	r3, #512
 3933 00ce 6362     		str	r3, [r4, #36]
1605:Drivers/STM32F7xx_HAL_Driver/Src/stm32f7xx_ll_usb.c ****     USBx->HPTXFSIZ = (uint32_t)(((0xE0U << 16) & USB_OTG_HPTXFSIZ_PTXFD) | 0x300U);
 3934              		.loc 1 1605 5 is_stmt 1 view .LVU1333
1605:Drivers/STM32F7xx_HAL_Driver/Src/stm32f7xx_ll_usb.c ****     USBx->HPTXFSIZ = (uint32_t)(((0xE0U << 16) & USB_OTG_HPTXFSIZ_PTXFD) | 0x300U);
 3935              		.loc 1 1605 30 is_stmt 0 view .LVU1334
 3936 00d0 03F18073 		add	r3, r3, #16777216
 3937 00d4 A362     		str	r3, [r4, #40]
1606:Drivers/STM32F7xx_HAL_Driver/Src/stm32f7xx_ll_usb.c ****   }
 3938              		.loc 1 1606 5 is_stmt 1 view .LVU1335
1606:Drivers/STM32F7xx_HAL_Driver/Src/stm32f7xx_ll_usb.c ****   }
 3939              		.loc 1 1606 20 is_stmt 0 view .LVU1336
 3940 00d6 054B     		ldr	r3, .L258+12
 3941 00d8 C4F80031 		str	r3, [r4, #256]
 3942 00dc E5E7     		b	.L251
 3943              	.L259:
 3944 00de 00BF     		.align	2
 3945              	.L258:
 3946 00e0 00000440 		.word	1074003968
 3947 00e4 E0004000 		.word	4194528
 3948 00e8 080020A3 		.word	-1558183928
 3949 00ec 0003E000 		.word	14680832
 3950              		.cfi_endproc
 3951              	.LFE177:
 3953              		.section	.text.USB_InitFSLSPClkSel,"ax",%progbits
 3954              		.align	1
 3955              		.global	USB_InitFSLSPClkSel
 3956              		.syntax unified
 3957              		.thumb
 3958              		.thumb_func
 3960              	USB_InitFSLSPClkSel:
 3961              	.LVL293:
 3962              	.LFB178:
1630:Drivers/STM32F7xx_HAL_Driver/Src/stm32f7xx_ll_usb.c **** 
1631:Drivers/STM32F7xx_HAL_Driver/Src/stm32f7xx_ll_usb.c **** /**
1632:Drivers/STM32F7xx_HAL_Driver/Src/stm32f7xx_ll_usb.c ****   * @brief  USB_InitFSLSPClkSel : Initializes the FSLSPClkSel field of the
ARM GAS  C:\Users\benny\AppData\Local\Temp\ccHko7Bj.s 			page 119


1633:Drivers/STM32F7xx_HAL_Driver/Src/stm32f7xx_ll_usb.c ****   *         HCFG register on the PHY type and set the right frame interval
1634:Drivers/STM32F7xx_HAL_Driver/Src/stm32f7xx_ll_usb.c ****   * @param  USBx  Selected device
1635:Drivers/STM32F7xx_HAL_Driver/Src/stm32f7xx_ll_usb.c ****   * @param  freq  clock frequency
1636:Drivers/STM32F7xx_HAL_Driver/Src/stm32f7xx_ll_usb.c ****   *          This parameter can be one of these values:
1637:Drivers/STM32F7xx_HAL_Driver/Src/stm32f7xx_ll_usb.c ****   *           HCFG_48_MHZ : Full Speed 48 MHz Clock
1638:Drivers/STM32F7xx_HAL_Driver/Src/stm32f7xx_ll_usb.c ****   *           HCFG_6_MHZ : Low Speed 6 MHz Clock
1639:Drivers/STM32F7xx_HAL_Driver/Src/stm32f7xx_ll_usb.c ****   * @retval HAL status
1640:Drivers/STM32F7xx_HAL_Driver/Src/stm32f7xx_ll_usb.c ****   */
1641:Drivers/STM32F7xx_HAL_Driver/Src/stm32f7xx_ll_usb.c **** HAL_StatusTypeDef USB_InitFSLSPClkSel(const USB_OTG_GlobalTypeDef *USBx, uint8_t freq)
1642:Drivers/STM32F7xx_HAL_Driver/Src/stm32f7xx_ll_usb.c **** {
 3963              		.loc 1 1642 1 is_stmt 1 view -0
 3964              		.cfi_startproc
 3965              		@ args = 0, pretend = 0, frame = 0
 3966              		@ frame_needed = 0, uses_anonymous_args = 0
 3967              		@ link register save eliminated.
1643:Drivers/STM32F7xx_HAL_Driver/Src/stm32f7xx_ll_usb.c ****   uint32_t USBx_BASE = (uint32_t)USBx;
 3968              		.loc 1 1643 3 view .LVU1338
1644:Drivers/STM32F7xx_HAL_Driver/Src/stm32f7xx_ll_usb.c **** 
1645:Drivers/STM32F7xx_HAL_Driver/Src/stm32f7xx_ll_usb.c ****   USBx_HOST->HCFG &= ~(USB_OTG_HCFG_FSLSPCS);
 3969              		.loc 1 1645 3 view .LVU1339
 3970              		.loc 1 1645 12 is_stmt 0 view .LVU1340
 3971 0000 00F5806C 		add	ip, r0, #1024
 3972 0004 D0F80034 		ldr	r3, [r0, #1024]
 3973              		.loc 1 1645 19 view .LVU1341
 3974 0008 23F00303 		bic	r3, r3, #3
 3975 000c C0F80034 		str	r3, [r0, #1024]
1646:Drivers/STM32F7xx_HAL_Driver/Src/stm32f7xx_ll_usb.c ****   USBx_HOST->HCFG |= (uint32_t)freq & USB_OTG_HCFG_FSLSPCS;
 3976              		.loc 1 1646 3 is_stmt 1 view .LVU1342
 3977              		.loc 1 1646 12 is_stmt 0 view .LVU1343
 3978 0010 D0F80034 		ldr	r3, [r0, #1024]
 3979              		.loc 1 1646 37 view .LVU1344
 3980 0014 01F00302 		and	r2, r1, #3
 3981              		.loc 1 1646 19 view .LVU1345
 3982 0018 1343     		orrs	r3, r3, r2
 3983 001a C0F80034 		str	r3, [r0, #1024]
1647:Drivers/STM32F7xx_HAL_Driver/Src/stm32f7xx_ll_usb.c **** 
1648:Drivers/STM32F7xx_HAL_Driver/Src/stm32f7xx_ll_usb.c ****   if (freq == HCFG_48_MHZ)
 3984              		.loc 1 1648 3 is_stmt 1 view .LVU1346
 3985              		.loc 1 1648 6 is_stmt 0 view .LVU1347
 3986 001e 0129     		cmp	r1, #1
 3987 0020 07D0     		beq	.L264
1649:Drivers/STM32F7xx_HAL_Driver/Src/stm32f7xx_ll_usb.c ****   {
1650:Drivers/STM32F7xx_HAL_Driver/Src/stm32f7xx_ll_usb.c ****     USBx_HOST->HFIR = HFIR_48_MHZ;
1651:Drivers/STM32F7xx_HAL_Driver/Src/stm32f7xx_ll_usb.c ****   }
1652:Drivers/STM32F7xx_HAL_Driver/Src/stm32f7xx_ll_usb.c ****   else if (freq == HCFG_6_MHZ)
 3988              		.loc 1 1652 8 is_stmt 1 view .LVU1348
 3989              		.loc 1 1652 11 is_stmt 0 view .LVU1349
 3990 0022 0229     		cmp	r1, #2
 3991 0024 0BD1     		bne	.L263
1653:Drivers/STM32F7xx_HAL_Driver/Src/stm32f7xx_ll_usb.c ****   {
1654:Drivers/STM32F7xx_HAL_Driver/Src/stm32f7xx_ll_usb.c ****     USBx_HOST->HFIR = HFIR_6_MHZ;
 3992              		.loc 1 1654 5 is_stmt 1 view .LVU1350
 3993              		.loc 1 1654 21 is_stmt 0 view .LVU1351
 3994 0026 41F27073 		movw	r3, #6000
 3995 002a CCF80430 		str	r3, [ip, #4]
1655:Drivers/STM32F7xx_HAL_Driver/Src/stm32f7xx_ll_usb.c ****   }
1656:Drivers/STM32F7xx_HAL_Driver/Src/stm32f7xx_ll_usb.c ****   else
ARM GAS  C:\Users\benny\AppData\Local\Temp\ccHko7Bj.s 			page 120


1657:Drivers/STM32F7xx_HAL_Driver/Src/stm32f7xx_ll_usb.c ****   {
1658:Drivers/STM32F7xx_HAL_Driver/Src/stm32f7xx_ll_usb.c ****     return HAL_ERROR;
1659:Drivers/STM32F7xx_HAL_Driver/Src/stm32f7xx_ll_usb.c ****   }
1660:Drivers/STM32F7xx_HAL_Driver/Src/stm32f7xx_ll_usb.c **** 
1661:Drivers/STM32F7xx_HAL_Driver/Src/stm32f7xx_ll_usb.c ****   return HAL_OK;
 3996              		.loc 1 1661 10 view .LVU1352
 3997 002e 0020     		movs	r0, #0
 3998              	.LVL294:
 3999              		.loc 1 1661 10 view .LVU1353
 4000 0030 7047     		bx	lr
 4001              	.LVL295:
 4002              	.L264:
1650:Drivers/STM32F7xx_HAL_Driver/Src/stm32f7xx_ll_usb.c ****   }
 4003              		.loc 1 1650 5 is_stmt 1 view .LVU1354
1650:Drivers/STM32F7xx_HAL_Driver/Src/stm32f7xx_ll_usb.c ****   }
 4004              		.loc 1 1650 21 is_stmt 0 view .LVU1355
 4005 0032 4BF68033 		movw	r3, #48000
 4006 0036 CCF80430 		str	r3, [ip, #4]
 4007              		.loc 1 1661 10 view .LVU1356
 4008 003a 0020     		movs	r0, #0
 4009              	.LVL296:
 4010              		.loc 1 1661 10 view .LVU1357
 4011 003c 7047     		bx	lr
 4012              	.LVL297:
 4013              	.L263:
1658:Drivers/STM32F7xx_HAL_Driver/Src/stm32f7xx_ll_usb.c ****   }
 4014              		.loc 1 1658 12 view .LVU1358
 4015 003e 0120     		movs	r0, #1
 4016              	.LVL298:
1662:Drivers/STM32F7xx_HAL_Driver/Src/stm32f7xx_ll_usb.c **** }
 4017              		.loc 1 1662 1 view .LVU1359
 4018 0040 7047     		bx	lr
 4019              		.cfi_endproc
 4020              	.LFE178:
 4022              		.section	.text.USB_ResetPort,"ax",%progbits
 4023              		.align	1
 4024              		.global	USB_ResetPort
 4025              		.syntax unified
 4026              		.thumb
 4027              		.thumb_func
 4029              	USB_ResetPort:
 4030              	.LVL299:
 4031              	.LFB179:
1663:Drivers/STM32F7xx_HAL_Driver/Src/stm32f7xx_ll_usb.c **** 
1664:Drivers/STM32F7xx_HAL_Driver/Src/stm32f7xx_ll_usb.c **** /**
1665:Drivers/STM32F7xx_HAL_Driver/Src/stm32f7xx_ll_usb.c ****   * @brief  USB_OTG_ResetPort : Reset Host Port
1666:Drivers/STM32F7xx_HAL_Driver/Src/stm32f7xx_ll_usb.c ****   * @param  USBx  Selected device
1667:Drivers/STM32F7xx_HAL_Driver/Src/stm32f7xx_ll_usb.c ****   * @retval HAL status
1668:Drivers/STM32F7xx_HAL_Driver/Src/stm32f7xx_ll_usb.c ****   * @note (1)The application must wait at least 10 ms
1669:Drivers/STM32F7xx_HAL_Driver/Src/stm32f7xx_ll_usb.c ****   *   before clearing the reset bit.
1670:Drivers/STM32F7xx_HAL_Driver/Src/stm32f7xx_ll_usb.c ****   */
1671:Drivers/STM32F7xx_HAL_Driver/Src/stm32f7xx_ll_usb.c **** HAL_StatusTypeDef USB_ResetPort(const USB_OTG_GlobalTypeDef *USBx)
1672:Drivers/STM32F7xx_HAL_Driver/Src/stm32f7xx_ll_usb.c **** {
 4032              		.loc 1 1672 1 is_stmt 1 view -0
 4033              		.cfi_startproc
 4034              		@ args = 0, pretend = 0, frame = 8
 4035              		@ frame_needed = 0, uses_anonymous_args = 0
ARM GAS  C:\Users\benny\AppData\Local\Temp\ccHko7Bj.s 			page 121


 4036              		.loc 1 1672 1 is_stmt 0 view .LVU1361
 4037 0000 30B5     		push	{r4, r5, lr}
 4038              	.LCFI50:
 4039              		.cfi_def_cfa_offset 12
 4040              		.cfi_offset 4, -12
 4041              		.cfi_offset 5, -8
 4042              		.cfi_offset 14, -4
 4043 0002 83B0     		sub	sp, sp, #12
 4044              	.LCFI51:
 4045              		.cfi_def_cfa_offset 24
 4046 0004 0446     		mov	r4, r0
1673:Drivers/STM32F7xx_HAL_Driver/Src/stm32f7xx_ll_usb.c ****   uint32_t USBx_BASE = (uint32_t)USBx;
 4047              		.loc 1 1673 3 is_stmt 1 view .LVU1362
 4048              	.LVL300:
1674:Drivers/STM32F7xx_HAL_Driver/Src/stm32f7xx_ll_usb.c **** 
1675:Drivers/STM32F7xx_HAL_Driver/Src/stm32f7xx_ll_usb.c ****   __IO uint32_t hprt0 = 0U;
 4049              		.loc 1 1675 3 view .LVU1363
 4050              		.loc 1 1675 17 is_stmt 0 view .LVU1364
 4051 0006 0025     		movs	r5, #0
 4052 0008 0195     		str	r5, [sp, #4]
1676:Drivers/STM32F7xx_HAL_Driver/Src/stm32f7xx_ll_usb.c **** 
1677:Drivers/STM32F7xx_HAL_Driver/Src/stm32f7xx_ll_usb.c ****   hprt0 = USBx_HPRT0;
 4053              		.loc 1 1677 3 is_stmt 1 view .LVU1365
 4054              		.loc 1 1677 11 is_stmt 0 view .LVU1366
 4055 000a D0F84034 		ldr	r3, [r0, #1088]
 4056              		.loc 1 1677 9 view .LVU1367
 4057 000e 0193     		str	r3, [sp, #4]
1678:Drivers/STM32F7xx_HAL_Driver/Src/stm32f7xx_ll_usb.c **** 
1679:Drivers/STM32F7xx_HAL_Driver/Src/stm32f7xx_ll_usb.c ****   hprt0 &= ~(USB_OTG_HPRT_PENA | USB_OTG_HPRT_PCDET |
 4058              		.loc 1 1679 3 is_stmt 1 view .LVU1368
 4059              		.loc 1 1679 9 is_stmt 0 view .LVU1369
 4060 0010 019B     		ldr	r3, [sp, #4]
 4061 0012 23F02E03 		bic	r3, r3, #46
 4062 0016 0193     		str	r3, [sp, #4]
1680:Drivers/STM32F7xx_HAL_Driver/Src/stm32f7xx_ll_usb.c ****              USB_OTG_HPRT_PENCHNG | USB_OTG_HPRT_POCCHNG);
1681:Drivers/STM32F7xx_HAL_Driver/Src/stm32f7xx_ll_usb.c **** 
1682:Drivers/STM32F7xx_HAL_Driver/Src/stm32f7xx_ll_usb.c ****   USBx_HPRT0 = (USB_OTG_HPRT_PRST | hprt0);
 4063              		.loc 1 1682 3 is_stmt 1 view .LVU1370
 4064              		.loc 1 1682 35 is_stmt 0 view .LVU1371
 4065 0018 019B     		ldr	r3, [sp, #4]
 4066 001a 43F48073 		orr	r3, r3, #256
 4067              		.loc 1 1682 14 view .LVU1372
 4068 001e C0F84034 		str	r3, [r0, #1088]
1683:Drivers/STM32F7xx_HAL_Driver/Src/stm32f7xx_ll_usb.c ****   HAL_Delay(100U);                                 /* See Note #1 */
 4069              		.loc 1 1683 3 is_stmt 1 view .LVU1373
 4070 0022 6420     		movs	r0, #100
 4071              	.LVL301:
 4072              		.loc 1 1683 3 is_stmt 0 view .LVU1374
 4073 0024 FFF7FEFF 		bl	HAL_Delay
 4074              	.LVL302:
1684:Drivers/STM32F7xx_HAL_Driver/Src/stm32f7xx_ll_usb.c ****   USBx_HPRT0 = ((~USB_OTG_HPRT_PRST) & hprt0);
 4075              		.loc 1 1684 3 is_stmt 1 view .LVU1375
 4076              		.loc 1 1684 38 is_stmt 0 view .LVU1376
 4077 0028 019B     		ldr	r3, [sp, #4]
 4078 002a 23F48073 		bic	r3, r3, #256
 4079              		.loc 1 1684 14 view .LVU1377
 4080 002e C4F84034 		str	r3, [r4, #1088]
ARM GAS  C:\Users\benny\AppData\Local\Temp\ccHko7Bj.s 			page 122


1685:Drivers/STM32F7xx_HAL_Driver/Src/stm32f7xx_ll_usb.c ****   HAL_Delay(10U);
 4081              		.loc 1 1685 3 is_stmt 1 view .LVU1378
 4082 0032 0A20     		movs	r0, #10
 4083 0034 FFF7FEFF 		bl	HAL_Delay
 4084              	.LVL303:
1686:Drivers/STM32F7xx_HAL_Driver/Src/stm32f7xx_ll_usb.c **** 
1687:Drivers/STM32F7xx_HAL_Driver/Src/stm32f7xx_ll_usb.c ****   return HAL_OK;
 4085              		.loc 1 1687 3 view .LVU1379
1688:Drivers/STM32F7xx_HAL_Driver/Src/stm32f7xx_ll_usb.c **** }
 4086              		.loc 1 1688 1 is_stmt 0 view .LVU1380
 4087 0038 2846     		mov	r0, r5
 4088 003a 03B0     		add	sp, sp, #12
 4089              	.LCFI52:
 4090              		.cfi_def_cfa_offset 12
 4091              		@ sp needed
 4092 003c 30BD     		pop	{r4, r5, pc}
 4093              		.loc 1 1688 1 view .LVU1381
 4094              		.cfi_endproc
 4095              	.LFE179:
 4097              		.section	.text.USB_DriveVbus,"ax",%progbits
 4098              		.align	1
 4099              		.global	USB_DriveVbus
 4100              		.syntax unified
 4101              		.thumb
 4102              		.thumb_func
 4104              	USB_DriveVbus:
 4105              	.LVL304:
 4106              	.LFB180:
1689:Drivers/STM32F7xx_HAL_Driver/Src/stm32f7xx_ll_usb.c **** 
1690:Drivers/STM32F7xx_HAL_Driver/Src/stm32f7xx_ll_usb.c **** /**
1691:Drivers/STM32F7xx_HAL_Driver/Src/stm32f7xx_ll_usb.c ****   * @brief  USB_DriveVbus : activate or de-activate vbus
1692:Drivers/STM32F7xx_HAL_Driver/Src/stm32f7xx_ll_usb.c ****   * @param  state  VBUS state
1693:Drivers/STM32F7xx_HAL_Driver/Src/stm32f7xx_ll_usb.c ****   *          This parameter can be one of these values:
1694:Drivers/STM32F7xx_HAL_Driver/Src/stm32f7xx_ll_usb.c ****   *           0 : Deactivate VBUS
1695:Drivers/STM32F7xx_HAL_Driver/Src/stm32f7xx_ll_usb.c ****   *           1 : Activate VBUS
1696:Drivers/STM32F7xx_HAL_Driver/Src/stm32f7xx_ll_usb.c ****   * @retval HAL status
1697:Drivers/STM32F7xx_HAL_Driver/Src/stm32f7xx_ll_usb.c ****   */
1698:Drivers/STM32F7xx_HAL_Driver/Src/stm32f7xx_ll_usb.c **** HAL_StatusTypeDef USB_DriveVbus(const USB_OTG_GlobalTypeDef *USBx, uint8_t state)
1699:Drivers/STM32F7xx_HAL_Driver/Src/stm32f7xx_ll_usb.c **** {
 4107              		.loc 1 1699 1 is_stmt 1 view -0
 4108              		.cfi_startproc
 4109              		@ args = 0, pretend = 0, frame = 8
 4110              		@ frame_needed = 0, uses_anonymous_args = 0
 4111              		@ link register save eliminated.
 4112              		.loc 1 1699 1 is_stmt 0 view .LVU1383
 4113 0000 82B0     		sub	sp, sp, #8
 4114              	.LCFI53:
 4115              		.cfi_def_cfa_offset 8
1700:Drivers/STM32F7xx_HAL_Driver/Src/stm32f7xx_ll_usb.c ****   uint32_t USBx_BASE = (uint32_t)USBx;
 4116              		.loc 1 1700 3 is_stmt 1 view .LVU1384
 4117              	.LVL305:
1701:Drivers/STM32F7xx_HAL_Driver/Src/stm32f7xx_ll_usb.c ****   __IO uint32_t hprt0 = 0U;
 4118              		.loc 1 1701 3 view .LVU1385
 4119              		.loc 1 1701 17 is_stmt 0 view .LVU1386
 4120 0002 0023     		movs	r3, #0
 4121 0004 0193     		str	r3, [sp, #4]
1702:Drivers/STM32F7xx_HAL_Driver/Src/stm32f7xx_ll_usb.c **** 
ARM GAS  C:\Users\benny\AppData\Local\Temp\ccHko7Bj.s 			page 123


1703:Drivers/STM32F7xx_HAL_Driver/Src/stm32f7xx_ll_usb.c ****   hprt0 = USBx_HPRT0;
 4122              		.loc 1 1703 3 is_stmt 1 view .LVU1387
 4123              		.loc 1 1703 11 is_stmt 0 view .LVU1388
 4124 0006 D0F84034 		ldr	r3, [r0, #1088]
 4125              		.loc 1 1703 9 view .LVU1389
 4126 000a 0193     		str	r3, [sp, #4]
1704:Drivers/STM32F7xx_HAL_Driver/Src/stm32f7xx_ll_usb.c **** 
1705:Drivers/STM32F7xx_HAL_Driver/Src/stm32f7xx_ll_usb.c ****   hprt0 &= ~(USB_OTG_HPRT_PENA | USB_OTG_HPRT_PCDET |
 4127              		.loc 1 1705 3 is_stmt 1 view .LVU1390
 4128              		.loc 1 1705 9 is_stmt 0 view .LVU1391
 4129 000c 019B     		ldr	r3, [sp, #4]
 4130 000e 23F02E03 		bic	r3, r3, #46
 4131 0012 0193     		str	r3, [sp, #4]
1706:Drivers/STM32F7xx_HAL_Driver/Src/stm32f7xx_ll_usb.c ****              USB_OTG_HPRT_PENCHNG | USB_OTG_HPRT_POCCHNG);
1707:Drivers/STM32F7xx_HAL_Driver/Src/stm32f7xx_ll_usb.c **** 
1708:Drivers/STM32F7xx_HAL_Driver/Src/stm32f7xx_ll_usb.c ****   if (((hprt0 & USB_OTG_HPRT_PPWR) == 0U) && (state == 1U))
 4132              		.loc 1 1708 3 is_stmt 1 view .LVU1392
 4133              		.loc 1 1708 15 is_stmt 0 view .LVU1393
 4134 0014 019B     		ldr	r3, [sp, #4]
 4135              		.loc 1 1708 6 view .LVU1394
 4136 0016 13F4805F 		tst	r3, #4096
 4137 001a 01D1     		bne	.L268
 4138              		.loc 1 1708 43 discriminator 1 view .LVU1395
 4139 001c 0129     		cmp	r1, #1
 4140 001e 0CD0     		beq	.L271
 4141              	.L268:
1709:Drivers/STM32F7xx_HAL_Driver/Src/stm32f7xx_ll_usb.c ****   {
1710:Drivers/STM32F7xx_HAL_Driver/Src/stm32f7xx_ll_usb.c ****     USBx_HPRT0 = (USB_OTG_HPRT_PPWR | hprt0);
1711:Drivers/STM32F7xx_HAL_Driver/Src/stm32f7xx_ll_usb.c ****   }
1712:Drivers/STM32F7xx_HAL_Driver/Src/stm32f7xx_ll_usb.c ****   if (((hprt0 & USB_OTG_HPRT_PPWR) == USB_OTG_HPRT_PPWR) && (state == 0U))
 4142              		.loc 1 1712 3 is_stmt 1 view .LVU1396
 4143              		.loc 1 1712 15 is_stmt 0 view .LVU1397
 4144 0020 019B     		ldr	r3, [sp, #4]
 4145              		.loc 1 1712 6 view .LVU1398
 4146 0022 13F4805F 		tst	r3, #4096
 4147 0026 05D0     		beq	.L269
 4148              		.loc 1 1712 58 discriminator 1 view .LVU1399
 4149 0028 21B9     		cbnz	r1, .L269
1713:Drivers/STM32F7xx_HAL_Driver/Src/stm32f7xx_ll_usb.c ****   {
1714:Drivers/STM32F7xx_HAL_Driver/Src/stm32f7xx_ll_usb.c ****     USBx_HPRT0 = ((~USB_OTG_HPRT_PPWR) & hprt0);
 4150              		.loc 1 1714 5 is_stmt 1 view .LVU1400
 4151              		.loc 1 1714 40 is_stmt 0 view .LVU1401
 4152 002a 019B     		ldr	r3, [sp, #4]
 4153 002c 23F48053 		bic	r3, r3, #4096
 4154              		.loc 1 1714 16 view .LVU1402
 4155 0030 C0F84034 		str	r3, [r0, #1088]
 4156              	.L269:
1715:Drivers/STM32F7xx_HAL_Driver/Src/stm32f7xx_ll_usb.c ****   }
1716:Drivers/STM32F7xx_HAL_Driver/Src/stm32f7xx_ll_usb.c ****   return HAL_OK;
 4157              		.loc 1 1716 3 is_stmt 1 view .LVU1403
1717:Drivers/STM32F7xx_HAL_Driver/Src/stm32f7xx_ll_usb.c **** }
 4158              		.loc 1 1717 1 is_stmt 0 view .LVU1404
 4159 0034 0020     		movs	r0, #0
 4160              	.LVL306:
 4161              		.loc 1 1717 1 view .LVU1405
 4162 0036 02B0     		add	sp, sp, #8
 4163              	.LCFI54:
ARM GAS  C:\Users\benny\AppData\Local\Temp\ccHko7Bj.s 			page 124


 4164              		.cfi_remember_state
 4165              		.cfi_def_cfa_offset 0
 4166              		@ sp needed
 4167 0038 7047     		bx	lr
 4168              	.LVL307:
 4169              	.L271:
 4170              	.LCFI55:
 4171              		.cfi_restore_state
1710:Drivers/STM32F7xx_HAL_Driver/Src/stm32f7xx_ll_usb.c ****   }
 4172              		.loc 1 1710 5 is_stmt 1 view .LVU1406
1710:Drivers/STM32F7xx_HAL_Driver/Src/stm32f7xx_ll_usb.c ****   }
 4173              		.loc 1 1710 37 is_stmt 0 view .LVU1407
 4174 003a 019B     		ldr	r3, [sp, #4]
 4175 003c 43F48053 		orr	r3, r3, #4096
1710:Drivers/STM32F7xx_HAL_Driver/Src/stm32f7xx_ll_usb.c ****   }
 4176              		.loc 1 1710 16 view .LVU1408
 4177 0040 C0F84034 		str	r3, [r0, #1088]
 4178 0044 ECE7     		b	.L268
 4179              		.cfi_endproc
 4180              	.LFE180:
 4182              		.section	.text.USB_GetHostSpeed,"ax",%progbits
 4183              		.align	1
 4184              		.global	USB_GetHostSpeed
 4185              		.syntax unified
 4186              		.thumb
 4187              		.thumb_func
 4189              	USB_GetHostSpeed:
 4190              	.LVL308:
 4191              	.LFB181:
1718:Drivers/STM32F7xx_HAL_Driver/Src/stm32f7xx_ll_usb.c **** 
1719:Drivers/STM32F7xx_HAL_Driver/Src/stm32f7xx_ll_usb.c **** /**
1720:Drivers/STM32F7xx_HAL_Driver/Src/stm32f7xx_ll_usb.c ****   * @brief  Return Host Core speed
1721:Drivers/STM32F7xx_HAL_Driver/Src/stm32f7xx_ll_usb.c ****   * @param  USBx  Selected device
1722:Drivers/STM32F7xx_HAL_Driver/Src/stm32f7xx_ll_usb.c ****   * @retval speed : Host speed
1723:Drivers/STM32F7xx_HAL_Driver/Src/stm32f7xx_ll_usb.c ****   *          This parameter can be one of these values:
1724:Drivers/STM32F7xx_HAL_Driver/Src/stm32f7xx_ll_usb.c ****   *            @arg HCD_SPEED_HIGH: High speed mode
1725:Drivers/STM32F7xx_HAL_Driver/Src/stm32f7xx_ll_usb.c ****   *            @arg HCD_SPEED_FULL: Full speed mode
1726:Drivers/STM32F7xx_HAL_Driver/Src/stm32f7xx_ll_usb.c ****   *            @arg HCD_SPEED_LOW: Low speed mode
1727:Drivers/STM32F7xx_HAL_Driver/Src/stm32f7xx_ll_usb.c ****   */
1728:Drivers/STM32F7xx_HAL_Driver/Src/stm32f7xx_ll_usb.c **** uint32_t USB_GetHostSpeed(USB_OTG_GlobalTypeDef const *USBx)
1729:Drivers/STM32F7xx_HAL_Driver/Src/stm32f7xx_ll_usb.c **** {
 4192              		.loc 1 1729 1 is_stmt 1 view -0
 4193              		.cfi_startproc
 4194              		@ args = 0, pretend = 0, frame = 8
 4195              		@ frame_needed = 0, uses_anonymous_args = 0
 4196              		@ link register save eliminated.
 4197              		.loc 1 1729 1 is_stmt 0 view .LVU1410
 4198 0000 82B0     		sub	sp, sp, #8
 4199              	.LCFI56:
 4200              		.cfi_def_cfa_offset 8
1730:Drivers/STM32F7xx_HAL_Driver/Src/stm32f7xx_ll_usb.c ****   uint32_t USBx_BASE = (uint32_t)USBx;
 4201              		.loc 1 1730 3 is_stmt 1 view .LVU1411
 4202              	.LVL309:
1731:Drivers/STM32F7xx_HAL_Driver/Src/stm32f7xx_ll_usb.c ****   __IO uint32_t hprt0 = 0U;
 4203              		.loc 1 1731 3 view .LVU1412
 4204              		.loc 1 1731 17 is_stmt 0 view .LVU1413
 4205 0002 0023     		movs	r3, #0
ARM GAS  C:\Users\benny\AppData\Local\Temp\ccHko7Bj.s 			page 125


 4206 0004 0193     		str	r3, [sp, #4]
1732:Drivers/STM32F7xx_HAL_Driver/Src/stm32f7xx_ll_usb.c **** 
1733:Drivers/STM32F7xx_HAL_Driver/Src/stm32f7xx_ll_usb.c ****   hprt0 = USBx_HPRT0;
 4207              		.loc 1 1733 3 is_stmt 1 view .LVU1414
 4208              		.loc 1 1733 11 is_stmt 0 view .LVU1415
 4209 0006 D0F84034 		ldr	r3, [r0, #1088]
 4210              		.loc 1 1733 9 view .LVU1416
 4211 000a 0193     		str	r3, [sp, #4]
1734:Drivers/STM32F7xx_HAL_Driver/Src/stm32f7xx_ll_usb.c ****   return ((hprt0 & USB_OTG_HPRT_PSPD) >> 17);
 4212              		.loc 1 1734 3 is_stmt 1 view .LVU1417
 4213              		.loc 1 1734 39 is_stmt 0 view .LVU1418
 4214 000c 0198     		ldr	r0, [sp, #4]
 4215              	.LVL310:
1735:Drivers/STM32F7xx_HAL_Driver/Src/stm32f7xx_ll_usb.c **** }
 4216              		.loc 1 1735 1 view .LVU1419
 4217 000e C0F34140 		ubfx	r0, r0, #17, #2
 4218 0012 02B0     		add	sp, sp, #8
 4219              	.LCFI57:
 4220              		.cfi_def_cfa_offset 0
 4221              		@ sp needed
 4222 0014 7047     		bx	lr
 4223              		.cfi_endproc
 4224              	.LFE181:
 4226              		.section	.text.USB_GetCurrentFrame,"ax",%progbits
 4227              		.align	1
 4228              		.global	USB_GetCurrentFrame
 4229              		.syntax unified
 4230              		.thumb
 4231              		.thumb_func
 4233              	USB_GetCurrentFrame:
 4234              	.LVL311:
 4235              	.LFB182:
1736:Drivers/STM32F7xx_HAL_Driver/Src/stm32f7xx_ll_usb.c **** 
1737:Drivers/STM32F7xx_HAL_Driver/Src/stm32f7xx_ll_usb.c **** /**
1738:Drivers/STM32F7xx_HAL_Driver/Src/stm32f7xx_ll_usb.c ****   * @brief  Return Host Current Frame number
1739:Drivers/STM32F7xx_HAL_Driver/Src/stm32f7xx_ll_usb.c ****   * @param  USBx  Selected device
1740:Drivers/STM32F7xx_HAL_Driver/Src/stm32f7xx_ll_usb.c ****   * @retval current frame number
1741:Drivers/STM32F7xx_HAL_Driver/Src/stm32f7xx_ll_usb.c ****   */
1742:Drivers/STM32F7xx_HAL_Driver/Src/stm32f7xx_ll_usb.c **** uint32_t USB_GetCurrentFrame(USB_OTG_GlobalTypeDef const *USBx)
1743:Drivers/STM32F7xx_HAL_Driver/Src/stm32f7xx_ll_usb.c **** {
 4236              		.loc 1 1743 1 is_stmt 1 view -0
 4237              		.cfi_startproc
 4238              		@ args = 0, pretend = 0, frame = 0
 4239              		@ frame_needed = 0, uses_anonymous_args = 0
 4240              		@ link register save eliminated.
1744:Drivers/STM32F7xx_HAL_Driver/Src/stm32f7xx_ll_usb.c ****   uint32_t USBx_BASE = (uint32_t)USBx;
 4241              		.loc 1 1744 3 view .LVU1421
1745:Drivers/STM32F7xx_HAL_Driver/Src/stm32f7xx_ll_usb.c **** 
1746:Drivers/STM32F7xx_HAL_Driver/Src/stm32f7xx_ll_usb.c ****   return (USBx_HOST->HFNUM & USB_OTG_HFNUM_FRNUM);
 4242              		.loc 1 1746 3 view .LVU1422
 4243              		.loc 1 1746 11 is_stmt 0 view .LVU1423
 4244 0000 00F58060 		add	r0, r0, #1024
 4245              	.LVL312:
 4246              		.loc 1 1746 20 view .LVU1424
 4247 0004 8068     		ldr	r0, [r0, #8]
 4248              	.LVL313:
1747:Drivers/STM32F7xx_HAL_Driver/Src/stm32f7xx_ll_usb.c **** }
ARM GAS  C:\Users\benny\AppData\Local\Temp\ccHko7Bj.s 			page 126


 4249              		.loc 1 1747 1 view .LVU1425
 4250 0006 80B2     		uxth	r0, r0
 4251 0008 7047     		bx	lr
 4252              		.cfi_endproc
 4253              	.LFE182:
 4255              		.section	.text.USB_HC_Init,"ax",%progbits
 4256              		.align	1
 4257              		.global	USB_HC_Init
 4258              		.syntax unified
 4259              		.thumb
 4260              		.thumb_func
 4262              	USB_HC_Init:
 4263              	.LVL314:
 4264              	.LFB183:
1748:Drivers/STM32F7xx_HAL_Driver/Src/stm32f7xx_ll_usb.c **** 
1749:Drivers/STM32F7xx_HAL_Driver/Src/stm32f7xx_ll_usb.c **** /**
1750:Drivers/STM32F7xx_HAL_Driver/Src/stm32f7xx_ll_usb.c ****   * @brief  Initialize a host channel
1751:Drivers/STM32F7xx_HAL_Driver/Src/stm32f7xx_ll_usb.c ****   * @param  USBx  Selected device
1752:Drivers/STM32F7xx_HAL_Driver/Src/stm32f7xx_ll_usb.c ****   * @param  ch_num  Channel number
1753:Drivers/STM32F7xx_HAL_Driver/Src/stm32f7xx_ll_usb.c ****   *         This parameter can be a value from 1 to 15
1754:Drivers/STM32F7xx_HAL_Driver/Src/stm32f7xx_ll_usb.c ****   * @param  epnum  Endpoint number
1755:Drivers/STM32F7xx_HAL_Driver/Src/stm32f7xx_ll_usb.c ****   *          This parameter can be a value from 1 to 15
1756:Drivers/STM32F7xx_HAL_Driver/Src/stm32f7xx_ll_usb.c ****   * @param  dev_address  Current device address
1757:Drivers/STM32F7xx_HAL_Driver/Src/stm32f7xx_ll_usb.c ****   *          This parameter can be a value from 0 to 255
1758:Drivers/STM32F7xx_HAL_Driver/Src/stm32f7xx_ll_usb.c ****   * @param  speed  Current device speed
1759:Drivers/STM32F7xx_HAL_Driver/Src/stm32f7xx_ll_usb.c ****   *          This parameter can be one of these values:
1760:Drivers/STM32F7xx_HAL_Driver/Src/stm32f7xx_ll_usb.c ****   *            @arg USB_OTG_SPEED_HIGH: High speed mode
1761:Drivers/STM32F7xx_HAL_Driver/Src/stm32f7xx_ll_usb.c ****   *            @arg USB_OTG_SPEED_FULL: Full speed mode
1762:Drivers/STM32F7xx_HAL_Driver/Src/stm32f7xx_ll_usb.c ****   *            @arg USB_OTG_SPEED_LOW: Low speed mode
1763:Drivers/STM32F7xx_HAL_Driver/Src/stm32f7xx_ll_usb.c ****   * @param  ep_type  Endpoint Type
1764:Drivers/STM32F7xx_HAL_Driver/Src/stm32f7xx_ll_usb.c ****   *          This parameter can be one of these values:
1765:Drivers/STM32F7xx_HAL_Driver/Src/stm32f7xx_ll_usb.c ****   *            @arg EP_TYPE_CTRL: Control type
1766:Drivers/STM32F7xx_HAL_Driver/Src/stm32f7xx_ll_usb.c ****   *            @arg EP_TYPE_ISOC: Isochronous type
1767:Drivers/STM32F7xx_HAL_Driver/Src/stm32f7xx_ll_usb.c ****   *            @arg EP_TYPE_BULK: Bulk type
1768:Drivers/STM32F7xx_HAL_Driver/Src/stm32f7xx_ll_usb.c ****   *            @arg EP_TYPE_INTR: Interrupt type
1769:Drivers/STM32F7xx_HAL_Driver/Src/stm32f7xx_ll_usb.c ****   * @param  mps  Max Packet Size
1770:Drivers/STM32F7xx_HAL_Driver/Src/stm32f7xx_ll_usb.c ****   *          This parameter can be a value from 0 to 32K
1771:Drivers/STM32F7xx_HAL_Driver/Src/stm32f7xx_ll_usb.c ****   * @retval HAL state
1772:Drivers/STM32F7xx_HAL_Driver/Src/stm32f7xx_ll_usb.c ****   */
1773:Drivers/STM32F7xx_HAL_Driver/Src/stm32f7xx_ll_usb.c **** HAL_StatusTypeDef USB_HC_Init(USB_OTG_GlobalTypeDef *USBx, uint8_t ch_num,
1774:Drivers/STM32F7xx_HAL_Driver/Src/stm32f7xx_ll_usb.c ****                               uint8_t epnum, uint8_t dev_address, uint8_t speed,
1775:Drivers/STM32F7xx_HAL_Driver/Src/stm32f7xx_ll_usb.c ****                               uint8_t ep_type, uint16_t mps)
1776:Drivers/STM32F7xx_HAL_Driver/Src/stm32f7xx_ll_usb.c **** {
 4265              		.loc 1 1776 1 is_stmt 1 view -0
 4266              		.cfi_startproc
 4267              		@ args = 12, pretend = 0, frame = 0
 4268              		@ frame_needed = 0, uses_anonymous_args = 0
 4269              		.loc 1 1776 1 is_stmt 0 view .LVU1427
 4270 0000 2DE9F843 		push	{r3, r4, r5, r6, r7, r8, r9, lr}
 4271              	.LCFI58:
 4272              		.cfi_def_cfa_offset 32
 4273              		.cfi_offset 3, -32
 4274              		.cfi_offset 4, -28
 4275              		.cfi_offset 5, -24
 4276              		.cfi_offset 6, -20
 4277              		.cfi_offset 7, -16
 4278              		.cfi_offset 8, -12
ARM GAS  C:\Users\benny\AppData\Local\Temp\ccHko7Bj.s 			page 127


 4279              		.cfi_offset 9, -8
 4280              		.cfi_offset 14, -4
 4281 0004 9146     		mov	r9, r2
 4282 0006 1C46     		mov	r4, r3
 4283 0008 9DF82450 		ldrb	r5, [sp, #36]	@ zero_extendqisi2
1777:Drivers/STM32F7xx_HAL_Driver/Src/stm32f7xx_ll_usb.c ****   HAL_StatusTypeDef ret = HAL_OK;
 4284              		.loc 1 1777 3 is_stmt 1 view .LVU1428
 4285              	.LVL315:
1778:Drivers/STM32F7xx_HAL_Driver/Src/stm32f7xx_ll_usb.c ****   uint32_t USBx_BASE = (uint32_t)USBx;
 4286              		.loc 1 1778 3 view .LVU1429
1779:Drivers/STM32F7xx_HAL_Driver/Src/stm32f7xx_ll_usb.c ****   uint32_t HCcharEpDir;
 4287              		.loc 1 1779 3 view .LVU1430
1780:Drivers/STM32F7xx_HAL_Driver/Src/stm32f7xx_ll_usb.c ****   uint32_t HCcharLowSpeed;
 4288              		.loc 1 1780 3 view .LVU1431
1781:Drivers/STM32F7xx_HAL_Driver/Src/stm32f7xx_ll_usb.c ****   uint32_t HostCoreSpeed;
 4289              		.loc 1 1781 3 view .LVU1432
1782:Drivers/STM32F7xx_HAL_Driver/Src/stm32f7xx_ll_usb.c **** 
1783:Drivers/STM32F7xx_HAL_Driver/Src/stm32f7xx_ll_usb.c ****   /* Clear old interrupt conditions for this host channel. */
1784:Drivers/STM32F7xx_HAL_Driver/Src/stm32f7xx_ll_usb.c ****   USBx_HC((uint32_t)ch_num)->HCINT = CLEAR_INTERRUPT_MASK;
 4290              		.loc 1 1784 3 view .LVU1433
 4291 000c 00EB4116 		add	r6, r0, r1, lsl #5
 4292 0010 06F5A063 		add	r3, r6, #1280
 4293              	.LVL316:
 4294              		.loc 1 1784 36 is_stmt 0 view .LVU1434
 4295 0014 4FF0FF32 		mov	r2, #-1
 4296              	.LVL317:
 4297              		.loc 1 1784 36 view .LVU1435
 4298 0018 9A60     		str	r2, [r3, #8]
1785:Drivers/STM32F7xx_HAL_Driver/Src/stm32f7xx_ll_usb.c **** 
1786:Drivers/STM32F7xx_HAL_Driver/Src/stm32f7xx_ll_usb.c ****   /* Enable channel interrupts required for this transfer. */
1787:Drivers/STM32F7xx_HAL_Driver/Src/stm32f7xx_ll_usb.c ****   switch (ep_type)
 4299              		.loc 1 1787 3 is_stmt 1 view .LVU1436
 4300 001a 032D     		cmp	r5, #3
 4301 001c 00F28380 		bhi	.L285
 4302 0020 DFE805F0 		tbb	[pc, r5]
 4303              	.L278:
 4304 0024 02       		.byte	(.L279-.L278)/2
 4305 0025 73       		.byte	(.L280-.L278)/2
 4306 0026 02       		.byte	(.L279-.L278)/2
 4307 0027 19       		.byte	(.L277-.L278)/2
 4308              		.p2align 1
 4309              	.L279:
1788:Drivers/STM32F7xx_HAL_Driver/Src/stm32f7xx_ll_usb.c ****   {
1789:Drivers/STM32F7xx_HAL_Driver/Src/stm32f7xx_ll_usb.c ****     case EP_TYPE_CTRL:
1790:Drivers/STM32F7xx_HAL_Driver/Src/stm32f7xx_ll_usb.c ****     case EP_TYPE_BULK:
1791:Drivers/STM32F7xx_HAL_Driver/Src/stm32f7xx_ll_usb.c ****       USBx_HC((uint32_t)ch_num)->HCINTMSK = USB_OTG_HCINTMSK_XFRCM  |
 4310              		.loc 1 1791 7 view .LVU1437
 4311              		.loc 1 1791 43 is_stmt 0 view .LVU1438
 4312 0028 40F29D42 		movw	r2, #1181
 4313 002c DA60     		str	r2, [r3, #12]
1792:Drivers/STM32F7xx_HAL_Driver/Src/stm32f7xx_ll_usb.c ****                                             USB_OTG_HCINTMSK_STALLM |
1793:Drivers/STM32F7xx_HAL_Driver/Src/stm32f7xx_ll_usb.c ****                                             USB_OTG_HCINTMSK_TXERRM |
1794:Drivers/STM32F7xx_HAL_Driver/Src/stm32f7xx_ll_usb.c ****                                             USB_OTG_HCINTMSK_DTERRM |
1795:Drivers/STM32F7xx_HAL_Driver/Src/stm32f7xx_ll_usb.c ****                                             USB_OTG_HCINTMSK_AHBERR |
1796:Drivers/STM32F7xx_HAL_Driver/Src/stm32f7xx_ll_usb.c ****                                             USB_OTG_HCINTMSK_NAKM;
1797:Drivers/STM32F7xx_HAL_Driver/Src/stm32f7xx_ll_usb.c **** 
1798:Drivers/STM32F7xx_HAL_Driver/Src/stm32f7xx_ll_usb.c ****       if ((epnum & 0x80U) == 0x80U)
ARM GAS  C:\Users\benny\AppData\Local\Temp\ccHko7Bj.s 			page 128


 4314              		.loc 1 1798 7 is_stmt 1 view .LVU1439
 4315              		.loc 1 1798 10 is_stmt 0 view .LVU1440
 4316 002e 19F0800F 		tst	r9, #128
 4317 0032 04D1     		bne	.L292
1799:Drivers/STM32F7xx_HAL_Driver/Src/stm32f7xx_ll_usb.c ****       {
1800:Drivers/STM32F7xx_HAL_Driver/Src/stm32f7xx_ll_usb.c ****         USBx_HC((uint32_t)ch_num)->HCINTMSK |= USB_OTG_HCINTMSK_BBERRM;
1801:Drivers/STM32F7xx_HAL_Driver/Src/stm32f7xx_ll_usb.c ****       }
1802:Drivers/STM32F7xx_HAL_Driver/Src/stm32f7xx_ll_usb.c ****       else
1803:Drivers/STM32F7xx_HAL_Driver/Src/stm32f7xx_ll_usb.c ****       {
1804:Drivers/STM32F7xx_HAL_Driver/Src/stm32f7xx_ll_usb.c **** #if defined (USB_OTG_HS)
1805:Drivers/STM32F7xx_HAL_Driver/Src/stm32f7xx_ll_usb.c ****         if (USBx == USB_OTG_HS)
 4318              		.loc 1 1805 9 is_stmt 1 view .LVU1441
 4319              		.loc 1 1805 12 is_stmt 0 view .LVU1442
 4320 0034 3F4A     		ldr	r2, .L297
 4321 0036 9042     		cmp	r0, r2
 4322 0038 07D0     		beq	.L293
1777:Drivers/STM32F7xx_HAL_Driver/Src/stm32f7xx_ll_usb.c ****   uint32_t USBx_BASE = (uint32_t)USBx;
 4323              		.loc 1 1777 21 view .LVU1443
 4324 003a 0027     		movs	r7, #0
 4325 003c 12E0     		b	.L276
 4326              	.L292:
1800:Drivers/STM32F7xx_HAL_Driver/Src/stm32f7xx_ll_usb.c ****       }
 4327              		.loc 1 1800 9 is_stmt 1 view .LVU1444
1800:Drivers/STM32F7xx_HAL_Driver/Src/stm32f7xx_ll_usb.c ****       }
 4328              		.loc 1 1800 34 is_stmt 0 view .LVU1445
 4329 003e DA68     		ldr	r2, [r3, #12]
1800:Drivers/STM32F7xx_HAL_Driver/Src/stm32f7xx_ll_usb.c ****       }
 4330              		.loc 1 1800 45 view .LVU1446
 4331 0040 42F48072 		orr	r2, r2, #256
 4332 0044 DA60     		str	r2, [r3, #12]
1777:Drivers/STM32F7xx_HAL_Driver/Src/stm32f7xx_ll_usb.c ****   uint32_t USBx_BASE = (uint32_t)USBx;
 4333              		.loc 1 1777 21 view .LVU1447
 4334 0046 0027     		movs	r7, #0
 4335 0048 0CE0     		b	.L276
 4336              	.L293:
1806:Drivers/STM32F7xx_HAL_Driver/Src/stm32f7xx_ll_usb.c ****         {
1807:Drivers/STM32F7xx_HAL_Driver/Src/stm32f7xx_ll_usb.c ****           USBx_HC((uint32_t)ch_num)->HCINTMSK |= USB_OTG_HCINTMSK_NYET |
 4337              		.loc 1 1807 11 is_stmt 1 view .LVU1448
 4338              		.loc 1 1807 36 is_stmt 0 view .LVU1449
 4339 004a DA68     		ldr	r2, [r3, #12]
 4340              		.loc 1 1807 47 view .LVU1450
 4341 004c 42F06002 		orr	r2, r2, #96
 4342 0050 DA60     		str	r2, [r3, #12]
1777:Drivers/STM32F7xx_HAL_Driver/Src/stm32f7xx_ll_usb.c ****   uint32_t USBx_BASE = (uint32_t)USBx;
 4343              		.loc 1 1777 21 view .LVU1451
 4344 0052 0027     		movs	r7, #0
 4345 0054 06E0     		b	.L276
 4346              	.L277:
1808:Drivers/STM32F7xx_HAL_Driver/Src/stm32f7xx_ll_usb.c ****                                                  USB_OTG_HCINTMSK_ACKM;
1809:Drivers/STM32F7xx_HAL_Driver/Src/stm32f7xx_ll_usb.c ****         }
1810:Drivers/STM32F7xx_HAL_Driver/Src/stm32f7xx_ll_usb.c **** #endif /* defined (USB_OTG_HS) */
1811:Drivers/STM32F7xx_HAL_Driver/Src/stm32f7xx_ll_usb.c ****       }
1812:Drivers/STM32F7xx_HAL_Driver/Src/stm32f7xx_ll_usb.c ****       break;
1813:Drivers/STM32F7xx_HAL_Driver/Src/stm32f7xx_ll_usb.c **** 
1814:Drivers/STM32F7xx_HAL_Driver/Src/stm32f7xx_ll_usb.c ****     case EP_TYPE_INTR:
1815:Drivers/STM32F7xx_HAL_Driver/Src/stm32f7xx_ll_usb.c ****       USBx_HC((uint32_t)ch_num)->HCINTMSK = USB_OTG_HCINTMSK_XFRCM  |
 4347              		.loc 1 1815 7 is_stmt 1 view .LVU1452
ARM GAS  C:\Users\benny\AppData\Local\Temp\ccHko7Bj.s 			page 129


 4348              		.loc 1 1815 43 is_stmt 0 view .LVU1453
 4349 0056 40F29D62 		movw	r2, #1693
 4350 005a DA60     		str	r2, [r3, #12]
1816:Drivers/STM32F7xx_HAL_Driver/Src/stm32f7xx_ll_usb.c ****                                             USB_OTG_HCINTMSK_STALLM |
1817:Drivers/STM32F7xx_HAL_Driver/Src/stm32f7xx_ll_usb.c ****                                             USB_OTG_HCINTMSK_TXERRM |
1818:Drivers/STM32F7xx_HAL_Driver/Src/stm32f7xx_ll_usb.c ****                                             USB_OTG_HCINTMSK_DTERRM |
1819:Drivers/STM32F7xx_HAL_Driver/Src/stm32f7xx_ll_usb.c ****                                             USB_OTG_HCINTMSK_NAKM   |
1820:Drivers/STM32F7xx_HAL_Driver/Src/stm32f7xx_ll_usb.c ****                                             USB_OTG_HCINTMSK_AHBERR |
1821:Drivers/STM32F7xx_HAL_Driver/Src/stm32f7xx_ll_usb.c ****                                             USB_OTG_HCINTMSK_FRMORM;
1822:Drivers/STM32F7xx_HAL_Driver/Src/stm32f7xx_ll_usb.c **** 
1823:Drivers/STM32F7xx_HAL_Driver/Src/stm32f7xx_ll_usb.c ****       if ((epnum & 0x80U) == 0x80U)
 4351              		.loc 1 1823 7 is_stmt 1 view .LVU1454
 4352              		.loc 1 1823 10 is_stmt 0 view .LVU1455
 4353 005c 19F0800F 		tst	r9, #128
 4354 0060 4DD1     		bne	.L294
1777:Drivers/STM32F7xx_HAL_Driver/Src/stm32f7xx_ll_usb.c ****   uint32_t USBx_BASE = (uint32_t)USBx;
 4355              		.loc 1 1777 21 view .LVU1456
 4356 0062 0027     		movs	r7, #0
 4357              	.L276:
 4358              	.LVL318:
1824:Drivers/STM32F7xx_HAL_Driver/Src/stm32f7xx_ll_usb.c ****       {
1825:Drivers/STM32F7xx_HAL_Driver/Src/stm32f7xx_ll_usb.c ****         USBx_HC((uint32_t)ch_num)->HCINTMSK |= USB_OTG_HCINTMSK_BBERRM;
1826:Drivers/STM32F7xx_HAL_Driver/Src/stm32f7xx_ll_usb.c ****       }
1827:Drivers/STM32F7xx_HAL_Driver/Src/stm32f7xx_ll_usb.c **** 
1828:Drivers/STM32F7xx_HAL_Driver/Src/stm32f7xx_ll_usb.c ****       break;
1829:Drivers/STM32F7xx_HAL_Driver/Src/stm32f7xx_ll_usb.c **** 
1830:Drivers/STM32F7xx_HAL_Driver/Src/stm32f7xx_ll_usb.c ****     case EP_TYPE_ISOC:
1831:Drivers/STM32F7xx_HAL_Driver/Src/stm32f7xx_ll_usb.c ****       USBx_HC((uint32_t)ch_num)->HCINTMSK = USB_OTG_HCINTMSK_XFRCM  |
1832:Drivers/STM32F7xx_HAL_Driver/Src/stm32f7xx_ll_usb.c ****                                             USB_OTG_HCINTMSK_ACKM   |
1833:Drivers/STM32F7xx_HAL_Driver/Src/stm32f7xx_ll_usb.c ****                                             USB_OTG_HCINTMSK_AHBERR |
1834:Drivers/STM32F7xx_HAL_Driver/Src/stm32f7xx_ll_usb.c ****                                             USB_OTG_HCINTMSK_FRMORM;
1835:Drivers/STM32F7xx_HAL_Driver/Src/stm32f7xx_ll_usb.c **** 
1836:Drivers/STM32F7xx_HAL_Driver/Src/stm32f7xx_ll_usb.c ****       if ((epnum & 0x80U) == 0x80U)
1837:Drivers/STM32F7xx_HAL_Driver/Src/stm32f7xx_ll_usb.c ****       {
1838:Drivers/STM32F7xx_HAL_Driver/Src/stm32f7xx_ll_usb.c ****         USBx_HC((uint32_t)ch_num)->HCINTMSK |= (USB_OTG_HCINTMSK_TXERRM | USB_OTG_HCINTMSK_BBERRM);
1839:Drivers/STM32F7xx_HAL_Driver/Src/stm32f7xx_ll_usb.c ****       }
1840:Drivers/STM32F7xx_HAL_Driver/Src/stm32f7xx_ll_usb.c ****       break;
1841:Drivers/STM32F7xx_HAL_Driver/Src/stm32f7xx_ll_usb.c **** 
1842:Drivers/STM32F7xx_HAL_Driver/Src/stm32f7xx_ll_usb.c ****     default:
1843:Drivers/STM32F7xx_HAL_Driver/Src/stm32f7xx_ll_usb.c ****       ret = HAL_ERROR;
1844:Drivers/STM32F7xx_HAL_Driver/Src/stm32f7xx_ll_usb.c ****       break;
1845:Drivers/STM32F7xx_HAL_Driver/Src/stm32f7xx_ll_usb.c ****   }
1846:Drivers/STM32F7xx_HAL_Driver/Src/stm32f7xx_ll_usb.c **** 
1847:Drivers/STM32F7xx_HAL_Driver/Src/stm32f7xx_ll_usb.c ****   /* Clear Hub Start Split transaction */
1848:Drivers/STM32F7xx_HAL_Driver/Src/stm32f7xx_ll_usb.c ****   USBx_HC((uint32_t)ch_num)->HCSPLT = 0U;
 4359              		.loc 1 1848 3 is_stmt 1 view .LVU1457
 4360              		.loc 1 1848 37 is_stmt 0 view .LVU1458
 4361 0064 0022     		movs	r2, #0
 4362 0066 5A60     		str	r2, [r3, #4]
1849:Drivers/STM32F7xx_HAL_Driver/Src/stm32f7xx_ll_usb.c **** 
1850:Drivers/STM32F7xx_HAL_Driver/Src/stm32f7xx_ll_usb.c ****   /* Enable host channel Halt interrupt */
1851:Drivers/STM32F7xx_HAL_Driver/Src/stm32f7xx_ll_usb.c ****   USBx_HC((uint32_t)ch_num)->HCINTMSK |= USB_OTG_HCINTMSK_CHHM;
 4363              		.loc 1 1851 3 is_stmt 1 view .LVU1459
 4364              		.loc 1 1851 28 is_stmt 0 view .LVU1460
 4365 0068 DA68     		ldr	r2, [r3, #12]
 4366              		.loc 1 1851 39 view .LVU1461
 4367 006a 42F00202 		orr	r2, r2, #2
ARM GAS  C:\Users\benny\AppData\Local\Temp\ccHko7Bj.s 			page 130


 4368 006e DA60     		str	r2, [r3, #12]
1852:Drivers/STM32F7xx_HAL_Driver/Src/stm32f7xx_ll_usb.c **** 
1853:Drivers/STM32F7xx_HAL_Driver/Src/stm32f7xx_ll_usb.c ****   /* Enable the top level host channel interrupt. */
1854:Drivers/STM32F7xx_HAL_Driver/Src/stm32f7xx_ll_usb.c ****   USBx_HOST->HAINTMSK |= 1UL << (ch_num & 0xFU);
 4369              		.loc 1 1854 3 is_stmt 1 view .LVU1462
 4370              		.loc 1 1854 12 is_stmt 0 view .LVU1463
 4371 0070 D0F81834 		ldr	r3, [r0, #1048]
 4372              		.loc 1 1854 41 view .LVU1464
 4373 0074 01F00F01 		and	r1, r1, #15
 4374              	.LVL319:
 4375              		.loc 1 1854 30 view .LVU1465
 4376 0078 0122     		movs	r2, #1
 4377 007a 8A40     		lsls	r2, r2, r1
 4378              		.loc 1 1854 23 view .LVU1466
 4379 007c 1343     		orrs	r3, r3, r2
 4380 007e C0F81834 		str	r3, [r0, #1048]
1855:Drivers/STM32F7xx_HAL_Driver/Src/stm32f7xx_ll_usb.c **** 
1856:Drivers/STM32F7xx_HAL_Driver/Src/stm32f7xx_ll_usb.c ****   /* Make sure host channel interrupts are enabled. */
1857:Drivers/STM32F7xx_HAL_Driver/Src/stm32f7xx_ll_usb.c ****   USBx->GINTMSK |= USB_OTG_GINTMSK_HCIM;
 4381              		.loc 1 1857 3 is_stmt 1 view .LVU1467
 4382              		.loc 1 1857 7 is_stmt 0 view .LVU1468
 4383 0082 8369     		ldr	r3, [r0, #24]
 4384              		.loc 1 1857 17 view .LVU1469
 4385 0084 43F00073 		orr	r3, r3, #33554432
 4386 0088 8361     		str	r3, [r0, #24]
1858:Drivers/STM32F7xx_HAL_Driver/Src/stm32f7xx_ll_usb.c **** 
1859:Drivers/STM32F7xx_HAL_Driver/Src/stm32f7xx_ll_usb.c ****   /* Program the HCCHAR register */
1860:Drivers/STM32F7xx_HAL_Driver/Src/stm32f7xx_ll_usb.c ****   if ((epnum & 0x80U) == 0x80U)
 4387              		.loc 1 1860 3 is_stmt 1 view .LVU1470
 4388              		.loc 1 1860 6 is_stmt 0 view .LVU1471
 4389 008a 19F0800F 		tst	r9, #128
 4390 008e 4CD1     		bne	.L295
1861:Drivers/STM32F7xx_HAL_Driver/Src/stm32f7xx_ll_usb.c ****   {
1862:Drivers/STM32F7xx_HAL_Driver/Src/stm32f7xx_ll_usb.c ****     HCcharEpDir = (0x1U << 15) & USB_OTG_HCCHAR_EPDIR;
1863:Drivers/STM32F7xx_HAL_Driver/Src/stm32f7xx_ll_usb.c ****   }
1864:Drivers/STM32F7xx_HAL_Driver/Src/stm32f7xx_ll_usb.c ****   else
1865:Drivers/STM32F7xx_HAL_Driver/Src/stm32f7xx_ll_usb.c ****   {
1866:Drivers/STM32F7xx_HAL_Driver/Src/stm32f7xx_ll_usb.c ****     HCcharEpDir = 0U;
 4391              		.loc 1 1866 17 view .LVU1472
 4392 0090 4FF00008 		mov	r8, #0
 4393              	.L282:
 4394              	.LVL320:
1867:Drivers/STM32F7xx_HAL_Driver/Src/stm32f7xx_ll_usb.c ****   }
1868:Drivers/STM32F7xx_HAL_Driver/Src/stm32f7xx_ll_usb.c **** 
1869:Drivers/STM32F7xx_HAL_Driver/Src/stm32f7xx_ll_usb.c ****   HostCoreSpeed = USB_GetHostSpeed(USBx);
 4395              		.loc 1 1869 3 is_stmt 1 view .LVU1473
 4396              		.loc 1 1869 19 is_stmt 0 view .LVU1474
 4397 0094 FFF7FEFF 		bl	USB_GetHostSpeed
 4398              	.LVL321:
1870:Drivers/STM32F7xx_HAL_Driver/Src/stm32f7xx_ll_usb.c **** 
1871:Drivers/STM32F7xx_HAL_Driver/Src/stm32f7xx_ll_usb.c ****   /* LS device plugged to HUB */
1872:Drivers/STM32F7xx_HAL_Driver/Src/stm32f7xx_ll_usb.c ****   if ((speed == HPRT0_PRTSPD_LOW_SPEED) && (HostCoreSpeed != HPRT0_PRTSPD_LOW_SPEED))
 4399              		.loc 1 1872 3 is_stmt 1 view .LVU1475
 4400              		.loc 1 1872 41 is_stmt 0 view .LVU1476
 4401 0098 9DF82030 		ldrb	r3, [sp, #32]	@ zero_extendqisi2
 4402 009c 022B     		cmp	r3, #2
 4403 009e 14BF     		ite	ne
ARM GAS  C:\Users\benny\AppData\Local\Temp\ccHko7Bj.s 			page 131


 4404 00a0 0023     		movne	r3, #0
 4405 00a2 0123     		moveq	r3, #1
 4406 00a4 0228     		cmp	r0, #2
 4407 00a6 08BF     		it	eq
 4408 00a8 0023     		moveq	r3, #0
 4409              		.loc 1 1872 6 view .LVU1477
 4410 00aa 002B     		cmp	r3, #0
 4411 00ac 40D0     		beq	.L290
1873:Drivers/STM32F7xx_HAL_Driver/Src/stm32f7xx_ll_usb.c ****   {
1874:Drivers/STM32F7xx_HAL_Driver/Src/stm32f7xx_ll_usb.c ****     HCcharLowSpeed = (0x1U << 17) & USB_OTG_HCCHAR_LSDEV;
 4412              		.loc 1 1874 20 view .LVU1478
 4413 00ae 4FF40032 		mov	r2, #131072
 4414              	.L283:
 4415              	.LVL322:
1875:Drivers/STM32F7xx_HAL_Driver/Src/stm32f7xx_ll_usb.c ****   }
1876:Drivers/STM32F7xx_HAL_Driver/Src/stm32f7xx_ll_usb.c ****   else
1877:Drivers/STM32F7xx_HAL_Driver/Src/stm32f7xx_ll_usb.c ****   {
1878:Drivers/STM32F7xx_HAL_Driver/Src/stm32f7xx_ll_usb.c ****     HCcharLowSpeed = 0U;
1879:Drivers/STM32F7xx_HAL_Driver/Src/stm32f7xx_ll_usb.c ****   }
1880:Drivers/STM32F7xx_HAL_Driver/Src/stm32f7xx_ll_usb.c **** 
1881:Drivers/STM32F7xx_HAL_Driver/Src/stm32f7xx_ll_usb.c ****   USBx_HC((uint32_t)ch_num)->HCCHAR = (((uint32_t)dev_address << 22) & USB_OTG_HCCHAR_DAD) |
 4416              		.loc 1 1881 3 is_stmt 1 view .LVU1479
 4417              		.loc 1 1881 63 is_stmt 0 view .LVU1480
 4418 00b2 A305     		lsls	r3, r4, #22
 4419              		.loc 1 1881 70 view .LVU1481
 4420 00b4 03F0FE53 		and	r3, r3, #532676608
1882:Drivers/STM32F7xx_HAL_Driver/Src/stm32f7xx_ll_usb.c ****                                       ((((uint32_t)epnum & 0x7FU) << 11) & USB_OTG_HCCHAR_EPNUM) |
 4421              		.loc 1 1882 67 view .LVU1482
 4422 00b8 4FEAC929 		lsl	r9, r9, #11
 4423              		.loc 1 1882 74 view .LVU1483
 4424 00bc 09F4F049 		and	r9, r9, #30720
1881:Drivers/STM32F7xx_HAL_Driver/Src/stm32f7xx_ll_usb.c ****                                       ((((uint32_t)epnum & 0x7FU) << 11) & USB_OTG_HCCHAR_EPNUM) |
 4425              		.loc 1 1881 92 view .LVU1484
 4426 00c0 43EA0903 		orr	r3, r3, r9
1883:Drivers/STM32F7xx_HAL_Driver/Src/stm32f7xx_ll_usb.c ****                                       (((uint32_t)ep_type << 18) & USB_OTG_HCCHAR_EPTYP) |
 4427              		.loc 1 1883 59 view .LVU1485
 4428 00c4 A904     		lsls	r1, r5, #18
 4429              		.loc 1 1883 66 view .LVU1486
 4430 00c6 01F44021 		and	r1, r1, #786432
1882:Drivers/STM32F7xx_HAL_Driver/Src/stm32f7xx_ll_usb.c ****                                       ((((uint32_t)epnum & 0x7FU) << 11) & USB_OTG_HCCHAR_EPNUM) |
 4431              		.loc 1 1882 98 view .LVU1487
 4432 00ca 0B43     		orrs	r3, r3, r1
1884:Drivers/STM32F7xx_HAL_Driver/Src/stm32f7xx_ll_usb.c ****                                       ((uint32_t)mps & USB_OTG_HCCHAR_MPSIZ) |
 4433              		.loc 1 1884 54 view .LVU1488
 4434 00cc BDF82810 		ldrh	r1, [sp, #40]
 4435 00d0 C1F30A01 		ubfx	r1, r1, #0, #11
1883:Drivers/STM32F7xx_HAL_Driver/Src/stm32f7xx_ll_usb.c ****                                       (((uint32_t)ep_type << 18) & USB_OTG_HCCHAR_EPTYP) |
 4436              		.loc 1 1883 90 view .LVU1489
 4437 00d4 0B43     		orrs	r3, r3, r1
1885:Drivers/STM32F7xx_HAL_Driver/Src/stm32f7xx_ll_usb.c ****                                       USB_OTG_HCCHAR_MC_0 | HCcharEpDir | HCcharLowSpeed;
 4438              		.loc 1 1885 59 view .LVU1490
 4439 00d6 43EA0803 		orr	r3, r3, r8
 4440              		.loc 1 1885 73 view .LVU1491
 4441 00da 1343     		orrs	r3, r3, r2
 4442 00dc 43F48013 		orr	r3, r3, #1048576
1881:Drivers/STM32F7xx_HAL_Driver/Src/stm32f7xx_ll_usb.c ****                                       ((((uint32_t)epnum & 0x7FU) << 11) & USB_OTG_HCCHAR_EPNUM) |
 4443              		.loc 1 1881 37 view .LVU1492
ARM GAS  C:\Users\benny\AppData\Local\Temp\ccHko7Bj.s 			page 132


 4444 00e0 C6F80035 		str	r3, [r6, #1280]
1886:Drivers/STM32F7xx_HAL_Driver/Src/stm32f7xx_ll_usb.c **** 
1887:Drivers/STM32F7xx_HAL_Driver/Src/stm32f7xx_ll_usb.c ****   if ((ep_type == EP_TYPE_INTR) || (ep_type == EP_TYPE_ISOC))
 4445              		.loc 1 1887 3 is_stmt 1 view .LVU1493
 4446              		.loc 1 1887 6 is_stmt 0 view .LVU1494
 4447 00e4 012D     		cmp	r5, #1
 4448 00e6 18BF     		it	ne
 4449 00e8 032D     		cmpne	r5, #3
 4450 00ea 05D1     		bne	.L284
1888:Drivers/STM32F7xx_HAL_Driver/Src/stm32f7xx_ll_usb.c ****   {
1889:Drivers/STM32F7xx_HAL_Driver/Src/stm32f7xx_ll_usb.c ****     USBx_HC((uint32_t)ch_num)->HCCHAR |= USB_OTG_HCCHAR_ODDFRM;
 4451              		.loc 1 1889 5 is_stmt 1 view .LVU1495
 4452              		.loc 1 1889 30 is_stmt 0 view .LVU1496
 4453 00ec D6F80035 		ldr	r3, [r6, #1280]
 4454              		.loc 1 1889 39 view .LVU1497
 4455 00f0 43F00053 		orr	r3, r3, #536870912
 4456 00f4 C6F80035 		str	r3, [r6, #1280]
 4457              	.L284:
1890:Drivers/STM32F7xx_HAL_Driver/Src/stm32f7xx_ll_usb.c ****   }
1891:Drivers/STM32F7xx_HAL_Driver/Src/stm32f7xx_ll_usb.c **** 
1892:Drivers/STM32F7xx_HAL_Driver/Src/stm32f7xx_ll_usb.c ****   return ret;
 4458              		.loc 1 1892 3 is_stmt 1 view .LVU1498
1893:Drivers/STM32F7xx_HAL_Driver/Src/stm32f7xx_ll_usb.c **** }
 4459              		.loc 1 1893 1 is_stmt 0 view .LVU1499
 4460 00f8 3846     		mov	r0, r7
 4461              	.LVL323:
 4462              		.loc 1 1893 1 view .LVU1500
 4463 00fa BDE8F883 		pop	{r3, r4, r5, r6, r7, r8, r9, pc}
 4464              	.LVL324:
 4465              	.L294:
1825:Drivers/STM32F7xx_HAL_Driver/Src/stm32f7xx_ll_usb.c ****       }
 4466              		.loc 1 1825 9 is_stmt 1 view .LVU1501
1825:Drivers/STM32F7xx_HAL_Driver/Src/stm32f7xx_ll_usb.c ****       }
 4467              		.loc 1 1825 34 is_stmt 0 view .LVU1502
 4468 00fe DA68     		ldr	r2, [r3, #12]
1825:Drivers/STM32F7xx_HAL_Driver/Src/stm32f7xx_ll_usb.c ****       }
 4469              		.loc 1 1825 45 view .LVU1503
 4470 0100 42F48072 		orr	r2, r2, #256
 4471 0104 DA60     		str	r2, [r3, #12]
1777:Drivers/STM32F7xx_HAL_Driver/Src/stm32f7xx_ll_usb.c ****   uint32_t USBx_BASE = (uint32_t)USBx;
 4472              		.loc 1 1777 21 view .LVU1504
 4473 0106 0027     		movs	r7, #0
 4474 0108 ACE7     		b	.L276
 4475              	.L280:
1831:Drivers/STM32F7xx_HAL_Driver/Src/stm32f7xx_ll_usb.c ****                                             USB_OTG_HCINTMSK_ACKM   |
 4476              		.loc 1 1831 7 is_stmt 1 view .LVU1505
1831:Drivers/STM32F7xx_HAL_Driver/Src/stm32f7xx_ll_usb.c ****                                             USB_OTG_HCINTMSK_ACKM   |
 4477              		.loc 1 1831 43 is_stmt 0 view .LVU1506
 4478 010a 40F22522 		movw	r2, #549
 4479 010e DA60     		str	r2, [r3, #12]
1836:Drivers/STM32F7xx_HAL_Driver/Src/stm32f7xx_ll_usb.c ****       {
 4480              		.loc 1 1836 7 is_stmt 1 view .LVU1507
1836:Drivers/STM32F7xx_HAL_Driver/Src/stm32f7xx_ll_usb.c ****       {
 4481              		.loc 1 1836 10 is_stmt 0 view .LVU1508
 4482 0110 19F0800F 		tst	r9, #128
 4483 0114 01D1     		bne	.L296
1777:Drivers/STM32F7xx_HAL_Driver/Src/stm32f7xx_ll_usb.c ****   uint32_t USBx_BASE = (uint32_t)USBx;
ARM GAS  C:\Users\benny\AppData\Local\Temp\ccHko7Bj.s 			page 133


 4484              		.loc 1 1777 21 view .LVU1509
 4485 0116 0027     		movs	r7, #0
 4486 0118 A4E7     		b	.L276
 4487              	.L296:
1838:Drivers/STM32F7xx_HAL_Driver/Src/stm32f7xx_ll_usb.c ****       }
 4488              		.loc 1 1838 9 is_stmt 1 view .LVU1510
1838:Drivers/STM32F7xx_HAL_Driver/Src/stm32f7xx_ll_usb.c ****       }
 4489              		.loc 1 1838 34 is_stmt 0 view .LVU1511
 4490 011a DA68     		ldr	r2, [r3, #12]
1838:Drivers/STM32F7xx_HAL_Driver/Src/stm32f7xx_ll_usb.c ****       }
 4491              		.loc 1 1838 45 view .LVU1512
 4492 011c 42F4C072 		orr	r2, r2, #384
 4493 0120 DA60     		str	r2, [r3, #12]
1777:Drivers/STM32F7xx_HAL_Driver/Src/stm32f7xx_ll_usb.c ****   uint32_t USBx_BASE = (uint32_t)USBx;
 4494              		.loc 1 1777 21 view .LVU1513
 4495 0122 0027     		movs	r7, #0
 4496 0124 9EE7     		b	.L276
 4497              	.L285:
1787:Drivers/STM32F7xx_HAL_Driver/Src/stm32f7xx_ll_usb.c ****   {
 4498              		.loc 1 1787 3 view .LVU1514
 4499 0126 0127     		movs	r7, #1
 4500 0128 9CE7     		b	.L276
 4501              	.LVL325:
 4502              	.L295:
1862:Drivers/STM32F7xx_HAL_Driver/Src/stm32f7xx_ll_usb.c ****   }
 4503              		.loc 1 1862 17 view .LVU1515
 4504 012a 4FF40048 		mov	r8, #32768
 4505 012e B1E7     		b	.L282
 4506              	.LVL326:
 4507              	.L290:
1878:Drivers/STM32F7xx_HAL_Driver/Src/stm32f7xx_ll_usb.c ****   }
 4508              		.loc 1 1878 20 view .LVU1516
 4509 0130 0022     		movs	r2, #0
 4510 0132 BEE7     		b	.L283
 4511              	.L298:
 4512              		.align	2
 4513              	.L297:
 4514 0134 00000440 		.word	1074003968
 4515              		.cfi_endproc
 4516              	.LFE183:
 4518              		.section	.text.USB_HC_ReadInterrupt,"ax",%progbits
 4519              		.align	1
 4520              		.global	USB_HC_ReadInterrupt
 4521              		.syntax unified
 4522              		.thumb
 4523              		.thumb_func
 4525              	USB_HC_ReadInterrupt:
 4526              	.LVL327:
 4527              	.LFB185:
1894:Drivers/STM32F7xx_HAL_Driver/Src/stm32f7xx_ll_usb.c **** 
1895:Drivers/STM32F7xx_HAL_Driver/Src/stm32f7xx_ll_usb.c **** /**
1896:Drivers/STM32F7xx_HAL_Driver/Src/stm32f7xx_ll_usb.c ****   * @brief  Start a transfer over a host channel
1897:Drivers/STM32F7xx_HAL_Driver/Src/stm32f7xx_ll_usb.c ****   * @param  USBx  Selected device
1898:Drivers/STM32F7xx_HAL_Driver/Src/stm32f7xx_ll_usb.c ****   * @param  hc  pointer to host channel structure
1899:Drivers/STM32F7xx_HAL_Driver/Src/stm32f7xx_ll_usb.c ****   * @param  dma USB dma enabled or disabled
1900:Drivers/STM32F7xx_HAL_Driver/Src/stm32f7xx_ll_usb.c ****   *          This parameter can be one of these values:
1901:Drivers/STM32F7xx_HAL_Driver/Src/stm32f7xx_ll_usb.c ****   *           0 : DMA feature not used
ARM GAS  C:\Users\benny\AppData\Local\Temp\ccHko7Bj.s 			page 134


1902:Drivers/STM32F7xx_HAL_Driver/Src/stm32f7xx_ll_usb.c ****   *           1 : DMA feature used
1903:Drivers/STM32F7xx_HAL_Driver/Src/stm32f7xx_ll_usb.c ****   * @retval HAL state
1904:Drivers/STM32F7xx_HAL_Driver/Src/stm32f7xx_ll_usb.c ****   */
1905:Drivers/STM32F7xx_HAL_Driver/Src/stm32f7xx_ll_usb.c **** HAL_StatusTypeDef USB_HC_StartXfer(USB_OTG_GlobalTypeDef *USBx, USB_OTG_HCTypeDef *hc, uint8_t dma)
1906:Drivers/STM32F7xx_HAL_Driver/Src/stm32f7xx_ll_usb.c **** {
1907:Drivers/STM32F7xx_HAL_Driver/Src/stm32f7xx_ll_usb.c ****   uint32_t USBx_BASE = (uint32_t)USBx;
1908:Drivers/STM32F7xx_HAL_Driver/Src/stm32f7xx_ll_usb.c ****   uint32_t ch_num = (uint32_t)hc->ch_num;
1909:Drivers/STM32F7xx_HAL_Driver/Src/stm32f7xx_ll_usb.c ****   __IO uint32_t tmpreg;
1910:Drivers/STM32F7xx_HAL_Driver/Src/stm32f7xx_ll_usb.c ****   uint8_t  is_oddframe;
1911:Drivers/STM32F7xx_HAL_Driver/Src/stm32f7xx_ll_usb.c ****   uint16_t len_words;
1912:Drivers/STM32F7xx_HAL_Driver/Src/stm32f7xx_ll_usb.c ****   uint16_t num_packets;
1913:Drivers/STM32F7xx_HAL_Driver/Src/stm32f7xx_ll_usb.c ****   uint16_t max_hc_pkt_count = HC_MAX_PKT_CNT;
1914:Drivers/STM32F7xx_HAL_Driver/Src/stm32f7xx_ll_usb.c **** 
1915:Drivers/STM32F7xx_HAL_Driver/Src/stm32f7xx_ll_usb.c **** #if defined (USB_OTG_HS)
1916:Drivers/STM32F7xx_HAL_Driver/Src/stm32f7xx_ll_usb.c ****   if (USBx == USB_OTG_HS)
1917:Drivers/STM32F7xx_HAL_Driver/Src/stm32f7xx_ll_usb.c ****   {
1918:Drivers/STM32F7xx_HAL_Driver/Src/stm32f7xx_ll_usb.c ****     /* in DMA mode host Core automatically issues ping in case of NYET/NAK */
1919:Drivers/STM32F7xx_HAL_Driver/Src/stm32f7xx_ll_usb.c ****     if (dma == 1U)
1920:Drivers/STM32F7xx_HAL_Driver/Src/stm32f7xx_ll_usb.c ****     {
1921:Drivers/STM32F7xx_HAL_Driver/Src/stm32f7xx_ll_usb.c ****       if (((hc->ep_type == EP_TYPE_CTRL) || (hc->ep_type == EP_TYPE_BULK)) && (hc->do_ssplit == 0U)
1922:Drivers/STM32F7xx_HAL_Driver/Src/stm32f7xx_ll_usb.c ****       {
1923:Drivers/STM32F7xx_HAL_Driver/Src/stm32f7xx_ll_usb.c **** 
1924:Drivers/STM32F7xx_HAL_Driver/Src/stm32f7xx_ll_usb.c ****         USBx_HC((uint32_t)ch_num)->HCINTMSK &= ~(USB_OTG_HCINTMSK_NYET |
1925:Drivers/STM32F7xx_HAL_Driver/Src/stm32f7xx_ll_usb.c ****                                                  USB_OTG_HCINTMSK_ACKM |
1926:Drivers/STM32F7xx_HAL_Driver/Src/stm32f7xx_ll_usb.c ****                                                  USB_OTG_HCINTMSK_NAKM);
1927:Drivers/STM32F7xx_HAL_Driver/Src/stm32f7xx_ll_usb.c ****       }
1928:Drivers/STM32F7xx_HAL_Driver/Src/stm32f7xx_ll_usb.c ****     }
1929:Drivers/STM32F7xx_HAL_Driver/Src/stm32f7xx_ll_usb.c ****     else
1930:Drivers/STM32F7xx_HAL_Driver/Src/stm32f7xx_ll_usb.c ****     {
1931:Drivers/STM32F7xx_HAL_Driver/Src/stm32f7xx_ll_usb.c ****       if ((hc->speed == USBH_HS_SPEED) && (hc->do_ping == 1U))
1932:Drivers/STM32F7xx_HAL_Driver/Src/stm32f7xx_ll_usb.c ****       {
1933:Drivers/STM32F7xx_HAL_Driver/Src/stm32f7xx_ll_usb.c ****         (void)USB_DoPing(USBx, hc->ch_num);
1934:Drivers/STM32F7xx_HAL_Driver/Src/stm32f7xx_ll_usb.c ****         return HAL_OK;
1935:Drivers/STM32F7xx_HAL_Driver/Src/stm32f7xx_ll_usb.c ****       }
1936:Drivers/STM32F7xx_HAL_Driver/Src/stm32f7xx_ll_usb.c ****     }
1937:Drivers/STM32F7xx_HAL_Driver/Src/stm32f7xx_ll_usb.c ****   }
1938:Drivers/STM32F7xx_HAL_Driver/Src/stm32f7xx_ll_usb.c **** #endif /* defined (USB_OTG_HS) */
1939:Drivers/STM32F7xx_HAL_Driver/Src/stm32f7xx_ll_usb.c **** 
1940:Drivers/STM32F7xx_HAL_Driver/Src/stm32f7xx_ll_usb.c ****   if (hc->do_ssplit == 1U)
1941:Drivers/STM32F7xx_HAL_Driver/Src/stm32f7xx_ll_usb.c ****   {
1942:Drivers/STM32F7xx_HAL_Driver/Src/stm32f7xx_ll_usb.c ****     /* Set number of packet to 1 for Split transaction */
1943:Drivers/STM32F7xx_HAL_Driver/Src/stm32f7xx_ll_usb.c ****     num_packets = 1U;
1944:Drivers/STM32F7xx_HAL_Driver/Src/stm32f7xx_ll_usb.c **** 
1945:Drivers/STM32F7xx_HAL_Driver/Src/stm32f7xx_ll_usb.c ****     if (hc->ep_is_in != 0U)
1946:Drivers/STM32F7xx_HAL_Driver/Src/stm32f7xx_ll_usb.c ****     {
1947:Drivers/STM32F7xx_HAL_Driver/Src/stm32f7xx_ll_usb.c ****       hc->XferSize = (uint32_t)num_packets * hc->max_packet;
1948:Drivers/STM32F7xx_HAL_Driver/Src/stm32f7xx_ll_usb.c ****     }
1949:Drivers/STM32F7xx_HAL_Driver/Src/stm32f7xx_ll_usb.c ****     else
1950:Drivers/STM32F7xx_HAL_Driver/Src/stm32f7xx_ll_usb.c ****     {
1951:Drivers/STM32F7xx_HAL_Driver/Src/stm32f7xx_ll_usb.c ****       if (hc->ep_type == EP_TYPE_ISOC)
1952:Drivers/STM32F7xx_HAL_Driver/Src/stm32f7xx_ll_usb.c ****       {
1953:Drivers/STM32F7xx_HAL_Driver/Src/stm32f7xx_ll_usb.c ****         if (hc->xfer_len > ISO_SPLT_MPS)
1954:Drivers/STM32F7xx_HAL_Driver/Src/stm32f7xx_ll_usb.c ****         {
1955:Drivers/STM32F7xx_HAL_Driver/Src/stm32f7xx_ll_usb.c ****           /* Isochrone Max Packet Size for Split mode */
1956:Drivers/STM32F7xx_HAL_Driver/Src/stm32f7xx_ll_usb.c ****           hc->XferSize = hc->max_packet;
1957:Drivers/STM32F7xx_HAL_Driver/Src/stm32f7xx_ll_usb.c ****           hc->xfer_len = hc->XferSize;
1958:Drivers/STM32F7xx_HAL_Driver/Src/stm32f7xx_ll_usb.c **** 
ARM GAS  C:\Users\benny\AppData\Local\Temp\ccHko7Bj.s 			page 135


1959:Drivers/STM32F7xx_HAL_Driver/Src/stm32f7xx_ll_usb.c ****           if ((hc->iso_splt_xactPos == HCSPLT_BEGIN) || (hc->iso_splt_xactPos == HCSPLT_MIDDLE))
1960:Drivers/STM32F7xx_HAL_Driver/Src/stm32f7xx_ll_usb.c ****           {
1961:Drivers/STM32F7xx_HAL_Driver/Src/stm32f7xx_ll_usb.c ****             hc->iso_splt_xactPos = HCSPLT_MIDDLE;
1962:Drivers/STM32F7xx_HAL_Driver/Src/stm32f7xx_ll_usb.c ****           }
1963:Drivers/STM32F7xx_HAL_Driver/Src/stm32f7xx_ll_usb.c ****           else
1964:Drivers/STM32F7xx_HAL_Driver/Src/stm32f7xx_ll_usb.c ****           {
1965:Drivers/STM32F7xx_HAL_Driver/Src/stm32f7xx_ll_usb.c ****             hc->iso_splt_xactPos = HCSPLT_BEGIN;
1966:Drivers/STM32F7xx_HAL_Driver/Src/stm32f7xx_ll_usb.c ****           }
1967:Drivers/STM32F7xx_HAL_Driver/Src/stm32f7xx_ll_usb.c ****         }
1968:Drivers/STM32F7xx_HAL_Driver/Src/stm32f7xx_ll_usb.c ****         else
1969:Drivers/STM32F7xx_HAL_Driver/Src/stm32f7xx_ll_usb.c ****         {
1970:Drivers/STM32F7xx_HAL_Driver/Src/stm32f7xx_ll_usb.c ****           hc->XferSize = hc->xfer_len;
1971:Drivers/STM32F7xx_HAL_Driver/Src/stm32f7xx_ll_usb.c **** 
1972:Drivers/STM32F7xx_HAL_Driver/Src/stm32f7xx_ll_usb.c ****           if ((hc->iso_splt_xactPos != HCSPLT_BEGIN) && (hc->iso_splt_xactPos != HCSPLT_MIDDLE))
1973:Drivers/STM32F7xx_HAL_Driver/Src/stm32f7xx_ll_usb.c ****           {
1974:Drivers/STM32F7xx_HAL_Driver/Src/stm32f7xx_ll_usb.c ****             hc->iso_splt_xactPos = HCSPLT_FULL;
1975:Drivers/STM32F7xx_HAL_Driver/Src/stm32f7xx_ll_usb.c ****           }
1976:Drivers/STM32F7xx_HAL_Driver/Src/stm32f7xx_ll_usb.c ****           else
1977:Drivers/STM32F7xx_HAL_Driver/Src/stm32f7xx_ll_usb.c ****           {
1978:Drivers/STM32F7xx_HAL_Driver/Src/stm32f7xx_ll_usb.c ****             hc->iso_splt_xactPos = HCSPLT_END;
1979:Drivers/STM32F7xx_HAL_Driver/Src/stm32f7xx_ll_usb.c ****           }
1980:Drivers/STM32F7xx_HAL_Driver/Src/stm32f7xx_ll_usb.c ****         }
1981:Drivers/STM32F7xx_HAL_Driver/Src/stm32f7xx_ll_usb.c ****       }
1982:Drivers/STM32F7xx_HAL_Driver/Src/stm32f7xx_ll_usb.c ****       else
1983:Drivers/STM32F7xx_HAL_Driver/Src/stm32f7xx_ll_usb.c ****       {
1984:Drivers/STM32F7xx_HAL_Driver/Src/stm32f7xx_ll_usb.c ****         if ((dma == 1U) && (hc->xfer_len > hc->max_packet))
1985:Drivers/STM32F7xx_HAL_Driver/Src/stm32f7xx_ll_usb.c ****         {
1986:Drivers/STM32F7xx_HAL_Driver/Src/stm32f7xx_ll_usb.c ****           hc->XferSize = (uint32_t)num_packets * hc->max_packet;
1987:Drivers/STM32F7xx_HAL_Driver/Src/stm32f7xx_ll_usb.c ****         }
1988:Drivers/STM32F7xx_HAL_Driver/Src/stm32f7xx_ll_usb.c ****         else
1989:Drivers/STM32F7xx_HAL_Driver/Src/stm32f7xx_ll_usb.c ****         {
1990:Drivers/STM32F7xx_HAL_Driver/Src/stm32f7xx_ll_usb.c ****           hc->XferSize = hc->xfer_len;
1991:Drivers/STM32F7xx_HAL_Driver/Src/stm32f7xx_ll_usb.c ****         }
1992:Drivers/STM32F7xx_HAL_Driver/Src/stm32f7xx_ll_usb.c ****       }
1993:Drivers/STM32F7xx_HAL_Driver/Src/stm32f7xx_ll_usb.c ****     }
1994:Drivers/STM32F7xx_HAL_Driver/Src/stm32f7xx_ll_usb.c ****   }
1995:Drivers/STM32F7xx_HAL_Driver/Src/stm32f7xx_ll_usb.c ****   else
1996:Drivers/STM32F7xx_HAL_Driver/Src/stm32f7xx_ll_usb.c ****   {
1997:Drivers/STM32F7xx_HAL_Driver/Src/stm32f7xx_ll_usb.c ****     /* Compute the expected number of packets associated to the transfer */
1998:Drivers/STM32F7xx_HAL_Driver/Src/stm32f7xx_ll_usb.c ****     if (hc->xfer_len > 0U)
1999:Drivers/STM32F7xx_HAL_Driver/Src/stm32f7xx_ll_usb.c ****     {
2000:Drivers/STM32F7xx_HAL_Driver/Src/stm32f7xx_ll_usb.c ****       num_packets = (uint16_t)((hc->xfer_len + hc->max_packet - 1U) / hc->max_packet);
2001:Drivers/STM32F7xx_HAL_Driver/Src/stm32f7xx_ll_usb.c **** 
2002:Drivers/STM32F7xx_HAL_Driver/Src/stm32f7xx_ll_usb.c ****       if (num_packets > max_hc_pkt_count)
2003:Drivers/STM32F7xx_HAL_Driver/Src/stm32f7xx_ll_usb.c ****       {
2004:Drivers/STM32F7xx_HAL_Driver/Src/stm32f7xx_ll_usb.c ****         num_packets = max_hc_pkt_count;
2005:Drivers/STM32F7xx_HAL_Driver/Src/stm32f7xx_ll_usb.c ****         hc->XferSize = (uint32_t)num_packets * hc->max_packet;
2006:Drivers/STM32F7xx_HAL_Driver/Src/stm32f7xx_ll_usb.c ****       }
2007:Drivers/STM32F7xx_HAL_Driver/Src/stm32f7xx_ll_usb.c ****     }
2008:Drivers/STM32F7xx_HAL_Driver/Src/stm32f7xx_ll_usb.c ****     else
2009:Drivers/STM32F7xx_HAL_Driver/Src/stm32f7xx_ll_usb.c ****     {
2010:Drivers/STM32F7xx_HAL_Driver/Src/stm32f7xx_ll_usb.c ****       num_packets = 1U;
2011:Drivers/STM32F7xx_HAL_Driver/Src/stm32f7xx_ll_usb.c ****     }
2012:Drivers/STM32F7xx_HAL_Driver/Src/stm32f7xx_ll_usb.c **** 
2013:Drivers/STM32F7xx_HAL_Driver/Src/stm32f7xx_ll_usb.c ****     /*
2014:Drivers/STM32F7xx_HAL_Driver/Src/stm32f7xx_ll_usb.c ****     * For IN channel HCTSIZ.XferSize is expected to be an integer multiple of
2015:Drivers/STM32F7xx_HAL_Driver/Src/stm32f7xx_ll_usb.c ****     * max_packet size.
ARM GAS  C:\Users\benny\AppData\Local\Temp\ccHko7Bj.s 			page 136


2016:Drivers/STM32F7xx_HAL_Driver/Src/stm32f7xx_ll_usb.c ****     */
2017:Drivers/STM32F7xx_HAL_Driver/Src/stm32f7xx_ll_usb.c ****     if (hc->ep_is_in != 0U)
2018:Drivers/STM32F7xx_HAL_Driver/Src/stm32f7xx_ll_usb.c ****     {
2019:Drivers/STM32F7xx_HAL_Driver/Src/stm32f7xx_ll_usb.c ****       hc->XferSize = (uint32_t)num_packets * hc->max_packet;
2020:Drivers/STM32F7xx_HAL_Driver/Src/stm32f7xx_ll_usb.c ****     }
2021:Drivers/STM32F7xx_HAL_Driver/Src/stm32f7xx_ll_usb.c ****     else
2022:Drivers/STM32F7xx_HAL_Driver/Src/stm32f7xx_ll_usb.c ****     {
2023:Drivers/STM32F7xx_HAL_Driver/Src/stm32f7xx_ll_usb.c ****       hc->XferSize = hc->xfer_len;
2024:Drivers/STM32F7xx_HAL_Driver/Src/stm32f7xx_ll_usb.c ****     }
2025:Drivers/STM32F7xx_HAL_Driver/Src/stm32f7xx_ll_usb.c ****   }
2026:Drivers/STM32F7xx_HAL_Driver/Src/stm32f7xx_ll_usb.c **** 
2027:Drivers/STM32F7xx_HAL_Driver/Src/stm32f7xx_ll_usb.c ****   /* Initialize the HCTSIZn register */
2028:Drivers/STM32F7xx_HAL_Driver/Src/stm32f7xx_ll_usb.c ****   USBx_HC(ch_num)->HCTSIZ = (hc->XferSize & USB_OTG_HCTSIZ_XFRSIZ) |
2029:Drivers/STM32F7xx_HAL_Driver/Src/stm32f7xx_ll_usb.c ****                             (((uint32_t)num_packets << 19) & USB_OTG_HCTSIZ_PKTCNT) |
2030:Drivers/STM32F7xx_HAL_Driver/Src/stm32f7xx_ll_usb.c ****                             (((uint32_t)hc->data_pid << 29) & USB_OTG_HCTSIZ_DPID);
2031:Drivers/STM32F7xx_HAL_Driver/Src/stm32f7xx_ll_usb.c **** 
2032:Drivers/STM32F7xx_HAL_Driver/Src/stm32f7xx_ll_usb.c ****   if (dma != 0U)
2033:Drivers/STM32F7xx_HAL_Driver/Src/stm32f7xx_ll_usb.c ****   {
2034:Drivers/STM32F7xx_HAL_Driver/Src/stm32f7xx_ll_usb.c ****     /* xfer_buff MUST be 32-bits aligned */
2035:Drivers/STM32F7xx_HAL_Driver/Src/stm32f7xx_ll_usb.c ****     USBx_HC(ch_num)->HCDMA = (uint32_t)hc->xfer_buff;
2036:Drivers/STM32F7xx_HAL_Driver/Src/stm32f7xx_ll_usb.c ****   }
2037:Drivers/STM32F7xx_HAL_Driver/Src/stm32f7xx_ll_usb.c **** 
2038:Drivers/STM32F7xx_HAL_Driver/Src/stm32f7xx_ll_usb.c ****   is_oddframe = (((uint32_t)USBx_HOST->HFNUM & 0x01U) != 0U) ? 0U : 1U;
2039:Drivers/STM32F7xx_HAL_Driver/Src/stm32f7xx_ll_usb.c ****   USBx_HC(ch_num)->HCCHAR &= ~USB_OTG_HCCHAR_ODDFRM;
2040:Drivers/STM32F7xx_HAL_Driver/Src/stm32f7xx_ll_usb.c ****   USBx_HC(ch_num)->HCCHAR |= (uint32_t)is_oddframe << 29;
2041:Drivers/STM32F7xx_HAL_Driver/Src/stm32f7xx_ll_usb.c **** 
2042:Drivers/STM32F7xx_HAL_Driver/Src/stm32f7xx_ll_usb.c ****   if (hc->do_ssplit == 1U)
2043:Drivers/STM32F7xx_HAL_Driver/Src/stm32f7xx_ll_usb.c ****   {
2044:Drivers/STM32F7xx_HAL_Driver/Src/stm32f7xx_ll_usb.c ****     /* Set Hub start Split transaction */
2045:Drivers/STM32F7xx_HAL_Driver/Src/stm32f7xx_ll_usb.c ****     USBx_HC((uint32_t)ch_num)->HCSPLT = ((uint32_t)hc->hub_addr << USB_OTG_HCSPLT_HUBADDR_Pos) |
2046:Drivers/STM32F7xx_HAL_Driver/Src/stm32f7xx_ll_usb.c ****                                         (uint32_t)hc->hub_port_nbr | USB_OTG_HCSPLT_SPLITEN;
2047:Drivers/STM32F7xx_HAL_Driver/Src/stm32f7xx_ll_usb.c **** 
2048:Drivers/STM32F7xx_HAL_Driver/Src/stm32f7xx_ll_usb.c ****     /* unmask ack & nyet for IN/OUT transactions */
2049:Drivers/STM32F7xx_HAL_Driver/Src/stm32f7xx_ll_usb.c ****     USBx_HC((uint32_t)ch_num)->HCINTMSK |= (USB_OTG_HCINTMSK_ACKM |
2050:Drivers/STM32F7xx_HAL_Driver/Src/stm32f7xx_ll_usb.c ****                                             USB_OTG_HCINTMSK_NYET);
2051:Drivers/STM32F7xx_HAL_Driver/Src/stm32f7xx_ll_usb.c **** 
2052:Drivers/STM32F7xx_HAL_Driver/Src/stm32f7xx_ll_usb.c ****     if ((hc->do_csplit == 1U) && (hc->ep_is_in == 0U))
2053:Drivers/STM32F7xx_HAL_Driver/Src/stm32f7xx_ll_usb.c ****     {
2054:Drivers/STM32F7xx_HAL_Driver/Src/stm32f7xx_ll_usb.c ****       USBx_HC((uint32_t)ch_num)->HCSPLT |= USB_OTG_HCSPLT_COMPLSPLT;
2055:Drivers/STM32F7xx_HAL_Driver/Src/stm32f7xx_ll_usb.c ****       USBx_HC((uint32_t)ch_num)->HCINTMSK |= USB_OTG_HCINTMSK_NYET;
2056:Drivers/STM32F7xx_HAL_Driver/Src/stm32f7xx_ll_usb.c ****     }
2057:Drivers/STM32F7xx_HAL_Driver/Src/stm32f7xx_ll_usb.c **** 
2058:Drivers/STM32F7xx_HAL_Driver/Src/stm32f7xx_ll_usb.c ****     if (((hc->ep_type == EP_TYPE_ISOC) || (hc->ep_type == EP_TYPE_INTR)) &&
2059:Drivers/STM32F7xx_HAL_Driver/Src/stm32f7xx_ll_usb.c ****         (hc->do_csplit == 1U) && (hc->ep_is_in == 1U))
2060:Drivers/STM32F7xx_HAL_Driver/Src/stm32f7xx_ll_usb.c ****     {
2061:Drivers/STM32F7xx_HAL_Driver/Src/stm32f7xx_ll_usb.c ****       USBx_HC((uint32_t)ch_num)->HCSPLT |= USB_OTG_HCSPLT_COMPLSPLT;
2062:Drivers/STM32F7xx_HAL_Driver/Src/stm32f7xx_ll_usb.c ****     }
2063:Drivers/STM32F7xx_HAL_Driver/Src/stm32f7xx_ll_usb.c **** 
2064:Drivers/STM32F7xx_HAL_Driver/Src/stm32f7xx_ll_usb.c ****     /* Position management for iso out transaction on split mode */
2065:Drivers/STM32F7xx_HAL_Driver/Src/stm32f7xx_ll_usb.c ****     if ((hc->ep_type == EP_TYPE_ISOC) && (hc->ep_is_in == 0U))
2066:Drivers/STM32F7xx_HAL_Driver/Src/stm32f7xx_ll_usb.c ****     {
2067:Drivers/STM32F7xx_HAL_Driver/Src/stm32f7xx_ll_usb.c ****       /* Set data payload position */
2068:Drivers/STM32F7xx_HAL_Driver/Src/stm32f7xx_ll_usb.c ****       switch (hc->iso_splt_xactPos)
2069:Drivers/STM32F7xx_HAL_Driver/Src/stm32f7xx_ll_usb.c ****       {
2070:Drivers/STM32F7xx_HAL_Driver/Src/stm32f7xx_ll_usb.c ****         case HCSPLT_BEGIN:
2071:Drivers/STM32F7xx_HAL_Driver/Src/stm32f7xx_ll_usb.c ****           /* First data payload for OUT Transaction */
2072:Drivers/STM32F7xx_HAL_Driver/Src/stm32f7xx_ll_usb.c ****           USBx_HC((uint32_t)ch_num)->HCSPLT |= USB_OTG_HCSPLT_XACTPOS_1;
ARM GAS  C:\Users\benny\AppData\Local\Temp\ccHko7Bj.s 			page 137


2073:Drivers/STM32F7xx_HAL_Driver/Src/stm32f7xx_ll_usb.c ****           break;
2074:Drivers/STM32F7xx_HAL_Driver/Src/stm32f7xx_ll_usb.c **** 
2075:Drivers/STM32F7xx_HAL_Driver/Src/stm32f7xx_ll_usb.c ****         case HCSPLT_MIDDLE:
2076:Drivers/STM32F7xx_HAL_Driver/Src/stm32f7xx_ll_usb.c ****           /* Middle data payload for OUT Transaction */
2077:Drivers/STM32F7xx_HAL_Driver/Src/stm32f7xx_ll_usb.c ****           USBx_HC((uint32_t)ch_num)->HCSPLT |= USB_OTG_HCSPLT_XACTPOS_Pos;
2078:Drivers/STM32F7xx_HAL_Driver/Src/stm32f7xx_ll_usb.c ****           break;
2079:Drivers/STM32F7xx_HAL_Driver/Src/stm32f7xx_ll_usb.c **** 
2080:Drivers/STM32F7xx_HAL_Driver/Src/stm32f7xx_ll_usb.c ****         case HCSPLT_END:
2081:Drivers/STM32F7xx_HAL_Driver/Src/stm32f7xx_ll_usb.c ****           /* End data payload for OUT Transaction */
2082:Drivers/STM32F7xx_HAL_Driver/Src/stm32f7xx_ll_usb.c ****           USBx_HC((uint32_t)ch_num)->HCSPLT |= USB_OTG_HCSPLT_XACTPOS_0;
2083:Drivers/STM32F7xx_HAL_Driver/Src/stm32f7xx_ll_usb.c ****           break;
2084:Drivers/STM32F7xx_HAL_Driver/Src/stm32f7xx_ll_usb.c **** 
2085:Drivers/STM32F7xx_HAL_Driver/Src/stm32f7xx_ll_usb.c ****         case HCSPLT_FULL:
2086:Drivers/STM32F7xx_HAL_Driver/Src/stm32f7xx_ll_usb.c ****           /* Entire data payload for OUT Transaction */
2087:Drivers/STM32F7xx_HAL_Driver/Src/stm32f7xx_ll_usb.c ****           USBx_HC((uint32_t)ch_num)->HCSPLT |= USB_OTG_HCSPLT_XACTPOS;
2088:Drivers/STM32F7xx_HAL_Driver/Src/stm32f7xx_ll_usb.c ****           break;
2089:Drivers/STM32F7xx_HAL_Driver/Src/stm32f7xx_ll_usb.c **** 
2090:Drivers/STM32F7xx_HAL_Driver/Src/stm32f7xx_ll_usb.c ****         default:
2091:Drivers/STM32F7xx_HAL_Driver/Src/stm32f7xx_ll_usb.c ****           break;
2092:Drivers/STM32F7xx_HAL_Driver/Src/stm32f7xx_ll_usb.c ****       }
2093:Drivers/STM32F7xx_HAL_Driver/Src/stm32f7xx_ll_usb.c ****     }
2094:Drivers/STM32F7xx_HAL_Driver/Src/stm32f7xx_ll_usb.c ****   }
2095:Drivers/STM32F7xx_HAL_Driver/Src/stm32f7xx_ll_usb.c ****   else
2096:Drivers/STM32F7xx_HAL_Driver/Src/stm32f7xx_ll_usb.c ****   {
2097:Drivers/STM32F7xx_HAL_Driver/Src/stm32f7xx_ll_usb.c ****     /* Clear Hub Start Split transaction */
2098:Drivers/STM32F7xx_HAL_Driver/Src/stm32f7xx_ll_usb.c ****     USBx_HC((uint32_t)ch_num)->HCSPLT = 0U;
2099:Drivers/STM32F7xx_HAL_Driver/Src/stm32f7xx_ll_usb.c ****   }
2100:Drivers/STM32F7xx_HAL_Driver/Src/stm32f7xx_ll_usb.c **** 
2101:Drivers/STM32F7xx_HAL_Driver/Src/stm32f7xx_ll_usb.c ****   /* Set host channel enable */
2102:Drivers/STM32F7xx_HAL_Driver/Src/stm32f7xx_ll_usb.c ****   tmpreg = USBx_HC(ch_num)->HCCHAR;
2103:Drivers/STM32F7xx_HAL_Driver/Src/stm32f7xx_ll_usb.c ****   tmpreg &= ~USB_OTG_HCCHAR_CHDIS;
2104:Drivers/STM32F7xx_HAL_Driver/Src/stm32f7xx_ll_usb.c **** 
2105:Drivers/STM32F7xx_HAL_Driver/Src/stm32f7xx_ll_usb.c ****   /* make sure to set the correct ep direction */
2106:Drivers/STM32F7xx_HAL_Driver/Src/stm32f7xx_ll_usb.c ****   if (hc->ep_is_in != 0U)
2107:Drivers/STM32F7xx_HAL_Driver/Src/stm32f7xx_ll_usb.c ****   {
2108:Drivers/STM32F7xx_HAL_Driver/Src/stm32f7xx_ll_usb.c ****     tmpreg |= USB_OTG_HCCHAR_EPDIR;
2109:Drivers/STM32F7xx_HAL_Driver/Src/stm32f7xx_ll_usb.c ****   }
2110:Drivers/STM32F7xx_HAL_Driver/Src/stm32f7xx_ll_usb.c ****   else
2111:Drivers/STM32F7xx_HAL_Driver/Src/stm32f7xx_ll_usb.c ****   {
2112:Drivers/STM32F7xx_HAL_Driver/Src/stm32f7xx_ll_usb.c ****     tmpreg &= ~USB_OTG_HCCHAR_EPDIR;
2113:Drivers/STM32F7xx_HAL_Driver/Src/stm32f7xx_ll_usb.c ****   }
2114:Drivers/STM32F7xx_HAL_Driver/Src/stm32f7xx_ll_usb.c ****   tmpreg |= USB_OTG_HCCHAR_CHENA;
2115:Drivers/STM32F7xx_HAL_Driver/Src/stm32f7xx_ll_usb.c ****   USBx_HC(ch_num)->HCCHAR = tmpreg;
2116:Drivers/STM32F7xx_HAL_Driver/Src/stm32f7xx_ll_usb.c **** 
2117:Drivers/STM32F7xx_HAL_Driver/Src/stm32f7xx_ll_usb.c ****   if (dma != 0U) /* dma mode */
2118:Drivers/STM32F7xx_HAL_Driver/Src/stm32f7xx_ll_usb.c ****   {
2119:Drivers/STM32F7xx_HAL_Driver/Src/stm32f7xx_ll_usb.c ****     return HAL_OK;
2120:Drivers/STM32F7xx_HAL_Driver/Src/stm32f7xx_ll_usb.c ****   }
2121:Drivers/STM32F7xx_HAL_Driver/Src/stm32f7xx_ll_usb.c **** 
2122:Drivers/STM32F7xx_HAL_Driver/Src/stm32f7xx_ll_usb.c ****   if ((hc->ep_is_in == 0U) && (hc->xfer_len > 0U) && (hc->do_csplit == 0U))
2123:Drivers/STM32F7xx_HAL_Driver/Src/stm32f7xx_ll_usb.c ****   {
2124:Drivers/STM32F7xx_HAL_Driver/Src/stm32f7xx_ll_usb.c ****     switch (hc->ep_type)
2125:Drivers/STM32F7xx_HAL_Driver/Src/stm32f7xx_ll_usb.c ****     {
2126:Drivers/STM32F7xx_HAL_Driver/Src/stm32f7xx_ll_usb.c ****       /* Non periodic transfer */
2127:Drivers/STM32F7xx_HAL_Driver/Src/stm32f7xx_ll_usb.c ****       case EP_TYPE_CTRL:
2128:Drivers/STM32F7xx_HAL_Driver/Src/stm32f7xx_ll_usb.c ****       case EP_TYPE_BULK:
2129:Drivers/STM32F7xx_HAL_Driver/Src/stm32f7xx_ll_usb.c **** 
ARM GAS  C:\Users\benny\AppData\Local\Temp\ccHko7Bj.s 			page 138


2130:Drivers/STM32F7xx_HAL_Driver/Src/stm32f7xx_ll_usb.c ****         len_words = (uint16_t)((hc->xfer_len + 3U) / 4U);
2131:Drivers/STM32F7xx_HAL_Driver/Src/stm32f7xx_ll_usb.c **** 
2132:Drivers/STM32F7xx_HAL_Driver/Src/stm32f7xx_ll_usb.c ****         /* check if there is enough space in FIFO space */
2133:Drivers/STM32F7xx_HAL_Driver/Src/stm32f7xx_ll_usb.c ****         if (len_words > (USBx->HNPTXSTS & 0xFFFFU))
2134:Drivers/STM32F7xx_HAL_Driver/Src/stm32f7xx_ll_usb.c ****         {
2135:Drivers/STM32F7xx_HAL_Driver/Src/stm32f7xx_ll_usb.c ****           /* need to process data in nptxfempty interrupt */
2136:Drivers/STM32F7xx_HAL_Driver/Src/stm32f7xx_ll_usb.c ****           USBx->GINTMSK |= USB_OTG_GINTMSK_NPTXFEM;
2137:Drivers/STM32F7xx_HAL_Driver/Src/stm32f7xx_ll_usb.c ****         }
2138:Drivers/STM32F7xx_HAL_Driver/Src/stm32f7xx_ll_usb.c ****         break;
2139:Drivers/STM32F7xx_HAL_Driver/Src/stm32f7xx_ll_usb.c **** 
2140:Drivers/STM32F7xx_HAL_Driver/Src/stm32f7xx_ll_usb.c ****       /* Periodic transfer */
2141:Drivers/STM32F7xx_HAL_Driver/Src/stm32f7xx_ll_usb.c ****       case EP_TYPE_INTR:
2142:Drivers/STM32F7xx_HAL_Driver/Src/stm32f7xx_ll_usb.c ****       case EP_TYPE_ISOC:
2143:Drivers/STM32F7xx_HAL_Driver/Src/stm32f7xx_ll_usb.c ****         len_words = (uint16_t)((hc->xfer_len + 3U) / 4U);
2144:Drivers/STM32F7xx_HAL_Driver/Src/stm32f7xx_ll_usb.c ****         /* check if there is enough space in FIFO space */
2145:Drivers/STM32F7xx_HAL_Driver/Src/stm32f7xx_ll_usb.c ****         if (len_words > (USBx_HOST->HPTXSTS & 0xFFFFU)) /* split the transfer */
2146:Drivers/STM32F7xx_HAL_Driver/Src/stm32f7xx_ll_usb.c ****         {
2147:Drivers/STM32F7xx_HAL_Driver/Src/stm32f7xx_ll_usb.c ****           /* need to process data in ptxfempty interrupt */
2148:Drivers/STM32F7xx_HAL_Driver/Src/stm32f7xx_ll_usb.c ****           USBx->GINTMSK |= USB_OTG_GINTMSK_PTXFEM;
2149:Drivers/STM32F7xx_HAL_Driver/Src/stm32f7xx_ll_usb.c ****         }
2150:Drivers/STM32F7xx_HAL_Driver/Src/stm32f7xx_ll_usb.c ****         break;
2151:Drivers/STM32F7xx_HAL_Driver/Src/stm32f7xx_ll_usb.c **** 
2152:Drivers/STM32F7xx_HAL_Driver/Src/stm32f7xx_ll_usb.c ****       default:
2153:Drivers/STM32F7xx_HAL_Driver/Src/stm32f7xx_ll_usb.c ****         break;
2154:Drivers/STM32F7xx_HAL_Driver/Src/stm32f7xx_ll_usb.c ****     }
2155:Drivers/STM32F7xx_HAL_Driver/Src/stm32f7xx_ll_usb.c **** 
2156:Drivers/STM32F7xx_HAL_Driver/Src/stm32f7xx_ll_usb.c ****     /* Write packet into the Tx FIFO. */
2157:Drivers/STM32F7xx_HAL_Driver/Src/stm32f7xx_ll_usb.c ****     (void)USB_WritePacket(USBx, hc->xfer_buff, hc->ch_num, (uint16_t)hc->xfer_len, 0);
2158:Drivers/STM32F7xx_HAL_Driver/Src/stm32f7xx_ll_usb.c ****   }
2159:Drivers/STM32F7xx_HAL_Driver/Src/stm32f7xx_ll_usb.c **** 
2160:Drivers/STM32F7xx_HAL_Driver/Src/stm32f7xx_ll_usb.c ****   return HAL_OK;
2161:Drivers/STM32F7xx_HAL_Driver/Src/stm32f7xx_ll_usb.c **** }
2162:Drivers/STM32F7xx_HAL_Driver/Src/stm32f7xx_ll_usb.c **** 
2163:Drivers/STM32F7xx_HAL_Driver/Src/stm32f7xx_ll_usb.c **** /**
2164:Drivers/STM32F7xx_HAL_Driver/Src/stm32f7xx_ll_usb.c ****   * @brief Read all host channel interrupts status
2165:Drivers/STM32F7xx_HAL_Driver/Src/stm32f7xx_ll_usb.c ****   * @param  USBx  Selected device
2166:Drivers/STM32F7xx_HAL_Driver/Src/stm32f7xx_ll_usb.c ****   * @retval HAL state
2167:Drivers/STM32F7xx_HAL_Driver/Src/stm32f7xx_ll_usb.c ****   */
2168:Drivers/STM32F7xx_HAL_Driver/Src/stm32f7xx_ll_usb.c **** uint32_t USB_HC_ReadInterrupt(const USB_OTG_GlobalTypeDef *USBx)
2169:Drivers/STM32F7xx_HAL_Driver/Src/stm32f7xx_ll_usb.c **** {
 4528              		.loc 1 2169 1 is_stmt 1 view -0
 4529              		.cfi_startproc
 4530              		@ args = 0, pretend = 0, frame = 0
 4531              		@ frame_needed = 0, uses_anonymous_args = 0
 4532              		@ link register save eliminated.
2170:Drivers/STM32F7xx_HAL_Driver/Src/stm32f7xx_ll_usb.c ****   uint32_t USBx_BASE = (uint32_t)USBx;
 4533              		.loc 1 2170 3 view .LVU1518
2171:Drivers/STM32F7xx_HAL_Driver/Src/stm32f7xx_ll_usb.c **** 
2172:Drivers/STM32F7xx_HAL_Driver/Src/stm32f7xx_ll_usb.c ****   return ((USBx_HOST->HAINT) & 0xFFFFU);
 4534              		.loc 1 2172 3 view .LVU1519
 4535              		.loc 1 2172 12 is_stmt 0 view .LVU1520
 4536 0000 00F58060 		add	r0, r0, #1024
 4537              	.LVL328:
 4538              		.loc 1 2172 21 view .LVU1521
 4539 0004 4069     		ldr	r0, [r0, #20]
 4540              	.LVL329:
2173:Drivers/STM32F7xx_HAL_Driver/Src/stm32f7xx_ll_usb.c **** }
ARM GAS  C:\Users\benny\AppData\Local\Temp\ccHko7Bj.s 			page 139


 4541              		.loc 1 2173 1 view .LVU1522
 4542 0006 80B2     		uxth	r0, r0
 4543 0008 7047     		bx	lr
 4544              		.cfi_endproc
 4545              	.LFE185:
 4547              		.section	.text.USB_HC_Halt,"ax",%progbits
 4548              		.align	1
 4549              		.global	USB_HC_Halt
 4550              		.syntax unified
 4551              		.thumb
 4552              		.thumb_func
 4554              	USB_HC_Halt:
 4555              	.LVL330:
 4556              	.LFB186:
2174:Drivers/STM32F7xx_HAL_Driver/Src/stm32f7xx_ll_usb.c **** 
2175:Drivers/STM32F7xx_HAL_Driver/Src/stm32f7xx_ll_usb.c **** /**
2176:Drivers/STM32F7xx_HAL_Driver/Src/stm32f7xx_ll_usb.c ****   * @brief  Halt a host channel
2177:Drivers/STM32F7xx_HAL_Driver/Src/stm32f7xx_ll_usb.c ****   * @param  USBx  Selected device
2178:Drivers/STM32F7xx_HAL_Driver/Src/stm32f7xx_ll_usb.c ****   * @param  hc_num  Host Channel number
2179:Drivers/STM32F7xx_HAL_Driver/Src/stm32f7xx_ll_usb.c ****   *         This parameter can be a value from 1 to 15
2180:Drivers/STM32F7xx_HAL_Driver/Src/stm32f7xx_ll_usb.c ****   * @retval HAL state
2181:Drivers/STM32F7xx_HAL_Driver/Src/stm32f7xx_ll_usb.c ****   */
2182:Drivers/STM32F7xx_HAL_Driver/Src/stm32f7xx_ll_usb.c **** HAL_StatusTypeDef USB_HC_Halt(const USB_OTG_GlobalTypeDef *USBx, uint8_t hc_num)
2183:Drivers/STM32F7xx_HAL_Driver/Src/stm32f7xx_ll_usb.c **** {
 4557              		.loc 1 2183 1 is_stmt 1 view -0
 4558              		.cfi_startproc
 4559              		@ args = 0, pretend = 0, frame = 8
 4560              		@ frame_needed = 0, uses_anonymous_args = 0
 4561              		@ link register save eliminated.
 4562              		.loc 1 2183 1 is_stmt 0 view .LVU1524
 4563 0000 70B4     		push	{r4, r5, r6}
 4564              	.LCFI59:
 4565              		.cfi_def_cfa_offset 12
 4566              		.cfi_offset 4, -12
 4567              		.cfi_offset 5, -8
 4568              		.cfi_offset 6, -4
 4569 0002 83B0     		sub	sp, sp, #12
 4570              	.LCFI60:
 4571              		.cfi_def_cfa_offset 24
2184:Drivers/STM32F7xx_HAL_Driver/Src/stm32f7xx_ll_usb.c ****   uint32_t USBx_BASE = (uint32_t)USBx;
 4572              		.loc 1 2184 3 is_stmt 1 view .LVU1525
 4573              	.LVL331:
2185:Drivers/STM32F7xx_HAL_Driver/Src/stm32f7xx_ll_usb.c ****   uint32_t hcnum = (uint32_t)hc_num;
 4574              		.loc 1 2185 3 view .LVU1526
2186:Drivers/STM32F7xx_HAL_Driver/Src/stm32f7xx_ll_usb.c ****   __IO uint32_t count = 0U;
 4575              		.loc 1 2186 3 view .LVU1527
 4576              		.loc 1 2186 17 is_stmt 0 view .LVU1528
 4577 0004 0023     		movs	r3, #0
 4578 0006 0193     		str	r3, [sp, #4]
2187:Drivers/STM32F7xx_HAL_Driver/Src/stm32f7xx_ll_usb.c ****   uint32_t HcEpType = (USBx_HC(hcnum)->HCCHAR & USB_OTG_HCCHAR_EPTYP) >> 18;
 4579              		.loc 1 2187 3 is_stmt 1 view .LVU1529
 4580              		.loc 1 2187 24 is_stmt 0 view .LVU1530
 4581 0008 00EB4111 		add	r1, r0, r1, lsl #5
 4582              	.LVL332:
 4583              		.loc 1 2187 24 view .LVU1531
 4584 000c 01F5A062 		add	r2, r1, #1280
 4585              		.loc 1 2187 38 view .LVU1532
ARM GAS  C:\Users\benny\AppData\Local\Temp\ccHko7Bj.s 			page 140


 4586 0010 D1F80035 		ldr	r3, [r1, #1280]
 4587              		.loc 1 2187 12 view .LVU1533
 4588 0014 C3F38143 		ubfx	r3, r3, #18, #2
 4589              	.LVL333:
2188:Drivers/STM32F7xx_HAL_Driver/Src/stm32f7xx_ll_usb.c ****   uint32_t ChannelEna = (USBx_HC(hcnum)->HCCHAR & USB_OTG_HCCHAR_CHENA) >> 31;
 4590              		.loc 1 2188 3 is_stmt 1 view .LVU1534
 4591              		.loc 1 2188 40 is_stmt 0 view .LVU1535
 4592 0018 D1F80055 		ldr	r5, [r1, #1280]
 4593              	.LVL334:
2189:Drivers/STM32F7xx_HAL_Driver/Src/stm32f7xx_ll_usb.c ****   uint32_t SplitEna = (USBx_HC(hcnum)->HCSPLT & USB_OTG_HCSPLT_SPLITEN) >> 31;
 4594              		.loc 1 2189 3 is_stmt 1 view .LVU1536
 4595              		.loc 1 2189 38 is_stmt 0 view .LVU1537
 4596 001c 5468     		ldr	r4, [r2, #4]
 4597              	.LVL335:
2190:Drivers/STM32F7xx_HAL_Driver/Src/stm32f7xx_ll_usb.c **** 
2191:Drivers/STM32F7xx_HAL_Driver/Src/stm32f7xx_ll_usb.c ****   /* In buffer DMA, Channel disable must not be programmed for non-split periodic channels.
2192:Drivers/STM32F7xx_HAL_Driver/Src/stm32f7xx_ll_usb.c ****      At the end of the next uframe/frame (in the worst case), the core generates a channel halted
2193:Drivers/STM32F7xx_HAL_Driver/Src/stm32f7xx_ll_usb.c ****      and disables the channel automatically. */
2194:Drivers/STM32F7xx_HAL_Driver/Src/stm32f7xx_ll_usb.c **** 
2195:Drivers/STM32F7xx_HAL_Driver/Src/stm32f7xx_ll_usb.c ****   if ((((USBx->GAHBCFG & USB_OTG_GAHBCFG_DMAEN) == USB_OTG_GAHBCFG_DMAEN) && (SplitEna == 0U)) &&
 4598              		.loc 1 2195 3 is_stmt 1 view .LVU1538
 4599              		.loc 1 2195 14 is_stmt 0 view .LVU1539
 4600 001e 8668     		ldr	r6, [r0, #8]
 4601              		.loc 1 2195 6 view .LVU1540
 4602 0020 16F0200F 		tst	r6, #32
 4603 0024 07D0     		beq	.L301
 4604 0026 ED0F     		lsrs	r5, r5, #31
 4605              	.LVL336:
 4606              		.loc 1 2195 6 view .LVU1541
 4607 0028 E40F     		lsrs	r4, r4, #31
 4608              	.LVL337:
 4609              		.loc 1 2195 75 discriminator 1 view .LVU1542
 4610 002a 24B9     		cbnz	r4, .L301
 4611              		.loc 1 2195 96 discriminator 2 view .LVU1543
 4612 002c CDB3     		cbz	r5, .L302
2196:Drivers/STM32F7xx_HAL_Driver/Src/stm32f7xx_ll_usb.c ****       ((ChannelEna == 0U) || (((HcEpType == HCCHAR_ISOC) || (HcEpType == HCCHAR_INTR)))))
 4613              		.loc 1 2196 27 view .LVU1544
 4614 002e 032B     		cmp	r3, #3
 4615 0030 18BF     		it	ne
 4616 0032 012B     		cmpne	r3, #1
 4617 0034 35D0     		beq	.L302
 4618              	.LVL338:
 4619              	.L301:
2197:Drivers/STM32F7xx_HAL_Driver/Src/stm32f7xx_ll_usb.c ****   {
2198:Drivers/STM32F7xx_HAL_Driver/Src/stm32f7xx_ll_usb.c ****     return HAL_OK;
2199:Drivers/STM32F7xx_HAL_Driver/Src/stm32f7xx_ll_usb.c ****   }
2200:Drivers/STM32F7xx_HAL_Driver/Src/stm32f7xx_ll_usb.c **** 
2201:Drivers/STM32F7xx_HAL_Driver/Src/stm32f7xx_ll_usb.c ****   /* Check for space in the request queue to issue the halt. */
2202:Drivers/STM32F7xx_HAL_Driver/Src/stm32f7xx_ll_usb.c ****   if ((HcEpType == HCCHAR_CTRL) || (HcEpType == HCCHAR_BULK))
 4620              		.loc 1 2202 3 is_stmt 1 view .LVU1545
 4621              		.loc 1 2202 6 is_stmt 0 view .LVU1546
 4622 0036 022B     		cmp	r3, #2
 4623 0038 18BF     		it	ne
 4624 003a 002B     		cmpne	r3, #0
 4625 003c 35D1     		bne	.L303
2203:Drivers/STM32F7xx_HAL_Driver/Src/stm32f7xx_ll_usb.c ****   {
2204:Drivers/STM32F7xx_HAL_Driver/Src/stm32f7xx_ll_usb.c ****     USBx_HC(hcnum)->HCCHAR |= USB_OTG_HCCHAR_CHDIS;
ARM GAS  C:\Users\benny\AppData\Local\Temp\ccHko7Bj.s 			page 141


 4626              		.loc 1 2204 5 is_stmt 1 view .LVU1547
 4627              		.loc 1 2204 19 is_stmt 0 view .LVU1548
 4628 003e D1F80035 		ldr	r3, [r1, #1280]
 4629              	.LVL339:
 4630              		.loc 1 2204 28 view .LVU1549
 4631 0042 43F08043 		orr	r3, r3, #1073741824
 4632 0046 C1F80035 		str	r3, [r1, #1280]
2205:Drivers/STM32F7xx_HAL_Driver/Src/stm32f7xx_ll_usb.c **** 
2206:Drivers/STM32F7xx_HAL_Driver/Src/stm32f7xx_ll_usb.c ****     if ((USBx->GAHBCFG & USB_OTG_GAHBCFG_DMAEN) == 0U)
 4633              		.loc 1 2206 5 is_stmt 1 view .LVU1550
 4634              		.loc 1 2206 14 is_stmt 0 view .LVU1551
 4635 004a 8368     		ldr	r3, [r0, #8]
 4636              		.loc 1 2206 8 view .LVU1552
 4637 004c 13F0200F 		tst	r3, #32
 4638 0050 21D1     		bne	.L304
2207:Drivers/STM32F7xx_HAL_Driver/Src/stm32f7xx_ll_usb.c ****     {
2208:Drivers/STM32F7xx_HAL_Driver/Src/stm32f7xx_ll_usb.c ****       if ((USBx->HNPTXSTS & (0xFFU << 16)) == 0U)
 4639              		.loc 1 2208 7 is_stmt 1 view .LVU1553
 4640              		.loc 1 2208 16 is_stmt 0 view .LVU1554
 4641 0052 C36A     		ldr	r3, [r0, #44]
 4642              		.loc 1 2208 10 view .LVU1555
 4643 0054 13F47F0F 		tst	r3, #16711680
 4644 0058 16D1     		bne	.L305
2209:Drivers/STM32F7xx_HAL_Driver/Src/stm32f7xx_ll_usb.c ****       {
2210:Drivers/STM32F7xx_HAL_Driver/Src/stm32f7xx_ll_usb.c ****         USBx_HC(hcnum)->HCCHAR &= ~USB_OTG_HCCHAR_CHENA;
 4645              		.loc 1 2210 9 is_stmt 1 view .LVU1556
 4646              		.loc 1 2210 23 is_stmt 0 view .LVU1557
 4647 005a D1F80035 		ldr	r3, [r1, #1280]
 4648              		.loc 1 2210 32 view .LVU1558
 4649 005e 23F00043 		bic	r3, r3, #-2147483648
 4650 0062 C1F80035 		str	r3, [r1, #1280]
2211:Drivers/STM32F7xx_HAL_Driver/Src/stm32f7xx_ll_usb.c ****         USBx_HC(hcnum)->HCCHAR |= USB_OTG_HCCHAR_CHENA;
 4651              		.loc 1 2211 9 is_stmt 1 view .LVU1559
 4652              		.loc 1 2211 23 is_stmt 0 view .LVU1560
 4653 0066 D1F80035 		ldr	r3, [r1, #1280]
 4654              		.loc 1 2211 32 view .LVU1561
 4655 006a 43F00043 		orr	r3, r3, #-2147483648
 4656 006e C1F80035 		str	r3, [r1, #1280]
 4657              	.L306:
2212:Drivers/STM32F7xx_HAL_Driver/Src/stm32f7xx_ll_usb.c ****         do
 4658              		.loc 1 2212 9 is_stmt 1 view .LVU1562
2213:Drivers/STM32F7xx_HAL_Driver/Src/stm32f7xx_ll_usb.c ****         {
2214:Drivers/STM32F7xx_HAL_Driver/Src/stm32f7xx_ll_usb.c ****           count++;
 4659              		.loc 1 2214 11 view .LVU1563
 4660              		.loc 1 2214 16 is_stmt 0 view .LVU1564
 4661 0072 019B     		ldr	r3, [sp, #4]
 4662 0074 0133     		adds	r3, r3, #1
 4663 0076 0193     		str	r3, [sp, #4]
2215:Drivers/STM32F7xx_HAL_Driver/Src/stm32f7xx_ll_usb.c **** 
2216:Drivers/STM32F7xx_HAL_Driver/Src/stm32f7xx_ll_usb.c ****           if (count > 1000U)
 4664              		.loc 1 2216 11 is_stmt 1 view .LVU1565
 4665              		.loc 1 2216 21 is_stmt 0 view .LVU1566
 4666 0078 019B     		ldr	r3, [sp, #4]
 4667              		.loc 1 2216 14 view .LVU1567
 4668 007a B3F57A7F 		cmp	r3, #1000
 4669 007e 10D8     		bhi	.L302
2217:Drivers/STM32F7xx_HAL_Driver/Src/stm32f7xx_ll_usb.c ****           {
ARM GAS  C:\Users\benny\AppData\Local\Temp\ccHko7Bj.s 			page 142


2218:Drivers/STM32F7xx_HAL_Driver/Src/stm32f7xx_ll_usb.c ****             break;
2219:Drivers/STM32F7xx_HAL_Driver/Src/stm32f7xx_ll_usb.c ****           }
2220:Drivers/STM32F7xx_HAL_Driver/Src/stm32f7xx_ll_usb.c ****         } while ((USBx_HC(hcnum)->HCCHAR & USB_OTG_HCCHAR_CHENA) == USB_OTG_HCCHAR_CHENA);
 4670              		.loc 1 2220 66 is_stmt 1 view .LVU1568
 4671              		.loc 1 2220 33 is_stmt 0 view .LVU1569
 4672 0080 1368     		ldr	r3, [r2]
 4673              		.loc 1 2220 66 view .LVU1570
 4674 0082 002B     		cmp	r3, #0
 4675 0084 F5DB     		blt	.L306
 4676 0086 0CE0     		b	.L302
 4677              	.L305:
2221:Drivers/STM32F7xx_HAL_Driver/Src/stm32f7xx_ll_usb.c ****       }
2222:Drivers/STM32F7xx_HAL_Driver/Src/stm32f7xx_ll_usb.c ****       else
2223:Drivers/STM32F7xx_HAL_Driver/Src/stm32f7xx_ll_usb.c ****       {
2224:Drivers/STM32F7xx_HAL_Driver/Src/stm32f7xx_ll_usb.c ****         USBx_HC(hcnum)->HCCHAR |= USB_OTG_HCCHAR_CHENA;
 4678              		.loc 1 2224 9 is_stmt 1 view .LVU1571
 4679              		.loc 1 2224 23 is_stmt 0 view .LVU1572
 4680 0088 D1F80035 		ldr	r3, [r1, #1280]
 4681              		.loc 1 2224 32 view .LVU1573
 4682 008c 43F00043 		orr	r3, r3, #-2147483648
 4683 0090 C1F80035 		str	r3, [r1, #1280]
 4684 0094 05E0     		b	.L302
 4685              	.L304:
2225:Drivers/STM32F7xx_HAL_Driver/Src/stm32f7xx_ll_usb.c ****       }
2226:Drivers/STM32F7xx_HAL_Driver/Src/stm32f7xx_ll_usb.c ****     }
2227:Drivers/STM32F7xx_HAL_Driver/Src/stm32f7xx_ll_usb.c ****     else
2228:Drivers/STM32F7xx_HAL_Driver/Src/stm32f7xx_ll_usb.c ****     {
2229:Drivers/STM32F7xx_HAL_Driver/Src/stm32f7xx_ll_usb.c ****       USBx_HC(hcnum)->HCCHAR |= USB_OTG_HCCHAR_CHENA;
 4686              		.loc 1 2229 7 is_stmt 1 view .LVU1574
 4687              		.loc 1 2229 21 is_stmt 0 view .LVU1575
 4688 0096 D1F80035 		ldr	r3, [r1, #1280]
 4689              		.loc 1 2229 30 view .LVU1576
 4690 009a 43F00043 		orr	r3, r3, #-2147483648
 4691 009e C1F80035 		str	r3, [r1, #1280]
 4692              	.L302:
2230:Drivers/STM32F7xx_HAL_Driver/Src/stm32f7xx_ll_usb.c ****     }
2231:Drivers/STM32F7xx_HAL_Driver/Src/stm32f7xx_ll_usb.c ****   }
2232:Drivers/STM32F7xx_HAL_Driver/Src/stm32f7xx_ll_usb.c ****   else
2233:Drivers/STM32F7xx_HAL_Driver/Src/stm32f7xx_ll_usb.c ****   {
2234:Drivers/STM32F7xx_HAL_Driver/Src/stm32f7xx_ll_usb.c ****     USBx_HC(hcnum)->HCCHAR |= USB_OTG_HCCHAR_CHDIS;
2235:Drivers/STM32F7xx_HAL_Driver/Src/stm32f7xx_ll_usb.c **** 
2236:Drivers/STM32F7xx_HAL_Driver/Src/stm32f7xx_ll_usb.c ****     if ((USBx_HOST->HPTXSTS & (0xFFU << 16)) == 0U)
2237:Drivers/STM32F7xx_HAL_Driver/Src/stm32f7xx_ll_usb.c ****     {
2238:Drivers/STM32F7xx_HAL_Driver/Src/stm32f7xx_ll_usb.c ****       USBx_HC(hcnum)->HCCHAR &= ~USB_OTG_HCCHAR_CHENA;
2239:Drivers/STM32F7xx_HAL_Driver/Src/stm32f7xx_ll_usb.c ****       USBx_HC(hcnum)->HCCHAR |= USB_OTG_HCCHAR_CHENA;
2240:Drivers/STM32F7xx_HAL_Driver/Src/stm32f7xx_ll_usb.c ****       do
2241:Drivers/STM32F7xx_HAL_Driver/Src/stm32f7xx_ll_usb.c ****       {
2242:Drivers/STM32F7xx_HAL_Driver/Src/stm32f7xx_ll_usb.c ****         count++;
2243:Drivers/STM32F7xx_HAL_Driver/Src/stm32f7xx_ll_usb.c **** 
2244:Drivers/STM32F7xx_HAL_Driver/Src/stm32f7xx_ll_usb.c ****         if (count > 1000U)
2245:Drivers/STM32F7xx_HAL_Driver/Src/stm32f7xx_ll_usb.c ****         {
2246:Drivers/STM32F7xx_HAL_Driver/Src/stm32f7xx_ll_usb.c ****           break;
2247:Drivers/STM32F7xx_HAL_Driver/Src/stm32f7xx_ll_usb.c ****         }
2248:Drivers/STM32F7xx_HAL_Driver/Src/stm32f7xx_ll_usb.c ****       } while ((USBx_HC(hcnum)->HCCHAR & USB_OTG_HCCHAR_CHENA) == USB_OTG_HCCHAR_CHENA);
2249:Drivers/STM32F7xx_HAL_Driver/Src/stm32f7xx_ll_usb.c ****     }
2250:Drivers/STM32F7xx_HAL_Driver/Src/stm32f7xx_ll_usb.c ****     else
2251:Drivers/STM32F7xx_HAL_Driver/Src/stm32f7xx_ll_usb.c ****     {
ARM GAS  C:\Users\benny\AppData\Local\Temp\ccHko7Bj.s 			page 143


2252:Drivers/STM32F7xx_HAL_Driver/Src/stm32f7xx_ll_usb.c ****       USBx_HC(hcnum)->HCCHAR |= USB_OTG_HCCHAR_CHENA;
2253:Drivers/STM32F7xx_HAL_Driver/Src/stm32f7xx_ll_usb.c ****     }
2254:Drivers/STM32F7xx_HAL_Driver/Src/stm32f7xx_ll_usb.c ****   }
2255:Drivers/STM32F7xx_HAL_Driver/Src/stm32f7xx_ll_usb.c **** 
2256:Drivers/STM32F7xx_HAL_Driver/Src/stm32f7xx_ll_usb.c ****   return HAL_OK;
2257:Drivers/STM32F7xx_HAL_Driver/Src/stm32f7xx_ll_usb.c **** }
 4693              		.loc 1 2257 1 view .LVU1577
 4694 00a2 0020     		movs	r0, #0
 4695              	.LVL340:
 4696              		.loc 1 2257 1 view .LVU1578
 4697 00a4 03B0     		add	sp, sp, #12
 4698              	.LCFI61:
 4699              		.cfi_remember_state
 4700              		.cfi_def_cfa_offset 12
 4701              		@ sp needed
 4702 00a6 70BC     		pop	{r4, r5, r6}
 4703              	.LCFI62:
 4704              		.cfi_restore 6
 4705              		.cfi_restore 5
 4706              		.cfi_restore 4
 4707              		.cfi_def_cfa_offset 0
 4708 00a8 7047     		bx	lr
 4709              	.LVL341:
 4710              	.L303:
 4711              	.LCFI63:
 4712              		.cfi_restore_state
2234:Drivers/STM32F7xx_HAL_Driver/Src/stm32f7xx_ll_usb.c **** 
 4713              		.loc 1 2234 5 is_stmt 1 view .LVU1579
2234:Drivers/STM32F7xx_HAL_Driver/Src/stm32f7xx_ll_usb.c **** 
 4714              		.loc 1 2234 19 is_stmt 0 view .LVU1580
 4715 00aa D1F80035 		ldr	r3, [r1, #1280]
 4716              	.LVL342:
2234:Drivers/STM32F7xx_HAL_Driver/Src/stm32f7xx_ll_usb.c **** 
 4717              		.loc 1 2234 28 view .LVU1581
 4718 00ae 43F08043 		orr	r3, r3, #1073741824
 4719 00b2 C1F80035 		str	r3, [r1, #1280]
2236:Drivers/STM32F7xx_HAL_Driver/Src/stm32f7xx_ll_usb.c ****     {
 4720              		.loc 1 2236 5 is_stmt 1 view .LVU1582
2236:Drivers/STM32F7xx_HAL_Driver/Src/stm32f7xx_ll_usb.c ****     {
 4721              		.loc 1 2236 19 is_stmt 0 view .LVU1583
 4722 00b6 D0F81034 		ldr	r3, [r0, #1040]
2236:Drivers/STM32F7xx_HAL_Driver/Src/stm32f7xx_ll_usb.c ****     {
 4723              		.loc 1 2236 8 view .LVU1584
 4724 00ba 13F47F0F 		tst	r3, #16711680
 4725 00be 16D1     		bne	.L307
2238:Drivers/STM32F7xx_HAL_Driver/Src/stm32f7xx_ll_usb.c ****       USBx_HC(hcnum)->HCCHAR |= USB_OTG_HCCHAR_CHENA;
 4726              		.loc 1 2238 7 is_stmt 1 view .LVU1585
2238:Drivers/STM32F7xx_HAL_Driver/Src/stm32f7xx_ll_usb.c ****       USBx_HC(hcnum)->HCCHAR |= USB_OTG_HCCHAR_CHENA;
 4727              		.loc 1 2238 21 is_stmt 0 view .LVU1586
 4728 00c0 D1F80035 		ldr	r3, [r1, #1280]
2238:Drivers/STM32F7xx_HAL_Driver/Src/stm32f7xx_ll_usb.c ****       USBx_HC(hcnum)->HCCHAR |= USB_OTG_HCCHAR_CHENA;
 4729              		.loc 1 2238 30 view .LVU1587
 4730 00c4 23F00043 		bic	r3, r3, #-2147483648
 4731 00c8 C1F80035 		str	r3, [r1, #1280]
2239:Drivers/STM32F7xx_HAL_Driver/Src/stm32f7xx_ll_usb.c ****       do
 4732              		.loc 1 2239 7 is_stmt 1 view .LVU1588
2239:Drivers/STM32F7xx_HAL_Driver/Src/stm32f7xx_ll_usb.c ****       do
ARM GAS  C:\Users\benny\AppData\Local\Temp\ccHko7Bj.s 			page 144


 4733              		.loc 1 2239 21 is_stmt 0 view .LVU1589
 4734 00cc D1F80035 		ldr	r3, [r1, #1280]
2239:Drivers/STM32F7xx_HAL_Driver/Src/stm32f7xx_ll_usb.c ****       do
 4735              		.loc 1 2239 30 view .LVU1590
 4736 00d0 43F00043 		orr	r3, r3, #-2147483648
 4737 00d4 C1F80035 		str	r3, [r1, #1280]
 4738              	.L308:
2240:Drivers/STM32F7xx_HAL_Driver/Src/stm32f7xx_ll_usb.c ****       {
 4739              		.loc 1 2240 7 is_stmt 1 view .LVU1591
2242:Drivers/STM32F7xx_HAL_Driver/Src/stm32f7xx_ll_usb.c **** 
 4740              		.loc 1 2242 9 view .LVU1592
2242:Drivers/STM32F7xx_HAL_Driver/Src/stm32f7xx_ll_usb.c **** 
 4741              		.loc 1 2242 14 is_stmt 0 view .LVU1593
 4742 00d8 019B     		ldr	r3, [sp, #4]
 4743 00da 0133     		adds	r3, r3, #1
 4744 00dc 0193     		str	r3, [sp, #4]
2244:Drivers/STM32F7xx_HAL_Driver/Src/stm32f7xx_ll_usb.c ****         {
 4745              		.loc 1 2244 9 is_stmt 1 view .LVU1594
2244:Drivers/STM32F7xx_HAL_Driver/Src/stm32f7xx_ll_usb.c ****         {
 4746              		.loc 1 2244 19 is_stmt 0 view .LVU1595
 4747 00de 019B     		ldr	r3, [sp, #4]
2244:Drivers/STM32F7xx_HAL_Driver/Src/stm32f7xx_ll_usb.c ****         {
 4748              		.loc 1 2244 12 view .LVU1596
 4749 00e0 B3F57A7F 		cmp	r3, #1000
 4750 00e4 DDD8     		bhi	.L302
2248:Drivers/STM32F7xx_HAL_Driver/Src/stm32f7xx_ll_usb.c ****     }
 4751              		.loc 1 2248 64 is_stmt 1 view .LVU1597
2248:Drivers/STM32F7xx_HAL_Driver/Src/stm32f7xx_ll_usb.c ****     }
 4752              		.loc 1 2248 31 is_stmt 0 view .LVU1598
 4753 00e6 1368     		ldr	r3, [r2]
2248:Drivers/STM32F7xx_HAL_Driver/Src/stm32f7xx_ll_usb.c ****     }
 4754              		.loc 1 2248 64 view .LVU1599
 4755 00e8 002B     		cmp	r3, #0
 4756 00ea F5DB     		blt	.L308
 4757 00ec D9E7     		b	.L302
 4758              	.L307:
2252:Drivers/STM32F7xx_HAL_Driver/Src/stm32f7xx_ll_usb.c ****     }
 4759              		.loc 1 2252 7 is_stmt 1 view .LVU1600
2252:Drivers/STM32F7xx_HAL_Driver/Src/stm32f7xx_ll_usb.c ****     }
 4760              		.loc 1 2252 21 is_stmt 0 view .LVU1601
 4761 00ee D1F80035 		ldr	r3, [r1, #1280]
2252:Drivers/STM32F7xx_HAL_Driver/Src/stm32f7xx_ll_usb.c ****     }
 4762              		.loc 1 2252 30 view .LVU1602
 4763 00f2 43F00043 		orr	r3, r3, #-2147483648
 4764 00f6 C1F80035 		str	r3, [r1, #1280]
 4765 00fa D2E7     		b	.L302
 4766              		.cfi_endproc
 4767              	.LFE186:
 4769              		.section	.text.USB_DoPing,"ax",%progbits
 4770              		.align	1
 4771              		.global	USB_DoPing
 4772              		.syntax unified
 4773              		.thumb
 4774              		.thumb_func
 4776              	USB_DoPing:
 4777              	.LVL343:
 4778              	.LFB187:
ARM GAS  C:\Users\benny\AppData\Local\Temp\ccHko7Bj.s 			page 145


2258:Drivers/STM32F7xx_HAL_Driver/Src/stm32f7xx_ll_usb.c **** 
2259:Drivers/STM32F7xx_HAL_Driver/Src/stm32f7xx_ll_usb.c **** /**
2260:Drivers/STM32F7xx_HAL_Driver/Src/stm32f7xx_ll_usb.c ****   * @brief  Initiate Do Ping protocol
2261:Drivers/STM32F7xx_HAL_Driver/Src/stm32f7xx_ll_usb.c ****   * @param  USBx  Selected device
2262:Drivers/STM32F7xx_HAL_Driver/Src/stm32f7xx_ll_usb.c ****   * @param  hc_num  Host Channel number
2263:Drivers/STM32F7xx_HAL_Driver/Src/stm32f7xx_ll_usb.c ****   *         This parameter can be a value from 1 to 15
2264:Drivers/STM32F7xx_HAL_Driver/Src/stm32f7xx_ll_usb.c ****   * @retval HAL state
2265:Drivers/STM32F7xx_HAL_Driver/Src/stm32f7xx_ll_usb.c ****   */
2266:Drivers/STM32F7xx_HAL_Driver/Src/stm32f7xx_ll_usb.c **** HAL_StatusTypeDef USB_DoPing(const USB_OTG_GlobalTypeDef *USBx, uint8_t ch_num)
2267:Drivers/STM32F7xx_HAL_Driver/Src/stm32f7xx_ll_usb.c **** {
 4779              		.loc 1 2267 1 is_stmt 1 view -0
 4780              		.cfi_startproc
 4781              		@ args = 0, pretend = 0, frame = 0
 4782              		@ frame_needed = 0, uses_anonymous_args = 0
 4783              		@ link register save eliminated.
2268:Drivers/STM32F7xx_HAL_Driver/Src/stm32f7xx_ll_usb.c ****   uint32_t USBx_BASE = (uint32_t)USBx;
 4784              		.loc 1 2268 3 view .LVU1604
2269:Drivers/STM32F7xx_HAL_Driver/Src/stm32f7xx_ll_usb.c ****   uint32_t chnum = (uint32_t)ch_num;
 4785              		.loc 1 2269 3 view .LVU1605
2270:Drivers/STM32F7xx_HAL_Driver/Src/stm32f7xx_ll_usb.c ****   uint32_t num_packets = 1U;
 4786              		.loc 1 2270 3 view .LVU1606
2271:Drivers/STM32F7xx_HAL_Driver/Src/stm32f7xx_ll_usb.c ****   uint32_t tmpreg;
 4787              		.loc 1 2271 3 view .LVU1607
2272:Drivers/STM32F7xx_HAL_Driver/Src/stm32f7xx_ll_usb.c **** 
2273:Drivers/STM32F7xx_HAL_Driver/Src/stm32f7xx_ll_usb.c ****   USBx_HC(chnum)->HCTSIZ = ((num_packets << 19) & USB_OTG_HCTSIZ_PKTCNT) |
 4788              		.loc 1 2273 3 view .LVU1608
 4789 0000 00EB4110 		add	r0, r0, r1, lsl #5
 4790              	.LVL344:
 4791              		.loc 1 2273 26 is_stmt 0 view .LVU1609
 4792 0004 064A     		ldr	r2, .L311
 4793 0006 C0F81025 		str	r2, [r0, #1296]
2274:Drivers/STM32F7xx_HAL_Driver/Src/stm32f7xx_ll_usb.c ****                            USB_OTG_HCTSIZ_DOPING;
2275:Drivers/STM32F7xx_HAL_Driver/Src/stm32f7xx_ll_usb.c **** 
2276:Drivers/STM32F7xx_HAL_Driver/Src/stm32f7xx_ll_usb.c ****   /* Set host channel enable */
2277:Drivers/STM32F7xx_HAL_Driver/Src/stm32f7xx_ll_usb.c ****   tmpreg = USBx_HC(chnum)->HCCHAR;
 4794              		.loc 1 2277 3 is_stmt 1 view .LVU1610
 4795              		.loc 1 2277 10 is_stmt 0 view .LVU1611
 4796 000a D0F80035 		ldr	r3, [r0, #1280]
 4797              	.LVL345:
2278:Drivers/STM32F7xx_HAL_Driver/Src/stm32f7xx_ll_usb.c ****   tmpreg &= ~USB_OTG_HCCHAR_CHDIS;
 4798              		.loc 1 2278 3 is_stmt 1 view .LVU1612
 4799              		.loc 1 2278 10 is_stmt 0 view .LVU1613
 4800 000e 23F08043 		bic	r3, r3, #1073741824
 4801              	.LVL346:
2279:Drivers/STM32F7xx_HAL_Driver/Src/stm32f7xx_ll_usb.c ****   tmpreg |= USB_OTG_HCCHAR_CHENA;
 4802              		.loc 1 2279 3 is_stmt 1 view .LVU1614
 4803              		.loc 1 2279 10 is_stmt 0 view .LVU1615
 4804 0012 43F00043 		orr	r3, r3, #-2147483648
 4805              	.LVL347:
2280:Drivers/STM32F7xx_HAL_Driver/Src/stm32f7xx_ll_usb.c ****   USBx_HC(chnum)->HCCHAR = tmpreg;
 4806              		.loc 1 2280 3 is_stmt 1 view .LVU1616
 4807              		.loc 1 2280 26 is_stmt 0 view .LVU1617
 4808 0016 C0F80035 		str	r3, [r0, #1280]
2281:Drivers/STM32F7xx_HAL_Driver/Src/stm32f7xx_ll_usb.c **** 
2282:Drivers/STM32F7xx_HAL_Driver/Src/stm32f7xx_ll_usb.c ****   return HAL_OK;
 4809              		.loc 1 2282 3 is_stmt 1 view .LVU1618
2283:Drivers/STM32F7xx_HAL_Driver/Src/stm32f7xx_ll_usb.c **** }
ARM GAS  C:\Users\benny\AppData\Local\Temp\ccHko7Bj.s 			page 146


 4810              		.loc 1 2283 1 is_stmt 0 view .LVU1619
 4811 001a 0020     		movs	r0, #0
 4812 001c 7047     		bx	lr
 4813              	.L312:
 4814 001e 00BF     		.align	2
 4815              	.L311:
 4816 0020 00000880 		.word	-2146959360
 4817              		.cfi_endproc
 4818              	.LFE187:
 4820              		.section	.text.USB_HC_StartXfer,"ax",%progbits
 4821              		.align	1
 4822              		.global	USB_HC_StartXfer
 4823              		.syntax unified
 4824              		.thumb
 4825              		.thumb_func
 4827              	USB_HC_StartXfer:
 4828              	.LVL348:
 4829              	.LFB184:
1906:Drivers/STM32F7xx_HAL_Driver/Src/stm32f7xx_ll_usb.c ****   uint32_t USBx_BASE = (uint32_t)USBx;
 4830              		.loc 1 1906 1 is_stmt 1 view -0
 4831              		.cfi_startproc
 4832              		@ args = 0, pretend = 0, frame = 8
 4833              		@ frame_needed = 0, uses_anonymous_args = 0
1906:Drivers/STM32F7xx_HAL_Driver/Src/stm32f7xx_ll_usb.c ****   uint32_t USBx_BASE = (uint32_t)USBx;
 4834              		.loc 1 1906 1 is_stmt 0 view .LVU1621
 4835 0000 70B5     		push	{r4, r5, r6, lr}
 4836              	.LCFI64:
 4837              		.cfi_def_cfa_offset 16
 4838              		.cfi_offset 4, -16
 4839              		.cfi_offset 5, -12
 4840              		.cfi_offset 6, -8
 4841              		.cfi_offset 14, -4
 4842 0002 84B0     		sub	sp, sp, #16
 4843              	.LCFI65:
 4844              		.cfi_def_cfa_offset 32
1907:Drivers/STM32F7xx_HAL_Driver/Src/stm32f7xx_ll_usb.c ****   uint32_t ch_num = (uint32_t)hc->ch_num;
 4845              		.loc 1 1907 3 is_stmt 1 view .LVU1622
 4846              	.LVL349:
1908:Drivers/STM32F7xx_HAL_Driver/Src/stm32f7xx_ll_usb.c ****   __IO uint32_t tmpreg;
 4847              		.loc 1 1908 3 view .LVU1623
1908:Drivers/STM32F7xx_HAL_Driver/Src/stm32f7xx_ll_usb.c ****   __IO uint32_t tmpreg;
 4848              		.loc 1 1908 33 is_stmt 0 view .LVU1624
 4849 0004 4B78     		ldrb	r3, [r1, #1]	@ zero_extendqisi2
 4850              	.LVL350:
1909:Drivers/STM32F7xx_HAL_Driver/Src/stm32f7xx_ll_usb.c ****   uint8_t  is_oddframe;
 4851              		.loc 1 1909 3 is_stmt 1 view .LVU1625
1910:Drivers/STM32F7xx_HAL_Driver/Src/stm32f7xx_ll_usb.c ****   uint16_t len_words;
 4852              		.loc 1 1910 3 view .LVU1626
1911:Drivers/STM32F7xx_HAL_Driver/Src/stm32f7xx_ll_usb.c ****   uint16_t num_packets;
 4853              		.loc 1 1911 3 view .LVU1627
1912:Drivers/STM32F7xx_HAL_Driver/Src/stm32f7xx_ll_usb.c ****   uint16_t max_hc_pkt_count = HC_MAX_PKT_CNT;
 4854              		.loc 1 1912 3 view .LVU1628
1913:Drivers/STM32F7xx_HAL_Driver/Src/stm32f7xx_ll_usb.c **** 
 4855              		.loc 1 1913 3 view .LVU1629
1916:Drivers/STM32F7xx_HAL_Driver/Src/stm32f7xx_ll_usb.c ****   {
 4856              		.loc 1 1916 3 view .LVU1630
1916:Drivers/STM32F7xx_HAL_Driver/Src/stm32f7xx_ll_usb.c ****   {
ARM GAS  C:\Users\benny\AppData\Local\Temp\ccHko7Bj.s 			page 147


 4857              		.loc 1 1916 6 is_stmt 0 view .LVU1631
 4858 0006 A34C     		ldr	r4, .L356
 4859 0008 A042     		cmp	r0, r4
 4860 000a 16D0     		beq	.L347
 4861              	.L314:
1940:Drivers/STM32F7xx_HAL_Driver/Src/stm32f7xx_ll_usb.c ****   {
 4862              		.loc 1 1940 3 is_stmt 1 view .LVU1632
1940:Drivers/STM32F7xx_HAL_Driver/Src/stm32f7xx_ll_usb.c ****   {
 4863              		.loc 1 1940 9 is_stmt 0 view .LVU1633
 4864 000c 8C79     		ldrb	r4, [r1, #6]	@ zero_extendqisi2
1940:Drivers/STM32F7xx_HAL_Driver/Src/stm32f7xx_ll_usb.c ****   {
 4865              		.loc 1 1940 6 view .LVU1634
 4866 000e 012C     		cmp	r4, #1
 4867 0010 2ED0     		beq	.L348
1998:Drivers/STM32F7xx_HAL_Driver/Src/stm32f7xx_ll_usb.c ****     {
 4868              		.loc 1 1998 5 is_stmt 1 view .LVU1635
1998:Drivers/STM32F7xx_HAL_Driver/Src/stm32f7xx_ll_usb.c ****     {
 4869              		.loc 1 1998 11 is_stmt 0 view .LVU1636
 4870 0012 0D6A     		ldr	r5, [r1, #32]
1998:Drivers/STM32F7xx_HAL_Driver/Src/stm32f7xx_ll_usb.c ****     {
 4871              		.loc 1 1998 8 view .LVU1637
 4872 0014 002D     		cmp	r5, #0
 4873 0016 5FD0     		beq	.L343
2000:Drivers/STM32F7xx_HAL_Driver/Src/stm32f7xx_ll_usb.c **** 
 4874              		.loc 1 2000 7 is_stmt 1 view .LVU1638
2000:Drivers/STM32F7xx_HAL_Driver/Src/stm32f7xx_ll_usb.c **** 
 4875              		.loc 1 2000 50 is_stmt 0 view .LVU1639
 4876 0018 B1F814C0 		ldrh	ip, [r1, #20]
2000:Drivers/STM32F7xx_HAL_Driver/Src/stm32f7xx_ll_usb.c **** 
 4877              		.loc 1 2000 46 view .LVU1640
 4878 001c 05EB0C04 		add	r4, r5, ip
2000:Drivers/STM32F7xx_HAL_Driver/Src/stm32f7xx_ll_usb.c **** 
 4879              		.loc 1 2000 63 view .LVU1641
 4880 0020 013C     		subs	r4, r4, #1
2000:Drivers/STM32F7xx_HAL_Driver/Src/stm32f7xx_ll_usb.c **** 
 4881              		.loc 1 2000 69 view .LVU1642
 4882 0022 B4FBFCF4 		udiv	r4, r4, ip
2000:Drivers/STM32F7xx_HAL_Driver/Src/stm32f7xx_ll_usb.c **** 
 4883              		.loc 1 2000 19 view .LVU1643
 4884 0026 A4B2     		uxth	r4, r4
 4885              	.LVL351:
2002:Drivers/STM32F7xx_HAL_Driver/Src/stm32f7xx_ll_usb.c ****       {
 4886              		.loc 1 2002 7 is_stmt 1 view .LVU1644
2002:Drivers/STM32F7xx_HAL_Driver/Src/stm32f7xx_ll_usb.c ****       {
 4887              		.loc 1 2002 10 is_stmt 0 view .LVU1645
 4888 0028 B4F5807F 		cmp	r4, #256
 4889 002c 55D9     		bls	.L325
2004:Drivers/STM32F7xx_HAL_Driver/Src/stm32f7xx_ll_usb.c ****         hc->XferSize = (uint32_t)num_packets * hc->max_packet;
 4890              		.loc 1 2004 9 is_stmt 1 view .LVU1646
 4891              	.LVL352:
2005:Drivers/STM32F7xx_HAL_Driver/Src/stm32f7xx_ll_usb.c ****       }
 4892              		.loc 1 2005 9 view .LVU1647
2005:Drivers/STM32F7xx_HAL_Driver/Src/stm32f7xx_ll_usb.c ****       }
 4893              		.loc 1 2005 46 is_stmt 0 view .LVU1648
 4894 002e 4FEA0C24 		lsl	r4, ip, #8
2005:Drivers/STM32F7xx_HAL_Driver/Src/stm32f7xx_ll_usb.c ****       }
 4895              		.loc 1 2005 22 view .LVU1649
ARM GAS  C:\Users\benny\AppData\Local\Temp\ccHko7Bj.s 			page 148


 4896 0032 CC61     		str	r4, [r1, #28]
2004:Drivers/STM32F7xx_HAL_Driver/Src/stm32f7xx_ll_usb.c ****         hc->XferSize = (uint32_t)num_packets * hc->max_packet;
 4897              		.loc 1 2004 21 view .LVU1650
 4898 0034 4FF48074 		mov	r4, #256
 4899 0038 4FE0     		b	.L325
 4900              	.LVL353:
 4901              	.L347:
1919:Drivers/STM32F7xx_HAL_Driver/Src/stm32f7xx_ll_usb.c ****     {
 4902              		.loc 1 1919 5 is_stmt 1 view .LVU1651
1919:Drivers/STM32F7xx_HAL_Driver/Src/stm32f7xx_ll_usb.c ****     {
 4903              		.loc 1 1919 8 is_stmt 0 view .LVU1652
 4904 003a 012A     		cmp	r2, #1
 4905 003c 07D0     		beq	.L349
1931:Drivers/STM32F7xx_HAL_Driver/Src/stm32f7xx_ll_usb.c ****       {
 4906              		.loc 1 1931 7 is_stmt 1 view .LVU1653
1931:Drivers/STM32F7xx_HAL_Driver/Src/stm32f7xx_ll_usb.c ****       {
 4907              		.loc 1 1931 40 is_stmt 0 view .LVU1654
 4908 003e 8C88     		ldrh	r4, [r1, #4]
1931:Drivers/STM32F7xx_HAL_Driver/Src/stm32f7xx_ll_usb.c ****       {
 4909              		.loc 1 1931 10 view .LVU1655
 4910 0040 B4F5807F 		cmp	r4, #256
 4911 0044 E2D1     		bne	.L314
1933:Drivers/STM32F7xx_HAL_Driver/Src/stm32f7xx_ll_usb.c ****         return HAL_OK;
 4912              		.loc 1 1933 9 is_stmt 1 view .LVU1656
1933:Drivers/STM32F7xx_HAL_Driver/Src/stm32f7xx_ll_usb.c ****         return HAL_OK;
 4913              		.loc 1 1933 15 is_stmt 0 view .LVU1657
 4914 0046 1946     		mov	r1, r3
 4915              	.LVL354:
1933:Drivers/STM32F7xx_HAL_Driver/Src/stm32f7xx_ll_usb.c ****         return HAL_OK;
 4916              		.loc 1 1933 15 view .LVU1658
 4917 0048 FFF7FEFF 		bl	USB_DoPing
 4918              	.LVL355:
1934:Drivers/STM32F7xx_HAL_Driver/Src/stm32f7xx_ll_usb.c ****       }
 4919              		.loc 1 1934 9 is_stmt 1 view .LVU1659
1934:Drivers/STM32F7xx_HAL_Driver/Src/stm32f7xx_ll_usb.c ****       }
 4920              		.loc 1 1934 16 is_stmt 0 view .LVU1660
 4921 004c 1FE1     		b	.L316
 4922              	.LVL356:
 4923              	.L349:
1921:Drivers/STM32F7xx_HAL_Driver/Src/stm32f7xx_ll_usb.c ****       {
 4924              		.loc 1 1921 7 is_stmt 1 view .LVU1661
1921:Drivers/STM32F7xx_HAL_Driver/Src/stm32f7xx_ll_usb.c ****       {
 4925              		.loc 1 1921 15 is_stmt 0 view .LVU1662
 4926 004e 8C7C     		ldrb	r4, [r1, #18]	@ zero_extendqisi2
1921:Drivers/STM32F7xx_HAL_Driver/Src/stm32f7xx_ll_usb.c ****       {
 4927              		.loc 1 1921 10 view .LVU1663
 4928 0050 022C     		cmp	r4, #2
 4929 0052 18BF     		it	ne
 4930 0054 002C     		cmpne	r4, #0
 4931 0056 D9D1     		bne	.L314
1921:Drivers/STM32F7xx_HAL_Driver/Src/stm32f7xx_ll_usb.c ****       {
 4932              		.loc 1 1921 82 discriminator 1 view .LVU1664
 4933 0058 8C79     		ldrb	r4, [r1, #6]	@ zero_extendqisi2
1921:Drivers/STM32F7xx_HAL_Driver/Src/stm32f7xx_ll_usb.c ****       {
 4934              		.loc 1 1921 76 discriminator 1 view .LVU1665
 4935 005a 002C     		cmp	r4, #0
 4936 005c D6D1     		bne	.L314
ARM GAS  C:\Users\benny\AppData\Local\Temp\ccHko7Bj.s 			page 149


1924:Drivers/STM32F7xx_HAL_Driver/Src/stm32f7xx_ll_usb.c ****                                                  USB_OTG_HCINTMSK_ACKM |
 4937              		.loc 1 1924 9 is_stmt 1 view .LVU1666
1924:Drivers/STM32F7xx_HAL_Driver/Src/stm32f7xx_ll_usb.c ****                                                  USB_OTG_HCINTMSK_ACKM |
 4938              		.loc 1 1924 34 is_stmt 0 view .LVU1667
 4939 005e 00EB4314 		add	r4, r0, r3, lsl #5
 4940 0062 D4F80C55 		ldr	r5, [r4, #1292]
1924:Drivers/STM32F7xx_HAL_Driver/Src/stm32f7xx_ll_usb.c ****                                                  USB_OTG_HCINTMSK_ACKM |
 4941              		.loc 1 1924 45 view .LVU1668
 4942 0066 25F07005 		bic	r5, r5, #112
 4943 006a C4F80C55 		str	r5, [r4, #1292]
 4944 006e CDE7     		b	.L314
 4945              	.L348:
1943:Drivers/STM32F7xx_HAL_Driver/Src/stm32f7xx_ll_usb.c **** 
 4946              		.loc 1 1943 5 is_stmt 1 view .LVU1669
 4947              	.LVL357:
1945:Drivers/STM32F7xx_HAL_Driver/Src/stm32f7xx_ll_usb.c ****     {
 4948              		.loc 1 1945 5 view .LVU1670
1945:Drivers/STM32F7xx_HAL_Driver/Src/stm32f7xx_ll_usb.c ****     {
 4949              		.loc 1 1945 11 is_stmt 0 view .LVU1671
 4950 0070 CC78     		ldrb	r4, [r1, #3]	@ zero_extendqisi2
1945:Drivers/STM32F7xx_HAL_Driver/Src/stm32f7xx_ll_usb.c ****     {
 4951              		.loc 1 1945 8 view .LVU1672
 4952 0072 1CB1     		cbz	r4, .L318
1947:Drivers/STM32F7xx_HAL_Driver/Src/stm32f7xx_ll_usb.c ****     }
 4953              		.loc 1 1947 7 is_stmt 1 view .LVU1673
1947:Drivers/STM32F7xx_HAL_Driver/Src/stm32f7xx_ll_usb.c ****     }
 4954              		.loc 1 1947 48 is_stmt 0 view .LVU1674
 4955 0074 8C8A     		ldrh	r4, [r1, #20]
1947:Drivers/STM32F7xx_HAL_Driver/Src/stm32f7xx_ll_usb.c ****     }
 4956              		.loc 1 1947 20 view .LVU1675
 4957 0076 CC61     		str	r4, [r1, #28]
1943:Drivers/STM32F7xx_HAL_Driver/Src/stm32f7xx_ll_usb.c **** 
 4958              		.loc 1 1943 17 view .LVU1676
 4959 0078 0124     		movs	r4, #1
 4960 007a 35E0     		b	.L319
 4961              	.L318:
1951:Drivers/STM32F7xx_HAL_Driver/Src/stm32f7xx_ll_usb.c ****       {
 4962              		.loc 1 1951 7 is_stmt 1 view .LVU1677
1951:Drivers/STM32F7xx_HAL_Driver/Src/stm32f7xx_ll_usb.c ****       {
 4963              		.loc 1 1951 13 is_stmt 0 view .LVU1678
 4964 007c 8C7C     		ldrb	r4, [r1, #18]	@ zero_extendqisi2
1951:Drivers/STM32F7xx_HAL_Driver/Src/stm32f7xx_ll_usb.c ****       {
 4965              		.loc 1 1951 10 view .LVU1679
 4966 007e 012C     		cmp	r4, #1
 4967 0080 05D0     		beq	.L350
1984:Drivers/STM32F7xx_HAL_Driver/Src/stm32f7xx_ll_usb.c ****         {
 4968              		.loc 1 1984 9 is_stmt 1 view .LVU1680
1984:Drivers/STM32F7xx_HAL_Driver/Src/stm32f7xx_ll_usb.c ****         {
 4969              		.loc 1 1984 12 is_stmt 0 view .LVU1681
 4970 0082 012A     		cmp	r2, #1
 4971 0084 21D0     		beq	.L351
 4972              	.L324:
1990:Drivers/STM32F7xx_HAL_Driver/Src/stm32f7xx_ll_usb.c ****         }
 4973              		.loc 1 1990 11 is_stmt 1 view .LVU1682
1990:Drivers/STM32F7xx_HAL_Driver/Src/stm32f7xx_ll_usb.c ****         }
 4974              		.loc 1 1990 28 is_stmt 0 view .LVU1683
 4975 0086 0C6A     		ldr	r4, [r1, #32]
ARM GAS  C:\Users\benny\AppData\Local\Temp\ccHko7Bj.s 			page 150


1990:Drivers/STM32F7xx_HAL_Driver/Src/stm32f7xx_ll_usb.c ****         }
 4976              		.loc 1 1990 24 view .LVU1684
 4977 0088 CC61     		str	r4, [r1, #28]
1943:Drivers/STM32F7xx_HAL_Driver/Src/stm32f7xx_ll_usb.c **** 
 4978              		.loc 1 1943 17 view .LVU1685
 4979 008a 0124     		movs	r4, #1
 4980 008c 2CE0     		b	.L319
 4981              	.L350:
1953:Drivers/STM32F7xx_HAL_Driver/Src/stm32f7xx_ll_usb.c ****         {
 4982              		.loc 1 1953 9 is_stmt 1 view .LVU1686
1953:Drivers/STM32F7xx_HAL_Driver/Src/stm32f7xx_ll_usb.c ****         {
 4983              		.loc 1 1953 15 is_stmt 0 view .LVU1687
 4984 008e 0C6A     		ldr	r4, [r1, #32]
1953:Drivers/STM32F7xx_HAL_Driver/Src/stm32f7xx_ll_usb.c ****         {
 4985              		.loc 1 1953 12 view .LVU1688
 4986 0090 BC2C     		cmp	r4, #188
 4987 0092 0DD9     		bls	.L321
1956:Drivers/STM32F7xx_HAL_Driver/Src/stm32f7xx_ll_usb.c ****           hc->xfer_len = hc->XferSize;
 4988              		.loc 1 1956 11 is_stmt 1 view .LVU1689
1956:Drivers/STM32F7xx_HAL_Driver/Src/stm32f7xx_ll_usb.c ****           hc->xfer_len = hc->XferSize;
 4989              		.loc 1 1956 28 is_stmt 0 view .LVU1690
 4990 0094 8C8A     		ldrh	r4, [r1, #20]
1956:Drivers/STM32F7xx_HAL_Driver/Src/stm32f7xx_ll_usb.c ****           hc->xfer_len = hc->XferSize;
 4991              		.loc 1 1956 24 view .LVU1691
 4992 0096 CC61     		str	r4, [r1, #28]
1957:Drivers/STM32F7xx_HAL_Driver/Src/stm32f7xx_ll_usb.c **** 
 4993              		.loc 1 1957 11 is_stmt 1 view .LVU1692
1957:Drivers/STM32F7xx_HAL_Driver/Src/stm32f7xx_ll_usb.c **** 
 4994              		.loc 1 1957 24 is_stmt 0 view .LVU1693
 4995 0098 0C62     		str	r4, [r1, #32]
1959:Drivers/STM32F7xx_HAL_Driver/Src/stm32f7xx_ll_usb.c ****           {
 4996              		.loc 1 1959 11 is_stmt 1 view .LVU1694
1959:Drivers/STM32F7xx_HAL_Driver/Src/stm32f7xx_ll_usb.c ****           {
 4997              		.loc 1 1959 18 is_stmt 0 view .LVU1695
 4998 009a CC68     		ldr	r4, [r1, #12]
1959:Drivers/STM32F7xx_HAL_Driver/Src/stm32f7xx_ll_usb.c ****           {
 4999              		.loc 1 1959 54 view .LVU1696
 5000 009c 013C     		subs	r4, r4, #1
1959:Drivers/STM32F7xx_HAL_Driver/Src/stm32f7xx_ll_usb.c ****           {
 5001              		.loc 1 1959 14 view .LVU1697
 5002 009e 012C     		cmp	r4, #1
 5003 00a0 02D9     		bls	.L352
1965:Drivers/STM32F7xx_HAL_Driver/Src/stm32f7xx_ll_usb.c ****           }
 5004              		.loc 1 1965 13 is_stmt 1 view .LVU1698
1965:Drivers/STM32F7xx_HAL_Driver/Src/stm32f7xx_ll_usb.c ****           }
 5005              		.loc 1 1965 34 is_stmt 0 view .LVU1699
 5006 00a2 0124     		movs	r4, #1
 5007 00a4 CC60     		str	r4, [r1, #12]
 5008 00a6 1FE0     		b	.L319
 5009              	.L352:
1961:Drivers/STM32F7xx_HAL_Driver/Src/stm32f7xx_ll_usb.c ****           }
 5010              		.loc 1 1961 13 is_stmt 1 view .LVU1700
1961:Drivers/STM32F7xx_HAL_Driver/Src/stm32f7xx_ll_usb.c ****           }
 5011              		.loc 1 1961 34 is_stmt 0 view .LVU1701
 5012 00a8 0224     		movs	r4, #2
 5013 00aa CC60     		str	r4, [r1, #12]
1943:Drivers/STM32F7xx_HAL_Driver/Src/stm32f7xx_ll_usb.c **** 
ARM GAS  C:\Users\benny\AppData\Local\Temp\ccHko7Bj.s 			page 151


 5014              		.loc 1 1943 17 view .LVU1702
 5015 00ac 0124     		movs	r4, #1
 5016 00ae 1BE0     		b	.L319
 5017              	.L321:
1970:Drivers/STM32F7xx_HAL_Driver/Src/stm32f7xx_ll_usb.c **** 
 5018              		.loc 1 1970 11 is_stmt 1 view .LVU1703
1970:Drivers/STM32F7xx_HAL_Driver/Src/stm32f7xx_ll_usb.c **** 
 5019              		.loc 1 1970 24 is_stmt 0 view .LVU1704
 5020 00b0 CC61     		str	r4, [r1, #28]
1972:Drivers/STM32F7xx_HAL_Driver/Src/stm32f7xx_ll_usb.c ****           {
 5021              		.loc 1 1972 11 is_stmt 1 view .LVU1705
1972:Drivers/STM32F7xx_HAL_Driver/Src/stm32f7xx_ll_usb.c ****           {
 5022              		.loc 1 1972 18 is_stmt 0 view .LVU1706
 5023 00b2 CC68     		ldr	r4, [r1, #12]
1972:Drivers/STM32F7xx_HAL_Driver/Src/stm32f7xx_ll_usb.c ****           {
 5024              		.loc 1 1972 54 view .LVU1707
 5025 00b4 013C     		subs	r4, r4, #1
1972:Drivers/STM32F7xx_HAL_Driver/Src/stm32f7xx_ll_usb.c ****           {
 5026              		.loc 1 1972 14 view .LVU1708
 5027 00b6 012C     		cmp	r4, #1
 5028 00b8 03D9     		bls	.L323
1974:Drivers/STM32F7xx_HAL_Driver/Src/stm32f7xx_ll_usb.c ****           }
 5029              		.loc 1 1974 13 is_stmt 1 view .LVU1709
1974:Drivers/STM32F7xx_HAL_Driver/Src/stm32f7xx_ll_usb.c ****           }
 5030              		.loc 1 1974 34 is_stmt 0 view .LVU1710
 5031 00ba 0424     		movs	r4, #4
 5032 00bc CC60     		str	r4, [r1, #12]
1943:Drivers/STM32F7xx_HAL_Driver/Src/stm32f7xx_ll_usb.c **** 
 5033              		.loc 1 1943 17 view .LVU1711
 5034 00be 0124     		movs	r4, #1
 5035 00c0 12E0     		b	.L319
 5036              	.L323:
1978:Drivers/STM32F7xx_HAL_Driver/Src/stm32f7xx_ll_usb.c ****           }
 5037              		.loc 1 1978 13 is_stmt 1 view .LVU1712
1978:Drivers/STM32F7xx_HAL_Driver/Src/stm32f7xx_ll_usb.c ****           }
 5038              		.loc 1 1978 34 is_stmt 0 view .LVU1713
 5039 00c2 0324     		movs	r4, #3
 5040 00c4 CC60     		str	r4, [r1, #12]
1943:Drivers/STM32F7xx_HAL_Driver/Src/stm32f7xx_ll_usb.c **** 
 5041              		.loc 1 1943 17 view .LVU1714
 5042 00c6 0124     		movs	r4, #1
 5043 00c8 0EE0     		b	.L319
 5044              	.L351:
1984:Drivers/STM32F7xx_HAL_Driver/Src/stm32f7xx_ll_usb.c ****         {
 5045              		.loc 1 1984 31 discriminator 1 view .LVU1715
 5046 00ca 0D6A     		ldr	r5, [r1, #32]
1984:Drivers/STM32F7xx_HAL_Driver/Src/stm32f7xx_ll_usb.c ****         {
 5047              		.loc 1 1984 46 discriminator 1 view .LVU1716
 5048 00cc 8C8A     		ldrh	r4, [r1, #20]
1984:Drivers/STM32F7xx_HAL_Driver/Src/stm32f7xx_ll_usb.c ****         {
 5049              		.loc 1 1984 25 discriminator 1 view .LVU1717
 5050 00ce A542     		cmp	r5, r4
 5051 00d0 D9D9     		bls	.L324
1986:Drivers/STM32F7xx_HAL_Driver/Src/stm32f7xx_ll_usb.c ****         }
 5052              		.loc 1 1986 11 is_stmt 1 view .LVU1718
1986:Drivers/STM32F7xx_HAL_Driver/Src/stm32f7xx_ll_usb.c ****         }
 5053              		.loc 1 1986 24 is_stmt 0 view .LVU1719
ARM GAS  C:\Users\benny\AppData\Local\Temp\ccHko7Bj.s 			page 152


 5054 00d2 CC61     		str	r4, [r1, #28]
1943:Drivers/STM32F7xx_HAL_Driver/Src/stm32f7xx_ll_usb.c **** 
 5055              		.loc 1 1943 17 view .LVU1720
 5056 00d4 0124     		movs	r4, #1
1986:Drivers/STM32F7xx_HAL_Driver/Src/stm32f7xx_ll_usb.c ****         }
 5057              		.loc 1 1986 24 view .LVU1721
 5058 00d6 07E0     		b	.L319
 5059              	.LVL358:
 5060              	.L343:
2010:Drivers/STM32F7xx_HAL_Driver/Src/stm32f7xx_ll_usb.c ****     }
 5061              		.loc 1 2010 19 view .LVU1722
 5062 00d8 0124     		movs	r4, #1
 5063              	.L325:
 5064              	.LVL359:
2017:Drivers/STM32F7xx_HAL_Driver/Src/stm32f7xx_ll_usb.c ****     {
 5065              		.loc 1 2017 5 is_stmt 1 view .LVU1723
2017:Drivers/STM32F7xx_HAL_Driver/Src/stm32f7xx_ll_usb.c ****     {
 5066              		.loc 1 2017 11 is_stmt 0 view .LVU1724
 5067 00da CE78     		ldrb	r6, [r1, #3]	@ zero_extendqisi2
2017:Drivers/STM32F7xx_HAL_Driver/Src/stm32f7xx_ll_usb.c ****     {
 5068              		.loc 1 2017 8 view .LVU1725
 5069 00dc 002E     		cmp	r6, #0
 5070 00de 60D0     		beq	.L326
2019:Drivers/STM32F7xx_HAL_Driver/Src/stm32f7xx_ll_usb.c ****     }
 5071              		.loc 1 2019 7 is_stmt 1 view .LVU1726
2019:Drivers/STM32F7xx_HAL_Driver/Src/stm32f7xx_ll_usb.c ****     }
 5072              		.loc 1 2019 48 is_stmt 0 view .LVU1727
 5073 00e0 8D8A     		ldrh	r5, [r1, #20]
2019:Drivers/STM32F7xx_HAL_Driver/Src/stm32f7xx_ll_usb.c ****     }
 5074              		.loc 1 2019 44 view .LVU1728
 5075 00e2 04FB05F5 		mul	r5, r4, r5
2019:Drivers/STM32F7xx_HAL_Driver/Src/stm32f7xx_ll_usb.c ****     }
 5076              		.loc 1 2019 20 view .LVU1729
 5077 00e6 CD61     		str	r5, [r1, #28]
 5078              	.LVL360:
 5079              	.L319:
2028:Drivers/STM32F7xx_HAL_Driver/Src/stm32f7xx_ll_usb.c ****                             (((uint32_t)num_packets << 19) & USB_OTG_HCTSIZ_PKTCNT) |
 5080              		.loc 1 2028 3 is_stmt 1 view .LVU1730
2028:Drivers/STM32F7xx_HAL_Driver/Src/stm32f7xx_ll_usb.c ****                             (((uint32_t)num_packets << 19) & USB_OTG_HCTSIZ_PKTCNT) |
 5081              		.loc 1 2028 43 is_stmt 0 view .LVU1731
 5082 00e8 CD69     		ldr	r5, [r1, #28]
 5083 00ea C5F3120C 		ubfx	ip, r5, #0, #19
2029:Drivers/STM32F7xx_HAL_Driver/Src/stm32f7xx_ll_usb.c ****                             (((uint32_t)hc->data_pid << 29) & USB_OTG_HCTSIZ_DPID);
 5084              		.loc 1 2029 60 view .LVU1732
 5085 00ee 6A4D     		ldr	r5, .L356+4
 5086 00f0 05EAC444 		and	r4, r5, r4, lsl #19
 5087              	.LVL361:
2028:Drivers/STM32F7xx_HAL_Driver/Src/stm32f7xx_ll_usb.c ****                             (((uint32_t)num_packets << 19) & USB_OTG_HCTSIZ_PKTCNT) |
 5088              		.loc 1 2028 68 view .LVU1733
 5089 00f4 4CEA040C 		orr	ip, ip, r4
2030:Drivers/STM32F7xx_HAL_Driver/Src/stm32f7xx_ll_usb.c **** 
 5090              		.loc 1 2030 43 view .LVU1734
 5091 00f8 8C7D     		ldrb	r4, [r1, #22]	@ zero_extendqisi2
2030:Drivers/STM32F7xx_HAL_Driver/Src/stm32f7xx_ll_usb.c **** 
 5092              		.loc 1 2030 54 view .LVU1735
 5093 00fa 6407     		lsls	r4, r4, #29
2030:Drivers/STM32F7xx_HAL_Driver/Src/stm32f7xx_ll_usb.c **** 
ARM GAS  C:\Users\benny\AppData\Local\Temp\ccHko7Bj.s 			page 153


 5094              		.loc 1 2030 61 view .LVU1736
 5095 00fc 04F0C044 		and	r4, r4, #1610612736
2028:Drivers/STM32F7xx_HAL_Driver/Src/stm32f7xx_ll_usb.c ****                             (((uint32_t)num_packets << 19) & USB_OTG_HCTSIZ_PKTCNT) |
 5096              		.loc 1 2028 3 view .LVU1737
 5097 0100 00EB4313 		add	r3, r0, r3, lsl #5
 5098              	.LVL362:
2028:Drivers/STM32F7xx_HAL_Driver/Src/stm32f7xx_ll_usb.c ****                             (((uint32_t)num_packets << 19) & USB_OTG_HCTSIZ_PKTCNT) |
 5099              		.loc 1 2028 3 view .LVU1738
 5100 0104 03F5A06E 		add	lr, r3, #1280
2029:Drivers/STM32F7xx_HAL_Driver/Src/stm32f7xx_ll_usb.c ****                             (((uint32_t)hc->data_pid << 29) & USB_OTG_HCTSIZ_DPID);
 5101              		.loc 1 2029 85 view .LVU1739
 5102 0108 4CEA0404 		orr	r4, ip, r4
2028:Drivers/STM32F7xx_HAL_Driver/Src/stm32f7xx_ll_usb.c ****                             (((uint32_t)num_packets << 19) & USB_OTG_HCTSIZ_PKTCNT) |
 5103              		.loc 1 2028 27 view .LVU1740
 5104 010c CEF81040 		str	r4, [lr, #16]
2032:Drivers/STM32F7xx_HAL_Driver/Src/stm32f7xx_ll_usb.c ****   {
 5105              		.loc 1 2032 3 is_stmt 1 view .LVU1741
2032:Drivers/STM32F7xx_HAL_Driver/Src/stm32f7xx_ll_usb.c ****   {
 5106              		.loc 1 2032 6 is_stmt 0 view .LVU1742
 5107 0110 12B1     		cbz	r2, .L327
2035:Drivers/STM32F7xx_HAL_Driver/Src/stm32f7xx_ll_usb.c ****   }
 5108              		.loc 1 2035 5 is_stmt 1 view .LVU1743
2035:Drivers/STM32F7xx_HAL_Driver/Src/stm32f7xx_ll_usb.c ****   }
 5109              		.loc 1 2035 42 is_stmt 0 view .LVU1744
 5110 0112 8C69     		ldr	r4, [r1, #24]
2035:Drivers/STM32F7xx_HAL_Driver/Src/stm32f7xx_ll_usb.c ****   }
 5111              		.loc 1 2035 28 view .LVU1745
 5112 0114 CEF81440 		str	r4, [lr, #20]
 5113              	.L327:
2038:Drivers/STM32F7xx_HAL_Driver/Src/stm32f7xx_ll_usb.c ****   USBx_HC(ch_num)->HCCHAR &= ~USB_OTG_HCCHAR_ODDFRM;
 5114              		.loc 1 2038 3 is_stmt 1 view .LVU1746
2038:Drivers/STM32F7xx_HAL_Driver/Src/stm32f7xx_ll_usb.c ****   USBx_HC(ch_num)->HCCHAR &= ~USB_OTG_HCCHAR_ODDFRM;
 5115              		.loc 1 2038 29 is_stmt 0 view .LVU1747
 5116 0118 00F58065 		add	r5, r0, #1024
2038:Drivers/STM32F7xx_HAL_Driver/Src/stm32f7xx_ll_usb.c ****   USBx_HC(ch_num)->HCCHAR &= ~USB_OTG_HCCHAR_ODDFRM;
 5117              		.loc 1 2038 38 view .LVU1748
 5118 011c AC68     		ldr	r4, [r5, #8]
2038:Drivers/STM32F7xx_HAL_Driver/Src/stm32f7xx_ll_usb.c ****   USBx_HC(ch_num)->HCCHAR &= ~USB_OTG_HCCHAR_ODDFRM;
 5119              		.loc 1 2038 67 view .LVU1749
 5120 011e 14F0010F 		tst	r4, #1
 5121 0122 0CBF     		ite	eq
 5122 0124 4FF0010C 		moveq	ip, #1
 5123 0128 4FF0000C 		movne	ip, #0
 5124              	.LVL363:
2039:Drivers/STM32F7xx_HAL_Driver/Src/stm32f7xx_ll_usb.c ****   USBx_HC(ch_num)->HCCHAR |= (uint32_t)is_oddframe << 29;
 5125              		.loc 1 2039 3 is_stmt 1 view .LVU1750
2039:Drivers/STM32F7xx_HAL_Driver/Src/stm32f7xx_ll_usb.c ****   USBx_HC(ch_num)->HCCHAR |= (uint32_t)is_oddframe << 29;
 5126              		.loc 1 2039 18 is_stmt 0 view .LVU1751
 5127 012c D3F80045 		ldr	r4, [r3, #1280]
2039:Drivers/STM32F7xx_HAL_Driver/Src/stm32f7xx_ll_usb.c ****   USBx_HC(ch_num)->HCCHAR |= (uint32_t)is_oddframe << 29;
 5128              		.loc 1 2039 27 view .LVU1752
 5129 0130 24F00054 		bic	r4, r4, #536870912
 5130 0134 C3F80045 		str	r4, [r3, #1280]
2040:Drivers/STM32F7xx_HAL_Driver/Src/stm32f7xx_ll_usb.c **** 
 5131              		.loc 1 2040 3 is_stmt 1 view .LVU1753
2040:Drivers/STM32F7xx_HAL_Driver/Src/stm32f7xx_ll_usb.c **** 
 5132              		.loc 1 2040 18 is_stmt 0 view .LVU1754
ARM GAS  C:\Users\benny\AppData\Local\Temp\ccHko7Bj.s 			page 154


 5133 0138 D3F80045 		ldr	r4, [r3, #1280]
2040:Drivers/STM32F7xx_HAL_Driver/Src/stm32f7xx_ll_usb.c **** 
 5134              		.loc 1 2040 27 view .LVU1755
 5135 013c 44EA4C74 		orr	r4, r4, ip, lsl #29
 5136 0140 C3F80045 		str	r4, [r3, #1280]
2042:Drivers/STM32F7xx_HAL_Driver/Src/stm32f7xx_ll_usb.c ****   {
 5137              		.loc 1 2042 3 is_stmt 1 view .LVU1756
2042:Drivers/STM32F7xx_HAL_Driver/Src/stm32f7xx_ll_usb.c ****   {
 5138              		.loc 1 2042 9 is_stmt 0 view .LVU1757
 5139 0144 8C79     		ldrb	r4, [r1, #6]	@ zero_extendqisi2
2042:Drivers/STM32F7xx_HAL_Driver/Src/stm32f7xx_ll_usb.c ****   {
 5140              		.loc 1 2042 6 view .LVU1758
 5141 0146 012C     		cmp	r4, #1
 5142 0148 2DD0     		beq	.L353
2098:Drivers/STM32F7xx_HAL_Driver/Src/stm32f7xx_ll_usb.c ****   }
 5143              		.loc 1 2098 5 is_stmt 1 view .LVU1759
2098:Drivers/STM32F7xx_HAL_Driver/Src/stm32f7xx_ll_usb.c ****   }
 5144              		.loc 1 2098 39 is_stmt 0 view .LVU1760
 5145 014a 0024     		movs	r4, #0
 5146 014c CEF80440 		str	r4, [lr, #4]
 5147              	.L331:
2102:Drivers/STM32F7xx_HAL_Driver/Src/stm32f7xx_ll_usb.c ****   tmpreg &= ~USB_OTG_HCCHAR_CHDIS;
 5148              		.loc 1 2102 3 is_stmt 1 view .LVU1761
2102:Drivers/STM32F7xx_HAL_Driver/Src/stm32f7xx_ll_usb.c ****   tmpreg &= ~USB_OTG_HCCHAR_CHDIS;
 5149              		.loc 1 2102 27 is_stmt 0 view .LVU1762
 5150 0150 D3F80045 		ldr	r4, [r3, #1280]
2102:Drivers/STM32F7xx_HAL_Driver/Src/stm32f7xx_ll_usb.c ****   tmpreg &= ~USB_OTG_HCCHAR_CHDIS;
 5151              		.loc 1 2102 10 view .LVU1763
 5152 0154 0394     		str	r4, [sp, #12]
2103:Drivers/STM32F7xx_HAL_Driver/Src/stm32f7xx_ll_usb.c **** 
 5153              		.loc 1 2103 3 is_stmt 1 view .LVU1764
2103:Drivers/STM32F7xx_HAL_Driver/Src/stm32f7xx_ll_usb.c **** 
 5154              		.loc 1 2103 10 is_stmt 0 view .LVU1765
 5155 0156 039C     		ldr	r4, [sp, #12]
 5156 0158 24F08044 		bic	r4, r4, #1073741824
 5157 015c 0394     		str	r4, [sp, #12]
2106:Drivers/STM32F7xx_HAL_Driver/Src/stm32f7xx_ll_usb.c ****   {
 5158              		.loc 1 2106 3 is_stmt 1 view .LVU1766
2106:Drivers/STM32F7xx_HAL_Driver/Src/stm32f7xx_ll_usb.c ****   {
 5159              		.loc 1 2106 9 is_stmt 0 view .LVU1767
 5160 015e CC78     		ldrb	r4, [r1, #3]	@ zero_extendqisi2
2106:Drivers/STM32F7xx_HAL_Driver/Src/stm32f7xx_ll_usb.c ****   {
 5161              		.loc 1 2106 6 view .LVU1768
 5162 0160 002C     		cmp	r4, #0
 5163 0162 7DD0     		beq	.L337
2108:Drivers/STM32F7xx_HAL_Driver/Src/stm32f7xx_ll_usb.c ****   }
 5164              		.loc 1 2108 5 is_stmt 1 view .LVU1769
2108:Drivers/STM32F7xx_HAL_Driver/Src/stm32f7xx_ll_usb.c ****   }
 5165              		.loc 1 2108 12 is_stmt 0 view .LVU1770
 5166 0164 039C     		ldr	r4, [sp, #12]
 5167 0166 44F40044 		orr	r4, r4, #32768
 5168 016a 0394     		str	r4, [sp, #12]
 5169              	.L338:
2114:Drivers/STM32F7xx_HAL_Driver/Src/stm32f7xx_ll_usb.c ****   USBx_HC(ch_num)->HCCHAR = tmpreg;
 5170              		.loc 1 2114 3 is_stmt 1 view .LVU1771
2114:Drivers/STM32F7xx_HAL_Driver/Src/stm32f7xx_ll_usb.c ****   USBx_HC(ch_num)->HCCHAR = tmpreg;
 5171              		.loc 1 2114 10 is_stmt 0 view .LVU1772
ARM GAS  C:\Users\benny\AppData\Local\Temp\ccHko7Bj.s 			page 155


 5172 016c 039C     		ldr	r4, [sp, #12]
 5173 016e 44F00044 		orr	r4, r4, #-2147483648
 5174 0172 0394     		str	r4, [sp, #12]
2115:Drivers/STM32F7xx_HAL_Driver/Src/stm32f7xx_ll_usb.c **** 
 5175              		.loc 1 2115 3 is_stmt 1 view .LVU1773
2115:Drivers/STM32F7xx_HAL_Driver/Src/stm32f7xx_ll_usb.c **** 
 5176              		.loc 1 2115 27 is_stmt 0 view .LVU1774
 5177 0174 039C     		ldr	r4, [sp, #12]
 5178 0176 C3F80045 		str	r4, [r3, #1280]
2117:Drivers/STM32F7xx_HAL_Driver/Src/stm32f7xx_ll_usb.c ****   {
 5179              		.loc 1 2117 3 is_stmt 1 view .LVU1775
2117:Drivers/STM32F7xx_HAL_Driver/Src/stm32f7xx_ll_usb.c ****   {
 5180              		.loc 1 2117 6 is_stmt 0 view .LVU1776
 5181 017a 002A     		cmp	r2, #0
 5182 017c 40F08780 		bne	.L316
2122:Drivers/STM32F7xx_HAL_Driver/Src/stm32f7xx_ll_usb.c ****   {
 5183              		.loc 1 2122 3 is_stmt 1 view .LVU1777
2122:Drivers/STM32F7xx_HAL_Driver/Src/stm32f7xx_ll_usb.c ****   {
 5184              		.loc 1 2122 10 is_stmt 0 view .LVU1778
 5185 0180 CB78     		ldrb	r3, [r1, #3]	@ zero_extendqisi2
2122:Drivers/STM32F7xx_HAL_Driver/Src/stm32f7xx_ll_usb.c ****   {
 5186              		.loc 1 2122 6 view .LVU1779
 5187 0182 002B     		cmp	r3, #0
 5188 0184 40F08380 		bne	.L316
2122:Drivers/STM32F7xx_HAL_Driver/Src/stm32f7xx_ll_usb.c ****   {
 5189              		.loc 1 2122 34 discriminator 1 view .LVU1780
 5190 0188 0B6A     		ldr	r3, [r1, #32]
2122:Drivers/STM32F7xx_HAL_Driver/Src/stm32f7xx_ll_usb.c ****   {
 5191              		.loc 1 2122 28 discriminator 1 view .LVU1781
 5192 018a 002B     		cmp	r3, #0
 5193 018c 7FD0     		beq	.L316
2122:Drivers/STM32F7xx_HAL_Driver/Src/stm32f7xx_ll_usb.c ****   {
 5194              		.loc 1 2122 57 discriminator 2 view .LVU1782
 5195 018e CA79     		ldrb	r2, [r1, #7]	@ zero_extendqisi2
 5196              	.LVL364:
2122:Drivers/STM32F7xx_HAL_Driver/Src/stm32f7xx_ll_usb.c ****   {
 5197              		.loc 1 2122 51 discriminator 2 view .LVU1783
 5198 0190 002A     		cmp	r2, #0
 5199 0192 7CD1     		bne	.L316
2124:Drivers/STM32F7xx_HAL_Driver/Src/stm32f7xx_ll_usb.c ****     {
 5200              		.loc 1 2124 5 is_stmt 1 view .LVU1784
2124:Drivers/STM32F7xx_HAL_Driver/Src/stm32f7xx_ll_usb.c ****     {
 5201              		.loc 1 2124 15 is_stmt 0 view .LVU1785
 5202 0194 8A7C     		ldrb	r2, [r1, #18]	@ zero_extendqisi2
2124:Drivers/STM32F7xx_HAL_Driver/Src/stm32f7xx_ll_usb.c ****     {
 5203              		.loc 1 2124 5 view .LVU1786
 5204 0196 032A     		cmp	r2, #3
 5205 0198 72D8     		bhi	.L339
 5206 019a DFE802F0 		tbb	[pc, r2]
 5207              	.L341:
 5208 019e 66       		.byte	(.L342-.L341)/2
 5209 019f 7F       		.byte	(.L340-.L341)/2
 5210 01a0 66       		.byte	(.L342-.L341)/2
 5211 01a1 7F       		.byte	(.L340-.L341)/2
 5212              	.LVL365:
 5213              		.p2align 1
 5214              	.L326:
ARM GAS  C:\Users\benny\AppData\Local\Temp\ccHko7Bj.s 			page 156


2023:Drivers/STM32F7xx_HAL_Driver/Src/stm32f7xx_ll_usb.c ****     }
 5215              		.loc 1 2023 7 is_stmt 1 view .LVU1787
2023:Drivers/STM32F7xx_HAL_Driver/Src/stm32f7xx_ll_usb.c ****     }
 5216              		.loc 1 2023 20 is_stmt 0 view .LVU1788
 5217 01a2 CD61     		str	r5, [r1, #28]
 5218 01a4 A0E7     		b	.L319
 5219              	.LVL366:
 5220              	.L353:
2045:Drivers/STM32F7xx_HAL_Driver/Src/stm32f7xx_ll_usb.c ****                                         (uint32_t)hc->hub_port_nbr | USB_OTG_HCSPLT_SPLITEN;
 5221              		.loc 1 2045 5 is_stmt 1 view .LVU1789
2045:Drivers/STM32F7xx_HAL_Driver/Src/stm32f7xx_ll_usb.c ****                                         (uint32_t)hc->hub_port_nbr | USB_OTG_HCSPLT_SPLITEN;
 5222              		.loc 1 2045 54 is_stmt 0 view .LVU1790
 5223 01a6 4E7C     		ldrb	r6, [r1, #17]	@ zero_extendqisi2
2046:Drivers/STM32F7xx_HAL_Driver/Src/stm32f7xx_ll_usb.c **** 
 5224              		.loc 1 2046 53 view .LVU1791
 5225 01a8 0C7C     		ldrb	r4, [r1, #16]	@ zero_extendqisi2
2045:Drivers/STM32F7xx_HAL_Driver/Src/stm32f7xx_ll_usb.c ****                                         (uint32_t)hc->hub_port_nbr | USB_OTG_HCSPLT_SPLITEN;
 5226              		.loc 1 2045 96 view .LVU1792
 5227 01aa 44EAC614 		orr	r4, r4, r6, lsl #7
2046:Drivers/STM32F7xx_HAL_Driver/Src/stm32f7xx_ll_usb.c **** 
 5228              		.loc 1 2046 68 view .LVU1793
 5229 01ae 44F00044 		orr	r4, r4, #-2147483648
2045:Drivers/STM32F7xx_HAL_Driver/Src/stm32f7xx_ll_usb.c ****                                         (uint32_t)hc->hub_port_nbr | USB_OTG_HCSPLT_SPLITEN;
 5230              		.loc 1 2045 39 view .LVU1794
 5231 01b2 CEF80440 		str	r4, [lr, #4]
2049:Drivers/STM32F7xx_HAL_Driver/Src/stm32f7xx_ll_usb.c ****                                             USB_OTG_HCINTMSK_NYET);
 5232              		.loc 1 2049 5 is_stmt 1 view .LVU1795
2049:Drivers/STM32F7xx_HAL_Driver/Src/stm32f7xx_ll_usb.c ****                                             USB_OTG_HCINTMSK_NYET);
 5233              		.loc 1 2049 30 is_stmt 0 view .LVU1796
 5234 01b6 DEF80C40 		ldr	r4, [lr, #12]
2049:Drivers/STM32F7xx_HAL_Driver/Src/stm32f7xx_ll_usb.c ****                                             USB_OTG_HCINTMSK_NYET);
 5235              		.loc 1 2049 41 view .LVU1797
 5236 01ba 44F06004 		orr	r4, r4, #96
 5237 01be CEF80C40 		str	r4, [lr, #12]
2052:Drivers/STM32F7xx_HAL_Driver/Src/stm32f7xx_ll_usb.c ****     {
 5238              		.loc 1 2052 5 is_stmt 1 view .LVU1798
2052:Drivers/STM32F7xx_HAL_Driver/Src/stm32f7xx_ll_usb.c ****     {
 5239              		.loc 1 2052 12 is_stmt 0 view .LVU1799
 5240 01c2 CC79     		ldrb	r4, [r1, #7]	@ zero_extendqisi2
2052:Drivers/STM32F7xx_HAL_Driver/Src/stm32f7xx_ll_usb.c ****     {
 5241              		.loc 1 2052 8 view .LVU1800
 5242 01c4 012C     		cmp	r4, #1
 5243 01c6 15D0     		beq	.L354
 5244              	.L329:
2058:Drivers/STM32F7xx_HAL_Driver/Src/stm32f7xx_ll_usb.c ****         (hc->do_csplit == 1U) && (hc->ep_is_in == 1U))
 5245              		.loc 1 2058 5 is_stmt 1 view .LVU1801
2058:Drivers/STM32F7xx_HAL_Driver/Src/stm32f7xx_ll_usb.c ****         (hc->do_csplit == 1U) && (hc->ep_is_in == 1U))
 5246              		.loc 1 2058 13 is_stmt 0 view .LVU1802
 5247 01c8 8C7C     		ldrb	r4, [r1, #18]	@ zero_extendqisi2
2058:Drivers/STM32F7xx_HAL_Driver/Src/stm32f7xx_ll_usb.c ****         (hc->do_csplit == 1U) && (hc->ep_is_in == 1U))
 5248              		.loc 1 2058 8 view .LVU1803
 5249 01ca 032C     		cmp	r4, #3
 5250 01cc 18BF     		it	ne
 5251 01ce 012C     		cmpne	r4, #1
 5252 01d0 02D1     		bne	.L330
2059:Drivers/STM32F7xx_HAL_Driver/Src/stm32f7xx_ll_usb.c ****     {
 5253              		.loc 1 2059 12 discriminator 1 view .LVU1804
ARM GAS  C:\Users\benny\AppData\Local\Temp\ccHko7Bj.s 			page 157


 5254 01d2 CC79     		ldrb	r4, [r1, #7]	@ zero_extendqisi2
2058:Drivers/STM32F7xx_HAL_Driver/Src/stm32f7xx_ll_usb.c ****         (hc->do_csplit == 1U) && (hc->ep_is_in == 1U))
 5255              		.loc 1 2058 74 discriminator 1 view .LVU1805
 5256 01d4 012C     		cmp	r4, #1
 5257 01d6 1DD0     		beq	.L355
 5258              	.L330:
2065:Drivers/STM32F7xx_HAL_Driver/Src/stm32f7xx_ll_usb.c ****     {
 5259              		.loc 1 2065 5 is_stmt 1 view .LVU1806
2065:Drivers/STM32F7xx_HAL_Driver/Src/stm32f7xx_ll_usb.c ****     {
 5260              		.loc 1 2065 12 is_stmt 0 view .LVU1807
 5261 01d8 8C7C     		ldrb	r4, [r1, #18]	@ zero_extendqisi2
2065:Drivers/STM32F7xx_HAL_Driver/Src/stm32f7xx_ll_usb.c ****     {
 5262              		.loc 1 2065 8 view .LVU1808
 5263 01da 012C     		cmp	r4, #1
 5264 01dc B8D1     		bne	.L331
2065:Drivers/STM32F7xx_HAL_Driver/Src/stm32f7xx_ll_usb.c ****     {
 5265              		.loc 1 2065 45 discriminator 1 view .LVU1809
 5266 01de CC78     		ldrb	r4, [r1, #3]	@ zero_extendqisi2
2065:Drivers/STM32F7xx_HAL_Driver/Src/stm32f7xx_ll_usb.c ****     {
 5267              		.loc 1 2065 39 discriminator 1 view .LVU1810
 5268 01e0 002C     		cmp	r4, #0
 5269 01e2 B5D1     		bne	.L331
2068:Drivers/STM32F7xx_HAL_Driver/Src/stm32f7xx_ll_usb.c ****       {
 5270              		.loc 1 2068 7 is_stmt 1 view .LVU1811
2068:Drivers/STM32F7xx_HAL_Driver/Src/stm32f7xx_ll_usb.c ****       {
 5271              		.loc 1 2068 17 is_stmt 0 view .LVU1812
 5272 01e4 CC68     		ldr	r4, [r1, #12]
2068:Drivers/STM32F7xx_HAL_Driver/Src/stm32f7xx_ll_usb.c ****       {
 5273              		.loc 1 2068 7 view .LVU1813
 5274 01e6 013C     		subs	r4, r4, #1
 5275 01e8 032C     		cmp	r4, #3
 5276 01ea B1D8     		bhi	.L331
 5277 01ec DFE804F0 		tbb	[pc, r4]
 5278              	.L333:
 5279 01f0 1C       		.byte	(.L336-.L333)/2
 5280 01f1 23       		.byte	(.L335-.L333)/2
 5281 01f2 2A       		.byte	(.L334-.L333)/2
 5282 01f3 31       		.byte	(.L332-.L333)/2
 5283              		.p2align 1
 5284              	.L354:
2052:Drivers/STM32F7xx_HAL_Driver/Src/stm32f7xx_ll_usb.c ****     {
 5285              		.loc 1 2052 37 discriminator 1 view .LVU1814
 5286 01f4 CC78     		ldrb	r4, [r1, #3]	@ zero_extendqisi2
2052:Drivers/STM32F7xx_HAL_Driver/Src/stm32f7xx_ll_usb.c ****     {
 5287              		.loc 1 2052 31 discriminator 1 view .LVU1815
 5288 01f6 002C     		cmp	r4, #0
 5289 01f8 E6D1     		bne	.L329
2054:Drivers/STM32F7xx_HAL_Driver/Src/stm32f7xx_ll_usb.c ****       USBx_HC((uint32_t)ch_num)->HCINTMSK |= USB_OTG_HCINTMSK_NYET;
 5290              		.loc 1 2054 7 is_stmt 1 view .LVU1816
2054:Drivers/STM32F7xx_HAL_Driver/Src/stm32f7xx_ll_usb.c ****       USBx_HC((uint32_t)ch_num)->HCINTMSK |= USB_OTG_HCINTMSK_NYET;
 5291              		.loc 1 2054 32 is_stmt 0 view .LVU1817
 5292 01fa DEF80440 		ldr	r4, [lr, #4]
2054:Drivers/STM32F7xx_HAL_Driver/Src/stm32f7xx_ll_usb.c ****       USBx_HC((uint32_t)ch_num)->HCINTMSK |= USB_OTG_HCINTMSK_NYET;
 5293              		.loc 1 2054 41 view .LVU1818
 5294 01fe 44F48034 		orr	r4, r4, #65536
 5295 0202 CEF80440 		str	r4, [lr, #4]
2055:Drivers/STM32F7xx_HAL_Driver/Src/stm32f7xx_ll_usb.c ****     }
ARM GAS  C:\Users\benny\AppData\Local\Temp\ccHko7Bj.s 			page 158


 5296              		.loc 1 2055 7 is_stmt 1 view .LVU1819
2055:Drivers/STM32F7xx_HAL_Driver/Src/stm32f7xx_ll_usb.c ****     }
 5297              		.loc 1 2055 32 is_stmt 0 view .LVU1820
 5298 0206 DEF80C40 		ldr	r4, [lr, #12]
2055:Drivers/STM32F7xx_HAL_Driver/Src/stm32f7xx_ll_usb.c ****     }
 5299              		.loc 1 2055 43 view .LVU1821
 5300 020a 44F04004 		orr	r4, r4, #64
 5301 020e CEF80C40 		str	r4, [lr, #12]
 5302 0212 D9E7     		b	.L329
 5303              	.L355:
2059:Drivers/STM32F7xx_HAL_Driver/Src/stm32f7xx_ll_usb.c ****     {
 5304              		.loc 1 2059 37 view .LVU1822
 5305 0214 CC78     		ldrb	r4, [r1, #3]	@ zero_extendqisi2
2059:Drivers/STM32F7xx_HAL_Driver/Src/stm32f7xx_ll_usb.c ****     {
 5306              		.loc 1 2059 31 view .LVU1823
 5307 0216 012C     		cmp	r4, #1
 5308 0218 DED1     		bne	.L330
2061:Drivers/STM32F7xx_HAL_Driver/Src/stm32f7xx_ll_usb.c ****     }
 5309              		.loc 1 2061 7 is_stmt 1 view .LVU1824
2061:Drivers/STM32F7xx_HAL_Driver/Src/stm32f7xx_ll_usb.c ****     }
 5310              		.loc 1 2061 32 is_stmt 0 view .LVU1825
 5311 021a DEF80440 		ldr	r4, [lr, #4]
2061:Drivers/STM32F7xx_HAL_Driver/Src/stm32f7xx_ll_usb.c ****     }
 5312              		.loc 1 2061 41 view .LVU1826
 5313 021e 44F48034 		orr	r4, r4, #65536
 5314 0222 CEF80440 		str	r4, [lr, #4]
 5315 0226 D7E7     		b	.L330
 5316              	.L336:
2072:Drivers/STM32F7xx_HAL_Driver/Src/stm32f7xx_ll_usb.c ****           break;
 5317              		.loc 1 2072 11 is_stmt 1 view .LVU1827
2072:Drivers/STM32F7xx_HAL_Driver/Src/stm32f7xx_ll_usb.c ****           break;
 5318              		.loc 1 2072 36 is_stmt 0 view .LVU1828
 5319 0228 DEF80440 		ldr	r4, [lr, #4]
2072:Drivers/STM32F7xx_HAL_Driver/Src/stm32f7xx_ll_usb.c ****           break;
 5320              		.loc 1 2072 45 view .LVU1829
 5321 022c 44F40044 		orr	r4, r4, #32768
 5322 0230 CEF80440 		str	r4, [lr, #4]
2073:Drivers/STM32F7xx_HAL_Driver/Src/stm32f7xx_ll_usb.c **** 
 5323              		.loc 1 2073 11 is_stmt 1 view .LVU1830
 5324 0234 8CE7     		b	.L331
 5325              	.L335:
2077:Drivers/STM32F7xx_HAL_Driver/Src/stm32f7xx_ll_usb.c ****           break;
 5326              		.loc 1 2077 11 view .LVU1831
2077:Drivers/STM32F7xx_HAL_Driver/Src/stm32f7xx_ll_usb.c ****           break;
 5327              		.loc 1 2077 36 is_stmt 0 view .LVU1832
 5328 0236 DEF80440 		ldr	r4, [lr, #4]
2077:Drivers/STM32F7xx_HAL_Driver/Src/stm32f7xx_ll_usb.c ****           break;
 5329              		.loc 1 2077 45 view .LVU1833
 5330 023a 44F00E04 		orr	r4, r4, #14
 5331 023e CEF80440 		str	r4, [lr, #4]
2078:Drivers/STM32F7xx_HAL_Driver/Src/stm32f7xx_ll_usb.c **** 
 5332              		.loc 1 2078 11 is_stmt 1 view .LVU1834
 5333 0242 85E7     		b	.L331
 5334              	.L334:
2082:Drivers/STM32F7xx_HAL_Driver/Src/stm32f7xx_ll_usb.c ****           break;
 5335              		.loc 1 2082 11 view .LVU1835
2082:Drivers/STM32F7xx_HAL_Driver/Src/stm32f7xx_ll_usb.c ****           break;
ARM GAS  C:\Users\benny\AppData\Local\Temp\ccHko7Bj.s 			page 159


 5336              		.loc 1 2082 36 is_stmt 0 view .LVU1836
 5337 0244 DEF80440 		ldr	r4, [lr, #4]
2082:Drivers/STM32F7xx_HAL_Driver/Src/stm32f7xx_ll_usb.c ****           break;
 5338              		.loc 1 2082 45 view .LVU1837
 5339 0248 44F48044 		orr	r4, r4, #16384
 5340 024c CEF80440 		str	r4, [lr, #4]
2083:Drivers/STM32F7xx_HAL_Driver/Src/stm32f7xx_ll_usb.c **** 
 5341              		.loc 1 2083 11 is_stmt 1 view .LVU1838
 5342 0250 7EE7     		b	.L331
 5343              	.L332:
2087:Drivers/STM32F7xx_HAL_Driver/Src/stm32f7xx_ll_usb.c ****           break;
 5344              		.loc 1 2087 11 view .LVU1839
2087:Drivers/STM32F7xx_HAL_Driver/Src/stm32f7xx_ll_usb.c ****           break;
 5345              		.loc 1 2087 36 is_stmt 0 view .LVU1840
 5346 0252 DEF80440 		ldr	r4, [lr, #4]
2087:Drivers/STM32F7xx_HAL_Driver/Src/stm32f7xx_ll_usb.c ****           break;
 5347              		.loc 1 2087 45 view .LVU1841
 5348 0256 44F44044 		orr	r4, r4, #49152
 5349 025a CEF80440 		str	r4, [lr, #4]
2088:Drivers/STM32F7xx_HAL_Driver/Src/stm32f7xx_ll_usb.c **** 
 5350              		.loc 1 2088 11 is_stmt 1 view .LVU1842
 5351 025e 77E7     		b	.L331
 5352              	.L337:
2112:Drivers/STM32F7xx_HAL_Driver/Src/stm32f7xx_ll_usb.c ****   }
 5353              		.loc 1 2112 5 view .LVU1843
2112:Drivers/STM32F7xx_HAL_Driver/Src/stm32f7xx_ll_usb.c ****   }
 5354              		.loc 1 2112 12 is_stmt 0 view .LVU1844
 5355 0260 039C     		ldr	r4, [sp, #12]
 5356 0262 24F40044 		bic	r4, r4, #32768
 5357 0266 0394     		str	r4, [sp, #12]
 5358 0268 80E7     		b	.L338
 5359              	.LVL367:
 5360              	.L342:
2130:Drivers/STM32F7xx_HAL_Driver/Src/stm32f7xx_ll_usb.c **** 
 5361              		.loc 1 2130 9 is_stmt 1 view .LVU1845
2130:Drivers/STM32F7xx_HAL_Driver/Src/stm32f7xx_ll_usb.c **** 
 5362              		.loc 1 2130 46 is_stmt 0 view .LVU1846
 5363 026a 0333     		adds	r3, r3, #3
 5364              	.LVL368:
2133:Drivers/STM32F7xx_HAL_Driver/Src/stm32f7xx_ll_usb.c ****         {
 5365              		.loc 1 2133 9 is_stmt 1 view .LVU1847
2133:Drivers/STM32F7xx_HAL_Driver/Src/stm32f7xx_ll_usb.c ****         {
 5366              		.loc 1 2133 30 is_stmt 0 view .LVU1848
 5367 026c C26A     		ldr	r2, [r0, #44]
2133:Drivers/STM32F7xx_HAL_Driver/Src/stm32f7xx_ll_usb.c ****         {
 5368              		.loc 1 2133 41 view .LVU1849
 5369 026e 92B2     		uxth	r2, r2
2133:Drivers/STM32F7xx_HAL_Driver/Src/stm32f7xx_ll_usb.c ****         {
 5370              		.loc 1 2133 12 view .LVU1850
 5371 0270 C3F38F03 		ubfx	r3, r3, #2, #16
 5372              	.LVL369:
2133:Drivers/STM32F7xx_HAL_Driver/Src/stm32f7xx_ll_usb.c ****         {
 5373              		.loc 1 2133 12 view .LVU1851
 5374 0274 9342     		cmp	r3, r2
 5375 0276 03D9     		bls	.L339
2136:Drivers/STM32F7xx_HAL_Driver/Src/stm32f7xx_ll_usb.c ****         }
 5376              		.loc 1 2136 11 is_stmt 1 view .LVU1852
ARM GAS  C:\Users\benny\AppData\Local\Temp\ccHko7Bj.s 			page 160


2136:Drivers/STM32F7xx_HAL_Driver/Src/stm32f7xx_ll_usb.c ****         }
 5377              		.loc 1 2136 15 is_stmt 0 view .LVU1853
 5378 0278 8369     		ldr	r3, [r0, #24]
2136:Drivers/STM32F7xx_HAL_Driver/Src/stm32f7xx_ll_usb.c ****         }
 5379              		.loc 1 2136 25 view .LVU1854
 5380 027a 43F02003 		orr	r3, r3, #32
 5381 027e 8361     		str	r3, [r0, #24]
 5382              	.LVL370:
 5383              	.L339:
2157:Drivers/STM32F7xx_HAL_Driver/Src/stm32f7xx_ll_usb.c ****   }
 5384              		.loc 1 2157 5 is_stmt 1 view .LVU1855
2157:Drivers/STM32F7xx_HAL_Driver/Src/stm32f7xx_ll_usb.c ****   }
 5385              		.loc 1 2157 11 is_stmt 0 view .LVU1856
 5386 0280 0023     		movs	r3, #0
 5387 0282 0093     		str	r3, [sp]
 5388 0284 0B8C     		ldrh	r3, [r1, #32]
 5389 0286 4A78     		ldrb	r2, [r1, #1]	@ zero_extendqisi2
 5390 0288 8969     		ldr	r1, [r1, #24]
 5391              	.LVL371:
2157:Drivers/STM32F7xx_HAL_Driver/Src/stm32f7xx_ll_usb.c ****   }
 5392              		.loc 1 2157 11 view .LVU1857
 5393 028a FFF7FEFF 		bl	USB_WritePacket
 5394              	.LVL372:
 5395              	.L316:
2161:Drivers/STM32F7xx_HAL_Driver/Src/stm32f7xx_ll_usb.c **** 
 5396              		.loc 1 2161 1 view .LVU1858
 5397 028e 0020     		movs	r0, #0
 5398 0290 04B0     		add	sp, sp, #16
 5399              	.LCFI66:
 5400              		.cfi_remember_state
 5401              		.cfi_def_cfa_offset 16
 5402              		@ sp needed
 5403 0292 70BD     		pop	{r4, r5, r6, pc}
 5404              	.L357:
 5405              		.align	2
 5406              	.L356:
 5407 0294 00000440 		.word	1074003968
 5408 0298 0000F81F 		.word	536346624
 5409              	.LVL373:
 5410              	.L340:
 5411              	.LCFI67:
 5412              		.cfi_restore_state
2143:Drivers/STM32F7xx_HAL_Driver/Src/stm32f7xx_ll_usb.c ****         /* check if there is enough space in FIFO space */
 5413              		.loc 1 2143 9 is_stmt 1 view .LVU1859
2143:Drivers/STM32F7xx_HAL_Driver/Src/stm32f7xx_ll_usb.c ****         /* check if there is enough space in FIFO space */
 5414              		.loc 1 2143 46 is_stmt 0 view .LVU1860
 5415 029c 0333     		adds	r3, r3, #3
 5416              	.LVL374:
2145:Drivers/STM32F7xx_HAL_Driver/Src/stm32f7xx_ll_usb.c ****         {
 5417              		.loc 1 2145 9 is_stmt 1 view .LVU1861
2145:Drivers/STM32F7xx_HAL_Driver/Src/stm32f7xx_ll_usb.c ****         {
 5418              		.loc 1 2145 35 is_stmt 0 view .LVU1862
 5419 029e 2A69     		ldr	r2, [r5, #16]
2145:Drivers/STM32F7xx_HAL_Driver/Src/stm32f7xx_ll_usb.c ****         {
 5420              		.loc 1 2145 45 view .LVU1863
 5421 02a0 92B2     		uxth	r2, r2
2145:Drivers/STM32F7xx_HAL_Driver/Src/stm32f7xx_ll_usb.c ****         {
ARM GAS  C:\Users\benny\AppData\Local\Temp\ccHko7Bj.s 			page 161


 5422              		.loc 1 2145 12 view .LVU1864
 5423 02a2 C3F38F03 		ubfx	r3, r3, #2, #16
 5424              	.LVL375:
2145:Drivers/STM32F7xx_HAL_Driver/Src/stm32f7xx_ll_usb.c ****         {
 5425              		.loc 1 2145 12 view .LVU1865
 5426 02a6 9A42     		cmp	r2, r3
 5427 02a8 EAD2     		bcs	.L339
2148:Drivers/STM32F7xx_HAL_Driver/Src/stm32f7xx_ll_usb.c ****         }
 5428              		.loc 1 2148 11 is_stmt 1 view .LVU1866
2148:Drivers/STM32F7xx_HAL_Driver/Src/stm32f7xx_ll_usb.c ****         }
 5429              		.loc 1 2148 15 is_stmt 0 view .LVU1867
 5430 02aa 8369     		ldr	r3, [r0, #24]
2148:Drivers/STM32F7xx_HAL_Driver/Src/stm32f7xx_ll_usb.c ****         }
 5431              		.loc 1 2148 25 view .LVU1868
 5432 02ac 43F08063 		orr	r3, r3, #67108864
 5433 02b0 8361     		str	r3, [r0, #24]
 5434              	.LVL376:
2148:Drivers/STM32F7xx_HAL_Driver/Src/stm32f7xx_ll_usb.c ****         }
 5435              		.loc 1 2148 25 view .LVU1869
 5436 02b2 E5E7     		b	.L339
 5437              		.cfi_endproc
 5438              	.LFE184:
 5440              		.section	.text.USB_StopHost,"ax",%progbits
 5441              		.align	1
 5442              		.global	USB_StopHost
 5443              		.syntax unified
 5444              		.thumb
 5445              		.thumb_func
 5447              	USB_StopHost:
 5448              	.LVL377:
 5449              	.LFB188:
2284:Drivers/STM32F7xx_HAL_Driver/Src/stm32f7xx_ll_usb.c **** 
2285:Drivers/STM32F7xx_HAL_Driver/Src/stm32f7xx_ll_usb.c **** /**
2286:Drivers/STM32F7xx_HAL_Driver/Src/stm32f7xx_ll_usb.c ****   * @brief  Stop Host Core
2287:Drivers/STM32F7xx_HAL_Driver/Src/stm32f7xx_ll_usb.c ****   * @param  USBx  Selected device
2288:Drivers/STM32F7xx_HAL_Driver/Src/stm32f7xx_ll_usb.c ****   * @retval HAL state
2289:Drivers/STM32F7xx_HAL_Driver/Src/stm32f7xx_ll_usb.c ****   */
2290:Drivers/STM32F7xx_HAL_Driver/Src/stm32f7xx_ll_usb.c **** HAL_StatusTypeDef USB_StopHost(USB_OTG_GlobalTypeDef *USBx)
2291:Drivers/STM32F7xx_HAL_Driver/Src/stm32f7xx_ll_usb.c **** {
 5450              		.loc 1 2291 1 is_stmt 1 view -0
 5451              		.cfi_startproc
 5452              		@ args = 0, pretend = 0, frame = 8
 5453              		@ frame_needed = 0, uses_anonymous_args = 0
 5454              		.loc 1 2291 1 is_stmt 0 view .LVU1871
 5455 0000 30B5     		push	{r4, r5, lr}
 5456              	.LCFI68:
 5457              		.cfi_def_cfa_offset 12
 5458              		.cfi_offset 4, -12
 5459              		.cfi_offset 5, -8
 5460              		.cfi_offset 14, -4
 5461 0002 83B0     		sub	sp, sp, #12
 5462              	.LCFI69:
 5463              		.cfi_def_cfa_offset 24
 5464 0004 0446     		mov	r4, r0
2292:Drivers/STM32F7xx_HAL_Driver/Src/stm32f7xx_ll_usb.c ****   HAL_StatusTypeDef ret = HAL_OK;
 5465              		.loc 1 2292 3 is_stmt 1 view .LVU1872
 5466              	.LVL378:
ARM GAS  C:\Users\benny\AppData\Local\Temp\ccHko7Bj.s 			page 162


2293:Drivers/STM32F7xx_HAL_Driver/Src/stm32f7xx_ll_usb.c ****   uint32_t USBx_BASE = (uint32_t)USBx;
 5467              		.loc 1 2293 3 view .LVU1873
2294:Drivers/STM32F7xx_HAL_Driver/Src/stm32f7xx_ll_usb.c ****   __IO uint32_t count = 0U;
 5468              		.loc 1 2294 3 view .LVU1874
 5469              		.loc 1 2294 17 is_stmt 0 view .LVU1875
 5470 0006 0023     		movs	r3, #0
 5471 0008 0193     		str	r3, [sp, #4]
2295:Drivers/STM32F7xx_HAL_Driver/Src/stm32f7xx_ll_usb.c ****   uint32_t value;
 5472              		.loc 1 2295 3 is_stmt 1 view .LVU1876
2296:Drivers/STM32F7xx_HAL_Driver/Src/stm32f7xx_ll_usb.c ****   uint32_t i;
 5473              		.loc 1 2296 3 view .LVU1877
2297:Drivers/STM32F7xx_HAL_Driver/Src/stm32f7xx_ll_usb.c **** 
2298:Drivers/STM32F7xx_HAL_Driver/Src/stm32f7xx_ll_usb.c ****   (void)USB_DisableGlobalInt(USBx);
 5474              		.loc 1 2298 3 view .LVU1878
 5475              		.loc 1 2298 9 is_stmt 0 view .LVU1879
 5476 000a FFF7FEFF 		bl	USB_DisableGlobalInt
 5477              	.LVL379:
2299:Drivers/STM32F7xx_HAL_Driver/Src/stm32f7xx_ll_usb.c **** 
2300:Drivers/STM32F7xx_HAL_Driver/Src/stm32f7xx_ll_usb.c ****   /* Flush USB FIFO */
2301:Drivers/STM32F7xx_HAL_Driver/Src/stm32f7xx_ll_usb.c ****   if (USB_FlushTxFifo(USBx, 0x10U) != HAL_OK) /* all Tx FIFOs */
 5478              		.loc 1 2301 3 is_stmt 1 view .LVU1880
 5479              		.loc 1 2301 7 is_stmt 0 view .LVU1881
 5480 000e 1021     		movs	r1, #16
 5481 0010 2046     		mov	r0, r4
 5482 0012 FFF7FEFF 		bl	USB_FlushTxFifo
 5483              	.LVL380:
 5484              		.loc 1 2301 6 view .LVU1882
 5485 0016 0546     		mov	r5, r0
 5486 0018 00B1     		cbz	r0, .L359
2302:Drivers/STM32F7xx_HAL_Driver/Src/stm32f7xx_ll_usb.c ****   {
2303:Drivers/STM32F7xx_HAL_Driver/Src/stm32f7xx_ll_usb.c ****     ret = HAL_ERROR;
 5487              		.loc 1 2303 9 view .LVU1883
 5488 001a 0125     		movs	r5, #1
 5489              	.L359:
 5490              	.LVL381:
2304:Drivers/STM32F7xx_HAL_Driver/Src/stm32f7xx_ll_usb.c ****   }
2305:Drivers/STM32F7xx_HAL_Driver/Src/stm32f7xx_ll_usb.c **** 
2306:Drivers/STM32F7xx_HAL_Driver/Src/stm32f7xx_ll_usb.c ****   if (USB_FlushRxFifo(USBx) != HAL_OK)
 5491              		.loc 1 2306 3 is_stmt 1 view .LVU1884
 5492              		.loc 1 2306 7 is_stmt 0 view .LVU1885
 5493 001c 2046     		mov	r0, r4
 5494 001e FFF7FEFF 		bl	USB_FlushRxFifo
 5495              	.LVL382:
 5496              		.loc 1 2306 6 view .LVU1886
 5497 0022 00B1     		cbz	r0, .L360
2307:Drivers/STM32F7xx_HAL_Driver/Src/stm32f7xx_ll_usb.c ****   {
2308:Drivers/STM32F7xx_HAL_Driver/Src/stm32f7xx_ll_usb.c ****     ret = HAL_ERROR;
 5498              		.loc 1 2308 9 view .LVU1887
 5499 0024 0125     		movs	r5, #1
 5500              	.LVL383:
 5501              	.L360:
2309:Drivers/STM32F7xx_HAL_Driver/Src/stm32f7xx_ll_usb.c ****   }
2310:Drivers/STM32F7xx_HAL_Driver/Src/stm32f7xx_ll_usb.c **** 
2311:Drivers/STM32F7xx_HAL_Driver/Src/stm32f7xx_ll_usb.c ****   /* Flush out any leftover queued requests. */
2312:Drivers/STM32F7xx_HAL_Driver/Src/stm32f7xx_ll_usb.c ****   for (i = 0U; i <= 15U; i++)
 5502              		.loc 1 2312 3 is_stmt 1 view .LVU1888
 5503              		.loc 1 2312 10 is_stmt 0 view .LVU1889
ARM GAS  C:\Users\benny\AppData\Local\Temp\ccHko7Bj.s 			page 163


 5504 0026 0022     		movs	r2, #0
 5505              		.loc 1 2312 3 view .LVU1890
 5506 0028 0AE0     		b	.L361
 5507              	.LVL384:
 5508              	.L362:
2313:Drivers/STM32F7xx_HAL_Driver/Src/stm32f7xx_ll_usb.c ****   {
2314:Drivers/STM32F7xx_HAL_Driver/Src/stm32f7xx_ll_usb.c ****     value = USBx_HC(i)->HCCHAR;
 5509              		.loc 1 2314 5 is_stmt 1 discriminator 3 view .LVU1891
 5510              		.loc 1 2314 13 is_stmt 0 discriminator 3 view .LVU1892
 5511 002a 04EB4211 		add	r1, r4, r2, lsl #5
 5512              		.loc 1 2314 11 discriminator 3 view .LVU1893
 5513 002e D1F80035 		ldr	r3, [r1, #1280]
 5514              	.LVL385:
2315:Drivers/STM32F7xx_HAL_Driver/Src/stm32f7xx_ll_usb.c ****     value |=  USB_OTG_HCCHAR_CHDIS;
 5515              		.loc 1 2315 5 is_stmt 1 discriminator 3 view .LVU1894
2316:Drivers/STM32F7xx_HAL_Driver/Src/stm32f7xx_ll_usb.c ****     value &= ~USB_OTG_HCCHAR_CHENA;
 5516              		.loc 1 2316 5 discriminator 3 view .LVU1895
2317:Drivers/STM32F7xx_HAL_Driver/Src/stm32f7xx_ll_usb.c ****     value &= ~USB_OTG_HCCHAR_EPDIR;
 5517              		.loc 1 2317 5 discriminator 3 view .LVU1896
 5518 0032 23F08023 		bic	r3, r3, #-2147450880
 5519              	.LVL386:
 5520              		.loc 1 2317 11 is_stmt 0 discriminator 3 view .LVU1897
 5521 0036 43F08043 		orr	r3, r3, #1073741824
 5522              	.LVL387:
2318:Drivers/STM32F7xx_HAL_Driver/Src/stm32f7xx_ll_usb.c ****     USBx_HC(i)->HCCHAR = value;
 5523              		.loc 1 2318 5 is_stmt 1 discriminator 3 view .LVU1898
 5524              		.loc 1 2318 24 is_stmt 0 discriminator 3 view .LVU1899
 5525 003a C1F80035 		str	r3, [r1, #1280]
2312:Drivers/STM32F7xx_HAL_Driver/Src/stm32f7xx_ll_usb.c ****   {
 5526              		.loc 1 2312 27 is_stmt 1 discriminator 3 view .LVU1900
 5527 003e 0132     		adds	r2, r2, #1
 5528              	.LVL388:
 5529              	.L361:
2312:Drivers/STM32F7xx_HAL_Driver/Src/stm32f7xx_ll_usb.c ****   {
 5530              		.loc 1 2312 18 discriminator 1 view .LVU1901
 5531 0040 0F2A     		cmp	r2, #15
 5532 0042 F2D9     		bls	.L362
2319:Drivers/STM32F7xx_HAL_Driver/Src/stm32f7xx_ll_usb.c ****   }
2320:Drivers/STM32F7xx_HAL_Driver/Src/stm32f7xx_ll_usb.c **** 
2321:Drivers/STM32F7xx_HAL_Driver/Src/stm32f7xx_ll_usb.c ****   /* Halt all channels to put them into a known state. */
2322:Drivers/STM32F7xx_HAL_Driver/Src/stm32f7xx_ll_usb.c ****   for (i = 0U; i <= 15U; i++)
 5533              		.loc 1 2322 10 is_stmt 0 view .LVU1902
 5534 0044 0021     		movs	r1, #0
 5535 0046 00E0     		b	.L363
 5536              	.LVL389:
 5537              	.L364:
 5538              		.loc 1 2322 27 is_stmt 1 discriminator 2 view .LVU1903
 5539 0048 0131     		adds	r1, r1, #1
 5540              	.LVL390:
 5541              	.L363:
 5542              		.loc 1 2322 18 discriminator 1 view .LVU1904
 5543 004a 0F29     		cmp	r1, #15
 5544 004c 16D8     		bhi	.L370
2323:Drivers/STM32F7xx_HAL_Driver/Src/stm32f7xx_ll_usb.c ****   {
2324:Drivers/STM32F7xx_HAL_Driver/Src/stm32f7xx_ll_usb.c ****     value = USBx_HC(i)->HCCHAR;
 5545              		.loc 1 2324 5 view .LVU1905
 5546              		.loc 1 2324 13 is_stmt 0 view .LVU1906
ARM GAS  C:\Users\benny\AppData\Local\Temp\ccHko7Bj.s 			page 164


 5547 004e 04EB4110 		add	r0, r4, r1, lsl #5
 5548 0052 00F5A062 		add	r2, r0, #1280
 5549              		.loc 1 2324 11 view .LVU1907
 5550 0056 D0F80035 		ldr	r3, [r0, #1280]
 5551              	.LVL391:
2325:Drivers/STM32F7xx_HAL_Driver/Src/stm32f7xx_ll_usb.c ****     value |= USB_OTG_HCCHAR_CHDIS;
 5552              		.loc 1 2325 5 is_stmt 1 view .LVU1908
2326:Drivers/STM32F7xx_HAL_Driver/Src/stm32f7xx_ll_usb.c ****     value |= USB_OTG_HCCHAR_CHENA;
 5553              		.loc 1 2326 5 view .LVU1909
2327:Drivers/STM32F7xx_HAL_Driver/Src/stm32f7xx_ll_usb.c ****     value &= ~USB_OTG_HCCHAR_EPDIR;
 5554              		.loc 1 2327 5 view .LVU1910
 5555 005a 23F40043 		bic	r3, r3, #32768
 5556              	.LVL392:
 5557              		.loc 1 2327 11 is_stmt 0 view .LVU1911
 5558 005e 43F04043 		orr	r3, r3, #-1073741824
 5559              	.LVL393:
2328:Drivers/STM32F7xx_HAL_Driver/Src/stm32f7xx_ll_usb.c ****     USBx_HC(i)->HCCHAR = value;
 5560              		.loc 1 2328 5 is_stmt 1 view .LVU1912
 5561              		.loc 1 2328 24 is_stmt 0 view .LVU1913
 5562 0062 C0F80035 		str	r3, [r0, #1280]
 5563              	.LVL394:
 5564              	.L365:
2329:Drivers/STM32F7xx_HAL_Driver/Src/stm32f7xx_ll_usb.c **** 
2330:Drivers/STM32F7xx_HAL_Driver/Src/stm32f7xx_ll_usb.c ****     do
 5565              		.loc 1 2330 5 is_stmt 1 view .LVU1914
2331:Drivers/STM32F7xx_HAL_Driver/Src/stm32f7xx_ll_usb.c ****     {
2332:Drivers/STM32F7xx_HAL_Driver/Src/stm32f7xx_ll_usb.c ****       count++;
 5566              		.loc 1 2332 7 view .LVU1915
 5567              		.loc 1 2332 12 is_stmt 0 view .LVU1916
 5568 0066 019B     		ldr	r3, [sp, #4]
 5569 0068 0133     		adds	r3, r3, #1
 5570 006a 0193     		str	r3, [sp, #4]
2333:Drivers/STM32F7xx_HAL_Driver/Src/stm32f7xx_ll_usb.c **** 
2334:Drivers/STM32F7xx_HAL_Driver/Src/stm32f7xx_ll_usb.c ****       if (count > 1000U)
 5571              		.loc 1 2334 7 is_stmt 1 view .LVU1917
 5572              		.loc 1 2334 17 is_stmt 0 view .LVU1918
 5573 006c 019B     		ldr	r3, [sp, #4]
 5574              		.loc 1 2334 10 view .LVU1919
 5575 006e B3F57A7F 		cmp	r3, #1000
 5576 0072 E9D8     		bhi	.L364
2335:Drivers/STM32F7xx_HAL_Driver/Src/stm32f7xx_ll_usb.c ****       {
2336:Drivers/STM32F7xx_HAL_Driver/Src/stm32f7xx_ll_usb.c ****         break;
2337:Drivers/STM32F7xx_HAL_Driver/Src/stm32f7xx_ll_usb.c ****       }
2338:Drivers/STM32F7xx_HAL_Driver/Src/stm32f7xx_ll_usb.c ****     } while ((USBx_HC(i)->HCCHAR & USB_OTG_HCCHAR_CHENA) == USB_OTG_HCCHAR_CHENA);
 5577              		.loc 1 2338 58 is_stmt 1 view .LVU1920
 5578              		.loc 1 2338 25 is_stmt 0 view .LVU1921
 5579 0074 1368     		ldr	r3, [r2]
 5580              		.loc 1 2338 58 view .LVU1922
 5581 0076 002B     		cmp	r3, #0
 5582 0078 F5DB     		blt	.L365
 5583 007a E5E7     		b	.L364
 5584              	.LVL395:
 5585              	.L370:
2339:Drivers/STM32F7xx_HAL_Driver/Src/stm32f7xx_ll_usb.c ****   }
2340:Drivers/STM32F7xx_HAL_Driver/Src/stm32f7xx_ll_usb.c **** 
2341:Drivers/STM32F7xx_HAL_Driver/Src/stm32f7xx_ll_usb.c ****   /* Clear any pending Host interrupts */
2342:Drivers/STM32F7xx_HAL_Driver/Src/stm32f7xx_ll_usb.c ****   USBx_HOST->HAINT = CLEAR_INTERRUPT_MASK;
ARM GAS  C:\Users\benny\AppData\Local\Temp\ccHko7Bj.s 			page 165


 5586              		.loc 1 2342 3 is_stmt 1 view .LVU1923
 5587              		.loc 1 2342 20 is_stmt 0 view .LVU1924
 5588 007c 4FF0FF33 		mov	r3, #-1
 5589 0080 C4F81434 		str	r3, [r4, #1044]
2343:Drivers/STM32F7xx_HAL_Driver/Src/stm32f7xx_ll_usb.c ****   USBx->GINTSTS = CLEAR_INTERRUPT_MASK;
 5590              		.loc 1 2343 3 is_stmt 1 view .LVU1925
 5591              		.loc 1 2343 17 is_stmt 0 view .LVU1926
 5592 0084 6361     		str	r3, [r4, #20]
2344:Drivers/STM32F7xx_HAL_Driver/Src/stm32f7xx_ll_usb.c **** 
2345:Drivers/STM32F7xx_HAL_Driver/Src/stm32f7xx_ll_usb.c ****   (void)USB_EnableGlobalInt(USBx);
 5593              		.loc 1 2345 3 is_stmt 1 view .LVU1927
 5594              		.loc 1 2345 9 is_stmt 0 view .LVU1928
 5595 0086 2046     		mov	r0, r4
 5596 0088 FFF7FEFF 		bl	USB_EnableGlobalInt
 5597              	.LVL396:
2346:Drivers/STM32F7xx_HAL_Driver/Src/stm32f7xx_ll_usb.c **** 
2347:Drivers/STM32F7xx_HAL_Driver/Src/stm32f7xx_ll_usb.c ****   return ret;
 5598              		.loc 1 2347 3 is_stmt 1 view .LVU1929
2348:Drivers/STM32F7xx_HAL_Driver/Src/stm32f7xx_ll_usb.c **** }
 5599              		.loc 1 2348 1 is_stmt 0 view .LVU1930
 5600 008c 2846     		mov	r0, r5
 5601 008e 03B0     		add	sp, sp, #12
 5602              	.LCFI70:
 5603              		.cfi_def_cfa_offset 12
 5604              		@ sp needed
 5605 0090 30BD     		pop	{r4, r5, pc}
 5606              		.loc 1 2348 1 view .LVU1931
 5607              		.cfi_endproc
 5608              	.LFE188:
 5610              		.section	.text.USB_ActivateRemoteWakeup,"ax",%progbits
 5611              		.align	1
 5612              		.global	USB_ActivateRemoteWakeup
 5613              		.syntax unified
 5614              		.thumb
 5615              		.thumb_func
 5617              	USB_ActivateRemoteWakeup:
 5618              	.LVL397:
 5619              	.LFB189:
2349:Drivers/STM32F7xx_HAL_Driver/Src/stm32f7xx_ll_usb.c **** 
2350:Drivers/STM32F7xx_HAL_Driver/Src/stm32f7xx_ll_usb.c **** /**
2351:Drivers/STM32F7xx_HAL_Driver/Src/stm32f7xx_ll_usb.c ****   * @brief  USB_ActivateRemoteWakeup active remote wakeup signalling
2352:Drivers/STM32F7xx_HAL_Driver/Src/stm32f7xx_ll_usb.c ****   * @param  USBx Selected device
2353:Drivers/STM32F7xx_HAL_Driver/Src/stm32f7xx_ll_usb.c ****   * @retval HAL status
2354:Drivers/STM32F7xx_HAL_Driver/Src/stm32f7xx_ll_usb.c ****   */
2355:Drivers/STM32F7xx_HAL_Driver/Src/stm32f7xx_ll_usb.c **** HAL_StatusTypeDef USB_ActivateRemoteWakeup(const USB_OTG_GlobalTypeDef *USBx)
2356:Drivers/STM32F7xx_HAL_Driver/Src/stm32f7xx_ll_usb.c **** {
 5620              		.loc 1 2356 1 is_stmt 1 view -0
 5621              		.cfi_startproc
 5622              		@ args = 0, pretend = 0, frame = 0
 5623              		@ frame_needed = 0, uses_anonymous_args = 0
 5624              		@ link register save eliminated.
2357:Drivers/STM32F7xx_HAL_Driver/Src/stm32f7xx_ll_usb.c ****   uint32_t USBx_BASE = (uint32_t)USBx;
 5625              		.loc 1 2357 3 view .LVU1933
2358:Drivers/STM32F7xx_HAL_Driver/Src/stm32f7xx_ll_usb.c **** 
2359:Drivers/STM32F7xx_HAL_Driver/Src/stm32f7xx_ll_usb.c ****   if ((USBx_DEVICE->DSTS & USB_OTG_DSTS_SUSPSTS) == USB_OTG_DSTS_SUSPSTS)
 5626              		.loc 1 2359 3 view .LVU1934
 5627              		.loc 1 2359 19 is_stmt 0 view .LVU1935
ARM GAS  C:\Users\benny\AppData\Local\Temp\ccHko7Bj.s 			page 166


 5628 0000 D0F80838 		ldr	r3, [r0, #2056]
 5629              		.loc 1 2359 8 view .LVU1936
 5630 0004 00F50060 		add	r0, r0, #2048
 5631              	.LVL398:
 5632              		.loc 1 2359 6 view .LVU1937
 5633 0008 13F0010F 		tst	r3, #1
 5634 000c 03D0     		beq	.L372
2360:Drivers/STM32F7xx_HAL_Driver/Src/stm32f7xx_ll_usb.c ****   {
2361:Drivers/STM32F7xx_HAL_Driver/Src/stm32f7xx_ll_usb.c ****     /* active Remote wakeup signalling */
2362:Drivers/STM32F7xx_HAL_Driver/Src/stm32f7xx_ll_usb.c ****     USBx_DEVICE->DCTL |= USB_OTG_DCTL_RWUSIG;
 5635              		.loc 1 2362 5 is_stmt 1 view .LVU1938
 5636              		.loc 1 2362 16 is_stmt 0 view .LVU1939
 5637 000e 4368     		ldr	r3, [r0, #4]
 5638              		.loc 1 2362 23 view .LVU1940
 5639 0010 43F00103 		orr	r3, r3, #1
 5640 0014 4360     		str	r3, [r0, #4]
 5641              	.L372:
2363:Drivers/STM32F7xx_HAL_Driver/Src/stm32f7xx_ll_usb.c ****   }
2364:Drivers/STM32F7xx_HAL_Driver/Src/stm32f7xx_ll_usb.c **** 
2365:Drivers/STM32F7xx_HAL_Driver/Src/stm32f7xx_ll_usb.c ****   return HAL_OK;
 5642              		.loc 1 2365 3 is_stmt 1 view .LVU1941
2366:Drivers/STM32F7xx_HAL_Driver/Src/stm32f7xx_ll_usb.c **** }
 5643              		.loc 1 2366 1 is_stmt 0 view .LVU1942
 5644 0016 0020     		movs	r0, #0
 5645              	.LVL399:
 5646              		.loc 1 2366 1 view .LVU1943
 5647 0018 7047     		bx	lr
 5648              		.cfi_endproc
 5649              	.LFE189:
 5651              		.section	.text.USB_DeActivateRemoteWakeup,"ax",%progbits
 5652              		.align	1
 5653              		.global	USB_DeActivateRemoteWakeup
 5654              		.syntax unified
 5655              		.thumb
 5656              		.thumb_func
 5658              	USB_DeActivateRemoteWakeup:
 5659              	.LVL400:
 5660              	.LFB190:
2367:Drivers/STM32F7xx_HAL_Driver/Src/stm32f7xx_ll_usb.c **** 
2368:Drivers/STM32F7xx_HAL_Driver/Src/stm32f7xx_ll_usb.c **** /**
2369:Drivers/STM32F7xx_HAL_Driver/Src/stm32f7xx_ll_usb.c ****   * @brief  USB_DeActivateRemoteWakeup de-active remote wakeup signalling
2370:Drivers/STM32F7xx_HAL_Driver/Src/stm32f7xx_ll_usb.c ****   * @param  USBx Selected device
2371:Drivers/STM32F7xx_HAL_Driver/Src/stm32f7xx_ll_usb.c ****   * @retval HAL status
2372:Drivers/STM32F7xx_HAL_Driver/Src/stm32f7xx_ll_usb.c ****   */
2373:Drivers/STM32F7xx_HAL_Driver/Src/stm32f7xx_ll_usb.c **** HAL_StatusTypeDef USB_DeActivateRemoteWakeup(const USB_OTG_GlobalTypeDef *USBx)
2374:Drivers/STM32F7xx_HAL_Driver/Src/stm32f7xx_ll_usb.c **** {
 5661              		.loc 1 2374 1 is_stmt 1 view -0
 5662              		.cfi_startproc
 5663              		@ args = 0, pretend = 0, frame = 0
 5664              		@ frame_needed = 0, uses_anonymous_args = 0
 5665              		@ link register save eliminated.
2375:Drivers/STM32F7xx_HAL_Driver/Src/stm32f7xx_ll_usb.c ****   uint32_t USBx_BASE = (uint32_t)USBx;
 5666              		.loc 1 2375 3 view .LVU1945
2376:Drivers/STM32F7xx_HAL_Driver/Src/stm32f7xx_ll_usb.c **** 
2377:Drivers/STM32F7xx_HAL_Driver/Src/stm32f7xx_ll_usb.c ****   /* active Remote wakeup signalling */
2378:Drivers/STM32F7xx_HAL_Driver/Src/stm32f7xx_ll_usb.c ****   USBx_DEVICE->DCTL &= ~(USB_OTG_DCTL_RWUSIG);
 5667              		.loc 1 2378 3 view .LVU1946
ARM GAS  C:\Users\benny\AppData\Local\Temp\ccHko7Bj.s 			page 167


 5668              		.loc 1 2378 14 is_stmt 0 view .LVU1947
 5669 0000 D0F80438 		ldr	r3, [r0, #2052]
 5670              		.loc 1 2378 21 view .LVU1948
 5671 0004 23F00103 		bic	r3, r3, #1
 5672 0008 C0F80438 		str	r3, [r0, #2052]
2379:Drivers/STM32F7xx_HAL_Driver/Src/stm32f7xx_ll_usb.c **** 
2380:Drivers/STM32F7xx_HAL_Driver/Src/stm32f7xx_ll_usb.c ****   return HAL_OK;
 5673              		.loc 1 2380 3 is_stmt 1 view .LVU1949
2381:Drivers/STM32F7xx_HAL_Driver/Src/stm32f7xx_ll_usb.c **** }
 5674              		.loc 1 2381 1 is_stmt 0 view .LVU1950
 5675 000c 0020     		movs	r0, #0
 5676              	.LVL401:
 5677              		.loc 1 2381 1 view .LVU1951
 5678 000e 7047     		bx	lr
 5679              		.cfi_endproc
 5680              	.LFE190:
 5682              		.text
 5683              	.Letext0:
 5684              		.file 2 "C:\\ST\\STM32CubeCLT_1.17.0\\GNU-tools-for-STM32\\bin/../lib/gcc/arm-none-eabi/12.3.1/../
 5685              		.file 3 "C:\\ST\\STM32CubeCLT_1.17.0\\GNU-tools-for-STM32\\bin/../lib/gcc/arm-none-eabi/12.3.1/../
 5686              		.file 4 "Drivers/CMSIS/Include/cmsis_gcc.h"
 5687              		.file 5 "Drivers/CMSIS/Device/ST/STM32F7xx/Include/stm32f723xx.h"
 5688              		.file 6 "Drivers/STM32F7xx_HAL_Driver/Inc/stm32f7xx_hal_def.h"
 5689              		.file 7 "Drivers/STM32F7xx_HAL_Driver/Inc/stm32f7xx_ll_usb.h"
 5690              		.file 8 "Drivers/STM32F7xx_HAL_Driver/Inc/stm32f7xx_hal.h"
ARM GAS  C:\Users\benny\AppData\Local\Temp\ccHko7Bj.s 			page 168


DEFINED SYMBOLS
                            *ABS*:00000000 stm32f7xx_ll_usb.c
C:\Users\benny\AppData\Local\Temp\ccHko7Bj.s:21     .text.USB_CoreReset:00000000 $t
C:\Users\benny\AppData\Local\Temp\ccHko7Bj.s:26     .text.USB_CoreReset:00000000 USB_CoreReset
C:\Users\benny\AppData\Local\Temp\ccHko7Bj.s:121    .text.USB_HS_PHYCInit:00000000 $t
C:\Users\benny\AppData\Local\Temp\ccHko7Bj.s:126    .text.USB_HS_PHYCInit:00000000 USB_HS_PHYCInit
C:\Users\benny\AppData\Local\Temp\ccHko7Bj.s:223    .text.USB_HS_PHYCInit:00000054 $d
C:\Users\benny\AppData\Local\Temp\ccHko7Bj.s:228    .text.USB_CoreInit:00000000 $t
C:\Users\benny\AppData\Local\Temp\ccHko7Bj.s:234    .text.USB_CoreInit:00000000 USB_CoreInit
C:\Users\benny\AppData\Local\Temp\ccHko7Bj.s:442    .text.USB_CoreInit:000000d8 $d
C:\Users\benny\AppData\Local\Temp\ccHko7Bj.s:447    .text.USB_SetTurnaroundTime:00000000 $t
C:\Users\benny\AppData\Local\Temp\ccHko7Bj.s:453    .text.USB_SetTurnaroundTime:00000000 USB_SetTurnaroundTime
C:\Users\benny\AppData\Local\Temp\ccHko7Bj.s:606    .text.USB_SetTurnaroundTime:0000009c $d
C:\Users\benny\AppData\Local\Temp\ccHko7Bj.s:628    .text.USB_EnableGlobalInt:00000000 $t
C:\Users\benny\AppData\Local\Temp\ccHko7Bj.s:634    .text.USB_EnableGlobalInt:00000000 USB_EnableGlobalInt
C:\Users\benny\AppData\Local\Temp\ccHko7Bj.s:658    .text.USB_DisableGlobalInt:00000000 $t
C:\Users\benny\AppData\Local\Temp\ccHko7Bj.s:664    .text.USB_DisableGlobalInt:00000000 USB_DisableGlobalInt
C:\Users\benny\AppData\Local\Temp\ccHko7Bj.s:688    .text.USB_FlushTxFifo:00000000 $t
C:\Users\benny\AppData\Local\Temp\ccHko7Bj.s:694    .text.USB_FlushTxFifo:00000000 USB_FlushTxFifo
C:\Users\benny\AppData\Local\Temp\ccHko7Bj.s:791    .text.USB_FlushRxFifo:00000000 $t
C:\Users\benny\AppData\Local\Temp\ccHko7Bj.s:797    .text.USB_FlushRxFifo:00000000 USB_FlushRxFifo
C:\Users\benny\AppData\Local\Temp\ccHko7Bj.s:890    .text.USB_SetDevSpeed:00000000 $t
C:\Users\benny\AppData\Local\Temp\ccHko7Bj.s:896    .text.USB_SetDevSpeed:00000000 USB_SetDevSpeed
C:\Users\benny\AppData\Local\Temp\ccHko7Bj.s:923    .text.USB_DevInit:00000000 $t
C:\Users\benny\AppData\Local\Temp\ccHko7Bj.s:929    .text.USB_DevInit:00000000 USB_DevInit
C:\Users\benny\AppData\Local\Temp\ccHko7Bj.s:1306   .text.USB_DevInit:000001a4 $d
C:\Users\benny\AppData\Local\Temp\ccHko7Bj.s:1312   .text.USB_GetDevSpeed:00000000 $t
C:\Users\benny\AppData\Local\Temp\ccHko7Bj.s:1318   .text.USB_GetDevSpeed:00000000 USB_GetDevSpeed
C:\Users\benny\AppData\Local\Temp\ccHko7Bj.s:1368   .text.USB_ActivateEndpoint:00000000 $t
C:\Users\benny\AppData\Local\Temp\ccHko7Bj.s:1374   .text.USB_ActivateEndpoint:00000000 USB_ActivateEndpoint
C:\Users\benny\AppData\Local\Temp\ccHko7Bj.s:1489   .text.USB_ActivateEndpoint:00000094 $d
C:\Users\benny\AppData\Local\Temp\ccHko7Bj.s:1494   .text.USB_ActivateDedicatedEndpoint:00000000 $t
C:\Users\benny\AppData\Local\Temp\ccHko7Bj.s:1500   .text.USB_ActivateDedicatedEndpoint:00000000 USB_ActivateDedicatedEndpoint
C:\Users\benny\AppData\Local\Temp\ccHko7Bj.s:1635   .text.USB_ActivateDedicatedEndpoint:0000009c $d
C:\Users\benny\AppData\Local\Temp\ccHko7Bj.s:1640   .text.USB_DeactivateEndpoint:00000000 $t
C:\Users\benny\AppData\Local\Temp\ccHko7Bj.s:1646   .text.USB_DeactivateEndpoint:00000000 USB_DeactivateEndpoint
C:\Users\benny\AppData\Local\Temp\ccHko7Bj.s:1817   .text.USB_DeactivateEndpoint:000000d8 $d
C:\Users\benny\AppData\Local\Temp\ccHko7Bj.s:1823   .text.USB_DeactivateDedicatedEndpoint:00000000 $t
C:\Users\benny\AppData\Local\Temp\ccHko7Bj.s:1829   .text.USB_DeactivateDedicatedEndpoint:00000000 USB_DeactivateDedicatedEndpoint
C:\Users\benny\AppData\Local\Temp\ccHko7Bj.s:1958   .text.USB_EPStopXfer:00000000 $t
C:\Users\benny\AppData\Local\Temp\ccHko7Bj.s:1964   .text.USB_EPStopXfer:00000000 USB_EPStopXfer
C:\Users\benny\AppData\Local\Temp\ccHko7Bj.s:2126   .text.USB_WritePacket:00000000 $t
C:\Users\benny\AppData\Local\Temp\ccHko7Bj.s:2132   .text.USB_WritePacket:00000000 USB_WritePacket
C:\Users\benny\AppData\Local\Temp\ccHko7Bj.s:2201   .text.USB_EPStartXfer:00000000 $t
C:\Users\benny\AppData\Local\Temp\ccHko7Bj.s:2207   .text.USB_EPStartXfer:00000000 USB_EPStartXfer
C:\Users\benny\AppData\Local\Temp\ccHko7Bj.s:2678   .text.USB_EPStartXfer:00000230 $d
C:\Users\benny\AppData\Local\Temp\ccHko7Bj.s:2685   .text.USB_ReadPacket:00000000 $t
C:\Users\benny\AppData\Local\Temp\ccHko7Bj.s:2691   .text.USB_ReadPacket:00000000 USB_ReadPacket
C:\Users\benny\AppData\Local\Temp\ccHko7Bj.s:2790   .text.USB_EPSetStall:00000000 $t
C:\Users\benny\AppData\Local\Temp\ccHko7Bj.s:2796   .text.USB_EPSetStall:00000000 USB_EPSetStall
C:\Users\benny\AppData\Local\Temp\ccHko7Bj.s:2879   .text.USB_EPClearStall:00000000 $t
C:\Users\benny\AppData\Local\Temp\ccHko7Bj.s:2885   .text.USB_EPClearStall:00000000 USB_EPClearStall
C:\Users\benny\AppData\Local\Temp\ccHko7Bj.s:2970   .text.USB_StopDevice:00000000 $t
C:\Users\benny\AppData\Local\Temp\ccHko7Bj.s:2976   .text.USB_StopDevice:00000000 USB_StopDevice
C:\Users\benny\AppData\Local\Temp\ccHko7Bj.s:3057   .text.USB_SetDevAddress:00000000 $t
C:\Users\benny\AppData\Local\Temp\ccHko7Bj.s:3063   .text.USB_SetDevAddress:00000000 USB_SetDevAddress
C:\Users\benny\AppData\Local\Temp\ccHko7Bj.s:3099   .text.USB_DevConnect:00000000 $t
ARM GAS  C:\Users\benny\AppData\Local\Temp\ccHko7Bj.s 			page 169


C:\Users\benny\AppData\Local\Temp\ccHko7Bj.s:3105   .text.USB_DevConnect:00000000 USB_DevConnect
C:\Users\benny\AppData\Local\Temp\ccHko7Bj.s:3135   .text.USB_DevDisconnect:00000000 $t
C:\Users\benny\AppData\Local\Temp\ccHko7Bj.s:3141   .text.USB_DevDisconnect:00000000 USB_DevDisconnect
C:\Users\benny\AppData\Local\Temp\ccHko7Bj.s:3171   .text.USB_ReadInterrupts:00000000 $t
C:\Users\benny\AppData\Local\Temp\ccHko7Bj.s:3177   .text.USB_ReadInterrupts:00000000 USB_ReadInterrupts
C:\Users\benny\AppData\Local\Temp\ccHko7Bj.s:3204   .text.USB_ReadChInterrupts:00000000 $t
C:\Users\benny\AppData\Local\Temp\ccHko7Bj.s:3210   .text.USB_ReadChInterrupts:00000000 USB_ReadChInterrupts
C:\Users\benny\AppData\Local\Temp\ccHko7Bj.s:3243   .text.USB_ReadDevAllOutEpInterrupt:00000000 $t
C:\Users\benny\AppData\Local\Temp\ccHko7Bj.s:3249   .text.USB_ReadDevAllOutEpInterrupt:00000000 USB_ReadDevAllOutEpInterrupt
C:\Users\benny\AppData\Local\Temp\ccHko7Bj.s:3282   .text.USB_ReadDevAllInEpInterrupt:00000000 $t
C:\Users\benny\AppData\Local\Temp\ccHko7Bj.s:3288   .text.USB_ReadDevAllInEpInterrupt:00000000 USB_ReadDevAllInEpInterrupt
C:\Users\benny\AppData\Local\Temp\ccHko7Bj.s:3321   .text.USB_ReadDevOutEPInterrupt:00000000 $t
C:\Users\benny\AppData\Local\Temp\ccHko7Bj.s:3327   .text.USB_ReadDevOutEPInterrupt:00000000 USB_ReadDevOutEPInterrupt
C:\Users\benny\AppData\Local\Temp\ccHko7Bj.s:3361   .text.USB_ReadDevInEPInterrupt:00000000 $t
C:\Users\benny\AppData\Local\Temp\ccHko7Bj.s:3367   .text.USB_ReadDevInEPInterrupt:00000000 USB_ReadDevInEPInterrupt
C:\Users\benny\AppData\Local\Temp\ccHko7Bj.s:3418   .text.USB_ClearInterrupts:00000000 $t
C:\Users\benny\AppData\Local\Temp\ccHko7Bj.s:3424   .text.USB_ClearInterrupts:00000000 USB_ClearInterrupts
C:\Users\benny\AppData\Local\Temp\ccHko7Bj.s:3444   .text.USB_GetMode:00000000 $t
C:\Users\benny\AppData\Local\Temp\ccHko7Bj.s:3450   .text.USB_GetMode:00000000 USB_GetMode
C:\Users\benny\AppData\Local\Temp\ccHko7Bj.s:3469   .text.USB_SetCurrentMode:00000000 $t
C:\Users\benny\AppData\Local\Temp\ccHko7Bj.s:3475   .text.USB_SetCurrentMode:00000000 USB_SetCurrentMode
C:\Users\benny\AppData\Local\Temp\ccHko7Bj.s:3595   .text.USB_ActivateSetup:00000000 $t
C:\Users\benny\AppData\Local\Temp\ccHko7Bj.s:3601   .text.USB_ActivateSetup:00000000 USB_ActivateSetup
C:\Users\benny\AppData\Local\Temp\ccHko7Bj.s:3632   .text.USB_ActivateSetup:0000001c $d
C:\Users\benny\AppData\Local\Temp\ccHko7Bj.s:3637   .text.USB_EP0_OutStart:00000000 $t
C:\Users\benny\AppData\Local\Temp\ccHko7Bj.s:3643   .text.USB_EP0_OutStart:00000000 USB_EP0_OutStart
C:\Users\benny\AppData\Local\Temp\ccHko7Bj.s:3730   .text.USB_EP0_OutStart:0000005c $d
C:\Users\benny\AppData\Local\Temp\ccHko7Bj.s:3735   .text.USB_HostInit:00000000 $t
C:\Users\benny\AppData\Local\Temp\ccHko7Bj.s:3741   .text.USB_HostInit:00000000 USB_HostInit
C:\Users\benny\AppData\Local\Temp\ccHko7Bj.s:3946   .text.USB_HostInit:000000e0 $d
C:\Users\benny\AppData\Local\Temp\ccHko7Bj.s:3954   .text.USB_InitFSLSPClkSel:00000000 $t
C:\Users\benny\AppData\Local\Temp\ccHko7Bj.s:3960   .text.USB_InitFSLSPClkSel:00000000 USB_InitFSLSPClkSel
C:\Users\benny\AppData\Local\Temp\ccHko7Bj.s:4023   .text.USB_ResetPort:00000000 $t
C:\Users\benny\AppData\Local\Temp\ccHko7Bj.s:4029   .text.USB_ResetPort:00000000 USB_ResetPort
C:\Users\benny\AppData\Local\Temp\ccHko7Bj.s:4098   .text.USB_DriveVbus:00000000 $t
C:\Users\benny\AppData\Local\Temp\ccHko7Bj.s:4104   .text.USB_DriveVbus:00000000 USB_DriveVbus
C:\Users\benny\AppData\Local\Temp\ccHko7Bj.s:4183   .text.USB_GetHostSpeed:00000000 $t
C:\Users\benny\AppData\Local\Temp\ccHko7Bj.s:4189   .text.USB_GetHostSpeed:00000000 USB_GetHostSpeed
C:\Users\benny\AppData\Local\Temp\ccHko7Bj.s:4227   .text.USB_GetCurrentFrame:00000000 $t
C:\Users\benny\AppData\Local\Temp\ccHko7Bj.s:4233   .text.USB_GetCurrentFrame:00000000 USB_GetCurrentFrame
C:\Users\benny\AppData\Local\Temp\ccHko7Bj.s:4256   .text.USB_HC_Init:00000000 $t
C:\Users\benny\AppData\Local\Temp\ccHko7Bj.s:4262   .text.USB_HC_Init:00000000 USB_HC_Init
C:\Users\benny\AppData\Local\Temp\ccHko7Bj.s:4304   .text.USB_HC_Init:00000024 $d
C:\Users\benny\AppData\Local\Temp\ccHko7Bj.s:4308   .text.USB_HC_Init:00000028 $t
C:\Users\benny\AppData\Local\Temp\ccHko7Bj.s:4514   .text.USB_HC_Init:00000134 $d
C:\Users\benny\AppData\Local\Temp\ccHko7Bj.s:4519   .text.USB_HC_ReadInterrupt:00000000 $t
C:\Users\benny\AppData\Local\Temp\ccHko7Bj.s:4525   .text.USB_HC_ReadInterrupt:00000000 USB_HC_ReadInterrupt
C:\Users\benny\AppData\Local\Temp\ccHko7Bj.s:4548   .text.USB_HC_Halt:00000000 $t
C:\Users\benny\AppData\Local\Temp\ccHko7Bj.s:4554   .text.USB_HC_Halt:00000000 USB_HC_Halt
C:\Users\benny\AppData\Local\Temp\ccHko7Bj.s:4770   .text.USB_DoPing:00000000 $t
C:\Users\benny\AppData\Local\Temp\ccHko7Bj.s:4776   .text.USB_DoPing:00000000 USB_DoPing
C:\Users\benny\AppData\Local\Temp\ccHko7Bj.s:4816   .text.USB_DoPing:00000020 $d
C:\Users\benny\AppData\Local\Temp\ccHko7Bj.s:4821   .text.USB_HC_StartXfer:00000000 $t
C:\Users\benny\AppData\Local\Temp\ccHko7Bj.s:4827   .text.USB_HC_StartXfer:00000000 USB_HC_StartXfer
C:\Users\benny\AppData\Local\Temp\ccHko7Bj.s:5208   .text.USB_HC_StartXfer:0000019e $d
C:\Users\benny\AppData\Local\Temp\ccHko7Bj.s:5213   .text.USB_HC_StartXfer:000001a2 $t
C:\Users\benny\AppData\Local\Temp\ccHko7Bj.s:5279   .text.USB_HC_StartXfer:000001f0 $d
ARM GAS  C:\Users\benny\AppData\Local\Temp\ccHko7Bj.s 			page 170


C:\Users\benny\AppData\Local\Temp\ccHko7Bj.s:5283   .text.USB_HC_StartXfer:000001f4 $t
C:\Users\benny\AppData\Local\Temp\ccHko7Bj.s:5407   .text.USB_HC_StartXfer:00000294 $d
C:\Users\benny\AppData\Local\Temp\ccHko7Bj.s:5415   .text.USB_HC_StartXfer:0000029c $t
C:\Users\benny\AppData\Local\Temp\ccHko7Bj.s:5441   .text.USB_StopHost:00000000 $t
C:\Users\benny\AppData\Local\Temp\ccHko7Bj.s:5447   .text.USB_StopHost:00000000 USB_StopHost
C:\Users\benny\AppData\Local\Temp\ccHko7Bj.s:5611   .text.USB_ActivateRemoteWakeup:00000000 $t
C:\Users\benny\AppData\Local\Temp\ccHko7Bj.s:5617   .text.USB_ActivateRemoteWakeup:00000000 USB_ActivateRemoteWakeup
C:\Users\benny\AppData\Local\Temp\ccHko7Bj.s:5652   .text.USB_DeActivateRemoteWakeup:00000000 $t
C:\Users\benny\AppData\Local\Temp\ccHko7Bj.s:5658   .text.USB_DeActivateRemoteWakeup:00000000 USB_DeActivateRemoteWakeup

UNDEFINED SYMBOLS
HAL_Delay
