ARM GAS  C:\Users\benny\AppData\Local\Temp\ccWgcweY.s 			page 1


   1              		.cpu cortex-m7
   2              		.arch armv7e-m
   3              		.fpu fpv5-sp-d16
   4              		.eabi_attribute 27, 1
   5              		.eabi_attribute 28, 1
   6              		.eabi_attribute 20, 1
   7              		.eabi_attribute 21, 1
   8              		.eabi_attribute 23, 3
   9              		.eabi_attribute 24, 1
  10              		.eabi_attribute 25, 1
  11              		.eabi_attribute 26, 1
  12              		.eabi_attribute 30, 1
  13              		.eabi_attribute 34, 1
  14              		.eabi_attribute 18, 4
  15              		.file	"stm32f7xx_hal_timebase_tim.c"
  16              		.text
  17              	.Ltext0:
  18              		.cfi_sections	.debug_frame
  19              		.file 1 "Core/Src/stm32f7xx_hal_timebase_tim.c"
  20              		.section	.text.HAL_InitTick,"ax",%progbits
  21              		.align	1
  22              		.global	HAL_InitTick
  23              		.syntax unified
  24              		.thumb
  25              		.thumb_func
  27              	HAL_InitTick:
  28              	.LVL0:
  29              	.LFB141:
   1:Core/Src/stm32f7xx_hal_timebase_tim.c **** /* USER CODE BEGIN Header */
   2:Core/Src/stm32f7xx_hal_timebase_tim.c **** /**
   3:Core/Src/stm32f7xx_hal_timebase_tim.c ****   ******************************************************************************
   4:Core/Src/stm32f7xx_hal_timebase_tim.c ****   * @file    stm32f7xx_hal_timebase_tim.c
   5:Core/Src/stm32f7xx_hal_timebase_tim.c ****   * @brief   HAL time base based on the hardware TIM.
   6:Core/Src/stm32f7xx_hal_timebase_tim.c ****   ******************************************************************************
   7:Core/Src/stm32f7xx_hal_timebase_tim.c ****   * @attention
   8:Core/Src/stm32f7xx_hal_timebase_tim.c ****   *
   9:Core/Src/stm32f7xx_hal_timebase_tim.c ****   * Copyright (c) 2024 STMicroelectronics.
  10:Core/Src/stm32f7xx_hal_timebase_tim.c ****   * All rights reserved.
  11:Core/Src/stm32f7xx_hal_timebase_tim.c ****   *
  12:Core/Src/stm32f7xx_hal_timebase_tim.c ****   * This software is licensed under terms that can be found in the LICENSE file
  13:Core/Src/stm32f7xx_hal_timebase_tim.c ****   * in the root directory of this software component.
  14:Core/Src/stm32f7xx_hal_timebase_tim.c ****   * If no LICENSE file comes with this software, it is provided AS-IS.
  15:Core/Src/stm32f7xx_hal_timebase_tim.c ****   *
  16:Core/Src/stm32f7xx_hal_timebase_tim.c ****   ******************************************************************************
  17:Core/Src/stm32f7xx_hal_timebase_tim.c ****   */
  18:Core/Src/stm32f7xx_hal_timebase_tim.c **** /* USER CODE END Header */
  19:Core/Src/stm32f7xx_hal_timebase_tim.c **** 
  20:Core/Src/stm32f7xx_hal_timebase_tim.c **** /* Includes ------------------------------------------------------------------*/
  21:Core/Src/stm32f7xx_hal_timebase_tim.c **** #include "stm32f7xx_hal.h"
  22:Core/Src/stm32f7xx_hal_timebase_tim.c **** #include "stm32f7xx_hal_tim.h"
  23:Core/Src/stm32f7xx_hal_timebase_tim.c **** 
  24:Core/Src/stm32f7xx_hal_timebase_tim.c **** /* Private typedef -----------------------------------------------------------*/
  25:Core/Src/stm32f7xx_hal_timebase_tim.c **** /* Private define ------------------------------------------------------------*/
  26:Core/Src/stm32f7xx_hal_timebase_tim.c **** /* Private macro -------------------------------------------------------------*/
  27:Core/Src/stm32f7xx_hal_timebase_tim.c **** /* Private variables ---------------------------------------------------------*/
  28:Core/Src/stm32f7xx_hal_timebase_tim.c **** TIM_HandleTypeDef        htim1;
  29:Core/Src/stm32f7xx_hal_timebase_tim.c **** /* Private function prototypes -----------------------------------------------*/
ARM GAS  C:\Users\benny\AppData\Local\Temp\ccWgcweY.s 			page 2


  30:Core/Src/stm32f7xx_hal_timebase_tim.c **** /* Private functions ---------------------------------------------------------*/
  31:Core/Src/stm32f7xx_hal_timebase_tim.c **** 
  32:Core/Src/stm32f7xx_hal_timebase_tim.c **** /**
  33:Core/Src/stm32f7xx_hal_timebase_tim.c ****   * @brief  This function configures the TIM1 as a time base source.
  34:Core/Src/stm32f7xx_hal_timebase_tim.c ****   *         The time source is configured  to have 1ms time base with a dedicated
  35:Core/Src/stm32f7xx_hal_timebase_tim.c ****   *         Tick interrupt priority.
  36:Core/Src/stm32f7xx_hal_timebase_tim.c ****   * @note   This function is called  automatically at the beginning of program after
  37:Core/Src/stm32f7xx_hal_timebase_tim.c ****   *         reset by HAL_Init() or at any time when clock is configured, by HAL_RCC_ClockConfig().
  38:Core/Src/stm32f7xx_hal_timebase_tim.c ****   * @param  TickPriority: Tick interrupt priority.
  39:Core/Src/stm32f7xx_hal_timebase_tim.c ****   * @retval HAL status
  40:Core/Src/stm32f7xx_hal_timebase_tim.c ****   */
  41:Core/Src/stm32f7xx_hal_timebase_tim.c **** HAL_StatusTypeDef HAL_InitTick(uint32_t TickPriority)
  42:Core/Src/stm32f7xx_hal_timebase_tim.c **** {
  30              		.loc 1 42 1 view -0
  31              		.cfi_startproc
  32              		@ args = 0, pretend = 0, frame = 32
  33              		@ frame_needed = 0, uses_anonymous_args = 0
  34              		.loc 1 42 1 is_stmt 0 view .LVU1
  35 0000 30B5     		push	{r4, r5, lr}
  36              	.LCFI0:
  37              		.cfi_def_cfa_offset 12
  38              		.cfi_offset 4, -12
  39              		.cfi_offset 5, -8
  40              		.cfi_offset 14, -4
  41 0002 89B0     		sub	sp, sp, #36
  42              	.LCFI1:
  43              		.cfi_def_cfa_offset 48
  44 0004 0446     		mov	r4, r0
  43:Core/Src/stm32f7xx_hal_timebase_tim.c ****   RCC_ClkInitTypeDef    clkconfig;
  45              		.loc 1 43 3 is_stmt 1 view .LVU2
  44:Core/Src/stm32f7xx_hal_timebase_tim.c ****   uint32_t              uwTimclock = 0U;
  46              		.loc 1 44 3 view .LVU3
  47              	.LVL1:
  45:Core/Src/stm32f7xx_hal_timebase_tim.c **** 
  46:Core/Src/stm32f7xx_hal_timebase_tim.c ****   uint32_t              uwPrescalerValue = 0U;
  48              		.loc 1 46 3 view .LVU4
  47:Core/Src/stm32f7xx_hal_timebase_tim.c ****   uint32_t              pFLatency;
  49              		.loc 1 47 3 view .LVU5
  48:Core/Src/stm32f7xx_hal_timebase_tim.c ****   HAL_StatusTypeDef     status;
  50              		.loc 1 48 3 view .LVU6
  49:Core/Src/stm32f7xx_hal_timebase_tim.c **** 
  50:Core/Src/stm32f7xx_hal_timebase_tim.c ****   /* Enable TIM1 clock */
  51:Core/Src/stm32f7xx_hal_timebase_tim.c ****   __HAL_RCC_TIM1_CLK_ENABLE();
  51              		.loc 1 51 3 view .LVU7
  52              	.LBB2:
  53              		.loc 1 51 3 view .LVU8
  54              		.loc 1 51 3 view .LVU9
  55 0006 1E4B     		ldr	r3, .L7
  56 0008 5A6C     		ldr	r2, [r3, #68]
  57 000a 42F00102 		orr	r2, r2, #1
  58 000e 5A64     		str	r2, [r3, #68]
  59              		.loc 1 51 3 view .LVU10
  60 0010 5B6C     		ldr	r3, [r3, #68]
  61 0012 03F00103 		and	r3, r3, #1
  62 0016 0193     		str	r3, [sp, #4]
  63              		.loc 1 51 3 view .LVU11
  64 0018 019B     		ldr	r3, [sp, #4]
ARM GAS  C:\Users\benny\AppData\Local\Temp\ccWgcweY.s 			page 3


  65              	.LBE2:
  66              		.loc 1 51 3 view .LVU12
  52:Core/Src/stm32f7xx_hal_timebase_tim.c ****   /* Get clock configuration */
  53:Core/Src/stm32f7xx_hal_timebase_tim.c ****   HAL_RCC_GetClockConfig(&clkconfig, &pFLatency);
  67              		.loc 1 53 3 view .LVU13
  68 001a 02A9     		add	r1, sp, #8
  69 001c 03A8     		add	r0, sp, #12
  70              	.LVL2:
  71              		.loc 1 53 3 is_stmt 0 view .LVU14
  72 001e FFF7FEFF 		bl	HAL_RCC_GetClockConfig
  73              	.LVL3:
  54:Core/Src/stm32f7xx_hal_timebase_tim.c ****   /* Compute TIM1 clock */
  55:Core/Src/stm32f7xx_hal_timebase_tim.c ****       uwTimclock = 2*HAL_RCC_GetPCLK2Freq();
  74              		.loc 1 55 7 is_stmt 1 view .LVU15
  75              		.loc 1 55 22 is_stmt 0 view .LVU16
  76 0022 FFF7FEFF 		bl	HAL_RCC_GetPCLK2Freq
  77              	.LVL4:
  78              		.loc 1 55 18 view .LVU17
  79 0026 4300     		lsls	r3, r0, #1
  80              	.LVL5:
  56:Core/Src/stm32f7xx_hal_timebase_tim.c **** 
  57:Core/Src/stm32f7xx_hal_timebase_tim.c ****   /* Compute the prescaler value to have TIM1 counter clock equal to 1MHz */
  58:Core/Src/stm32f7xx_hal_timebase_tim.c ****   uwPrescalerValue = (uint32_t) ((uwTimclock / 1000000U) - 1U);
  81              		.loc 1 58 3 is_stmt 1 view .LVU18
  82              		.loc 1 58 46 is_stmt 0 view .LVU19
  83 0028 164A     		ldr	r2, .L7+4
  84 002a A2FB0323 		umull	r2, r3, r2, r3
  85              	.LVL6:
  86              		.loc 1 58 46 view .LVU20
  87 002e 9B0C     		lsrs	r3, r3, #18
  88              		.loc 1 58 20 view .LVU21
  89 0030 013B     		subs	r3, r3, #1
  90              	.LVL7:
  59:Core/Src/stm32f7xx_hal_timebase_tim.c **** 
  60:Core/Src/stm32f7xx_hal_timebase_tim.c ****   /* Initialize TIM1 */
  61:Core/Src/stm32f7xx_hal_timebase_tim.c ****   htim1.Instance = TIM1;
  91              		.loc 1 61 3 is_stmt 1 view .LVU22
  92              		.loc 1 61 18 is_stmt 0 view .LVU23
  93 0032 1548     		ldr	r0, .L7+8
  94              	.LVL8:
  95              		.loc 1 61 18 view .LVU24
  96 0034 154A     		ldr	r2, .L7+12
  97 0036 0260     		str	r2, [r0]
  62:Core/Src/stm32f7xx_hal_timebase_tim.c **** 
  63:Core/Src/stm32f7xx_hal_timebase_tim.c ****   /* Initialize TIMx peripheral as follow:
  64:Core/Src/stm32f7xx_hal_timebase_tim.c **** 
  65:Core/Src/stm32f7xx_hal_timebase_tim.c ****   + Period = [(TIM1CLK/1000) - 1]. to have a (1/1000) s time base.
  66:Core/Src/stm32f7xx_hal_timebase_tim.c ****   + Prescaler = (uwTimclock/1000000 - 1) to have a 1MHz counter clock.
  67:Core/Src/stm32f7xx_hal_timebase_tim.c ****   + ClockDivision = 0
  68:Core/Src/stm32f7xx_hal_timebase_tim.c ****   + Counter direction = Up
  69:Core/Src/stm32f7xx_hal_timebase_tim.c ****   */
  70:Core/Src/stm32f7xx_hal_timebase_tim.c ****   htim1.Init.Period = (1000000U / 1000U) - 1U;
  98              		.loc 1 70 3 is_stmt 1 view .LVU25
  99              		.loc 1 70 21 is_stmt 0 view .LVU26
 100 0038 40F2E732 		movw	r2, #999
 101 003c C260     		str	r2, [r0, #12]
  71:Core/Src/stm32f7xx_hal_timebase_tim.c ****   htim1.Init.Prescaler = uwPrescalerValue;
ARM GAS  C:\Users\benny\AppData\Local\Temp\ccWgcweY.s 			page 4


 102              		.loc 1 71 3 is_stmt 1 view .LVU27
 103              		.loc 1 71 24 is_stmt 0 view .LVU28
 104 003e 4360     		str	r3, [r0, #4]
  72:Core/Src/stm32f7xx_hal_timebase_tim.c ****   htim1.Init.ClockDivision = 0;
 105              		.loc 1 72 3 is_stmt 1 view .LVU29
 106              		.loc 1 72 28 is_stmt 0 view .LVU30
 107 0040 0023     		movs	r3, #0
 108              	.LVL9:
 109              		.loc 1 72 28 view .LVU31
 110 0042 0361     		str	r3, [r0, #16]
  73:Core/Src/stm32f7xx_hal_timebase_tim.c ****   htim1.Init.CounterMode = TIM_COUNTERMODE_UP;
 111              		.loc 1 73 3 is_stmt 1 view .LVU32
 112              		.loc 1 73 26 is_stmt 0 view .LVU33
 113 0044 8360     		str	r3, [r0, #8]
  74:Core/Src/stm32f7xx_hal_timebase_tim.c ****   htim1.Init.AutoReloadPreload = TIM_AUTORELOAD_PRELOAD_DISABLE;
 114              		.loc 1 74 3 is_stmt 1 view .LVU34
 115              		.loc 1 74 32 is_stmt 0 view .LVU35
 116 0046 8361     		str	r3, [r0, #24]
  75:Core/Src/stm32f7xx_hal_timebase_tim.c **** 
  76:Core/Src/stm32f7xx_hal_timebase_tim.c ****   status = HAL_TIM_Base_Init(&htim1);
 117              		.loc 1 76 3 is_stmt 1 view .LVU36
 118              		.loc 1 76 12 is_stmt 0 view .LVU37
 119 0048 FFF7FEFF 		bl	HAL_TIM_Base_Init
 120              	.LVL10:
  77:Core/Src/stm32f7xx_hal_timebase_tim.c ****   if (status == HAL_OK)
 121              		.loc 1 77 3 is_stmt 1 view .LVU38
 122              		.loc 1 77 6 is_stmt 0 view .LVU39
 123 004c 0546     		mov	r5, r0
 124 004e 10B1     		cbz	r0, .L5
 125              	.LVL11:
 126              	.L2:
  78:Core/Src/stm32f7xx_hal_timebase_tim.c ****   {
  79:Core/Src/stm32f7xx_hal_timebase_tim.c ****     /* Start the TIM time Base generation in interrupt mode */
  80:Core/Src/stm32f7xx_hal_timebase_tim.c ****     status = HAL_TIM_Base_Start_IT(&htim1);
  81:Core/Src/stm32f7xx_hal_timebase_tim.c ****     if (status == HAL_OK)
  82:Core/Src/stm32f7xx_hal_timebase_tim.c ****     {
  83:Core/Src/stm32f7xx_hal_timebase_tim.c ****     /* Enable the TIM1 global Interrupt */
  84:Core/Src/stm32f7xx_hal_timebase_tim.c ****         HAL_NVIC_EnableIRQ(TIM1_UP_TIM10_IRQn);
  85:Core/Src/stm32f7xx_hal_timebase_tim.c ****       /* Configure the SysTick IRQ priority */
  86:Core/Src/stm32f7xx_hal_timebase_tim.c ****       if (TickPriority < (1UL << __NVIC_PRIO_BITS))
  87:Core/Src/stm32f7xx_hal_timebase_tim.c ****       {
  88:Core/Src/stm32f7xx_hal_timebase_tim.c ****         /* Configure the TIM IRQ priority */
  89:Core/Src/stm32f7xx_hal_timebase_tim.c ****         HAL_NVIC_SetPriority(TIM1_UP_TIM10_IRQn, TickPriority, 0U);
  90:Core/Src/stm32f7xx_hal_timebase_tim.c ****         uwTickPrio = TickPriority;
  91:Core/Src/stm32f7xx_hal_timebase_tim.c ****       }
  92:Core/Src/stm32f7xx_hal_timebase_tim.c ****       else
  93:Core/Src/stm32f7xx_hal_timebase_tim.c ****       {
  94:Core/Src/stm32f7xx_hal_timebase_tim.c ****         status = HAL_ERROR;
  95:Core/Src/stm32f7xx_hal_timebase_tim.c ****       }
  96:Core/Src/stm32f7xx_hal_timebase_tim.c ****     }
  97:Core/Src/stm32f7xx_hal_timebase_tim.c ****   }
  98:Core/Src/stm32f7xx_hal_timebase_tim.c **** 
  99:Core/Src/stm32f7xx_hal_timebase_tim.c ****  /* Return function status */
 100:Core/Src/stm32f7xx_hal_timebase_tim.c ****   return status;
 127              		.loc 1 100 3 is_stmt 1 view .LVU40
 101:Core/Src/stm32f7xx_hal_timebase_tim.c **** }
 128              		.loc 1 101 1 is_stmt 0 view .LVU41
ARM GAS  C:\Users\benny\AppData\Local\Temp\ccWgcweY.s 			page 5


 129 0050 2846     		mov	r0, r5
 130 0052 09B0     		add	sp, sp, #36
 131              	.LCFI2:
 132              		.cfi_remember_state
 133              		.cfi_def_cfa_offset 12
 134              		@ sp needed
 135 0054 30BD     		pop	{r4, r5, pc}
 136              	.LVL12:
 137              	.L5:
 138              	.LCFI3:
 139              		.cfi_restore_state
  80:Core/Src/stm32f7xx_hal_timebase_tim.c ****     if (status == HAL_OK)
 140              		.loc 1 80 5 is_stmt 1 view .LVU42
  80:Core/Src/stm32f7xx_hal_timebase_tim.c ****     if (status == HAL_OK)
 141              		.loc 1 80 14 is_stmt 0 view .LVU43
 142 0056 0C48     		ldr	r0, .L7+8
 143              	.LVL13:
  80:Core/Src/stm32f7xx_hal_timebase_tim.c ****     if (status == HAL_OK)
 144              		.loc 1 80 14 view .LVU44
 145 0058 FFF7FEFF 		bl	HAL_TIM_Base_Start_IT
 146              	.LVL14:
  81:Core/Src/stm32f7xx_hal_timebase_tim.c ****     {
 147              		.loc 1 81 5 is_stmt 1 view .LVU45
  81:Core/Src/stm32f7xx_hal_timebase_tim.c ****     {
 148              		.loc 1 81 8 is_stmt 0 view .LVU46
 149 005c 0546     		mov	r5, r0
 150 005e 0028     		cmp	r0, #0
 151 0060 F6D1     		bne	.L2
  84:Core/Src/stm32f7xx_hal_timebase_tim.c ****       /* Configure the SysTick IRQ priority */
 152              		.loc 1 84 9 is_stmt 1 view .LVU47
 153 0062 1920     		movs	r0, #25
 154              	.LVL15:
  84:Core/Src/stm32f7xx_hal_timebase_tim.c ****       /* Configure the SysTick IRQ priority */
 155              		.loc 1 84 9 is_stmt 0 view .LVU48
 156 0064 FFF7FEFF 		bl	HAL_NVIC_EnableIRQ
 157              	.LVL16:
  86:Core/Src/stm32f7xx_hal_timebase_tim.c ****       {
 158              		.loc 1 86 7 is_stmt 1 view .LVU49
  86:Core/Src/stm32f7xx_hal_timebase_tim.c ****       {
 159              		.loc 1 86 10 is_stmt 0 view .LVU50
 160 0068 0F2C     		cmp	r4, #15
 161 006a 01D9     		bls	.L6
  94:Core/Src/stm32f7xx_hal_timebase_tim.c ****       }
 162              		.loc 1 94 16 view .LVU51
 163 006c 0125     		movs	r5, #1
 164 006e EFE7     		b	.L2
 165              	.L6:
  89:Core/Src/stm32f7xx_hal_timebase_tim.c ****         uwTickPrio = TickPriority;
 166              		.loc 1 89 9 is_stmt 1 view .LVU52
 167 0070 0022     		movs	r2, #0
 168 0072 2146     		mov	r1, r4
 169 0074 1920     		movs	r0, #25
 170 0076 FFF7FEFF 		bl	HAL_NVIC_SetPriority
 171              	.LVL17:
  90:Core/Src/stm32f7xx_hal_timebase_tim.c ****       }
 172              		.loc 1 90 9 view .LVU53
  90:Core/Src/stm32f7xx_hal_timebase_tim.c ****       }
ARM GAS  C:\Users\benny\AppData\Local\Temp\ccWgcweY.s 			page 6


 173              		.loc 1 90 20 is_stmt 0 view .LVU54
 174 007a 054B     		ldr	r3, .L7+16
 175 007c 1C60     		str	r4, [r3]
 176 007e E7E7     		b	.L2
 177              	.L8:
 178              		.align	2
 179              	.L7:
 180 0080 00380240 		.word	1073887232
 181 0084 83DE1B43 		.word	1125899907
 182 0088 00000000 		.word	htim1
 183 008c 00000140 		.word	1073807360
 184 0090 00000000 		.word	uwTickPrio
 185              		.cfi_endproc
 186              	.LFE141:
 188              		.section	.text.HAL_SuspendTick,"ax",%progbits
 189              		.align	1
 190              		.global	HAL_SuspendTick
 191              		.syntax unified
 192              		.thumb
 193              		.thumb_func
 195              	HAL_SuspendTick:
 196              	.LFB142:
 102:Core/Src/stm32f7xx_hal_timebase_tim.c **** 
 103:Core/Src/stm32f7xx_hal_timebase_tim.c **** /**
 104:Core/Src/stm32f7xx_hal_timebase_tim.c ****   * @brief  Suspend Tick increment.
 105:Core/Src/stm32f7xx_hal_timebase_tim.c ****   * @note   Disable the tick increment by disabling TIM1 update interrupt.
 106:Core/Src/stm32f7xx_hal_timebase_tim.c ****   * @param  None
 107:Core/Src/stm32f7xx_hal_timebase_tim.c ****   * @retval None
 108:Core/Src/stm32f7xx_hal_timebase_tim.c ****   */
 109:Core/Src/stm32f7xx_hal_timebase_tim.c **** void HAL_SuspendTick(void)
 110:Core/Src/stm32f7xx_hal_timebase_tim.c **** {
 197              		.loc 1 110 1 is_stmt 1 view -0
 198              		.cfi_startproc
 199              		@ args = 0, pretend = 0, frame = 0
 200              		@ frame_needed = 0, uses_anonymous_args = 0
 201              		@ link register save eliminated.
 111:Core/Src/stm32f7xx_hal_timebase_tim.c ****   /* Disable TIM1 update Interrupt */
 112:Core/Src/stm32f7xx_hal_timebase_tim.c ****   __HAL_TIM_DISABLE_IT(&htim1, TIM_IT_UPDATE);
 202              		.loc 1 112 3 view .LVU56
 203 0000 034B     		ldr	r3, .L10
 204 0002 1A68     		ldr	r2, [r3]
 205 0004 D368     		ldr	r3, [r2, #12]
 206 0006 23F00103 		bic	r3, r3, #1
 207 000a D360     		str	r3, [r2, #12]
 113:Core/Src/stm32f7xx_hal_timebase_tim.c **** }
 208              		.loc 1 113 1 is_stmt 0 view .LVU57
 209 000c 7047     		bx	lr
 210              	.L11:
 211 000e 00BF     		.align	2
 212              	.L10:
 213 0010 00000000 		.word	htim1
 214              		.cfi_endproc
 215              	.LFE142:
 217              		.section	.text.HAL_ResumeTick,"ax",%progbits
 218              		.align	1
 219              		.global	HAL_ResumeTick
 220              		.syntax unified
ARM GAS  C:\Users\benny\AppData\Local\Temp\ccWgcweY.s 			page 7


 221              		.thumb
 222              		.thumb_func
 224              	HAL_ResumeTick:
 225              	.LFB143:
 114:Core/Src/stm32f7xx_hal_timebase_tim.c **** 
 115:Core/Src/stm32f7xx_hal_timebase_tim.c **** /**
 116:Core/Src/stm32f7xx_hal_timebase_tim.c ****   * @brief  Resume Tick increment.
 117:Core/Src/stm32f7xx_hal_timebase_tim.c ****   * @note   Enable the tick increment by Enabling TIM1 update interrupt.
 118:Core/Src/stm32f7xx_hal_timebase_tim.c ****   * @param  None
 119:Core/Src/stm32f7xx_hal_timebase_tim.c ****   * @retval None
 120:Core/Src/stm32f7xx_hal_timebase_tim.c ****   */
 121:Core/Src/stm32f7xx_hal_timebase_tim.c **** void HAL_ResumeTick(void)
 122:Core/Src/stm32f7xx_hal_timebase_tim.c **** {
 226              		.loc 1 122 1 is_stmt 1 view -0
 227              		.cfi_startproc
 228              		@ args = 0, pretend = 0, frame = 0
 229              		@ frame_needed = 0, uses_anonymous_args = 0
 230              		@ link register save eliminated.
 123:Core/Src/stm32f7xx_hal_timebase_tim.c ****   /* Enable TIM1 Update interrupt */
 124:Core/Src/stm32f7xx_hal_timebase_tim.c ****   __HAL_TIM_ENABLE_IT(&htim1, TIM_IT_UPDATE);
 231              		.loc 1 124 3 view .LVU59
 232 0000 034B     		ldr	r3, .L13
 233 0002 1A68     		ldr	r2, [r3]
 234 0004 D368     		ldr	r3, [r2, #12]
 235 0006 43F00103 		orr	r3, r3, #1
 236 000a D360     		str	r3, [r2, #12]
 125:Core/Src/stm32f7xx_hal_timebase_tim.c **** }
 237              		.loc 1 125 1 is_stmt 0 view .LVU60
 238 000c 7047     		bx	lr
 239              	.L14:
 240 000e 00BF     		.align	2
 241              	.L13:
 242 0010 00000000 		.word	htim1
 243              		.cfi_endproc
 244              	.LFE143:
 246              		.global	htim1
 247              		.section	.bss.htim1,"aw",%nobits
 248              		.align	2
 251              	htim1:
 252 0000 00000000 		.space	76
 252      00000000 
 252      00000000 
 252      00000000 
 252      00000000 
 253              		.text
 254              	.Letext0:
 255              		.file 2 "Drivers/CMSIS/Device/ST/STM32F7xx/Include/stm32f723xx.h"
 256              		.file 3 "C:\\ST\\STM32CubeCLT_1.17.0\\GNU-tools-for-STM32\\bin/../lib/gcc/arm-none-eabi/12.3.1/../
 257              		.file 4 "C:\\ST\\STM32CubeCLT_1.17.0\\GNU-tools-for-STM32\\bin/../lib/gcc/arm-none-eabi/12.3.1/../
 258              		.file 5 "Drivers/STM32F7xx_HAL_Driver/Inc/stm32f7xx_hal_def.h"
 259              		.file 6 "Drivers/STM32F7xx_HAL_Driver/Inc/stm32f7xx_hal_rcc.h"
 260              		.file 7 "Drivers/STM32F7xx_HAL_Driver/Inc/stm32f7xx_hal_dma.h"
 261              		.file 8 "Drivers/STM32F7xx_HAL_Driver/Inc/stm32f7xx_hal_tim.h"
 262              		.file 9 "Drivers/STM32F7xx_HAL_Driver/Inc/stm32f7xx_hal.h"
 263              		.file 10 "Drivers/STM32F7xx_HAL_Driver/Inc/stm32f7xx_hal_cortex.h"
ARM GAS  C:\Users\benny\AppData\Local\Temp\ccWgcweY.s 			page 8

