ARM GAS  C:\Users\benny\AppData\Local\Temp\ccwEP4Gk.s 			page 1


   1              		.cpu cortex-m7
   2              		.arch armv7e-m
   3              		.fpu fpv5-sp-d16
   4              		.eabi_attribute 27, 1
   5              		.eabi_attribute 28, 1
   6              		.eabi_attribute 20, 1
   7              		.eabi_attribute 21, 1
   8              		.eabi_attribute 23, 3
   9              		.eabi_attribute 24, 1
  10              		.eabi_attribute 25, 1
  11              		.eabi_attribute 26, 1
  12              		.eabi_attribute 30, 1
  13              		.eabi_attribute 34, 1
  14              		.eabi_attribute 18, 4
  15              		.file	"stm32f7xx_hal_sram.c"
  16              		.text
  17              	.Ltext0:
  18              		.cfi_sections	.debug_frame
  19              		.file 1 "Drivers/STM32F7xx_HAL_Driver/Src/stm32f7xx_hal_sram.c"
  20              		.section	.text.HAL_SRAM_MspInit,"ax",%progbits
  21              		.align	1
  22              		.weak	HAL_SRAM_MspInit
  23              		.syntax unified
  24              		.thumb
  25              		.thumb_func
  27              	HAL_SRAM_MspInit:
  28              	.LVL0:
  29              	.LFB143:
   1:Drivers/STM32F7xx_HAL_Driver/Src/stm32f7xx_hal_sram.c **** /**
   2:Drivers/STM32F7xx_HAL_Driver/Src/stm32f7xx_hal_sram.c ****   ******************************************************************************
   3:Drivers/STM32F7xx_HAL_Driver/Src/stm32f7xx_hal_sram.c ****   * @file    stm32f7xx_hal_sram.c
   4:Drivers/STM32F7xx_HAL_Driver/Src/stm32f7xx_hal_sram.c ****   * @author  MCD Application Team
   5:Drivers/STM32F7xx_HAL_Driver/Src/stm32f7xx_hal_sram.c ****   * @brief   SRAM HAL module driver.
   6:Drivers/STM32F7xx_HAL_Driver/Src/stm32f7xx_hal_sram.c ****   *          This file provides a generic firmware to drive SRAM memories
   7:Drivers/STM32F7xx_HAL_Driver/Src/stm32f7xx_hal_sram.c ****   *          mounted as external device.
   8:Drivers/STM32F7xx_HAL_Driver/Src/stm32f7xx_hal_sram.c ****   *
   9:Drivers/STM32F7xx_HAL_Driver/Src/stm32f7xx_hal_sram.c ****   ******************************************************************************
  10:Drivers/STM32F7xx_HAL_Driver/Src/stm32f7xx_hal_sram.c ****   * @attention
  11:Drivers/STM32F7xx_HAL_Driver/Src/stm32f7xx_hal_sram.c ****   *
  12:Drivers/STM32F7xx_HAL_Driver/Src/stm32f7xx_hal_sram.c ****   * Copyright (c) 2017 STMicroelectronics.
  13:Drivers/STM32F7xx_HAL_Driver/Src/stm32f7xx_hal_sram.c ****   * All rights reserved.
  14:Drivers/STM32F7xx_HAL_Driver/Src/stm32f7xx_hal_sram.c ****   *
  15:Drivers/STM32F7xx_HAL_Driver/Src/stm32f7xx_hal_sram.c ****   * This software is licensed under terms that can be found in the LICENSE file
  16:Drivers/STM32F7xx_HAL_Driver/Src/stm32f7xx_hal_sram.c ****   * in the root directory of this software component.
  17:Drivers/STM32F7xx_HAL_Driver/Src/stm32f7xx_hal_sram.c ****   * If no LICENSE file comes with this software, it is provided AS-IS.
  18:Drivers/STM32F7xx_HAL_Driver/Src/stm32f7xx_hal_sram.c ****   *
  19:Drivers/STM32F7xx_HAL_Driver/Src/stm32f7xx_hal_sram.c ****   ******************************************************************************
  20:Drivers/STM32F7xx_HAL_Driver/Src/stm32f7xx_hal_sram.c ****   @verbatim
  21:Drivers/STM32F7xx_HAL_Driver/Src/stm32f7xx_hal_sram.c ****   ==============================================================================
  22:Drivers/STM32F7xx_HAL_Driver/Src/stm32f7xx_hal_sram.c ****                           ##### How to use this driver #####
  23:Drivers/STM32F7xx_HAL_Driver/Src/stm32f7xx_hal_sram.c ****   ==============================================================================
  24:Drivers/STM32F7xx_HAL_Driver/Src/stm32f7xx_hal_sram.c ****   [..]
  25:Drivers/STM32F7xx_HAL_Driver/Src/stm32f7xx_hal_sram.c ****     This driver is a generic layered driver which contains a set of APIs used to
  26:Drivers/STM32F7xx_HAL_Driver/Src/stm32f7xx_hal_sram.c ****     control SRAM memories. It uses the FMC layer functions to interface
  27:Drivers/STM32F7xx_HAL_Driver/Src/stm32f7xx_hal_sram.c ****     with SRAM devices.
  28:Drivers/STM32F7xx_HAL_Driver/Src/stm32f7xx_hal_sram.c ****     The following sequence should be followed to configure the FMC to interface
  29:Drivers/STM32F7xx_HAL_Driver/Src/stm32f7xx_hal_sram.c ****     with SRAM/PSRAM memories:
ARM GAS  C:\Users\benny\AppData\Local\Temp\ccwEP4Gk.s 			page 2


  30:Drivers/STM32F7xx_HAL_Driver/Src/stm32f7xx_hal_sram.c **** 
  31:Drivers/STM32F7xx_HAL_Driver/Src/stm32f7xx_hal_sram.c ****    (#) Declare a SRAM_HandleTypeDef handle structure, for example:
  32:Drivers/STM32F7xx_HAL_Driver/Src/stm32f7xx_hal_sram.c ****           SRAM_HandleTypeDef  hsram; and:
  33:Drivers/STM32F7xx_HAL_Driver/Src/stm32f7xx_hal_sram.c **** 
  34:Drivers/STM32F7xx_HAL_Driver/Src/stm32f7xx_hal_sram.c ****        (++) Fill the SRAM_HandleTypeDef handle "Init" field with the allowed
  35:Drivers/STM32F7xx_HAL_Driver/Src/stm32f7xx_hal_sram.c ****             values of the structure member.
  36:Drivers/STM32F7xx_HAL_Driver/Src/stm32f7xx_hal_sram.c **** 
  37:Drivers/STM32F7xx_HAL_Driver/Src/stm32f7xx_hal_sram.c ****        (++) Fill the SRAM_HandleTypeDef handle "Instance" field with a predefined
  38:Drivers/STM32F7xx_HAL_Driver/Src/stm32f7xx_hal_sram.c ****             base register instance for NOR or SRAM device
  39:Drivers/STM32F7xx_HAL_Driver/Src/stm32f7xx_hal_sram.c **** 
  40:Drivers/STM32F7xx_HAL_Driver/Src/stm32f7xx_hal_sram.c ****        (++) Fill the SRAM_HandleTypeDef handle "Extended" field with a predefined
  41:Drivers/STM32F7xx_HAL_Driver/Src/stm32f7xx_hal_sram.c ****             base register instance for NOR or SRAM extended mode
  42:Drivers/STM32F7xx_HAL_Driver/Src/stm32f7xx_hal_sram.c **** 
  43:Drivers/STM32F7xx_HAL_Driver/Src/stm32f7xx_hal_sram.c ****    (#) Declare two FMC_NORSRAM_TimingTypeDef structures, for both normal and extended
  44:Drivers/STM32F7xx_HAL_Driver/Src/stm32f7xx_hal_sram.c ****        mode timings; for example:
  45:Drivers/STM32F7xx_HAL_Driver/Src/stm32f7xx_hal_sram.c ****           FMC_NORSRAM_TimingTypeDef  Timing and FMC_NORSRAM_TimingTypeDef  ExTiming;
  46:Drivers/STM32F7xx_HAL_Driver/Src/stm32f7xx_hal_sram.c ****       and fill its fields with the allowed values of the structure member.
  47:Drivers/STM32F7xx_HAL_Driver/Src/stm32f7xx_hal_sram.c **** 
  48:Drivers/STM32F7xx_HAL_Driver/Src/stm32f7xx_hal_sram.c ****    (#) Initialize the SRAM Controller by calling the function HAL_SRAM_Init(). This function
  49:Drivers/STM32F7xx_HAL_Driver/Src/stm32f7xx_hal_sram.c ****        performs the following sequence:
  50:Drivers/STM32F7xx_HAL_Driver/Src/stm32f7xx_hal_sram.c **** 
  51:Drivers/STM32F7xx_HAL_Driver/Src/stm32f7xx_hal_sram.c ****        (##) MSP hardware layer configuration using the function HAL_SRAM_MspInit()
  52:Drivers/STM32F7xx_HAL_Driver/Src/stm32f7xx_hal_sram.c ****        (##) Control register configuration using the FMC NORSRAM interface function
  53:Drivers/STM32F7xx_HAL_Driver/Src/stm32f7xx_hal_sram.c ****             FMC_NORSRAM_Init()
  54:Drivers/STM32F7xx_HAL_Driver/Src/stm32f7xx_hal_sram.c ****        (##) Timing register configuration using the FMC NORSRAM interface function
  55:Drivers/STM32F7xx_HAL_Driver/Src/stm32f7xx_hal_sram.c ****             FMC_NORSRAM_Timing_Init()
  56:Drivers/STM32F7xx_HAL_Driver/Src/stm32f7xx_hal_sram.c ****        (##) Extended mode Timing register configuration using the FMC NORSRAM interface function
  57:Drivers/STM32F7xx_HAL_Driver/Src/stm32f7xx_hal_sram.c ****             FMC_NORSRAM_Extended_Timing_Init()
  58:Drivers/STM32F7xx_HAL_Driver/Src/stm32f7xx_hal_sram.c ****        (##) Enable the SRAM device using the macro __FMC_NORSRAM_ENABLE()
  59:Drivers/STM32F7xx_HAL_Driver/Src/stm32f7xx_hal_sram.c **** 
  60:Drivers/STM32F7xx_HAL_Driver/Src/stm32f7xx_hal_sram.c ****    (#) At this stage you can perform read/write accesses from/to the memory connected
  61:Drivers/STM32F7xx_HAL_Driver/Src/stm32f7xx_hal_sram.c ****        to the NOR/SRAM Bank. You can perform either polling or DMA transfer using the
  62:Drivers/STM32F7xx_HAL_Driver/Src/stm32f7xx_hal_sram.c ****        following APIs:
  63:Drivers/STM32F7xx_HAL_Driver/Src/stm32f7xx_hal_sram.c ****        (++) HAL_SRAM_Read()/HAL_SRAM_Write() for polling read/write access
  64:Drivers/STM32F7xx_HAL_Driver/Src/stm32f7xx_hal_sram.c ****        (++) HAL_SRAM_Read_DMA()/HAL_SRAM_Write_DMA() for DMA read/write transfer
  65:Drivers/STM32F7xx_HAL_Driver/Src/stm32f7xx_hal_sram.c **** 
  66:Drivers/STM32F7xx_HAL_Driver/Src/stm32f7xx_hal_sram.c ****    (#) You can also control the SRAM device by calling the control APIs HAL_SRAM_WriteOperation_Ena
  67:Drivers/STM32F7xx_HAL_Driver/Src/stm32f7xx_hal_sram.c ****        HAL_SRAM_WriteOperation_Disable() to respectively enable/disable the SRAM write operation
  68:Drivers/STM32F7xx_HAL_Driver/Src/stm32f7xx_hal_sram.c **** 
  69:Drivers/STM32F7xx_HAL_Driver/Src/stm32f7xx_hal_sram.c ****    (#) You can continuously monitor the SRAM device HAL state by calling the function
  70:Drivers/STM32F7xx_HAL_Driver/Src/stm32f7xx_hal_sram.c ****        HAL_SRAM_GetState()
  71:Drivers/STM32F7xx_HAL_Driver/Src/stm32f7xx_hal_sram.c **** 
  72:Drivers/STM32F7xx_HAL_Driver/Src/stm32f7xx_hal_sram.c ****        *** Callback registration ***
  73:Drivers/STM32F7xx_HAL_Driver/Src/stm32f7xx_hal_sram.c ****     =============================================
  74:Drivers/STM32F7xx_HAL_Driver/Src/stm32f7xx_hal_sram.c ****     [..]
  75:Drivers/STM32F7xx_HAL_Driver/Src/stm32f7xx_hal_sram.c ****       The compilation define  USE_HAL_SRAM_REGISTER_CALLBACKS when set to 1
  76:Drivers/STM32F7xx_HAL_Driver/Src/stm32f7xx_hal_sram.c ****       allows the user to configure dynamically the driver callbacks.
  77:Drivers/STM32F7xx_HAL_Driver/Src/stm32f7xx_hal_sram.c **** 
  78:Drivers/STM32F7xx_HAL_Driver/Src/stm32f7xx_hal_sram.c ****       Use Functions HAL_SRAM_RegisterCallback() to register a user callback,
  79:Drivers/STM32F7xx_HAL_Driver/Src/stm32f7xx_hal_sram.c ****       it allows to register following callbacks:
  80:Drivers/STM32F7xx_HAL_Driver/Src/stm32f7xx_hal_sram.c ****         (+) MspInitCallback    : SRAM MspInit.
  81:Drivers/STM32F7xx_HAL_Driver/Src/stm32f7xx_hal_sram.c ****         (+) MspDeInitCallback  : SRAM MspDeInit.
  82:Drivers/STM32F7xx_HAL_Driver/Src/stm32f7xx_hal_sram.c ****       This function takes as parameters the HAL peripheral handle, the Callback ID
  83:Drivers/STM32F7xx_HAL_Driver/Src/stm32f7xx_hal_sram.c ****       and a pointer to the user callback function.
  84:Drivers/STM32F7xx_HAL_Driver/Src/stm32f7xx_hal_sram.c **** 
  85:Drivers/STM32F7xx_HAL_Driver/Src/stm32f7xx_hal_sram.c ****       Use function HAL_SRAM_UnRegisterCallback() to reset a callback to the default
  86:Drivers/STM32F7xx_HAL_Driver/Src/stm32f7xx_hal_sram.c ****       weak (overridden) function. It allows to reset following callbacks:
ARM GAS  C:\Users\benny\AppData\Local\Temp\ccwEP4Gk.s 			page 3


  87:Drivers/STM32F7xx_HAL_Driver/Src/stm32f7xx_hal_sram.c ****         (+) MspInitCallback    : SRAM MspInit.
  88:Drivers/STM32F7xx_HAL_Driver/Src/stm32f7xx_hal_sram.c ****         (+) MspDeInitCallback  : SRAM MspDeInit.
  89:Drivers/STM32F7xx_HAL_Driver/Src/stm32f7xx_hal_sram.c ****       This function) takes as parameters the HAL peripheral handle and the Callback ID.
  90:Drivers/STM32F7xx_HAL_Driver/Src/stm32f7xx_hal_sram.c **** 
  91:Drivers/STM32F7xx_HAL_Driver/Src/stm32f7xx_hal_sram.c ****       By default, after the HAL_SRAM_Init and if the state is HAL_SRAM_STATE_RESET
  92:Drivers/STM32F7xx_HAL_Driver/Src/stm32f7xx_hal_sram.c ****       all callbacks are reset to the corresponding legacy weak (overridden) functions.
  93:Drivers/STM32F7xx_HAL_Driver/Src/stm32f7xx_hal_sram.c ****       Exception done for MspInit and MspDeInit callbacks that are respectively
  94:Drivers/STM32F7xx_HAL_Driver/Src/stm32f7xx_hal_sram.c ****       reset to the legacy weak (overridden) functions in the HAL_SRAM_Init
  95:Drivers/STM32F7xx_HAL_Driver/Src/stm32f7xx_hal_sram.c ****       and  HAL_SRAM_DeInit only when these callbacks are null (not registered beforehand).
  96:Drivers/STM32F7xx_HAL_Driver/Src/stm32f7xx_hal_sram.c ****       If not, MspInit or MspDeInit are not null, the HAL_SRAM_Init and HAL_SRAM_DeInit
  97:Drivers/STM32F7xx_HAL_Driver/Src/stm32f7xx_hal_sram.c ****       keep and use the user MspInit/MspDeInit callbacks (registered beforehand)
  98:Drivers/STM32F7xx_HAL_Driver/Src/stm32f7xx_hal_sram.c **** 
  99:Drivers/STM32F7xx_HAL_Driver/Src/stm32f7xx_hal_sram.c ****       Callbacks can be registered/unregistered in READY state only.
 100:Drivers/STM32F7xx_HAL_Driver/Src/stm32f7xx_hal_sram.c ****       Exception done for MspInit/MspDeInit callbacks that can be registered/unregistered
 101:Drivers/STM32F7xx_HAL_Driver/Src/stm32f7xx_hal_sram.c ****       in READY or RESET state, thus registered (user) MspInit/DeInit callbacks can be used
 102:Drivers/STM32F7xx_HAL_Driver/Src/stm32f7xx_hal_sram.c ****       during the Init/DeInit.
 103:Drivers/STM32F7xx_HAL_Driver/Src/stm32f7xx_hal_sram.c ****       In that case first register the MspInit/MspDeInit user callbacks
 104:Drivers/STM32F7xx_HAL_Driver/Src/stm32f7xx_hal_sram.c ****       using HAL_SRAM_RegisterCallback before calling HAL_SRAM_DeInit
 105:Drivers/STM32F7xx_HAL_Driver/Src/stm32f7xx_hal_sram.c ****       or HAL_SRAM_Init function.
 106:Drivers/STM32F7xx_HAL_Driver/Src/stm32f7xx_hal_sram.c **** 
 107:Drivers/STM32F7xx_HAL_Driver/Src/stm32f7xx_hal_sram.c ****       When The compilation define USE_HAL_SRAM_REGISTER_CALLBACKS is set to 0 or
 108:Drivers/STM32F7xx_HAL_Driver/Src/stm32f7xx_hal_sram.c ****       not defined, the callback registering feature is not available
 109:Drivers/STM32F7xx_HAL_Driver/Src/stm32f7xx_hal_sram.c ****       and weak (overridden) callbacks are used.
 110:Drivers/STM32F7xx_HAL_Driver/Src/stm32f7xx_hal_sram.c **** 
 111:Drivers/STM32F7xx_HAL_Driver/Src/stm32f7xx_hal_sram.c ****   @endverbatim
 112:Drivers/STM32F7xx_HAL_Driver/Src/stm32f7xx_hal_sram.c ****   ******************************************************************************
 113:Drivers/STM32F7xx_HAL_Driver/Src/stm32f7xx_hal_sram.c ****   */
 114:Drivers/STM32F7xx_HAL_Driver/Src/stm32f7xx_hal_sram.c **** 
 115:Drivers/STM32F7xx_HAL_Driver/Src/stm32f7xx_hal_sram.c **** /* Includes ------------------------------------------------------------------*/
 116:Drivers/STM32F7xx_HAL_Driver/Src/stm32f7xx_hal_sram.c **** #include "stm32f7xx_hal.h"
 117:Drivers/STM32F7xx_HAL_Driver/Src/stm32f7xx_hal_sram.c **** 
 118:Drivers/STM32F7xx_HAL_Driver/Src/stm32f7xx_hal_sram.c **** 
 119:Drivers/STM32F7xx_HAL_Driver/Src/stm32f7xx_hal_sram.c **** /** @addtogroup STM32F7xx_HAL_Driver
 120:Drivers/STM32F7xx_HAL_Driver/Src/stm32f7xx_hal_sram.c ****   * @{
 121:Drivers/STM32F7xx_HAL_Driver/Src/stm32f7xx_hal_sram.c ****   */
 122:Drivers/STM32F7xx_HAL_Driver/Src/stm32f7xx_hal_sram.c **** 
 123:Drivers/STM32F7xx_HAL_Driver/Src/stm32f7xx_hal_sram.c **** #ifdef HAL_SRAM_MODULE_ENABLED
 124:Drivers/STM32F7xx_HAL_Driver/Src/stm32f7xx_hal_sram.c **** 
 125:Drivers/STM32F7xx_HAL_Driver/Src/stm32f7xx_hal_sram.c **** /** @defgroup SRAM SRAM
 126:Drivers/STM32F7xx_HAL_Driver/Src/stm32f7xx_hal_sram.c ****   * @brief SRAM driver modules
 127:Drivers/STM32F7xx_HAL_Driver/Src/stm32f7xx_hal_sram.c ****   * @{
 128:Drivers/STM32F7xx_HAL_Driver/Src/stm32f7xx_hal_sram.c ****   */
 129:Drivers/STM32F7xx_HAL_Driver/Src/stm32f7xx_hal_sram.c **** 
 130:Drivers/STM32F7xx_HAL_Driver/Src/stm32f7xx_hal_sram.c **** /* Private typedef -----------------------------------------------------------*/
 131:Drivers/STM32F7xx_HAL_Driver/Src/stm32f7xx_hal_sram.c **** /* Private define ------------------------------------------------------------*/
 132:Drivers/STM32F7xx_HAL_Driver/Src/stm32f7xx_hal_sram.c **** /* Private macro -------------------------------------------------------------*/
 133:Drivers/STM32F7xx_HAL_Driver/Src/stm32f7xx_hal_sram.c **** /* Private variables ---------------------------------------------------------*/
 134:Drivers/STM32F7xx_HAL_Driver/Src/stm32f7xx_hal_sram.c **** /* Private function prototypes -----------------------------------------------*/
 135:Drivers/STM32F7xx_HAL_Driver/Src/stm32f7xx_hal_sram.c **** /** @addtogroup SRAM_Private_Functions SRAM Private Functions
 136:Drivers/STM32F7xx_HAL_Driver/Src/stm32f7xx_hal_sram.c ****   * @{
 137:Drivers/STM32F7xx_HAL_Driver/Src/stm32f7xx_hal_sram.c ****   */
 138:Drivers/STM32F7xx_HAL_Driver/Src/stm32f7xx_hal_sram.c **** static void SRAM_DMACplt(DMA_HandleTypeDef *hdma);
 139:Drivers/STM32F7xx_HAL_Driver/Src/stm32f7xx_hal_sram.c **** static void SRAM_DMACpltProt(DMA_HandleTypeDef *hdma);
 140:Drivers/STM32F7xx_HAL_Driver/Src/stm32f7xx_hal_sram.c **** static void SRAM_DMAError(DMA_HandleTypeDef *hdma);
 141:Drivers/STM32F7xx_HAL_Driver/Src/stm32f7xx_hal_sram.c **** /**
 142:Drivers/STM32F7xx_HAL_Driver/Src/stm32f7xx_hal_sram.c ****   * @}
 143:Drivers/STM32F7xx_HAL_Driver/Src/stm32f7xx_hal_sram.c ****   */
ARM GAS  C:\Users\benny\AppData\Local\Temp\ccwEP4Gk.s 			page 4


 144:Drivers/STM32F7xx_HAL_Driver/Src/stm32f7xx_hal_sram.c **** 
 145:Drivers/STM32F7xx_HAL_Driver/Src/stm32f7xx_hal_sram.c **** /* Exported functions --------------------------------------------------------*/
 146:Drivers/STM32F7xx_HAL_Driver/Src/stm32f7xx_hal_sram.c **** 
 147:Drivers/STM32F7xx_HAL_Driver/Src/stm32f7xx_hal_sram.c **** /** @defgroup SRAM_Exported_Functions SRAM Exported Functions
 148:Drivers/STM32F7xx_HAL_Driver/Src/stm32f7xx_hal_sram.c ****   * @{
 149:Drivers/STM32F7xx_HAL_Driver/Src/stm32f7xx_hal_sram.c ****   */
 150:Drivers/STM32F7xx_HAL_Driver/Src/stm32f7xx_hal_sram.c **** 
 151:Drivers/STM32F7xx_HAL_Driver/Src/stm32f7xx_hal_sram.c **** /** @defgroup SRAM_Exported_Functions_Group1 Initialization and de-initialization functions
 152:Drivers/STM32F7xx_HAL_Driver/Src/stm32f7xx_hal_sram.c ****   * @brief    Initialization and Configuration functions.
 153:Drivers/STM32F7xx_HAL_Driver/Src/stm32f7xx_hal_sram.c ****   *
 154:Drivers/STM32F7xx_HAL_Driver/Src/stm32f7xx_hal_sram.c ****   @verbatim
 155:Drivers/STM32F7xx_HAL_Driver/Src/stm32f7xx_hal_sram.c ****   ==============================================================================
 156:Drivers/STM32F7xx_HAL_Driver/Src/stm32f7xx_hal_sram.c ****            ##### SRAM Initialization and de_initialization functions #####
 157:Drivers/STM32F7xx_HAL_Driver/Src/stm32f7xx_hal_sram.c ****   ==============================================================================
 158:Drivers/STM32F7xx_HAL_Driver/Src/stm32f7xx_hal_sram.c ****     [..]  This section provides functions allowing to initialize/de-initialize
 159:Drivers/STM32F7xx_HAL_Driver/Src/stm32f7xx_hal_sram.c ****           the SRAM memory
 160:Drivers/STM32F7xx_HAL_Driver/Src/stm32f7xx_hal_sram.c **** 
 161:Drivers/STM32F7xx_HAL_Driver/Src/stm32f7xx_hal_sram.c **** @endverbatim
 162:Drivers/STM32F7xx_HAL_Driver/Src/stm32f7xx_hal_sram.c ****   * @{
 163:Drivers/STM32F7xx_HAL_Driver/Src/stm32f7xx_hal_sram.c ****   */
 164:Drivers/STM32F7xx_HAL_Driver/Src/stm32f7xx_hal_sram.c **** 
 165:Drivers/STM32F7xx_HAL_Driver/Src/stm32f7xx_hal_sram.c **** /**
 166:Drivers/STM32F7xx_HAL_Driver/Src/stm32f7xx_hal_sram.c ****   * @brief  Performs the SRAM device initialization sequence
 167:Drivers/STM32F7xx_HAL_Driver/Src/stm32f7xx_hal_sram.c ****   * @param  hsram pointer to a SRAM_HandleTypeDef structure that contains
 168:Drivers/STM32F7xx_HAL_Driver/Src/stm32f7xx_hal_sram.c ****   *                the configuration information for SRAM module.
 169:Drivers/STM32F7xx_HAL_Driver/Src/stm32f7xx_hal_sram.c ****   * @param  Timing Pointer to SRAM control timing structure
 170:Drivers/STM32F7xx_HAL_Driver/Src/stm32f7xx_hal_sram.c ****   * @param  ExtTiming Pointer to SRAM extended mode timing structure
 171:Drivers/STM32F7xx_HAL_Driver/Src/stm32f7xx_hal_sram.c ****   * @retval HAL status
 172:Drivers/STM32F7xx_HAL_Driver/Src/stm32f7xx_hal_sram.c ****   */
 173:Drivers/STM32F7xx_HAL_Driver/Src/stm32f7xx_hal_sram.c **** HAL_StatusTypeDef HAL_SRAM_Init(SRAM_HandleTypeDef *hsram, FMC_NORSRAM_TimingTypeDef *Timing,
 174:Drivers/STM32F7xx_HAL_Driver/Src/stm32f7xx_hal_sram.c ****                                 FMC_NORSRAM_TimingTypeDef *ExtTiming)
 175:Drivers/STM32F7xx_HAL_Driver/Src/stm32f7xx_hal_sram.c **** {
 176:Drivers/STM32F7xx_HAL_Driver/Src/stm32f7xx_hal_sram.c ****   /* Check the SRAM handle parameter */
 177:Drivers/STM32F7xx_HAL_Driver/Src/stm32f7xx_hal_sram.c ****   if (hsram == NULL)
 178:Drivers/STM32F7xx_HAL_Driver/Src/stm32f7xx_hal_sram.c ****   {
 179:Drivers/STM32F7xx_HAL_Driver/Src/stm32f7xx_hal_sram.c ****     return HAL_ERROR;
 180:Drivers/STM32F7xx_HAL_Driver/Src/stm32f7xx_hal_sram.c ****   }
 181:Drivers/STM32F7xx_HAL_Driver/Src/stm32f7xx_hal_sram.c **** 
 182:Drivers/STM32F7xx_HAL_Driver/Src/stm32f7xx_hal_sram.c ****   if (hsram->State == HAL_SRAM_STATE_RESET)
 183:Drivers/STM32F7xx_HAL_Driver/Src/stm32f7xx_hal_sram.c ****   {
 184:Drivers/STM32F7xx_HAL_Driver/Src/stm32f7xx_hal_sram.c ****     /* Allocate lock resource and initialize it */
 185:Drivers/STM32F7xx_HAL_Driver/Src/stm32f7xx_hal_sram.c ****     hsram->Lock = HAL_UNLOCKED;
 186:Drivers/STM32F7xx_HAL_Driver/Src/stm32f7xx_hal_sram.c **** 
 187:Drivers/STM32F7xx_HAL_Driver/Src/stm32f7xx_hal_sram.c **** #if (USE_HAL_SRAM_REGISTER_CALLBACKS == 1)
 188:Drivers/STM32F7xx_HAL_Driver/Src/stm32f7xx_hal_sram.c ****     if (hsram->MspInitCallback == NULL)
 189:Drivers/STM32F7xx_HAL_Driver/Src/stm32f7xx_hal_sram.c ****     {
 190:Drivers/STM32F7xx_HAL_Driver/Src/stm32f7xx_hal_sram.c ****       hsram->MspInitCallback = HAL_SRAM_MspInit;
 191:Drivers/STM32F7xx_HAL_Driver/Src/stm32f7xx_hal_sram.c ****     }
 192:Drivers/STM32F7xx_HAL_Driver/Src/stm32f7xx_hal_sram.c ****     hsram->DmaXferCpltCallback = HAL_SRAM_DMA_XferCpltCallback;
 193:Drivers/STM32F7xx_HAL_Driver/Src/stm32f7xx_hal_sram.c ****     hsram->DmaXferErrorCallback = HAL_SRAM_DMA_XferErrorCallback;
 194:Drivers/STM32F7xx_HAL_Driver/Src/stm32f7xx_hal_sram.c **** 
 195:Drivers/STM32F7xx_HAL_Driver/Src/stm32f7xx_hal_sram.c ****     /* Init the low level hardware */
 196:Drivers/STM32F7xx_HAL_Driver/Src/stm32f7xx_hal_sram.c ****     hsram->MspInitCallback(hsram);
 197:Drivers/STM32F7xx_HAL_Driver/Src/stm32f7xx_hal_sram.c **** #else
 198:Drivers/STM32F7xx_HAL_Driver/Src/stm32f7xx_hal_sram.c ****     /* Initialize the low level hardware (MSP) */
 199:Drivers/STM32F7xx_HAL_Driver/Src/stm32f7xx_hal_sram.c ****     HAL_SRAM_MspInit(hsram);
 200:Drivers/STM32F7xx_HAL_Driver/Src/stm32f7xx_hal_sram.c **** #endif /* USE_HAL_SRAM_REGISTER_CALLBACKS */
ARM GAS  C:\Users\benny\AppData\Local\Temp\ccwEP4Gk.s 			page 5


 201:Drivers/STM32F7xx_HAL_Driver/Src/stm32f7xx_hal_sram.c ****   }
 202:Drivers/STM32F7xx_HAL_Driver/Src/stm32f7xx_hal_sram.c **** 
 203:Drivers/STM32F7xx_HAL_Driver/Src/stm32f7xx_hal_sram.c ****   /* Initialize SRAM control Interface */
 204:Drivers/STM32F7xx_HAL_Driver/Src/stm32f7xx_hal_sram.c ****   (void)FMC_NORSRAM_Init(hsram->Instance, &(hsram->Init));
 205:Drivers/STM32F7xx_HAL_Driver/Src/stm32f7xx_hal_sram.c **** 
 206:Drivers/STM32F7xx_HAL_Driver/Src/stm32f7xx_hal_sram.c ****   /* Initialize SRAM timing Interface */
 207:Drivers/STM32F7xx_HAL_Driver/Src/stm32f7xx_hal_sram.c ****   (void)FMC_NORSRAM_Timing_Init(hsram->Instance, Timing, hsram->Init.NSBank);
 208:Drivers/STM32F7xx_HAL_Driver/Src/stm32f7xx_hal_sram.c **** 
 209:Drivers/STM32F7xx_HAL_Driver/Src/stm32f7xx_hal_sram.c ****   /* Initialize SRAM extended mode timing Interface */
 210:Drivers/STM32F7xx_HAL_Driver/Src/stm32f7xx_hal_sram.c ****   (void)FMC_NORSRAM_Extended_Timing_Init(hsram->Extended, ExtTiming, hsram->Init.NSBank,
 211:Drivers/STM32F7xx_HAL_Driver/Src/stm32f7xx_hal_sram.c ****                                          hsram->Init.ExtendedMode);
 212:Drivers/STM32F7xx_HAL_Driver/Src/stm32f7xx_hal_sram.c **** 
 213:Drivers/STM32F7xx_HAL_Driver/Src/stm32f7xx_hal_sram.c ****   /* Enable the NORSRAM device */
 214:Drivers/STM32F7xx_HAL_Driver/Src/stm32f7xx_hal_sram.c ****   __FMC_NORSRAM_ENABLE(hsram->Instance, hsram->Init.NSBank);
 215:Drivers/STM32F7xx_HAL_Driver/Src/stm32f7xx_hal_sram.c **** 
 216:Drivers/STM32F7xx_HAL_Driver/Src/stm32f7xx_hal_sram.c ****   /* Initialize the SRAM controller state */
 217:Drivers/STM32F7xx_HAL_Driver/Src/stm32f7xx_hal_sram.c ****   hsram->State = HAL_SRAM_STATE_READY;
 218:Drivers/STM32F7xx_HAL_Driver/Src/stm32f7xx_hal_sram.c **** 
 219:Drivers/STM32F7xx_HAL_Driver/Src/stm32f7xx_hal_sram.c ****   return HAL_OK;
 220:Drivers/STM32F7xx_HAL_Driver/Src/stm32f7xx_hal_sram.c **** }
 221:Drivers/STM32F7xx_HAL_Driver/Src/stm32f7xx_hal_sram.c **** 
 222:Drivers/STM32F7xx_HAL_Driver/Src/stm32f7xx_hal_sram.c **** /**
 223:Drivers/STM32F7xx_HAL_Driver/Src/stm32f7xx_hal_sram.c ****   * @brief  Performs the SRAM device De-initialization sequence.
 224:Drivers/STM32F7xx_HAL_Driver/Src/stm32f7xx_hal_sram.c ****   * @param  hsram pointer to a SRAM_HandleTypeDef structure that contains
 225:Drivers/STM32F7xx_HAL_Driver/Src/stm32f7xx_hal_sram.c ****   *                the configuration information for SRAM module.
 226:Drivers/STM32F7xx_HAL_Driver/Src/stm32f7xx_hal_sram.c ****   * @retval HAL status
 227:Drivers/STM32F7xx_HAL_Driver/Src/stm32f7xx_hal_sram.c ****   */
 228:Drivers/STM32F7xx_HAL_Driver/Src/stm32f7xx_hal_sram.c **** HAL_StatusTypeDef HAL_SRAM_DeInit(SRAM_HandleTypeDef *hsram)
 229:Drivers/STM32F7xx_HAL_Driver/Src/stm32f7xx_hal_sram.c **** {
 230:Drivers/STM32F7xx_HAL_Driver/Src/stm32f7xx_hal_sram.c **** #if (USE_HAL_SRAM_REGISTER_CALLBACKS == 1)
 231:Drivers/STM32F7xx_HAL_Driver/Src/stm32f7xx_hal_sram.c ****   if (hsram->MspDeInitCallback == NULL)
 232:Drivers/STM32F7xx_HAL_Driver/Src/stm32f7xx_hal_sram.c ****   {
 233:Drivers/STM32F7xx_HAL_Driver/Src/stm32f7xx_hal_sram.c ****     hsram->MspDeInitCallback = HAL_SRAM_MspDeInit;
 234:Drivers/STM32F7xx_HAL_Driver/Src/stm32f7xx_hal_sram.c ****   }
 235:Drivers/STM32F7xx_HAL_Driver/Src/stm32f7xx_hal_sram.c **** 
 236:Drivers/STM32F7xx_HAL_Driver/Src/stm32f7xx_hal_sram.c ****   /* DeInit the low level hardware */
 237:Drivers/STM32F7xx_HAL_Driver/Src/stm32f7xx_hal_sram.c ****   hsram->MspDeInitCallback(hsram);
 238:Drivers/STM32F7xx_HAL_Driver/Src/stm32f7xx_hal_sram.c **** #else
 239:Drivers/STM32F7xx_HAL_Driver/Src/stm32f7xx_hal_sram.c ****   /* De-Initialize the low level hardware (MSP) */
 240:Drivers/STM32F7xx_HAL_Driver/Src/stm32f7xx_hal_sram.c ****   HAL_SRAM_MspDeInit(hsram);
 241:Drivers/STM32F7xx_HAL_Driver/Src/stm32f7xx_hal_sram.c **** #endif /* USE_HAL_SRAM_REGISTER_CALLBACKS */
 242:Drivers/STM32F7xx_HAL_Driver/Src/stm32f7xx_hal_sram.c **** 
 243:Drivers/STM32F7xx_HAL_Driver/Src/stm32f7xx_hal_sram.c ****   /* Configure the SRAM registers with their reset values */
 244:Drivers/STM32F7xx_HAL_Driver/Src/stm32f7xx_hal_sram.c ****   (void)FMC_NORSRAM_DeInit(hsram->Instance, hsram->Extended, hsram->Init.NSBank);
 245:Drivers/STM32F7xx_HAL_Driver/Src/stm32f7xx_hal_sram.c **** 
 246:Drivers/STM32F7xx_HAL_Driver/Src/stm32f7xx_hal_sram.c ****   /* Reset the SRAM controller state */
 247:Drivers/STM32F7xx_HAL_Driver/Src/stm32f7xx_hal_sram.c ****   hsram->State = HAL_SRAM_STATE_RESET;
 248:Drivers/STM32F7xx_HAL_Driver/Src/stm32f7xx_hal_sram.c **** 
 249:Drivers/STM32F7xx_HAL_Driver/Src/stm32f7xx_hal_sram.c ****   /* Release Lock */
 250:Drivers/STM32F7xx_HAL_Driver/Src/stm32f7xx_hal_sram.c ****   __HAL_UNLOCK(hsram);
 251:Drivers/STM32F7xx_HAL_Driver/Src/stm32f7xx_hal_sram.c **** 
 252:Drivers/STM32F7xx_HAL_Driver/Src/stm32f7xx_hal_sram.c ****   return HAL_OK;
 253:Drivers/STM32F7xx_HAL_Driver/Src/stm32f7xx_hal_sram.c **** }
 254:Drivers/STM32F7xx_HAL_Driver/Src/stm32f7xx_hal_sram.c **** 
 255:Drivers/STM32F7xx_HAL_Driver/Src/stm32f7xx_hal_sram.c **** /**
 256:Drivers/STM32F7xx_HAL_Driver/Src/stm32f7xx_hal_sram.c ****   * @brief  SRAM MSP Init.
 257:Drivers/STM32F7xx_HAL_Driver/Src/stm32f7xx_hal_sram.c ****   * @param  hsram pointer to a SRAM_HandleTypeDef structure that contains
ARM GAS  C:\Users\benny\AppData\Local\Temp\ccwEP4Gk.s 			page 6


 258:Drivers/STM32F7xx_HAL_Driver/Src/stm32f7xx_hal_sram.c ****   *                the configuration information for SRAM module.
 259:Drivers/STM32F7xx_HAL_Driver/Src/stm32f7xx_hal_sram.c ****   * @retval None
 260:Drivers/STM32F7xx_HAL_Driver/Src/stm32f7xx_hal_sram.c ****   */
 261:Drivers/STM32F7xx_HAL_Driver/Src/stm32f7xx_hal_sram.c **** __weak void HAL_SRAM_MspInit(SRAM_HandleTypeDef *hsram)
 262:Drivers/STM32F7xx_HAL_Driver/Src/stm32f7xx_hal_sram.c **** {
  30              		.loc 1 262 1 view -0
  31              		.cfi_startproc
  32              		@ args = 0, pretend = 0, frame = 0
  33              		@ frame_needed = 0, uses_anonymous_args = 0
  34              		@ link register save eliminated.
 263:Drivers/STM32F7xx_HAL_Driver/Src/stm32f7xx_hal_sram.c ****   /* Prevent unused argument(s) compilation warning */
 264:Drivers/STM32F7xx_HAL_Driver/Src/stm32f7xx_hal_sram.c ****   UNUSED(hsram);
  35              		.loc 1 264 3 view .LVU1
 265:Drivers/STM32F7xx_HAL_Driver/Src/stm32f7xx_hal_sram.c **** 
 266:Drivers/STM32F7xx_HAL_Driver/Src/stm32f7xx_hal_sram.c ****   /* NOTE : This function Should not be modified, when the callback is needed,
 267:Drivers/STM32F7xx_HAL_Driver/Src/stm32f7xx_hal_sram.c ****             the HAL_SRAM_MspInit could be implemented in the user file
 268:Drivers/STM32F7xx_HAL_Driver/Src/stm32f7xx_hal_sram.c ****    */
 269:Drivers/STM32F7xx_HAL_Driver/Src/stm32f7xx_hal_sram.c **** }
  36              		.loc 1 269 1 is_stmt 0 view .LVU2
  37 0000 7047     		bx	lr
  38              		.cfi_endproc
  39              	.LFE143:
  41              		.section	.text.HAL_SRAM_Init,"ax",%progbits
  42              		.align	1
  43              		.global	HAL_SRAM_Init
  44              		.syntax unified
  45              		.thumb
  46              		.thumb_func
  48              	HAL_SRAM_Init:
  49              	.LVL1:
  50              	.LFB141:
 175:Drivers/STM32F7xx_HAL_Driver/Src/stm32f7xx_hal_sram.c ****   /* Check the SRAM handle parameter */
  51              		.loc 1 175 1 is_stmt 1 view -0
  52              		.cfi_startproc
  53              		@ args = 0, pretend = 0, frame = 0
  54              		@ frame_needed = 0, uses_anonymous_args = 0
 177:Drivers/STM32F7xx_HAL_Driver/Src/stm32f7xx_hal_sram.c ****   {
  55              		.loc 1 177 3 view .LVU4
 177:Drivers/STM32F7xx_HAL_Driver/Src/stm32f7xx_hal_sram.c ****   {
  56              		.loc 1 177 6 is_stmt 0 view .LVU5
  57 0000 40B3     		cbz	r0, .L5
 175:Drivers/STM32F7xx_HAL_Driver/Src/stm32f7xx_hal_sram.c ****   /* Check the SRAM handle parameter */
  58              		.loc 1 175 1 view .LVU6
  59 0002 70B5     		push	{r4, r5, r6, lr}
  60              	.LCFI0:
  61              		.cfi_def_cfa_offset 16
  62              		.cfi_offset 4, -16
  63              		.cfi_offset 5, -12
  64              		.cfi_offset 6, -8
  65              		.cfi_offset 14, -4
  66 0004 0E46     		mov	r6, r1
  67 0006 1546     		mov	r5, r2
  68 0008 0446     		mov	r4, r0
 182:Drivers/STM32F7xx_HAL_Driver/Src/stm32f7xx_hal_sram.c ****   {
  69              		.loc 1 182 3 is_stmt 1 view .LVU7
 182:Drivers/STM32F7xx_HAL_Driver/Src/stm32f7xx_hal_sram.c ****   {
  70              		.loc 1 182 12 is_stmt 0 view .LVU8
ARM GAS  C:\Users\benny\AppData\Local\Temp\ccwEP4Gk.s 			page 7


  71 000a 90F84530 		ldrb	r3, [r0, #69]	@ zero_extendqisi2
 182:Drivers/STM32F7xx_HAL_Driver/Src/stm32f7xx_hal_sram.c ****   {
  72              		.loc 1 182 6 view .LVU9
  73 000e E3B1     		cbz	r3, .L10
  74              	.LVL2:
  75              	.L4:
 204:Drivers/STM32F7xx_HAL_Driver/Src/stm32f7xx_hal_sram.c **** 
  76              		.loc 1 204 3 is_stmt 1 view .LVU10
 204:Drivers/STM32F7xx_HAL_Driver/Src/stm32f7xx_hal_sram.c **** 
  77              		.loc 1 204 9 is_stmt 0 view .LVU11
  78 0010 2146     		mov	r1, r4
  79 0012 51F8080B 		ldr	r0, [r1], #8
  80 0016 FFF7FEFF 		bl	FMC_NORSRAM_Init
  81              	.LVL3:
 207:Drivers/STM32F7xx_HAL_Driver/Src/stm32f7xx_hal_sram.c **** 
  82              		.loc 1 207 3 is_stmt 1 view .LVU12
 207:Drivers/STM32F7xx_HAL_Driver/Src/stm32f7xx_hal_sram.c **** 
  83              		.loc 1 207 9 is_stmt 0 view .LVU13
  84 001a A268     		ldr	r2, [r4, #8]
  85 001c 3146     		mov	r1, r6
  86 001e 2068     		ldr	r0, [r4]
  87 0020 FFF7FEFF 		bl	FMC_NORSRAM_Timing_Init
  88              	.LVL4:
 210:Drivers/STM32F7xx_HAL_Driver/Src/stm32f7xx_hal_sram.c ****                                          hsram->Init.ExtendedMode);
  89              		.loc 1 210 3 is_stmt 1 view .LVU14
 210:Drivers/STM32F7xx_HAL_Driver/Src/stm32f7xx_hal_sram.c ****                                          hsram->Init.ExtendedMode);
  90              		.loc 1 210 9 is_stmt 0 view .LVU15
  91 0024 E36A     		ldr	r3, [r4, #44]
  92 0026 A268     		ldr	r2, [r4, #8]
  93 0028 2946     		mov	r1, r5
  94 002a 6068     		ldr	r0, [r4, #4]
  95 002c FFF7FEFF 		bl	FMC_NORSRAM_Extended_Timing_Init
  96              	.LVL5:
 214:Drivers/STM32F7xx_HAL_Driver/Src/stm32f7xx_hal_sram.c **** 
  97              		.loc 1 214 3 is_stmt 1 view .LVU16
  98 0030 2268     		ldr	r2, [r4]
  99 0032 A168     		ldr	r1, [r4, #8]
 100 0034 52F82130 		ldr	r3, [r2, r1, lsl #2]
 101 0038 43F00103 		orr	r3, r3, #1
 102 003c 42F82130 		str	r3, [r2, r1, lsl #2]
 217:Drivers/STM32F7xx_HAL_Driver/Src/stm32f7xx_hal_sram.c **** 
 103              		.loc 1 217 3 view .LVU17
 217:Drivers/STM32F7xx_HAL_Driver/Src/stm32f7xx_hal_sram.c **** 
 104              		.loc 1 217 16 is_stmt 0 view .LVU18
 105 0040 0123     		movs	r3, #1
 106 0042 84F84530 		strb	r3, [r4, #69]
 219:Drivers/STM32F7xx_HAL_Driver/Src/stm32f7xx_hal_sram.c **** }
 107              		.loc 1 219 3 is_stmt 1 view .LVU19
 219:Drivers/STM32F7xx_HAL_Driver/Src/stm32f7xx_hal_sram.c **** }
 108              		.loc 1 219 10 is_stmt 0 view .LVU20
 109 0046 0020     		movs	r0, #0
 220:Drivers/STM32F7xx_HAL_Driver/Src/stm32f7xx_hal_sram.c **** 
 110              		.loc 1 220 1 view .LVU21
 111 0048 70BD     		pop	{r4, r5, r6, pc}
 112              	.LVL6:
 113              	.L10:
 185:Drivers/STM32F7xx_HAL_Driver/Src/stm32f7xx_hal_sram.c **** 
ARM GAS  C:\Users\benny\AppData\Local\Temp\ccwEP4Gk.s 			page 8


 114              		.loc 1 185 5 is_stmt 1 view .LVU22
 185:Drivers/STM32F7xx_HAL_Driver/Src/stm32f7xx_hal_sram.c **** 
 115              		.loc 1 185 17 is_stmt 0 view .LVU23
 116 004a 80F84430 		strb	r3, [r0, #68]
 199:Drivers/STM32F7xx_HAL_Driver/Src/stm32f7xx_hal_sram.c **** #endif /* USE_HAL_SRAM_REGISTER_CALLBACKS */
 117              		.loc 1 199 5 is_stmt 1 view .LVU24
 118 004e FFF7FEFF 		bl	HAL_SRAM_MspInit
 119              	.LVL7:
 199:Drivers/STM32F7xx_HAL_Driver/Src/stm32f7xx_hal_sram.c **** #endif /* USE_HAL_SRAM_REGISTER_CALLBACKS */
 120              		.loc 1 199 5 is_stmt 0 view .LVU25
 121 0052 DDE7     		b	.L4
 122              	.LVL8:
 123              	.L5:
 124              	.LCFI1:
 125              		.cfi_def_cfa_offset 0
 126              		.cfi_restore 4
 127              		.cfi_restore 5
 128              		.cfi_restore 6
 129              		.cfi_restore 14
 179:Drivers/STM32F7xx_HAL_Driver/Src/stm32f7xx_hal_sram.c ****   }
 130              		.loc 1 179 12 view .LVU26
 131 0054 0120     		movs	r0, #1
 132              	.LVL9:
 220:Drivers/STM32F7xx_HAL_Driver/Src/stm32f7xx_hal_sram.c **** 
 133              		.loc 1 220 1 view .LVU27
 134 0056 7047     		bx	lr
 135              		.cfi_endproc
 136              	.LFE141:
 138              		.section	.text.HAL_SRAM_MspDeInit,"ax",%progbits
 139              		.align	1
 140              		.weak	HAL_SRAM_MspDeInit
 141              		.syntax unified
 142              		.thumb
 143              		.thumb_func
 145              	HAL_SRAM_MspDeInit:
 146              	.LVL10:
 147              	.LFB144:
 270:Drivers/STM32F7xx_HAL_Driver/Src/stm32f7xx_hal_sram.c **** 
 271:Drivers/STM32F7xx_HAL_Driver/Src/stm32f7xx_hal_sram.c **** /**
 272:Drivers/STM32F7xx_HAL_Driver/Src/stm32f7xx_hal_sram.c ****   * @brief  SRAM MSP DeInit.
 273:Drivers/STM32F7xx_HAL_Driver/Src/stm32f7xx_hal_sram.c ****   * @param  hsram pointer to a SRAM_HandleTypeDef structure that contains
 274:Drivers/STM32F7xx_HAL_Driver/Src/stm32f7xx_hal_sram.c ****   *                the configuration information for SRAM module.
 275:Drivers/STM32F7xx_HAL_Driver/Src/stm32f7xx_hal_sram.c ****   * @retval None
 276:Drivers/STM32F7xx_HAL_Driver/Src/stm32f7xx_hal_sram.c ****   */
 277:Drivers/STM32F7xx_HAL_Driver/Src/stm32f7xx_hal_sram.c **** __weak void HAL_SRAM_MspDeInit(SRAM_HandleTypeDef *hsram)
 278:Drivers/STM32F7xx_HAL_Driver/Src/stm32f7xx_hal_sram.c **** {
 148              		.loc 1 278 1 is_stmt 1 view -0
 149              		.cfi_startproc
 150              		@ args = 0, pretend = 0, frame = 0
 151              		@ frame_needed = 0, uses_anonymous_args = 0
 152              		@ link register save eliminated.
 279:Drivers/STM32F7xx_HAL_Driver/Src/stm32f7xx_hal_sram.c ****   /* Prevent unused argument(s) compilation warning */
 280:Drivers/STM32F7xx_HAL_Driver/Src/stm32f7xx_hal_sram.c ****   UNUSED(hsram);
 153              		.loc 1 280 3 view .LVU29
 281:Drivers/STM32F7xx_HAL_Driver/Src/stm32f7xx_hal_sram.c **** 
 282:Drivers/STM32F7xx_HAL_Driver/Src/stm32f7xx_hal_sram.c ****   /* NOTE : This function Should not be modified, when the callback is needed,
 283:Drivers/STM32F7xx_HAL_Driver/Src/stm32f7xx_hal_sram.c ****             the HAL_SRAM_MspDeInit could be implemented in the user file
ARM GAS  C:\Users\benny\AppData\Local\Temp\ccwEP4Gk.s 			page 9


 284:Drivers/STM32F7xx_HAL_Driver/Src/stm32f7xx_hal_sram.c ****    */
 285:Drivers/STM32F7xx_HAL_Driver/Src/stm32f7xx_hal_sram.c **** }
 154              		.loc 1 285 1 is_stmt 0 view .LVU30
 155 0000 7047     		bx	lr
 156              		.cfi_endproc
 157              	.LFE144:
 159              		.section	.text.HAL_SRAM_DeInit,"ax",%progbits
 160              		.align	1
 161              		.global	HAL_SRAM_DeInit
 162              		.syntax unified
 163              		.thumb
 164              		.thumb_func
 166              	HAL_SRAM_DeInit:
 167              	.LVL11:
 168              	.LFB142:
 229:Drivers/STM32F7xx_HAL_Driver/Src/stm32f7xx_hal_sram.c **** #if (USE_HAL_SRAM_REGISTER_CALLBACKS == 1)
 169              		.loc 1 229 1 is_stmt 1 view -0
 170              		.cfi_startproc
 171              		@ args = 0, pretend = 0, frame = 0
 172              		@ frame_needed = 0, uses_anonymous_args = 0
 229:Drivers/STM32F7xx_HAL_Driver/Src/stm32f7xx_hal_sram.c **** #if (USE_HAL_SRAM_REGISTER_CALLBACKS == 1)
 173              		.loc 1 229 1 is_stmt 0 view .LVU32
 174 0000 10B5     		push	{r4, lr}
 175              	.LCFI2:
 176              		.cfi_def_cfa_offset 8
 177              		.cfi_offset 4, -8
 178              		.cfi_offset 14, -4
 179 0002 0446     		mov	r4, r0
 240:Drivers/STM32F7xx_HAL_Driver/Src/stm32f7xx_hal_sram.c **** #endif /* USE_HAL_SRAM_REGISTER_CALLBACKS */
 180              		.loc 1 240 3 is_stmt 1 view .LVU33
 181 0004 FFF7FEFF 		bl	HAL_SRAM_MspDeInit
 182              	.LVL12:
 244:Drivers/STM32F7xx_HAL_Driver/Src/stm32f7xx_hal_sram.c **** 
 183              		.loc 1 244 3 view .LVU34
 244:Drivers/STM32F7xx_HAL_Driver/Src/stm32f7xx_hal_sram.c **** 
 184              		.loc 1 244 9 is_stmt 0 view .LVU35
 185 0008 A268     		ldr	r2, [r4, #8]
 186 000a 6168     		ldr	r1, [r4, #4]
 187 000c 2068     		ldr	r0, [r4]
 188 000e FFF7FEFF 		bl	FMC_NORSRAM_DeInit
 189              	.LVL13:
 247:Drivers/STM32F7xx_HAL_Driver/Src/stm32f7xx_hal_sram.c **** 
 190              		.loc 1 247 3 is_stmt 1 view .LVU36
 247:Drivers/STM32F7xx_HAL_Driver/Src/stm32f7xx_hal_sram.c **** 
 191              		.loc 1 247 16 is_stmt 0 view .LVU37
 192 0012 0020     		movs	r0, #0
 193 0014 84F84500 		strb	r0, [r4, #69]
 250:Drivers/STM32F7xx_HAL_Driver/Src/stm32f7xx_hal_sram.c **** 
 194              		.loc 1 250 3 is_stmt 1 view .LVU38
 250:Drivers/STM32F7xx_HAL_Driver/Src/stm32f7xx_hal_sram.c **** 
 195              		.loc 1 250 3 view .LVU39
 196 0018 84F84400 		strb	r0, [r4, #68]
 250:Drivers/STM32F7xx_HAL_Driver/Src/stm32f7xx_hal_sram.c **** 
 197              		.loc 1 250 3 view .LVU40
 252:Drivers/STM32F7xx_HAL_Driver/Src/stm32f7xx_hal_sram.c **** }
 198              		.loc 1 252 3 view .LVU41
 253:Drivers/STM32F7xx_HAL_Driver/Src/stm32f7xx_hal_sram.c **** 
ARM GAS  C:\Users\benny\AppData\Local\Temp\ccwEP4Gk.s 			page 10


 199              		.loc 1 253 1 is_stmt 0 view .LVU42
 200 001c 10BD     		pop	{r4, pc}
 253:Drivers/STM32F7xx_HAL_Driver/Src/stm32f7xx_hal_sram.c **** 
 201              		.loc 1 253 1 view .LVU43
 202              		.cfi_endproc
 203              	.LFE142:
 205              		.section	.text.HAL_SRAM_DMA_XferCpltCallback,"ax",%progbits
 206              		.align	1
 207              		.weak	HAL_SRAM_DMA_XferCpltCallback
 208              		.syntax unified
 209              		.thumb
 210              		.thumb_func
 212              	HAL_SRAM_DMA_XferCpltCallback:
 213              	.LVL14:
 214              	.LFB145:
 286:Drivers/STM32F7xx_HAL_Driver/Src/stm32f7xx_hal_sram.c **** 
 287:Drivers/STM32F7xx_HAL_Driver/Src/stm32f7xx_hal_sram.c **** /**
 288:Drivers/STM32F7xx_HAL_Driver/Src/stm32f7xx_hal_sram.c ****   * @brief  DMA transfer complete callback.
 289:Drivers/STM32F7xx_HAL_Driver/Src/stm32f7xx_hal_sram.c ****   * @param  hdma pointer to a SRAM_HandleTypeDef structure that contains
 290:Drivers/STM32F7xx_HAL_Driver/Src/stm32f7xx_hal_sram.c ****   *                the configuration information for SRAM module.
 291:Drivers/STM32F7xx_HAL_Driver/Src/stm32f7xx_hal_sram.c ****   * @retval None
 292:Drivers/STM32F7xx_HAL_Driver/Src/stm32f7xx_hal_sram.c ****   */
 293:Drivers/STM32F7xx_HAL_Driver/Src/stm32f7xx_hal_sram.c **** __weak void HAL_SRAM_DMA_XferCpltCallback(DMA_HandleTypeDef *hdma)
 294:Drivers/STM32F7xx_HAL_Driver/Src/stm32f7xx_hal_sram.c **** {
 215              		.loc 1 294 1 is_stmt 1 view -0
 216              		.cfi_startproc
 217              		@ args = 0, pretend = 0, frame = 0
 218              		@ frame_needed = 0, uses_anonymous_args = 0
 219              		@ link register save eliminated.
 295:Drivers/STM32F7xx_HAL_Driver/Src/stm32f7xx_hal_sram.c ****   /* Prevent unused argument(s) compilation warning */
 296:Drivers/STM32F7xx_HAL_Driver/Src/stm32f7xx_hal_sram.c ****   UNUSED(hdma);
 220              		.loc 1 296 3 view .LVU45
 297:Drivers/STM32F7xx_HAL_Driver/Src/stm32f7xx_hal_sram.c **** 
 298:Drivers/STM32F7xx_HAL_Driver/Src/stm32f7xx_hal_sram.c ****   /* NOTE : This function Should not be modified, when the callback is needed,
 299:Drivers/STM32F7xx_HAL_Driver/Src/stm32f7xx_hal_sram.c ****             the HAL_SRAM_DMA_XferCpltCallback could be implemented in the user file
 300:Drivers/STM32F7xx_HAL_Driver/Src/stm32f7xx_hal_sram.c ****    */
 301:Drivers/STM32F7xx_HAL_Driver/Src/stm32f7xx_hal_sram.c **** }
 221              		.loc 1 301 1 is_stmt 0 view .LVU46
 222 0000 7047     		bx	lr
 223              		.cfi_endproc
 224              	.LFE145:
 226              		.section	.text.SRAM_DMACpltProt,"ax",%progbits
 227              		.align	1
 228              		.syntax unified
 229              		.thumb
 230              		.thumb_func
 232              	SRAM_DMACpltProt:
 233              	.LVL15:
 234              	.LFB159:
 302:Drivers/STM32F7xx_HAL_Driver/Src/stm32f7xx_hal_sram.c **** 
 303:Drivers/STM32F7xx_HAL_Driver/Src/stm32f7xx_hal_sram.c **** /**
 304:Drivers/STM32F7xx_HAL_Driver/Src/stm32f7xx_hal_sram.c ****   * @brief  DMA transfer complete error callback.
 305:Drivers/STM32F7xx_HAL_Driver/Src/stm32f7xx_hal_sram.c ****   * @param  hdma pointer to a SRAM_HandleTypeDef structure that contains
 306:Drivers/STM32F7xx_HAL_Driver/Src/stm32f7xx_hal_sram.c ****   *                the configuration information for SRAM module.
 307:Drivers/STM32F7xx_HAL_Driver/Src/stm32f7xx_hal_sram.c ****   * @retval None
 308:Drivers/STM32F7xx_HAL_Driver/Src/stm32f7xx_hal_sram.c ****   */
 309:Drivers/STM32F7xx_HAL_Driver/Src/stm32f7xx_hal_sram.c **** __weak void HAL_SRAM_DMA_XferErrorCallback(DMA_HandleTypeDef *hdma)
ARM GAS  C:\Users\benny\AppData\Local\Temp\ccwEP4Gk.s 			page 11


 310:Drivers/STM32F7xx_HAL_Driver/Src/stm32f7xx_hal_sram.c **** {
 311:Drivers/STM32F7xx_HAL_Driver/Src/stm32f7xx_hal_sram.c ****   /* Prevent unused argument(s) compilation warning */
 312:Drivers/STM32F7xx_HAL_Driver/Src/stm32f7xx_hal_sram.c ****   UNUSED(hdma);
 313:Drivers/STM32F7xx_HAL_Driver/Src/stm32f7xx_hal_sram.c **** 
 314:Drivers/STM32F7xx_HAL_Driver/Src/stm32f7xx_hal_sram.c ****   /* NOTE : This function Should not be modified, when the callback is needed,
 315:Drivers/STM32F7xx_HAL_Driver/Src/stm32f7xx_hal_sram.c ****             the HAL_SRAM_DMA_XferErrorCallback could be implemented in the user file
 316:Drivers/STM32F7xx_HAL_Driver/Src/stm32f7xx_hal_sram.c ****    */
 317:Drivers/STM32F7xx_HAL_Driver/Src/stm32f7xx_hal_sram.c **** }
 318:Drivers/STM32F7xx_HAL_Driver/Src/stm32f7xx_hal_sram.c **** 
 319:Drivers/STM32F7xx_HAL_Driver/Src/stm32f7xx_hal_sram.c **** /**
 320:Drivers/STM32F7xx_HAL_Driver/Src/stm32f7xx_hal_sram.c ****   * @}
 321:Drivers/STM32F7xx_HAL_Driver/Src/stm32f7xx_hal_sram.c ****   */
 322:Drivers/STM32F7xx_HAL_Driver/Src/stm32f7xx_hal_sram.c **** 
 323:Drivers/STM32F7xx_HAL_Driver/Src/stm32f7xx_hal_sram.c **** /** @defgroup SRAM_Exported_Functions_Group2 Input Output and memory control functions
 324:Drivers/STM32F7xx_HAL_Driver/Src/stm32f7xx_hal_sram.c ****   * @brief    Input Output and memory control functions
 325:Drivers/STM32F7xx_HAL_Driver/Src/stm32f7xx_hal_sram.c ****   *
 326:Drivers/STM32F7xx_HAL_Driver/Src/stm32f7xx_hal_sram.c ****   @verbatim
 327:Drivers/STM32F7xx_HAL_Driver/Src/stm32f7xx_hal_sram.c ****   ==============================================================================
 328:Drivers/STM32F7xx_HAL_Driver/Src/stm32f7xx_hal_sram.c ****                   ##### SRAM Input and Output functions #####
 329:Drivers/STM32F7xx_HAL_Driver/Src/stm32f7xx_hal_sram.c ****   ==============================================================================
 330:Drivers/STM32F7xx_HAL_Driver/Src/stm32f7xx_hal_sram.c ****   [..]
 331:Drivers/STM32F7xx_HAL_Driver/Src/stm32f7xx_hal_sram.c ****     This section provides functions allowing to use and control the SRAM memory
 332:Drivers/STM32F7xx_HAL_Driver/Src/stm32f7xx_hal_sram.c **** 
 333:Drivers/STM32F7xx_HAL_Driver/Src/stm32f7xx_hal_sram.c **** @endverbatim
 334:Drivers/STM32F7xx_HAL_Driver/Src/stm32f7xx_hal_sram.c ****   * @{
 335:Drivers/STM32F7xx_HAL_Driver/Src/stm32f7xx_hal_sram.c ****   */
 336:Drivers/STM32F7xx_HAL_Driver/Src/stm32f7xx_hal_sram.c **** 
 337:Drivers/STM32F7xx_HAL_Driver/Src/stm32f7xx_hal_sram.c **** /**
 338:Drivers/STM32F7xx_HAL_Driver/Src/stm32f7xx_hal_sram.c ****   * @brief  Reads 8-bit buffer from SRAM memory.
 339:Drivers/STM32F7xx_HAL_Driver/Src/stm32f7xx_hal_sram.c ****   * @param  hsram pointer to a SRAM_HandleTypeDef structure that contains
 340:Drivers/STM32F7xx_HAL_Driver/Src/stm32f7xx_hal_sram.c ****   *                the configuration information for SRAM module.
 341:Drivers/STM32F7xx_HAL_Driver/Src/stm32f7xx_hal_sram.c ****   * @param  pAddress Pointer to read start address
 342:Drivers/STM32F7xx_HAL_Driver/Src/stm32f7xx_hal_sram.c ****   * @param  pDstBuffer Pointer to destination buffer
 343:Drivers/STM32F7xx_HAL_Driver/Src/stm32f7xx_hal_sram.c ****   * @param  BufferSize Size of the buffer to read from memory
 344:Drivers/STM32F7xx_HAL_Driver/Src/stm32f7xx_hal_sram.c ****   * @retval HAL status
 345:Drivers/STM32F7xx_HAL_Driver/Src/stm32f7xx_hal_sram.c ****   */
 346:Drivers/STM32F7xx_HAL_Driver/Src/stm32f7xx_hal_sram.c **** HAL_StatusTypeDef HAL_SRAM_Read_8b(SRAM_HandleTypeDef *hsram, uint32_t *pAddress, uint8_t *pDstBuff
 347:Drivers/STM32F7xx_HAL_Driver/Src/stm32f7xx_hal_sram.c ****                                    uint32_t BufferSize)
 348:Drivers/STM32F7xx_HAL_Driver/Src/stm32f7xx_hal_sram.c **** {
 349:Drivers/STM32F7xx_HAL_Driver/Src/stm32f7xx_hal_sram.c ****   uint32_t size;
 350:Drivers/STM32F7xx_HAL_Driver/Src/stm32f7xx_hal_sram.c ****   __IO uint8_t *psramaddress = (uint8_t *)pAddress;
 351:Drivers/STM32F7xx_HAL_Driver/Src/stm32f7xx_hal_sram.c ****   uint8_t *pdestbuff = pDstBuffer;
 352:Drivers/STM32F7xx_HAL_Driver/Src/stm32f7xx_hal_sram.c ****   HAL_SRAM_StateTypeDef state = hsram->State;
 353:Drivers/STM32F7xx_HAL_Driver/Src/stm32f7xx_hal_sram.c **** 
 354:Drivers/STM32F7xx_HAL_Driver/Src/stm32f7xx_hal_sram.c ****   /* Check the SRAM controller state */
 355:Drivers/STM32F7xx_HAL_Driver/Src/stm32f7xx_hal_sram.c ****   if ((state == HAL_SRAM_STATE_READY) || (state == HAL_SRAM_STATE_PROTECTED))
 356:Drivers/STM32F7xx_HAL_Driver/Src/stm32f7xx_hal_sram.c ****   {
 357:Drivers/STM32F7xx_HAL_Driver/Src/stm32f7xx_hal_sram.c ****     /* Process Locked */
 358:Drivers/STM32F7xx_HAL_Driver/Src/stm32f7xx_hal_sram.c ****     __HAL_LOCK(hsram);
 359:Drivers/STM32F7xx_HAL_Driver/Src/stm32f7xx_hal_sram.c **** 
 360:Drivers/STM32F7xx_HAL_Driver/Src/stm32f7xx_hal_sram.c ****     /* Update the SRAM controller state */
 361:Drivers/STM32F7xx_HAL_Driver/Src/stm32f7xx_hal_sram.c ****     hsram->State = HAL_SRAM_STATE_BUSY;
 362:Drivers/STM32F7xx_HAL_Driver/Src/stm32f7xx_hal_sram.c **** 
 363:Drivers/STM32F7xx_HAL_Driver/Src/stm32f7xx_hal_sram.c ****     /* Read data from memory */
 364:Drivers/STM32F7xx_HAL_Driver/Src/stm32f7xx_hal_sram.c ****     for (size = BufferSize; size != 0U; size--)
 365:Drivers/STM32F7xx_HAL_Driver/Src/stm32f7xx_hal_sram.c ****     {
 366:Drivers/STM32F7xx_HAL_Driver/Src/stm32f7xx_hal_sram.c ****       *pdestbuff = *psramaddress;
ARM GAS  C:\Users\benny\AppData\Local\Temp\ccwEP4Gk.s 			page 12


 367:Drivers/STM32F7xx_HAL_Driver/Src/stm32f7xx_hal_sram.c ****       pdestbuff++;
 368:Drivers/STM32F7xx_HAL_Driver/Src/stm32f7xx_hal_sram.c ****       psramaddress++;
 369:Drivers/STM32F7xx_HAL_Driver/Src/stm32f7xx_hal_sram.c ****     }
 370:Drivers/STM32F7xx_HAL_Driver/Src/stm32f7xx_hal_sram.c **** 
 371:Drivers/STM32F7xx_HAL_Driver/Src/stm32f7xx_hal_sram.c ****     /* Update the SRAM controller state */
 372:Drivers/STM32F7xx_HAL_Driver/Src/stm32f7xx_hal_sram.c ****     hsram->State = state;
 373:Drivers/STM32F7xx_HAL_Driver/Src/stm32f7xx_hal_sram.c **** 
 374:Drivers/STM32F7xx_HAL_Driver/Src/stm32f7xx_hal_sram.c ****     /* Process unlocked */
 375:Drivers/STM32F7xx_HAL_Driver/Src/stm32f7xx_hal_sram.c ****     __HAL_UNLOCK(hsram);
 376:Drivers/STM32F7xx_HAL_Driver/Src/stm32f7xx_hal_sram.c ****   }
 377:Drivers/STM32F7xx_HAL_Driver/Src/stm32f7xx_hal_sram.c ****   else
 378:Drivers/STM32F7xx_HAL_Driver/Src/stm32f7xx_hal_sram.c ****   {
 379:Drivers/STM32F7xx_HAL_Driver/Src/stm32f7xx_hal_sram.c ****     return HAL_ERROR;
 380:Drivers/STM32F7xx_HAL_Driver/Src/stm32f7xx_hal_sram.c ****   }
 381:Drivers/STM32F7xx_HAL_Driver/Src/stm32f7xx_hal_sram.c **** 
 382:Drivers/STM32F7xx_HAL_Driver/Src/stm32f7xx_hal_sram.c ****   return HAL_OK;
 383:Drivers/STM32F7xx_HAL_Driver/Src/stm32f7xx_hal_sram.c **** }
 384:Drivers/STM32F7xx_HAL_Driver/Src/stm32f7xx_hal_sram.c **** 
 385:Drivers/STM32F7xx_HAL_Driver/Src/stm32f7xx_hal_sram.c **** /**
 386:Drivers/STM32F7xx_HAL_Driver/Src/stm32f7xx_hal_sram.c ****   * @brief  Writes 8-bit buffer to SRAM memory.
 387:Drivers/STM32F7xx_HAL_Driver/Src/stm32f7xx_hal_sram.c ****   * @param  hsram pointer to a SRAM_HandleTypeDef structure that contains
 388:Drivers/STM32F7xx_HAL_Driver/Src/stm32f7xx_hal_sram.c ****   *                the configuration information for SRAM module.
 389:Drivers/STM32F7xx_HAL_Driver/Src/stm32f7xx_hal_sram.c ****   * @param  pAddress Pointer to write start address
 390:Drivers/STM32F7xx_HAL_Driver/Src/stm32f7xx_hal_sram.c ****   * @param  pSrcBuffer Pointer to source buffer to write
 391:Drivers/STM32F7xx_HAL_Driver/Src/stm32f7xx_hal_sram.c ****   * @param  BufferSize Size of the buffer to write to memory
 392:Drivers/STM32F7xx_HAL_Driver/Src/stm32f7xx_hal_sram.c ****   * @retval HAL status
 393:Drivers/STM32F7xx_HAL_Driver/Src/stm32f7xx_hal_sram.c ****   */
 394:Drivers/STM32F7xx_HAL_Driver/Src/stm32f7xx_hal_sram.c **** HAL_StatusTypeDef HAL_SRAM_Write_8b(SRAM_HandleTypeDef *hsram, uint32_t *pAddress, uint8_t *pSrcBuf
 395:Drivers/STM32F7xx_HAL_Driver/Src/stm32f7xx_hal_sram.c ****                                     uint32_t BufferSize)
 396:Drivers/STM32F7xx_HAL_Driver/Src/stm32f7xx_hal_sram.c **** {
 397:Drivers/STM32F7xx_HAL_Driver/Src/stm32f7xx_hal_sram.c ****   uint32_t size;
 398:Drivers/STM32F7xx_HAL_Driver/Src/stm32f7xx_hal_sram.c ****   __IO uint8_t *psramaddress = (uint8_t *)pAddress;
 399:Drivers/STM32F7xx_HAL_Driver/Src/stm32f7xx_hal_sram.c ****   uint8_t *psrcbuff = pSrcBuffer;
 400:Drivers/STM32F7xx_HAL_Driver/Src/stm32f7xx_hal_sram.c **** 
 401:Drivers/STM32F7xx_HAL_Driver/Src/stm32f7xx_hal_sram.c ****   /* Check the SRAM controller state */
 402:Drivers/STM32F7xx_HAL_Driver/Src/stm32f7xx_hal_sram.c ****   if (hsram->State == HAL_SRAM_STATE_READY)
 403:Drivers/STM32F7xx_HAL_Driver/Src/stm32f7xx_hal_sram.c ****   {
 404:Drivers/STM32F7xx_HAL_Driver/Src/stm32f7xx_hal_sram.c ****     /* Process Locked */
 405:Drivers/STM32F7xx_HAL_Driver/Src/stm32f7xx_hal_sram.c ****     __HAL_LOCK(hsram);
 406:Drivers/STM32F7xx_HAL_Driver/Src/stm32f7xx_hal_sram.c **** 
 407:Drivers/STM32F7xx_HAL_Driver/Src/stm32f7xx_hal_sram.c ****     /* Update the SRAM controller state */
 408:Drivers/STM32F7xx_HAL_Driver/Src/stm32f7xx_hal_sram.c ****     hsram->State = HAL_SRAM_STATE_BUSY;
 409:Drivers/STM32F7xx_HAL_Driver/Src/stm32f7xx_hal_sram.c **** 
 410:Drivers/STM32F7xx_HAL_Driver/Src/stm32f7xx_hal_sram.c ****     /* Write data to memory */
 411:Drivers/STM32F7xx_HAL_Driver/Src/stm32f7xx_hal_sram.c ****     for (size = BufferSize; size != 0U; size--)
 412:Drivers/STM32F7xx_HAL_Driver/Src/stm32f7xx_hal_sram.c ****     {
 413:Drivers/STM32F7xx_HAL_Driver/Src/stm32f7xx_hal_sram.c ****       *psramaddress = *psrcbuff;
 414:Drivers/STM32F7xx_HAL_Driver/Src/stm32f7xx_hal_sram.c ****       psrcbuff++;
 415:Drivers/STM32F7xx_HAL_Driver/Src/stm32f7xx_hal_sram.c ****       psramaddress++;
 416:Drivers/STM32F7xx_HAL_Driver/Src/stm32f7xx_hal_sram.c ****     }
 417:Drivers/STM32F7xx_HAL_Driver/Src/stm32f7xx_hal_sram.c **** 
 418:Drivers/STM32F7xx_HAL_Driver/Src/stm32f7xx_hal_sram.c ****     /* Update the SRAM controller state */
 419:Drivers/STM32F7xx_HAL_Driver/Src/stm32f7xx_hal_sram.c ****     hsram->State = HAL_SRAM_STATE_READY;
 420:Drivers/STM32F7xx_HAL_Driver/Src/stm32f7xx_hal_sram.c **** 
 421:Drivers/STM32F7xx_HAL_Driver/Src/stm32f7xx_hal_sram.c ****     /* Process unlocked */
 422:Drivers/STM32F7xx_HAL_Driver/Src/stm32f7xx_hal_sram.c ****     __HAL_UNLOCK(hsram);
 423:Drivers/STM32F7xx_HAL_Driver/Src/stm32f7xx_hal_sram.c ****   }
ARM GAS  C:\Users\benny\AppData\Local\Temp\ccwEP4Gk.s 			page 13


 424:Drivers/STM32F7xx_HAL_Driver/Src/stm32f7xx_hal_sram.c ****   else
 425:Drivers/STM32F7xx_HAL_Driver/Src/stm32f7xx_hal_sram.c ****   {
 426:Drivers/STM32F7xx_HAL_Driver/Src/stm32f7xx_hal_sram.c ****     return HAL_ERROR;
 427:Drivers/STM32F7xx_HAL_Driver/Src/stm32f7xx_hal_sram.c ****   }
 428:Drivers/STM32F7xx_HAL_Driver/Src/stm32f7xx_hal_sram.c **** 
 429:Drivers/STM32F7xx_HAL_Driver/Src/stm32f7xx_hal_sram.c ****   return HAL_OK;
 430:Drivers/STM32F7xx_HAL_Driver/Src/stm32f7xx_hal_sram.c **** }
 431:Drivers/STM32F7xx_HAL_Driver/Src/stm32f7xx_hal_sram.c **** 
 432:Drivers/STM32F7xx_HAL_Driver/Src/stm32f7xx_hal_sram.c **** /**
 433:Drivers/STM32F7xx_HAL_Driver/Src/stm32f7xx_hal_sram.c ****   * @brief  Reads 16-bit buffer from SRAM memory.
 434:Drivers/STM32F7xx_HAL_Driver/Src/stm32f7xx_hal_sram.c ****   * @param  hsram pointer to a SRAM_HandleTypeDef structure that contains
 435:Drivers/STM32F7xx_HAL_Driver/Src/stm32f7xx_hal_sram.c ****   *                the configuration information for SRAM module.
 436:Drivers/STM32F7xx_HAL_Driver/Src/stm32f7xx_hal_sram.c ****   * @param  pAddress Pointer to read start address
 437:Drivers/STM32F7xx_HAL_Driver/Src/stm32f7xx_hal_sram.c ****   * @param  pDstBuffer Pointer to destination buffer
 438:Drivers/STM32F7xx_HAL_Driver/Src/stm32f7xx_hal_sram.c ****   * @param  BufferSize Size of the buffer to read from memory
 439:Drivers/STM32F7xx_HAL_Driver/Src/stm32f7xx_hal_sram.c ****   * @retval HAL status
 440:Drivers/STM32F7xx_HAL_Driver/Src/stm32f7xx_hal_sram.c ****   */
 441:Drivers/STM32F7xx_HAL_Driver/Src/stm32f7xx_hal_sram.c **** HAL_StatusTypeDef HAL_SRAM_Read_16b(SRAM_HandleTypeDef *hsram, uint32_t *pAddress, uint16_t *pDstBu
 442:Drivers/STM32F7xx_HAL_Driver/Src/stm32f7xx_hal_sram.c ****                                     uint32_t BufferSize)
 443:Drivers/STM32F7xx_HAL_Driver/Src/stm32f7xx_hal_sram.c **** {
 444:Drivers/STM32F7xx_HAL_Driver/Src/stm32f7xx_hal_sram.c ****   uint32_t size;
 445:Drivers/STM32F7xx_HAL_Driver/Src/stm32f7xx_hal_sram.c ****   __IO uint32_t *psramaddress = pAddress;
 446:Drivers/STM32F7xx_HAL_Driver/Src/stm32f7xx_hal_sram.c ****   uint16_t *pdestbuff = pDstBuffer;
 447:Drivers/STM32F7xx_HAL_Driver/Src/stm32f7xx_hal_sram.c ****   uint8_t limit;
 448:Drivers/STM32F7xx_HAL_Driver/Src/stm32f7xx_hal_sram.c ****   HAL_SRAM_StateTypeDef state = hsram->State;
 449:Drivers/STM32F7xx_HAL_Driver/Src/stm32f7xx_hal_sram.c **** 
 450:Drivers/STM32F7xx_HAL_Driver/Src/stm32f7xx_hal_sram.c ****   /* Check the SRAM controller state */
 451:Drivers/STM32F7xx_HAL_Driver/Src/stm32f7xx_hal_sram.c ****   if ((state == HAL_SRAM_STATE_READY) || (state == HAL_SRAM_STATE_PROTECTED))
 452:Drivers/STM32F7xx_HAL_Driver/Src/stm32f7xx_hal_sram.c ****   {
 453:Drivers/STM32F7xx_HAL_Driver/Src/stm32f7xx_hal_sram.c ****     /* Process Locked */
 454:Drivers/STM32F7xx_HAL_Driver/Src/stm32f7xx_hal_sram.c ****     __HAL_LOCK(hsram);
 455:Drivers/STM32F7xx_HAL_Driver/Src/stm32f7xx_hal_sram.c **** 
 456:Drivers/STM32F7xx_HAL_Driver/Src/stm32f7xx_hal_sram.c ****     /* Update the SRAM controller state */
 457:Drivers/STM32F7xx_HAL_Driver/Src/stm32f7xx_hal_sram.c ****     hsram->State = HAL_SRAM_STATE_BUSY;
 458:Drivers/STM32F7xx_HAL_Driver/Src/stm32f7xx_hal_sram.c **** 
 459:Drivers/STM32F7xx_HAL_Driver/Src/stm32f7xx_hal_sram.c ****     /* Check if the size is a 32-bits multiple */
 460:Drivers/STM32F7xx_HAL_Driver/Src/stm32f7xx_hal_sram.c ****     limit = (((BufferSize % 2U) != 0U) ? 1U : 0U);
 461:Drivers/STM32F7xx_HAL_Driver/Src/stm32f7xx_hal_sram.c **** 
 462:Drivers/STM32F7xx_HAL_Driver/Src/stm32f7xx_hal_sram.c ****     /* Read data from memory */
 463:Drivers/STM32F7xx_HAL_Driver/Src/stm32f7xx_hal_sram.c ****     for (size = BufferSize; size != limit; size -= 2U)
 464:Drivers/STM32F7xx_HAL_Driver/Src/stm32f7xx_hal_sram.c ****     {
 465:Drivers/STM32F7xx_HAL_Driver/Src/stm32f7xx_hal_sram.c ****       *pdestbuff = (uint16_t)((*psramaddress) & 0x0000FFFFU);
 466:Drivers/STM32F7xx_HAL_Driver/Src/stm32f7xx_hal_sram.c ****       pdestbuff++;
 467:Drivers/STM32F7xx_HAL_Driver/Src/stm32f7xx_hal_sram.c ****       *pdestbuff = (uint16_t)(((*psramaddress) & 0xFFFF0000U) >> 16U);
 468:Drivers/STM32F7xx_HAL_Driver/Src/stm32f7xx_hal_sram.c ****       pdestbuff++;
 469:Drivers/STM32F7xx_HAL_Driver/Src/stm32f7xx_hal_sram.c ****       psramaddress++;
 470:Drivers/STM32F7xx_HAL_Driver/Src/stm32f7xx_hal_sram.c ****     }
 471:Drivers/STM32F7xx_HAL_Driver/Src/stm32f7xx_hal_sram.c **** 
 472:Drivers/STM32F7xx_HAL_Driver/Src/stm32f7xx_hal_sram.c ****     /* Read last 16-bits if size is not 32-bits multiple */
 473:Drivers/STM32F7xx_HAL_Driver/Src/stm32f7xx_hal_sram.c ****     if (limit != 0U)
 474:Drivers/STM32F7xx_HAL_Driver/Src/stm32f7xx_hal_sram.c ****     {
 475:Drivers/STM32F7xx_HAL_Driver/Src/stm32f7xx_hal_sram.c ****       *pdestbuff = (uint16_t)((*psramaddress) & 0x0000FFFFU);
 476:Drivers/STM32F7xx_HAL_Driver/Src/stm32f7xx_hal_sram.c ****     }
 477:Drivers/STM32F7xx_HAL_Driver/Src/stm32f7xx_hal_sram.c **** 
 478:Drivers/STM32F7xx_HAL_Driver/Src/stm32f7xx_hal_sram.c ****     /* Update the SRAM controller state */
 479:Drivers/STM32F7xx_HAL_Driver/Src/stm32f7xx_hal_sram.c ****     hsram->State = state;
 480:Drivers/STM32F7xx_HAL_Driver/Src/stm32f7xx_hal_sram.c **** 
ARM GAS  C:\Users\benny\AppData\Local\Temp\ccwEP4Gk.s 			page 14


 481:Drivers/STM32F7xx_HAL_Driver/Src/stm32f7xx_hal_sram.c ****     /* Process unlocked */
 482:Drivers/STM32F7xx_HAL_Driver/Src/stm32f7xx_hal_sram.c ****     __HAL_UNLOCK(hsram);
 483:Drivers/STM32F7xx_HAL_Driver/Src/stm32f7xx_hal_sram.c ****   }
 484:Drivers/STM32F7xx_HAL_Driver/Src/stm32f7xx_hal_sram.c ****   else
 485:Drivers/STM32F7xx_HAL_Driver/Src/stm32f7xx_hal_sram.c ****   {
 486:Drivers/STM32F7xx_HAL_Driver/Src/stm32f7xx_hal_sram.c ****     return HAL_ERROR;
 487:Drivers/STM32F7xx_HAL_Driver/Src/stm32f7xx_hal_sram.c ****   }
 488:Drivers/STM32F7xx_HAL_Driver/Src/stm32f7xx_hal_sram.c **** 
 489:Drivers/STM32F7xx_HAL_Driver/Src/stm32f7xx_hal_sram.c ****   return HAL_OK;
 490:Drivers/STM32F7xx_HAL_Driver/Src/stm32f7xx_hal_sram.c **** }
 491:Drivers/STM32F7xx_HAL_Driver/Src/stm32f7xx_hal_sram.c **** 
 492:Drivers/STM32F7xx_HAL_Driver/Src/stm32f7xx_hal_sram.c **** /**
 493:Drivers/STM32F7xx_HAL_Driver/Src/stm32f7xx_hal_sram.c ****   * @brief  Writes 16-bit buffer to SRAM memory.
 494:Drivers/STM32F7xx_HAL_Driver/Src/stm32f7xx_hal_sram.c ****   * @param  hsram pointer to a SRAM_HandleTypeDef structure that contains
 495:Drivers/STM32F7xx_HAL_Driver/Src/stm32f7xx_hal_sram.c ****   *                the configuration information for SRAM module.
 496:Drivers/STM32F7xx_HAL_Driver/Src/stm32f7xx_hal_sram.c ****   * @param  pAddress Pointer to write start address
 497:Drivers/STM32F7xx_HAL_Driver/Src/stm32f7xx_hal_sram.c ****   * @param  pSrcBuffer Pointer to source buffer to write
 498:Drivers/STM32F7xx_HAL_Driver/Src/stm32f7xx_hal_sram.c ****   * @param  BufferSize Size of the buffer to write to memory
 499:Drivers/STM32F7xx_HAL_Driver/Src/stm32f7xx_hal_sram.c ****   * @retval HAL status
 500:Drivers/STM32F7xx_HAL_Driver/Src/stm32f7xx_hal_sram.c ****   */
 501:Drivers/STM32F7xx_HAL_Driver/Src/stm32f7xx_hal_sram.c **** HAL_StatusTypeDef HAL_SRAM_Write_16b(SRAM_HandleTypeDef *hsram, uint32_t *pAddress, uint16_t *pSrcB
 502:Drivers/STM32F7xx_HAL_Driver/Src/stm32f7xx_hal_sram.c ****                                      uint32_t BufferSize)
 503:Drivers/STM32F7xx_HAL_Driver/Src/stm32f7xx_hal_sram.c **** {
 504:Drivers/STM32F7xx_HAL_Driver/Src/stm32f7xx_hal_sram.c ****   uint32_t size;
 505:Drivers/STM32F7xx_HAL_Driver/Src/stm32f7xx_hal_sram.c ****   __IO uint32_t *psramaddress = pAddress;
 506:Drivers/STM32F7xx_HAL_Driver/Src/stm32f7xx_hal_sram.c ****   uint16_t *psrcbuff = pSrcBuffer;
 507:Drivers/STM32F7xx_HAL_Driver/Src/stm32f7xx_hal_sram.c ****   uint8_t limit;
 508:Drivers/STM32F7xx_HAL_Driver/Src/stm32f7xx_hal_sram.c **** 
 509:Drivers/STM32F7xx_HAL_Driver/Src/stm32f7xx_hal_sram.c ****   /* Check the SRAM controller state */
 510:Drivers/STM32F7xx_HAL_Driver/Src/stm32f7xx_hal_sram.c ****   if (hsram->State == HAL_SRAM_STATE_READY)
 511:Drivers/STM32F7xx_HAL_Driver/Src/stm32f7xx_hal_sram.c ****   {
 512:Drivers/STM32F7xx_HAL_Driver/Src/stm32f7xx_hal_sram.c ****     /* Process Locked */
 513:Drivers/STM32F7xx_HAL_Driver/Src/stm32f7xx_hal_sram.c ****     __HAL_LOCK(hsram);
 514:Drivers/STM32F7xx_HAL_Driver/Src/stm32f7xx_hal_sram.c **** 
 515:Drivers/STM32F7xx_HAL_Driver/Src/stm32f7xx_hal_sram.c ****     /* Update the SRAM controller state */
 516:Drivers/STM32F7xx_HAL_Driver/Src/stm32f7xx_hal_sram.c ****     hsram->State = HAL_SRAM_STATE_BUSY;
 517:Drivers/STM32F7xx_HAL_Driver/Src/stm32f7xx_hal_sram.c **** 
 518:Drivers/STM32F7xx_HAL_Driver/Src/stm32f7xx_hal_sram.c ****     /* Check if the size is a 32-bits multiple */
 519:Drivers/STM32F7xx_HAL_Driver/Src/stm32f7xx_hal_sram.c ****     limit = (((BufferSize % 2U) != 0U) ? 1U : 0U);
 520:Drivers/STM32F7xx_HAL_Driver/Src/stm32f7xx_hal_sram.c **** 
 521:Drivers/STM32F7xx_HAL_Driver/Src/stm32f7xx_hal_sram.c ****     /* Write data to memory */
 522:Drivers/STM32F7xx_HAL_Driver/Src/stm32f7xx_hal_sram.c ****     for (size = BufferSize; size != limit; size -= 2U)
 523:Drivers/STM32F7xx_HAL_Driver/Src/stm32f7xx_hal_sram.c ****     {
 524:Drivers/STM32F7xx_HAL_Driver/Src/stm32f7xx_hal_sram.c ****       *psramaddress = (uint32_t)(*psrcbuff);
 525:Drivers/STM32F7xx_HAL_Driver/Src/stm32f7xx_hal_sram.c ****       psrcbuff++;
 526:Drivers/STM32F7xx_HAL_Driver/Src/stm32f7xx_hal_sram.c ****       *psramaddress |= ((uint32_t)(*psrcbuff) << 16U);
 527:Drivers/STM32F7xx_HAL_Driver/Src/stm32f7xx_hal_sram.c ****       psrcbuff++;
 528:Drivers/STM32F7xx_HAL_Driver/Src/stm32f7xx_hal_sram.c ****       psramaddress++;
 529:Drivers/STM32F7xx_HAL_Driver/Src/stm32f7xx_hal_sram.c ****     }
 530:Drivers/STM32F7xx_HAL_Driver/Src/stm32f7xx_hal_sram.c **** 
 531:Drivers/STM32F7xx_HAL_Driver/Src/stm32f7xx_hal_sram.c ****     /* Write last 16-bits if size is not 32-bits multiple */
 532:Drivers/STM32F7xx_HAL_Driver/Src/stm32f7xx_hal_sram.c ****     if (limit != 0U)
 533:Drivers/STM32F7xx_HAL_Driver/Src/stm32f7xx_hal_sram.c ****     {
 534:Drivers/STM32F7xx_HAL_Driver/Src/stm32f7xx_hal_sram.c ****       *psramaddress = ((uint32_t)(*psrcbuff) & 0x0000FFFFU) | ((*psramaddress) & 0xFFFF0000U);
 535:Drivers/STM32F7xx_HAL_Driver/Src/stm32f7xx_hal_sram.c ****     }
 536:Drivers/STM32F7xx_HAL_Driver/Src/stm32f7xx_hal_sram.c **** 
 537:Drivers/STM32F7xx_HAL_Driver/Src/stm32f7xx_hal_sram.c ****     /* Update the SRAM controller state */
ARM GAS  C:\Users\benny\AppData\Local\Temp\ccwEP4Gk.s 			page 15


 538:Drivers/STM32F7xx_HAL_Driver/Src/stm32f7xx_hal_sram.c ****     hsram->State = HAL_SRAM_STATE_READY;
 539:Drivers/STM32F7xx_HAL_Driver/Src/stm32f7xx_hal_sram.c **** 
 540:Drivers/STM32F7xx_HAL_Driver/Src/stm32f7xx_hal_sram.c ****     /* Process unlocked */
 541:Drivers/STM32F7xx_HAL_Driver/Src/stm32f7xx_hal_sram.c ****     __HAL_UNLOCK(hsram);
 542:Drivers/STM32F7xx_HAL_Driver/Src/stm32f7xx_hal_sram.c ****   }
 543:Drivers/STM32F7xx_HAL_Driver/Src/stm32f7xx_hal_sram.c ****   else
 544:Drivers/STM32F7xx_HAL_Driver/Src/stm32f7xx_hal_sram.c ****   {
 545:Drivers/STM32F7xx_HAL_Driver/Src/stm32f7xx_hal_sram.c ****     return HAL_ERROR;
 546:Drivers/STM32F7xx_HAL_Driver/Src/stm32f7xx_hal_sram.c ****   }
 547:Drivers/STM32F7xx_HAL_Driver/Src/stm32f7xx_hal_sram.c **** 
 548:Drivers/STM32F7xx_HAL_Driver/Src/stm32f7xx_hal_sram.c ****   return HAL_OK;
 549:Drivers/STM32F7xx_HAL_Driver/Src/stm32f7xx_hal_sram.c **** }
 550:Drivers/STM32F7xx_HAL_Driver/Src/stm32f7xx_hal_sram.c **** 
 551:Drivers/STM32F7xx_HAL_Driver/Src/stm32f7xx_hal_sram.c **** /**
 552:Drivers/STM32F7xx_HAL_Driver/Src/stm32f7xx_hal_sram.c ****   * @brief  Reads 32-bit buffer from SRAM memory.
 553:Drivers/STM32F7xx_HAL_Driver/Src/stm32f7xx_hal_sram.c ****   * @param  hsram pointer to a SRAM_HandleTypeDef structure that contains
 554:Drivers/STM32F7xx_HAL_Driver/Src/stm32f7xx_hal_sram.c ****   *                the configuration information for SRAM module.
 555:Drivers/STM32F7xx_HAL_Driver/Src/stm32f7xx_hal_sram.c ****   * @param  pAddress Pointer to read start address
 556:Drivers/STM32F7xx_HAL_Driver/Src/stm32f7xx_hal_sram.c ****   * @param  pDstBuffer Pointer to destination buffer
 557:Drivers/STM32F7xx_HAL_Driver/Src/stm32f7xx_hal_sram.c ****   * @param  BufferSize Size of the buffer to read from memory
 558:Drivers/STM32F7xx_HAL_Driver/Src/stm32f7xx_hal_sram.c ****   * @retval HAL status
 559:Drivers/STM32F7xx_HAL_Driver/Src/stm32f7xx_hal_sram.c ****   */
 560:Drivers/STM32F7xx_HAL_Driver/Src/stm32f7xx_hal_sram.c **** HAL_StatusTypeDef HAL_SRAM_Read_32b(SRAM_HandleTypeDef *hsram, uint32_t *pAddress, uint32_t *pDstBu
 561:Drivers/STM32F7xx_HAL_Driver/Src/stm32f7xx_hal_sram.c ****                                     uint32_t BufferSize)
 562:Drivers/STM32F7xx_HAL_Driver/Src/stm32f7xx_hal_sram.c **** {
 563:Drivers/STM32F7xx_HAL_Driver/Src/stm32f7xx_hal_sram.c ****   uint32_t size;
 564:Drivers/STM32F7xx_HAL_Driver/Src/stm32f7xx_hal_sram.c ****   __IO uint32_t *psramaddress = pAddress;
 565:Drivers/STM32F7xx_HAL_Driver/Src/stm32f7xx_hal_sram.c ****   uint32_t *pdestbuff = pDstBuffer;
 566:Drivers/STM32F7xx_HAL_Driver/Src/stm32f7xx_hal_sram.c ****   HAL_SRAM_StateTypeDef state = hsram->State;
 567:Drivers/STM32F7xx_HAL_Driver/Src/stm32f7xx_hal_sram.c **** 
 568:Drivers/STM32F7xx_HAL_Driver/Src/stm32f7xx_hal_sram.c ****   /* Check the SRAM controller state */
 569:Drivers/STM32F7xx_HAL_Driver/Src/stm32f7xx_hal_sram.c ****   if ((state == HAL_SRAM_STATE_READY) || (state == HAL_SRAM_STATE_PROTECTED))
 570:Drivers/STM32F7xx_HAL_Driver/Src/stm32f7xx_hal_sram.c ****   {
 571:Drivers/STM32F7xx_HAL_Driver/Src/stm32f7xx_hal_sram.c ****     /* Process Locked */
 572:Drivers/STM32F7xx_HAL_Driver/Src/stm32f7xx_hal_sram.c ****     __HAL_LOCK(hsram);
 573:Drivers/STM32F7xx_HAL_Driver/Src/stm32f7xx_hal_sram.c **** 
 574:Drivers/STM32F7xx_HAL_Driver/Src/stm32f7xx_hal_sram.c ****     /* Update the SRAM controller state */
 575:Drivers/STM32F7xx_HAL_Driver/Src/stm32f7xx_hal_sram.c ****     hsram->State = HAL_SRAM_STATE_BUSY;
 576:Drivers/STM32F7xx_HAL_Driver/Src/stm32f7xx_hal_sram.c **** 
 577:Drivers/STM32F7xx_HAL_Driver/Src/stm32f7xx_hal_sram.c ****     /* Read data from memory */
 578:Drivers/STM32F7xx_HAL_Driver/Src/stm32f7xx_hal_sram.c ****     for (size = BufferSize; size != 0U; size--)
 579:Drivers/STM32F7xx_HAL_Driver/Src/stm32f7xx_hal_sram.c ****     {
 580:Drivers/STM32F7xx_HAL_Driver/Src/stm32f7xx_hal_sram.c ****       *pdestbuff = *psramaddress;
 581:Drivers/STM32F7xx_HAL_Driver/Src/stm32f7xx_hal_sram.c ****       pdestbuff++;
 582:Drivers/STM32F7xx_HAL_Driver/Src/stm32f7xx_hal_sram.c ****       psramaddress++;
 583:Drivers/STM32F7xx_HAL_Driver/Src/stm32f7xx_hal_sram.c ****     }
 584:Drivers/STM32F7xx_HAL_Driver/Src/stm32f7xx_hal_sram.c **** 
 585:Drivers/STM32F7xx_HAL_Driver/Src/stm32f7xx_hal_sram.c ****     /* Update the SRAM controller state */
 586:Drivers/STM32F7xx_HAL_Driver/Src/stm32f7xx_hal_sram.c ****     hsram->State = state;
 587:Drivers/STM32F7xx_HAL_Driver/Src/stm32f7xx_hal_sram.c **** 
 588:Drivers/STM32F7xx_HAL_Driver/Src/stm32f7xx_hal_sram.c ****     /* Process unlocked */
 589:Drivers/STM32F7xx_HAL_Driver/Src/stm32f7xx_hal_sram.c ****     __HAL_UNLOCK(hsram);
 590:Drivers/STM32F7xx_HAL_Driver/Src/stm32f7xx_hal_sram.c ****   }
 591:Drivers/STM32F7xx_HAL_Driver/Src/stm32f7xx_hal_sram.c ****   else
 592:Drivers/STM32F7xx_HAL_Driver/Src/stm32f7xx_hal_sram.c ****   {
 593:Drivers/STM32F7xx_HAL_Driver/Src/stm32f7xx_hal_sram.c ****     return HAL_ERROR;
 594:Drivers/STM32F7xx_HAL_Driver/Src/stm32f7xx_hal_sram.c ****   }
ARM GAS  C:\Users\benny\AppData\Local\Temp\ccwEP4Gk.s 			page 16


 595:Drivers/STM32F7xx_HAL_Driver/Src/stm32f7xx_hal_sram.c **** 
 596:Drivers/STM32F7xx_HAL_Driver/Src/stm32f7xx_hal_sram.c ****   return HAL_OK;
 597:Drivers/STM32F7xx_HAL_Driver/Src/stm32f7xx_hal_sram.c **** }
 598:Drivers/STM32F7xx_HAL_Driver/Src/stm32f7xx_hal_sram.c **** 
 599:Drivers/STM32F7xx_HAL_Driver/Src/stm32f7xx_hal_sram.c **** /**
 600:Drivers/STM32F7xx_HAL_Driver/Src/stm32f7xx_hal_sram.c ****   * @brief  Writes 32-bit buffer to SRAM memory.
 601:Drivers/STM32F7xx_HAL_Driver/Src/stm32f7xx_hal_sram.c ****   * @param  hsram pointer to a SRAM_HandleTypeDef structure that contains
 602:Drivers/STM32F7xx_HAL_Driver/Src/stm32f7xx_hal_sram.c ****   *                the configuration information for SRAM module.
 603:Drivers/STM32F7xx_HAL_Driver/Src/stm32f7xx_hal_sram.c ****   * @param  pAddress Pointer to write start address
 604:Drivers/STM32F7xx_HAL_Driver/Src/stm32f7xx_hal_sram.c ****   * @param  pSrcBuffer Pointer to source buffer to write
 605:Drivers/STM32F7xx_HAL_Driver/Src/stm32f7xx_hal_sram.c ****   * @param  BufferSize Size of the buffer to write to memory
 606:Drivers/STM32F7xx_HAL_Driver/Src/stm32f7xx_hal_sram.c ****   * @retval HAL status
 607:Drivers/STM32F7xx_HAL_Driver/Src/stm32f7xx_hal_sram.c ****   */
 608:Drivers/STM32F7xx_HAL_Driver/Src/stm32f7xx_hal_sram.c **** HAL_StatusTypeDef HAL_SRAM_Write_32b(SRAM_HandleTypeDef *hsram, uint32_t *pAddress, uint32_t *pSrcB
 609:Drivers/STM32F7xx_HAL_Driver/Src/stm32f7xx_hal_sram.c ****                                      uint32_t BufferSize)
 610:Drivers/STM32F7xx_HAL_Driver/Src/stm32f7xx_hal_sram.c **** {
 611:Drivers/STM32F7xx_HAL_Driver/Src/stm32f7xx_hal_sram.c ****   uint32_t size;
 612:Drivers/STM32F7xx_HAL_Driver/Src/stm32f7xx_hal_sram.c ****   __IO uint32_t *psramaddress = pAddress;
 613:Drivers/STM32F7xx_HAL_Driver/Src/stm32f7xx_hal_sram.c ****   uint32_t *psrcbuff = pSrcBuffer;
 614:Drivers/STM32F7xx_HAL_Driver/Src/stm32f7xx_hal_sram.c **** 
 615:Drivers/STM32F7xx_HAL_Driver/Src/stm32f7xx_hal_sram.c ****   /* Check the SRAM controller state */
 616:Drivers/STM32F7xx_HAL_Driver/Src/stm32f7xx_hal_sram.c ****   if (hsram->State == HAL_SRAM_STATE_READY)
 617:Drivers/STM32F7xx_HAL_Driver/Src/stm32f7xx_hal_sram.c ****   {
 618:Drivers/STM32F7xx_HAL_Driver/Src/stm32f7xx_hal_sram.c ****     /* Process Locked */
 619:Drivers/STM32F7xx_HAL_Driver/Src/stm32f7xx_hal_sram.c ****     __HAL_LOCK(hsram);
 620:Drivers/STM32F7xx_HAL_Driver/Src/stm32f7xx_hal_sram.c **** 
 621:Drivers/STM32F7xx_HAL_Driver/Src/stm32f7xx_hal_sram.c ****     /* Update the SRAM controller state */
 622:Drivers/STM32F7xx_HAL_Driver/Src/stm32f7xx_hal_sram.c ****     hsram->State = HAL_SRAM_STATE_BUSY;
 623:Drivers/STM32F7xx_HAL_Driver/Src/stm32f7xx_hal_sram.c **** 
 624:Drivers/STM32F7xx_HAL_Driver/Src/stm32f7xx_hal_sram.c ****     /* Write data to memory */
 625:Drivers/STM32F7xx_HAL_Driver/Src/stm32f7xx_hal_sram.c ****     for (size = BufferSize; size != 0U; size--)
 626:Drivers/STM32F7xx_HAL_Driver/Src/stm32f7xx_hal_sram.c ****     {
 627:Drivers/STM32F7xx_HAL_Driver/Src/stm32f7xx_hal_sram.c ****       *psramaddress = *psrcbuff;
 628:Drivers/STM32F7xx_HAL_Driver/Src/stm32f7xx_hal_sram.c ****       psrcbuff++;
 629:Drivers/STM32F7xx_HAL_Driver/Src/stm32f7xx_hal_sram.c ****       psramaddress++;
 630:Drivers/STM32F7xx_HAL_Driver/Src/stm32f7xx_hal_sram.c ****     }
 631:Drivers/STM32F7xx_HAL_Driver/Src/stm32f7xx_hal_sram.c **** 
 632:Drivers/STM32F7xx_HAL_Driver/Src/stm32f7xx_hal_sram.c ****     /* Update the SRAM controller state */
 633:Drivers/STM32F7xx_HAL_Driver/Src/stm32f7xx_hal_sram.c ****     hsram->State = HAL_SRAM_STATE_READY;
 634:Drivers/STM32F7xx_HAL_Driver/Src/stm32f7xx_hal_sram.c **** 
 635:Drivers/STM32F7xx_HAL_Driver/Src/stm32f7xx_hal_sram.c ****     /* Process unlocked */
 636:Drivers/STM32F7xx_HAL_Driver/Src/stm32f7xx_hal_sram.c ****     __HAL_UNLOCK(hsram);
 637:Drivers/STM32F7xx_HAL_Driver/Src/stm32f7xx_hal_sram.c ****   }
 638:Drivers/STM32F7xx_HAL_Driver/Src/stm32f7xx_hal_sram.c ****   else
 639:Drivers/STM32F7xx_HAL_Driver/Src/stm32f7xx_hal_sram.c ****   {
 640:Drivers/STM32F7xx_HAL_Driver/Src/stm32f7xx_hal_sram.c ****     return HAL_ERROR;
 641:Drivers/STM32F7xx_HAL_Driver/Src/stm32f7xx_hal_sram.c ****   }
 642:Drivers/STM32F7xx_HAL_Driver/Src/stm32f7xx_hal_sram.c **** 
 643:Drivers/STM32F7xx_HAL_Driver/Src/stm32f7xx_hal_sram.c ****   return HAL_OK;
 644:Drivers/STM32F7xx_HAL_Driver/Src/stm32f7xx_hal_sram.c **** }
 645:Drivers/STM32F7xx_HAL_Driver/Src/stm32f7xx_hal_sram.c **** 
 646:Drivers/STM32F7xx_HAL_Driver/Src/stm32f7xx_hal_sram.c **** /**
 647:Drivers/STM32F7xx_HAL_Driver/Src/stm32f7xx_hal_sram.c ****   * @brief  Reads a Words data from the SRAM memory using DMA transfer.
 648:Drivers/STM32F7xx_HAL_Driver/Src/stm32f7xx_hal_sram.c ****   * @param  hsram pointer to a SRAM_HandleTypeDef structure that contains
 649:Drivers/STM32F7xx_HAL_Driver/Src/stm32f7xx_hal_sram.c ****   *                the configuration information for SRAM module.
 650:Drivers/STM32F7xx_HAL_Driver/Src/stm32f7xx_hal_sram.c ****   * @param  pAddress Pointer to read start address
 651:Drivers/STM32F7xx_HAL_Driver/Src/stm32f7xx_hal_sram.c ****   * @param  pDstBuffer Pointer to destination buffer
ARM GAS  C:\Users\benny\AppData\Local\Temp\ccwEP4Gk.s 			page 17


 652:Drivers/STM32F7xx_HAL_Driver/Src/stm32f7xx_hal_sram.c ****   * @param  BufferSize Size of the buffer to read from memory
 653:Drivers/STM32F7xx_HAL_Driver/Src/stm32f7xx_hal_sram.c ****   * @retval HAL status
 654:Drivers/STM32F7xx_HAL_Driver/Src/stm32f7xx_hal_sram.c ****   */
 655:Drivers/STM32F7xx_HAL_Driver/Src/stm32f7xx_hal_sram.c **** HAL_StatusTypeDef HAL_SRAM_Read_DMA(SRAM_HandleTypeDef *hsram, uint32_t *pAddress, uint32_t *pDstBu
 656:Drivers/STM32F7xx_HAL_Driver/Src/stm32f7xx_hal_sram.c ****                                     uint32_t BufferSize)
 657:Drivers/STM32F7xx_HAL_Driver/Src/stm32f7xx_hal_sram.c **** {
 658:Drivers/STM32F7xx_HAL_Driver/Src/stm32f7xx_hal_sram.c ****   HAL_StatusTypeDef status;
 659:Drivers/STM32F7xx_HAL_Driver/Src/stm32f7xx_hal_sram.c ****   HAL_SRAM_StateTypeDef state = hsram->State;
 660:Drivers/STM32F7xx_HAL_Driver/Src/stm32f7xx_hal_sram.c **** 
 661:Drivers/STM32F7xx_HAL_Driver/Src/stm32f7xx_hal_sram.c ****   /* Check the SRAM controller state */
 662:Drivers/STM32F7xx_HAL_Driver/Src/stm32f7xx_hal_sram.c ****   if ((state == HAL_SRAM_STATE_READY) || (state == HAL_SRAM_STATE_PROTECTED))
 663:Drivers/STM32F7xx_HAL_Driver/Src/stm32f7xx_hal_sram.c ****   {
 664:Drivers/STM32F7xx_HAL_Driver/Src/stm32f7xx_hal_sram.c ****     /* Process Locked */
 665:Drivers/STM32F7xx_HAL_Driver/Src/stm32f7xx_hal_sram.c ****     __HAL_LOCK(hsram);
 666:Drivers/STM32F7xx_HAL_Driver/Src/stm32f7xx_hal_sram.c **** 
 667:Drivers/STM32F7xx_HAL_Driver/Src/stm32f7xx_hal_sram.c ****     /* Update the SRAM controller state */
 668:Drivers/STM32F7xx_HAL_Driver/Src/stm32f7xx_hal_sram.c ****     hsram->State = HAL_SRAM_STATE_BUSY;
 669:Drivers/STM32F7xx_HAL_Driver/Src/stm32f7xx_hal_sram.c **** 
 670:Drivers/STM32F7xx_HAL_Driver/Src/stm32f7xx_hal_sram.c ****     /* Configure DMA user callbacks */
 671:Drivers/STM32F7xx_HAL_Driver/Src/stm32f7xx_hal_sram.c ****     if (state == HAL_SRAM_STATE_READY)
 672:Drivers/STM32F7xx_HAL_Driver/Src/stm32f7xx_hal_sram.c ****     {
 673:Drivers/STM32F7xx_HAL_Driver/Src/stm32f7xx_hal_sram.c ****       hsram->hdma->XferCpltCallback = SRAM_DMACplt;
 674:Drivers/STM32F7xx_HAL_Driver/Src/stm32f7xx_hal_sram.c ****     }
 675:Drivers/STM32F7xx_HAL_Driver/Src/stm32f7xx_hal_sram.c ****     else
 676:Drivers/STM32F7xx_HAL_Driver/Src/stm32f7xx_hal_sram.c ****     {
 677:Drivers/STM32F7xx_HAL_Driver/Src/stm32f7xx_hal_sram.c ****       hsram->hdma->XferCpltCallback = SRAM_DMACpltProt;
 678:Drivers/STM32F7xx_HAL_Driver/Src/stm32f7xx_hal_sram.c ****     }
 679:Drivers/STM32F7xx_HAL_Driver/Src/stm32f7xx_hal_sram.c ****     hsram->hdma->XferErrorCallback = SRAM_DMAError;
 680:Drivers/STM32F7xx_HAL_Driver/Src/stm32f7xx_hal_sram.c **** 
 681:Drivers/STM32F7xx_HAL_Driver/Src/stm32f7xx_hal_sram.c ****     /* Enable the DMA Stream */
 682:Drivers/STM32F7xx_HAL_Driver/Src/stm32f7xx_hal_sram.c ****     status = HAL_DMA_Start_IT(hsram->hdma, (uint32_t)pAddress, (uint32_t)pDstBuffer, (uint32_t)Buff
 683:Drivers/STM32F7xx_HAL_Driver/Src/stm32f7xx_hal_sram.c **** 
 684:Drivers/STM32F7xx_HAL_Driver/Src/stm32f7xx_hal_sram.c ****     /* Process unlocked */
 685:Drivers/STM32F7xx_HAL_Driver/Src/stm32f7xx_hal_sram.c ****     __HAL_UNLOCK(hsram);
 686:Drivers/STM32F7xx_HAL_Driver/Src/stm32f7xx_hal_sram.c ****   }
 687:Drivers/STM32F7xx_HAL_Driver/Src/stm32f7xx_hal_sram.c ****   else
 688:Drivers/STM32F7xx_HAL_Driver/Src/stm32f7xx_hal_sram.c ****   {
 689:Drivers/STM32F7xx_HAL_Driver/Src/stm32f7xx_hal_sram.c ****     status = HAL_ERROR;
 690:Drivers/STM32F7xx_HAL_Driver/Src/stm32f7xx_hal_sram.c ****   }
 691:Drivers/STM32F7xx_HAL_Driver/Src/stm32f7xx_hal_sram.c **** 
 692:Drivers/STM32F7xx_HAL_Driver/Src/stm32f7xx_hal_sram.c ****   return status;
 693:Drivers/STM32F7xx_HAL_Driver/Src/stm32f7xx_hal_sram.c **** }
 694:Drivers/STM32F7xx_HAL_Driver/Src/stm32f7xx_hal_sram.c **** 
 695:Drivers/STM32F7xx_HAL_Driver/Src/stm32f7xx_hal_sram.c **** /**
 696:Drivers/STM32F7xx_HAL_Driver/Src/stm32f7xx_hal_sram.c ****   * @brief  Writes a Words data buffer to SRAM memory using DMA transfer.
 697:Drivers/STM32F7xx_HAL_Driver/Src/stm32f7xx_hal_sram.c ****   * @param  hsram pointer to a SRAM_HandleTypeDef structure that contains
 698:Drivers/STM32F7xx_HAL_Driver/Src/stm32f7xx_hal_sram.c ****   *                the configuration information for SRAM module.
 699:Drivers/STM32F7xx_HAL_Driver/Src/stm32f7xx_hal_sram.c ****   * @param  pAddress Pointer to write start address
 700:Drivers/STM32F7xx_HAL_Driver/Src/stm32f7xx_hal_sram.c ****   * @param  pSrcBuffer Pointer to source buffer to write
 701:Drivers/STM32F7xx_HAL_Driver/Src/stm32f7xx_hal_sram.c ****   * @param  BufferSize Size of the buffer to write to memory
 702:Drivers/STM32F7xx_HAL_Driver/Src/stm32f7xx_hal_sram.c ****   * @retval HAL status
 703:Drivers/STM32F7xx_HAL_Driver/Src/stm32f7xx_hal_sram.c ****   */
 704:Drivers/STM32F7xx_HAL_Driver/Src/stm32f7xx_hal_sram.c **** HAL_StatusTypeDef HAL_SRAM_Write_DMA(SRAM_HandleTypeDef *hsram, uint32_t *pAddress, uint32_t *pSrcB
 705:Drivers/STM32F7xx_HAL_Driver/Src/stm32f7xx_hal_sram.c ****                                      uint32_t BufferSize)
 706:Drivers/STM32F7xx_HAL_Driver/Src/stm32f7xx_hal_sram.c **** {
 707:Drivers/STM32F7xx_HAL_Driver/Src/stm32f7xx_hal_sram.c ****   HAL_StatusTypeDef status;
 708:Drivers/STM32F7xx_HAL_Driver/Src/stm32f7xx_hal_sram.c **** 
ARM GAS  C:\Users\benny\AppData\Local\Temp\ccwEP4Gk.s 			page 18


 709:Drivers/STM32F7xx_HAL_Driver/Src/stm32f7xx_hal_sram.c ****   /* Check the SRAM controller state */
 710:Drivers/STM32F7xx_HAL_Driver/Src/stm32f7xx_hal_sram.c ****   if (hsram->State == HAL_SRAM_STATE_READY)
 711:Drivers/STM32F7xx_HAL_Driver/Src/stm32f7xx_hal_sram.c ****   {
 712:Drivers/STM32F7xx_HAL_Driver/Src/stm32f7xx_hal_sram.c ****     /* Process Locked */
 713:Drivers/STM32F7xx_HAL_Driver/Src/stm32f7xx_hal_sram.c ****     __HAL_LOCK(hsram);
 714:Drivers/STM32F7xx_HAL_Driver/Src/stm32f7xx_hal_sram.c **** 
 715:Drivers/STM32F7xx_HAL_Driver/Src/stm32f7xx_hal_sram.c ****     /* Update the SRAM controller state */
 716:Drivers/STM32F7xx_HAL_Driver/Src/stm32f7xx_hal_sram.c ****     hsram->State = HAL_SRAM_STATE_BUSY;
 717:Drivers/STM32F7xx_HAL_Driver/Src/stm32f7xx_hal_sram.c **** 
 718:Drivers/STM32F7xx_HAL_Driver/Src/stm32f7xx_hal_sram.c ****     /* Configure DMA user callbacks */
 719:Drivers/STM32F7xx_HAL_Driver/Src/stm32f7xx_hal_sram.c ****     hsram->hdma->XferCpltCallback = SRAM_DMACplt;
 720:Drivers/STM32F7xx_HAL_Driver/Src/stm32f7xx_hal_sram.c ****     hsram->hdma->XferErrorCallback = SRAM_DMAError;
 721:Drivers/STM32F7xx_HAL_Driver/Src/stm32f7xx_hal_sram.c **** 
 722:Drivers/STM32F7xx_HAL_Driver/Src/stm32f7xx_hal_sram.c ****     /* Enable the DMA Stream */
 723:Drivers/STM32F7xx_HAL_Driver/Src/stm32f7xx_hal_sram.c ****     status = HAL_DMA_Start_IT(hsram->hdma, (uint32_t)pSrcBuffer, (uint32_t)pAddress, (uint32_t)Buff
 724:Drivers/STM32F7xx_HAL_Driver/Src/stm32f7xx_hal_sram.c **** 
 725:Drivers/STM32F7xx_HAL_Driver/Src/stm32f7xx_hal_sram.c ****     /* Process unlocked */
 726:Drivers/STM32F7xx_HAL_Driver/Src/stm32f7xx_hal_sram.c ****     __HAL_UNLOCK(hsram);
 727:Drivers/STM32F7xx_HAL_Driver/Src/stm32f7xx_hal_sram.c ****   }
 728:Drivers/STM32F7xx_HAL_Driver/Src/stm32f7xx_hal_sram.c ****   else
 729:Drivers/STM32F7xx_HAL_Driver/Src/stm32f7xx_hal_sram.c ****   {
 730:Drivers/STM32F7xx_HAL_Driver/Src/stm32f7xx_hal_sram.c ****     status = HAL_ERROR;
 731:Drivers/STM32F7xx_HAL_Driver/Src/stm32f7xx_hal_sram.c ****   }
 732:Drivers/STM32F7xx_HAL_Driver/Src/stm32f7xx_hal_sram.c **** 
 733:Drivers/STM32F7xx_HAL_Driver/Src/stm32f7xx_hal_sram.c ****   return status;
 734:Drivers/STM32F7xx_HAL_Driver/Src/stm32f7xx_hal_sram.c **** }
 735:Drivers/STM32F7xx_HAL_Driver/Src/stm32f7xx_hal_sram.c **** 
 736:Drivers/STM32F7xx_HAL_Driver/Src/stm32f7xx_hal_sram.c **** #if (USE_HAL_SRAM_REGISTER_CALLBACKS == 1)
 737:Drivers/STM32F7xx_HAL_Driver/Src/stm32f7xx_hal_sram.c **** /**
 738:Drivers/STM32F7xx_HAL_Driver/Src/stm32f7xx_hal_sram.c ****   * @brief  Register a User SRAM Callback
 739:Drivers/STM32F7xx_HAL_Driver/Src/stm32f7xx_hal_sram.c ****   *         To be used to override the weak predefined callback
 740:Drivers/STM32F7xx_HAL_Driver/Src/stm32f7xx_hal_sram.c ****   * @param hsram : SRAM handle
 741:Drivers/STM32F7xx_HAL_Driver/Src/stm32f7xx_hal_sram.c ****   * @param CallbackId : ID of the callback to be registered
 742:Drivers/STM32F7xx_HAL_Driver/Src/stm32f7xx_hal_sram.c ****   *        This parameter can be one of the following values:
 743:Drivers/STM32F7xx_HAL_Driver/Src/stm32f7xx_hal_sram.c ****   *          @arg @ref HAL_SRAM_MSP_INIT_CB_ID       SRAM MspInit callback ID
 744:Drivers/STM32F7xx_HAL_Driver/Src/stm32f7xx_hal_sram.c ****   *          @arg @ref HAL_SRAM_MSP_DEINIT_CB_ID     SRAM MspDeInit callback ID
 745:Drivers/STM32F7xx_HAL_Driver/Src/stm32f7xx_hal_sram.c ****   * @param pCallback : pointer to the Callback function
 746:Drivers/STM32F7xx_HAL_Driver/Src/stm32f7xx_hal_sram.c ****   * @retval status
 747:Drivers/STM32F7xx_HAL_Driver/Src/stm32f7xx_hal_sram.c ****   */
 748:Drivers/STM32F7xx_HAL_Driver/Src/stm32f7xx_hal_sram.c **** HAL_StatusTypeDef HAL_SRAM_RegisterCallback(SRAM_HandleTypeDef *hsram, HAL_SRAM_CallbackIDTypeDef C
 749:Drivers/STM32F7xx_HAL_Driver/Src/stm32f7xx_hal_sram.c ****                                             pSRAM_CallbackTypeDef pCallback)
 750:Drivers/STM32F7xx_HAL_Driver/Src/stm32f7xx_hal_sram.c **** {
 751:Drivers/STM32F7xx_HAL_Driver/Src/stm32f7xx_hal_sram.c ****   HAL_StatusTypeDef status = HAL_OK;
 752:Drivers/STM32F7xx_HAL_Driver/Src/stm32f7xx_hal_sram.c ****   HAL_SRAM_StateTypeDef state;
 753:Drivers/STM32F7xx_HAL_Driver/Src/stm32f7xx_hal_sram.c **** 
 754:Drivers/STM32F7xx_HAL_Driver/Src/stm32f7xx_hal_sram.c ****   if (pCallback == NULL)
 755:Drivers/STM32F7xx_HAL_Driver/Src/stm32f7xx_hal_sram.c ****   {
 756:Drivers/STM32F7xx_HAL_Driver/Src/stm32f7xx_hal_sram.c ****     return HAL_ERROR;
 757:Drivers/STM32F7xx_HAL_Driver/Src/stm32f7xx_hal_sram.c ****   }
 758:Drivers/STM32F7xx_HAL_Driver/Src/stm32f7xx_hal_sram.c **** 
 759:Drivers/STM32F7xx_HAL_Driver/Src/stm32f7xx_hal_sram.c ****   state = hsram->State;
 760:Drivers/STM32F7xx_HAL_Driver/Src/stm32f7xx_hal_sram.c ****   if ((state == HAL_SRAM_STATE_READY) || (state == HAL_SRAM_STATE_RESET) || (state == HAL_SRAM_STAT
 761:Drivers/STM32F7xx_HAL_Driver/Src/stm32f7xx_hal_sram.c ****   {
 762:Drivers/STM32F7xx_HAL_Driver/Src/stm32f7xx_hal_sram.c ****     switch (CallbackId)
 763:Drivers/STM32F7xx_HAL_Driver/Src/stm32f7xx_hal_sram.c ****     {
 764:Drivers/STM32F7xx_HAL_Driver/Src/stm32f7xx_hal_sram.c ****       case HAL_SRAM_MSP_INIT_CB_ID :
 765:Drivers/STM32F7xx_HAL_Driver/Src/stm32f7xx_hal_sram.c ****         hsram->MspInitCallback = pCallback;
ARM GAS  C:\Users\benny\AppData\Local\Temp\ccwEP4Gk.s 			page 19


 766:Drivers/STM32F7xx_HAL_Driver/Src/stm32f7xx_hal_sram.c ****         break;
 767:Drivers/STM32F7xx_HAL_Driver/Src/stm32f7xx_hal_sram.c ****       case HAL_SRAM_MSP_DEINIT_CB_ID :
 768:Drivers/STM32F7xx_HAL_Driver/Src/stm32f7xx_hal_sram.c ****         hsram->MspDeInitCallback = pCallback;
 769:Drivers/STM32F7xx_HAL_Driver/Src/stm32f7xx_hal_sram.c ****         break;
 770:Drivers/STM32F7xx_HAL_Driver/Src/stm32f7xx_hal_sram.c ****       default :
 771:Drivers/STM32F7xx_HAL_Driver/Src/stm32f7xx_hal_sram.c ****         /* update return status */
 772:Drivers/STM32F7xx_HAL_Driver/Src/stm32f7xx_hal_sram.c ****         status =  HAL_ERROR;
 773:Drivers/STM32F7xx_HAL_Driver/Src/stm32f7xx_hal_sram.c ****         break;
 774:Drivers/STM32F7xx_HAL_Driver/Src/stm32f7xx_hal_sram.c ****     }
 775:Drivers/STM32F7xx_HAL_Driver/Src/stm32f7xx_hal_sram.c ****   }
 776:Drivers/STM32F7xx_HAL_Driver/Src/stm32f7xx_hal_sram.c ****   else
 777:Drivers/STM32F7xx_HAL_Driver/Src/stm32f7xx_hal_sram.c ****   {
 778:Drivers/STM32F7xx_HAL_Driver/Src/stm32f7xx_hal_sram.c ****     /* update return status */
 779:Drivers/STM32F7xx_HAL_Driver/Src/stm32f7xx_hal_sram.c ****     status =  HAL_ERROR;
 780:Drivers/STM32F7xx_HAL_Driver/Src/stm32f7xx_hal_sram.c ****   }
 781:Drivers/STM32F7xx_HAL_Driver/Src/stm32f7xx_hal_sram.c **** 
 782:Drivers/STM32F7xx_HAL_Driver/Src/stm32f7xx_hal_sram.c ****   return status;
 783:Drivers/STM32F7xx_HAL_Driver/Src/stm32f7xx_hal_sram.c **** }
 784:Drivers/STM32F7xx_HAL_Driver/Src/stm32f7xx_hal_sram.c **** 
 785:Drivers/STM32F7xx_HAL_Driver/Src/stm32f7xx_hal_sram.c **** /**
 786:Drivers/STM32F7xx_HAL_Driver/Src/stm32f7xx_hal_sram.c ****   * @brief  Unregister a User SRAM Callback
 787:Drivers/STM32F7xx_HAL_Driver/Src/stm32f7xx_hal_sram.c ****   *         SRAM Callback is redirected to the weak predefined callback
 788:Drivers/STM32F7xx_HAL_Driver/Src/stm32f7xx_hal_sram.c ****   * @param hsram : SRAM handle
 789:Drivers/STM32F7xx_HAL_Driver/Src/stm32f7xx_hal_sram.c ****   * @param CallbackId : ID of the callback to be unregistered
 790:Drivers/STM32F7xx_HAL_Driver/Src/stm32f7xx_hal_sram.c ****   *        This parameter can be one of the following values:
 791:Drivers/STM32F7xx_HAL_Driver/Src/stm32f7xx_hal_sram.c ****   *          @arg @ref HAL_SRAM_MSP_INIT_CB_ID       SRAM MspInit callback ID
 792:Drivers/STM32F7xx_HAL_Driver/Src/stm32f7xx_hal_sram.c ****   *          @arg @ref HAL_SRAM_MSP_DEINIT_CB_ID     SRAM MspDeInit callback ID
 793:Drivers/STM32F7xx_HAL_Driver/Src/stm32f7xx_hal_sram.c ****   *          @arg @ref HAL_SRAM_DMA_XFER_CPLT_CB_ID  SRAM DMA Xfer Complete callback ID
 794:Drivers/STM32F7xx_HAL_Driver/Src/stm32f7xx_hal_sram.c ****   *          @arg @ref HAL_SRAM_DMA_XFER_ERR_CB_ID   SRAM DMA Xfer Error callback ID
 795:Drivers/STM32F7xx_HAL_Driver/Src/stm32f7xx_hal_sram.c ****   * @retval status
 796:Drivers/STM32F7xx_HAL_Driver/Src/stm32f7xx_hal_sram.c ****   */
 797:Drivers/STM32F7xx_HAL_Driver/Src/stm32f7xx_hal_sram.c **** HAL_StatusTypeDef HAL_SRAM_UnRegisterCallback(SRAM_HandleTypeDef *hsram, HAL_SRAM_CallbackIDTypeDef
 798:Drivers/STM32F7xx_HAL_Driver/Src/stm32f7xx_hal_sram.c **** {
 799:Drivers/STM32F7xx_HAL_Driver/Src/stm32f7xx_hal_sram.c ****   HAL_StatusTypeDef status = HAL_OK;
 800:Drivers/STM32F7xx_HAL_Driver/Src/stm32f7xx_hal_sram.c ****   HAL_SRAM_StateTypeDef state;
 801:Drivers/STM32F7xx_HAL_Driver/Src/stm32f7xx_hal_sram.c **** 
 802:Drivers/STM32F7xx_HAL_Driver/Src/stm32f7xx_hal_sram.c ****   state = hsram->State;
 803:Drivers/STM32F7xx_HAL_Driver/Src/stm32f7xx_hal_sram.c ****   if ((state == HAL_SRAM_STATE_READY) || (state == HAL_SRAM_STATE_PROTECTED))
 804:Drivers/STM32F7xx_HAL_Driver/Src/stm32f7xx_hal_sram.c ****   {
 805:Drivers/STM32F7xx_HAL_Driver/Src/stm32f7xx_hal_sram.c ****     switch (CallbackId)
 806:Drivers/STM32F7xx_HAL_Driver/Src/stm32f7xx_hal_sram.c ****     {
 807:Drivers/STM32F7xx_HAL_Driver/Src/stm32f7xx_hal_sram.c ****       case HAL_SRAM_MSP_INIT_CB_ID :
 808:Drivers/STM32F7xx_HAL_Driver/Src/stm32f7xx_hal_sram.c ****         hsram->MspInitCallback = HAL_SRAM_MspInit;
 809:Drivers/STM32F7xx_HAL_Driver/Src/stm32f7xx_hal_sram.c ****         break;
 810:Drivers/STM32F7xx_HAL_Driver/Src/stm32f7xx_hal_sram.c ****       case HAL_SRAM_MSP_DEINIT_CB_ID :
 811:Drivers/STM32F7xx_HAL_Driver/Src/stm32f7xx_hal_sram.c ****         hsram->MspDeInitCallback = HAL_SRAM_MspDeInit;
 812:Drivers/STM32F7xx_HAL_Driver/Src/stm32f7xx_hal_sram.c ****         break;
 813:Drivers/STM32F7xx_HAL_Driver/Src/stm32f7xx_hal_sram.c ****       case HAL_SRAM_DMA_XFER_CPLT_CB_ID :
 814:Drivers/STM32F7xx_HAL_Driver/Src/stm32f7xx_hal_sram.c ****         hsram->DmaXferCpltCallback = HAL_SRAM_DMA_XferCpltCallback;
 815:Drivers/STM32F7xx_HAL_Driver/Src/stm32f7xx_hal_sram.c ****         break;
 816:Drivers/STM32F7xx_HAL_Driver/Src/stm32f7xx_hal_sram.c ****       case HAL_SRAM_DMA_XFER_ERR_CB_ID :
 817:Drivers/STM32F7xx_HAL_Driver/Src/stm32f7xx_hal_sram.c ****         hsram->DmaXferErrorCallback = HAL_SRAM_DMA_XferErrorCallback;
 818:Drivers/STM32F7xx_HAL_Driver/Src/stm32f7xx_hal_sram.c ****         break;
 819:Drivers/STM32F7xx_HAL_Driver/Src/stm32f7xx_hal_sram.c ****       default :
 820:Drivers/STM32F7xx_HAL_Driver/Src/stm32f7xx_hal_sram.c ****         /* update return status */
 821:Drivers/STM32F7xx_HAL_Driver/Src/stm32f7xx_hal_sram.c ****         status =  HAL_ERROR;
 822:Drivers/STM32F7xx_HAL_Driver/Src/stm32f7xx_hal_sram.c ****         break;
ARM GAS  C:\Users\benny\AppData\Local\Temp\ccwEP4Gk.s 			page 20


 823:Drivers/STM32F7xx_HAL_Driver/Src/stm32f7xx_hal_sram.c ****     }
 824:Drivers/STM32F7xx_HAL_Driver/Src/stm32f7xx_hal_sram.c ****   }
 825:Drivers/STM32F7xx_HAL_Driver/Src/stm32f7xx_hal_sram.c ****   else if (state == HAL_SRAM_STATE_RESET)
 826:Drivers/STM32F7xx_HAL_Driver/Src/stm32f7xx_hal_sram.c ****   {
 827:Drivers/STM32F7xx_HAL_Driver/Src/stm32f7xx_hal_sram.c ****     switch (CallbackId)
 828:Drivers/STM32F7xx_HAL_Driver/Src/stm32f7xx_hal_sram.c ****     {
 829:Drivers/STM32F7xx_HAL_Driver/Src/stm32f7xx_hal_sram.c ****       case HAL_SRAM_MSP_INIT_CB_ID :
 830:Drivers/STM32F7xx_HAL_Driver/Src/stm32f7xx_hal_sram.c ****         hsram->MspInitCallback = HAL_SRAM_MspInit;
 831:Drivers/STM32F7xx_HAL_Driver/Src/stm32f7xx_hal_sram.c ****         break;
 832:Drivers/STM32F7xx_HAL_Driver/Src/stm32f7xx_hal_sram.c ****       case HAL_SRAM_MSP_DEINIT_CB_ID :
 833:Drivers/STM32F7xx_HAL_Driver/Src/stm32f7xx_hal_sram.c ****         hsram->MspDeInitCallback = HAL_SRAM_MspDeInit;
 834:Drivers/STM32F7xx_HAL_Driver/Src/stm32f7xx_hal_sram.c ****         break;
 835:Drivers/STM32F7xx_HAL_Driver/Src/stm32f7xx_hal_sram.c ****       default :
 836:Drivers/STM32F7xx_HAL_Driver/Src/stm32f7xx_hal_sram.c ****         /* update return status */
 837:Drivers/STM32F7xx_HAL_Driver/Src/stm32f7xx_hal_sram.c ****         status =  HAL_ERROR;
 838:Drivers/STM32F7xx_HAL_Driver/Src/stm32f7xx_hal_sram.c ****         break;
 839:Drivers/STM32F7xx_HAL_Driver/Src/stm32f7xx_hal_sram.c ****     }
 840:Drivers/STM32F7xx_HAL_Driver/Src/stm32f7xx_hal_sram.c ****   }
 841:Drivers/STM32F7xx_HAL_Driver/Src/stm32f7xx_hal_sram.c ****   else
 842:Drivers/STM32F7xx_HAL_Driver/Src/stm32f7xx_hal_sram.c ****   {
 843:Drivers/STM32F7xx_HAL_Driver/Src/stm32f7xx_hal_sram.c ****     /* update return status */
 844:Drivers/STM32F7xx_HAL_Driver/Src/stm32f7xx_hal_sram.c ****     status =  HAL_ERROR;
 845:Drivers/STM32F7xx_HAL_Driver/Src/stm32f7xx_hal_sram.c ****   }
 846:Drivers/STM32F7xx_HAL_Driver/Src/stm32f7xx_hal_sram.c **** 
 847:Drivers/STM32F7xx_HAL_Driver/Src/stm32f7xx_hal_sram.c ****   return status;
 848:Drivers/STM32F7xx_HAL_Driver/Src/stm32f7xx_hal_sram.c **** }
 849:Drivers/STM32F7xx_HAL_Driver/Src/stm32f7xx_hal_sram.c **** 
 850:Drivers/STM32F7xx_HAL_Driver/Src/stm32f7xx_hal_sram.c **** /**
 851:Drivers/STM32F7xx_HAL_Driver/Src/stm32f7xx_hal_sram.c ****   * @brief  Register a User SRAM Callback for DMA transfers
 852:Drivers/STM32F7xx_HAL_Driver/Src/stm32f7xx_hal_sram.c ****   *         To be used to override the weak predefined callback
 853:Drivers/STM32F7xx_HAL_Driver/Src/stm32f7xx_hal_sram.c ****   * @param hsram : SRAM handle
 854:Drivers/STM32F7xx_HAL_Driver/Src/stm32f7xx_hal_sram.c ****   * @param CallbackId : ID of the callback to be registered
 855:Drivers/STM32F7xx_HAL_Driver/Src/stm32f7xx_hal_sram.c ****   *        This parameter can be one of the following values:
 856:Drivers/STM32F7xx_HAL_Driver/Src/stm32f7xx_hal_sram.c ****   *          @arg @ref HAL_SRAM_DMA_XFER_CPLT_CB_ID  SRAM DMA Xfer Complete callback ID
 857:Drivers/STM32F7xx_HAL_Driver/Src/stm32f7xx_hal_sram.c ****   *          @arg @ref HAL_SRAM_DMA_XFER_ERR_CB_ID   SRAM DMA Xfer Error callback ID
 858:Drivers/STM32F7xx_HAL_Driver/Src/stm32f7xx_hal_sram.c ****   * @param pCallback : pointer to the Callback function
 859:Drivers/STM32F7xx_HAL_Driver/Src/stm32f7xx_hal_sram.c ****   * @retval status
 860:Drivers/STM32F7xx_HAL_Driver/Src/stm32f7xx_hal_sram.c ****   */
 861:Drivers/STM32F7xx_HAL_Driver/Src/stm32f7xx_hal_sram.c **** HAL_StatusTypeDef HAL_SRAM_RegisterDmaCallback(SRAM_HandleTypeDef *hsram, HAL_SRAM_CallbackIDTypeDe
 862:Drivers/STM32F7xx_HAL_Driver/Src/stm32f7xx_hal_sram.c ****                                                pSRAM_DmaCallbackTypeDef pCallback)
 863:Drivers/STM32F7xx_HAL_Driver/Src/stm32f7xx_hal_sram.c **** {
 864:Drivers/STM32F7xx_HAL_Driver/Src/stm32f7xx_hal_sram.c ****   HAL_StatusTypeDef status = HAL_OK;
 865:Drivers/STM32F7xx_HAL_Driver/Src/stm32f7xx_hal_sram.c ****   HAL_SRAM_StateTypeDef state;
 866:Drivers/STM32F7xx_HAL_Driver/Src/stm32f7xx_hal_sram.c **** 
 867:Drivers/STM32F7xx_HAL_Driver/Src/stm32f7xx_hal_sram.c ****   if (pCallback == NULL)
 868:Drivers/STM32F7xx_HAL_Driver/Src/stm32f7xx_hal_sram.c ****   {
 869:Drivers/STM32F7xx_HAL_Driver/Src/stm32f7xx_hal_sram.c ****     return HAL_ERROR;
 870:Drivers/STM32F7xx_HAL_Driver/Src/stm32f7xx_hal_sram.c ****   }
 871:Drivers/STM32F7xx_HAL_Driver/Src/stm32f7xx_hal_sram.c **** 
 872:Drivers/STM32F7xx_HAL_Driver/Src/stm32f7xx_hal_sram.c ****   /* Process locked */
 873:Drivers/STM32F7xx_HAL_Driver/Src/stm32f7xx_hal_sram.c ****   __HAL_LOCK(hsram);
 874:Drivers/STM32F7xx_HAL_Driver/Src/stm32f7xx_hal_sram.c **** 
 875:Drivers/STM32F7xx_HAL_Driver/Src/stm32f7xx_hal_sram.c ****   state = hsram->State;
 876:Drivers/STM32F7xx_HAL_Driver/Src/stm32f7xx_hal_sram.c ****   if ((state == HAL_SRAM_STATE_READY) || (state == HAL_SRAM_STATE_PROTECTED))
 877:Drivers/STM32F7xx_HAL_Driver/Src/stm32f7xx_hal_sram.c ****   {
 878:Drivers/STM32F7xx_HAL_Driver/Src/stm32f7xx_hal_sram.c ****     switch (CallbackId)
 879:Drivers/STM32F7xx_HAL_Driver/Src/stm32f7xx_hal_sram.c ****     {
ARM GAS  C:\Users\benny\AppData\Local\Temp\ccwEP4Gk.s 			page 21


 880:Drivers/STM32F7xx_HAL_Driver/Src/stm32f7xx_hal_sram.c ****       case HAL_SRAM_DMA_XFER_CPLT_CB_ID :
 881:Drivers/STM32F7xx_HAL_Driver/Src/stm32f7xx_hal_sram.c ****         hsram->DmaXferCpltCallback = pCallback;
 882:Drivers/STM32F7xx_HAL_Driver/Src/stm32f7xx_hal_sram.c ****         break;
 883:Drivers/STM32F7xx_HAL_Driver/Src/stm32f7xx_hal_sram.c ****       case HAL_SRAM_DMA_XFER_ERR_CB_ID :
 884:Drivers/STM32F7xx_HAL_Driver/Src/stm32f7xx_hal_sram.c ****         hsram->DmaXferErrorCallback = pCallback;
 885:Drivers/STM32F7xx_HAL_Driver/Src/stm32f7xx_hal_sram.c ****         break;
 886:Drivers/STM32F7xx_HAL_Driver/Src/stm32f7xx_hal_sram.c ****       default :
 887:Drivers/STM32F7xx_HAL_Driver/Src/stm32f7xx_hal_sram.c ****         /* update return status */
 888:Drivers/STM32F7xx_HAL_Driver/Src/stm32f7xx_hal_sram.c ****         status =  HAL_ERROR;
 889:Drivers/STM32F7xx_HAL_Driver/Src/stm32f7xx_hal_sram.c ****         break;
 890:Drivers/STM32F7xx_HAL_Driver/Src/stm32f7xx_hal_sram.c ****     }
 891:Drivers/STM32F7xx_HAL_Driver/Src/stm32f7xx_hal_sram.c ****   }
 892:Drivers/STM32F7xx_HAL_Driver/Src/stm32f7xx_hal_sram.c ****   else
 893:Drivers/STM32F7xx_HAL_Driver/Src/stm32f7xx_hal_sram.c ****   {
 894:Drivers/STM32F7xx_HAL_Driver/Src/stm32f7xx_hal_sram.c ****     /* update return status */
 895:Drivers/STM32F7xx_HAL_Driver/Src/stm32f7xx_hal_sram.c ****     status =  HAL_ERROR;
 896:Drivers/STM32F7xx_HAL_Driver/Src/stm32f7xx_hal_sram.c ****   }
 897:Drivers/STM32F7xx_HAL_Driver/Src/stm32f7xx_hal_sram.c **** 
 898:Drivers/STM32F7xx_HAL_Driver/Src/stm32f7xx_hal_sram.c ****   /* Release Lock */
 899:Drivers/STM32F7xx_HAL_Driver/Src/stm32f7xx_hal_sram.c ****   __HAL_UNLOCK(hsram);
 900:Drivers/STM32F7xx_HAL_Driver/Src/stm32f7xx_hal_sram.c ****   return status;
 901:Drivers/STM32F7xx_HAL_Driver/Src/stm32f7xx_hal_sram.c **** }
 902:Drivers/STM32F7xx_HAL_Driver/Src/stm32f7xx_hal_sram.c **** #endif /* USE_HAL_SRAM_REGISTER_CALLBACKS */
 903:Drivers/STM32F7xx_HAL_Driver/Src/stm32f7xx_hal_sram.c **** 
 904:Drivers/STM32F7xx_HAL_Driver/Src/stm32f7xx_hal_sram.c **** /**
 905:Drivers/STM32F7xx_HAL_Driver/Src/stm32f7xx_hal_sram.c ****   * @}
 906:Drivers/STM32F7xx_HAL_Driver/Src/stm32f7xx_hal_sram.c ****   */
 907:Drivers/STM32F7xx_HAL_Driver/Src/stm32f7xx_hal_sram.c **** 
 908:Drivers/STM32F7xx_HAL_Driver/Src/stm32f7xx_hal_sram.c **** /** @defgroup SRAM_Exported_Functions_Group3 Control functions
 909:Drivers/STM32F7xx_HAL_Driver/Src/stm32f7xx_hal_sram.c ****   *  @brief   Control functions
 910:Drivers/STM32F7xx_HAL_Driver/Src/stm32f7xx_hal_sram.c ****   *
 911:Drivers/STM32F7xx_HAL_Driver/Src/stm32f7xx_hal_sram.c **** @verbatim
 912:Drivers/STM32F7xx_HAL_Driver/Src/stm32f7xx_hal_sram.c ****   ==============================================================================
 913:Drivers/STM32F7xx_HAL_Driver/Src/stm32f7xx_hal_sram.c ****                         ##### SRAM Control functions #####
 914:Drivers/STM32F7xx_HAL_Driver/Src/stm32f7xx_hal_sram.c ****   ==============================================================================
 915:Drivers/STM32F7xx_HAL_Driver/Src/stm32f7xx_hal_sram.c ****   [..]
 916:Drivers/STM32F7xx_HAL_Driver/Src/stm32f7xx_hal_sram.c ****     This subsection provides a set of functions allowing to control dynamically
 917:Drivers/STM32F7xx_HAL_Driver/Src/stm32f7xx_hal_sram.c ****     the SRAM interface.
 918:Drivers/STM32F7xx_HAL_Driver/Src/stm32f7xx_hal_sram.c **** 
 919:Drivers/STM32F7xx_HAL_Driver/Src/stm32f7xx_hal_sram.c **** @endverbatim
 920:Drivers/STM32F7xx_HAL_Driver/Src/stm32f7xx_hal_sram.c ****   * @{
 921:Drivers/STM32F7xx_HAL_Driver/Src/stm32f7xx_hal_sram.c ****   */
 922:Drivers/STM32F7xx_HAL_Driver/Src/stm32f7xx_hal_sram.c **** 
 923:Drivers/STM32F7xx_HAL_Driver/Src/stm32f7xx_hal_sram.c **** /**
 924:Drivers/STM32F7xx_HAL_Driver/Src/stm32f7xx_hal_sram.c ****   * @brief  Enables dynamically SRAM write operation.
 925:Drivers/STM32F7xx_HAL_Driver/Src/stm32f7xx_hal_sram.c ****   * @param  hsram pointer to a SRAM_HandleTypeDef structure that contains
 926:Drivers/STM32F7xx_HAL_Driver/Src/stm32f7xx_hal_sram.c ****   *                the configuration information for SRAM module.
 927:Drivers/STM32F7xx_HAL_Driver/Src/stm32f7xx_hal_sram.c ****   * @retval HAL status
 928:Drivers/STM32F7xx_HAL_Driver/Src/stm32f7xx_hal_sram.c ****   */
 929:Drivers/STM32F7xx_HAL_Driver/Src/stm32f7xx_hal_sram.c **** HAL_StatusTypeDef HAL_SRAM_WriteOperation_Enable(SRAM_HandleTypeDef *hsram)
 930:Drivers/STM32F7xx_HAL_Driver/Src/stm32f7xx_hal_sram.c **** {
 931:Drivers/STM32F7xx_HAL_Driver/Src/stm32f7xx_hal_sram.c ****   /* Check the SRAM controller state */
 932:Drivers/STM32F7xx_HAL_Driver/Src/stm32f7xx_hal_sram.c ****   if (hsram->State == HAL_SRAM_STATE_PROTECTED)
 933:Drivers/STM32F7xx_HAL_Driver/Src/stm32f7xx_hal_sram.c ****   {
 934:Drivers/STM32F7xx_HAL_Driver/Src/stm32f7xx_hal_sram.c ****     /* Process Locked */
 935:Drivers/STM32F7xx_HAL_Driver/Src/stm32f7xx_hal_sram.c ****     __HAL_LOCK(hsram);
 936:Drivers/STM32F7xx_HAL_Driver/Src/stm32f7xx_hal_sram.c **** 
ARM GAS  C:\Users\benny\AppData\Local\Temp\ccwEP4Gk.s 			page 22


 937:Drivers/STM32F7xx_HAL_Driver/Src/stm32f7xx_hal_sram.c ****     /* Update the SRAM controller state */
 938:Drivers/STM32F7xx_HAL_Driver/Src/stm32f7xx_hal_sram.c ****     hsram->State = HAL_SRAM_STATE_BUSY;
 939:Drivers/STM32F7xx_HAL_Driver/Src/stm32f7xx_hal_sram.c **** 
 940:Drivers/STM32F7xx_HAL_Driver/Src/stm32f7xx_hal_sram.c ****     /* Enable write operation */
 941:Drivers/STM32F7xx_HAL_Driver/Src/stm32f7xx_hal_sram.c ****     (void)FMC_NORSRAM_WriteOperation_Enable(hsram->Instance, hsram->Init.NSBank);
 942:Drivers/STM32F7xx_HAL_Driver/Src/stm32f7xx_hal_sram.c **** 
 943:Drivers/STM32F7xx_HAL_Driver/Src/stm32f7xx_hal_sram.c ****     /* Update the SRAM controller state */
 944:Drivers/STM32F7xx_HAL_Driver/Src/stm32f7xx_hal_sram.c ****     hsram->State = HAL_SRAM_STATE_READY;
 945:Drivers/STM32F7xx_HAL_Driver/Src/stm32f7xx_hal_sram.c **** 
 946:Drivers/STM32F7xx_HAL_Driver/Src/stm32f7xx_hal_sram.c ****     /* Process unlocked */
 947:Drivers/STM32F7xx_HAL_Driver/Src/stm32f7xx_hal_sram.c ****     __HAL_UNLOCK(hsram);
 948:Drivers/STM32F7xx_HAL_Driver/Src/stm32f7xx_hal_sram.c ****   }
 949:Drivers/STM32F7xx_HAL_Driver/Src/stm32f7xx_hal_sram.c ****   else
 950:Drivers/STM32F7xx_HAL_Driver/Src/stm32f7xx_hal_sram.c ****   {
 951:Drivers/STM32F7xx_HAL_Driver/Src/stm32f7xx_hal_sram.c ****     return HAL_ERROR;
 952:Drivers/STM32F7xx_HAL_Driver/Src/stm32f7xx_hal_sram.c ****   }
 953:Drivers/STM32F7xx_HAL_Driver/Src/stm32f7xx_hal_sram.c **** 
 954:Drivers/STM32F7xx_HAL_Driver/Src/stm32f7xx_hal_sram.c ****   return HAL_OK;
 955:Drivers/STM32F7xx_HAL_Driver/Src/stm32f7xx_hal_sram.c **** }
 956:Drivers/STM32F7xx_HAL_Driver/Src/stm32f7xx_hal_sram.c **** 
 957:Drivers/STM32F7xx_HAL_Driver/Src/stm32f7xx_hal_sram.c **** /**
 958:Drivers/STM32F7xx_HAL_Driver/Src/stm32f7xx_hal_sram.c ****   * @brief  Disables dynamically SRAM write operation.
 959:Drivers/STM32F7xx_HAL_Driver/Src/stm32f7xx_hal_sram.c ****   * @param  hsram pointer to a SRAM_HandleTypeDef structure that contains
 960:Drivers/STM32F7xx_HAL_Driver/Src/stm32f7xx_hal_sram.c ****   *                the configuration information for SRAM module.
 961:Drivers/STM32F7xx_HAL_Driver/Src/stm32f7xx_hal_sram.c ****   * @retval HAL status
 962:Drivers/STM32F7xx_HAL_Driver/Src/stm32f7xx_hal_sram.c ****   */
 963:Drivers/STM32F7xx_HAL_Driver/Src/stm32f7xx_hal_sram.c **** HAL_StatusTypeDef HAL_SRAM_WriteOperation_Disable(SRAM_HandleTypeDef *hsram)
 964:Drivers/STM32F7xx_HAL_Driver/Src/stm32f7xx_hal_sram.c **** {
 965:Drivers/STM32F7xx_HAL_Driver/Src/stm32f7xx_hal_sram.c ****   /* Check the SRAM controller state */
 966:Drivers/STM32F7xx_HAL_Driver/Src/stm32f7xx_hal_sram.c ****   if (hsram->State == HAL_SRAM_STATE_READY)
 967:Drivers/STM32F7xx_HAL_Driver/Src/stm32f7xx_hal_sram.c ****   {
 968:Drivers/STM32F7xx_HAL_Driver/Src/stm32f7xx_hal_sram.c ****     /* Process Locked */
 969:Drivers/STM32F7xx_HAL_Driver/Src/stm32f7xx_hal_sram.c ****     __HAL_LOCK(hsram);
 970:Drivers/STM32F7xx_HAL_Driver/Src/stm32f7xx_hal_sram.c **** 
 971:Drivers/STM32F7xx_HAL_Driver/Src/stm32f7xx_hal_sram.c ****     /* Update the SRAM controller state */
 972:Drivers/STM32F7xx_HAL_Driver/Src/stm32f7xx_hal_sram.c ****     hsram->State = HAL_SRAM_STATE_BUSY;
 973:Drivers/STM32F7xx_HAL_Driver/Src/stm32f7xx_hal_sram.c **** 
 974:Drivers/STM32F7xx_HAL_Driver/Src/stm32f7xx_hal_sram.c ****     /* Disable write operation */
 975:Drivers/STM32F7xx_HAL_Driver/Src/stm32f7xx_hal_sram.c ****     (void)FMC_NORSRAM_WriteOperation_Disable(hsram->Instance, hsram->Init.NSBank);
 976:Drivers/STM32F7xx_HAL_Driver/Src/stm32f7xx_hal_sram.c **** 
 977:Drivers/STM32F7xx_HAL_Driver/Src/stm32f7xx_hal_sram.c ****     /* Update the SRAM controller state */
 978:Drivers/STM32F7xx_HAL_Driver/Src/stm32f7xx_hal_sram.c ****     hsram->State = HAL_SRAM_STATE_PROTECTED;
 979:Drivers/STM32F7xx_HAL_Driver/Src/stm32f7xx_hal_sram.c **** 
 980:Drivers/STM32F7xx_HAL_Driver/Src/stm32f7xx_hal_sram.c ****     /* Process unlocked */
 981:Drivers/STM32F7xx_HAL_Driver/Src/stm32f7xx_hal_sram.c ****     __HAL_UNLOCK(hsram);
 982:Drivers/STM32F7xx_HAL_Driver/Src/stm32f7xx_hal_sram.c ****   }
 983:Drivers/STM32F7xx_HAL_Driver/Src/stm32f7xx_hal_sram.c ****   else
 984:Drivers/STM32F7xx_HAL_Driver/Src/stm32f7xx_hal_sram.c ****   {
 985:Drivers/STM32F7xx_HAL_Driver/Src/stm32f7xx_hal_sram.c ****     return HAL_ERROR;
 986:Drivers/STM32F7xx_HAL_Driver/Src/stm32f7xx_hal_sram.c ****   }
 987:Drivers/STM32F7xx_HAL_Driver/Src/stm32f7xx_hal_sram.c **** 
 988:Drivers/STM32F7xx_HAL_Driver/Src/stm32f7xx_hal_sram.c ****   return HAL_OK;
 989:Drivers/STM32F7xx_HAL_Driver/Src/stm32f7xx_hal_sram.c **** }
 990:Drivers/STM32F7xx_HAL_Driver/Src/stm32f7xx_hal_sram.c **** 
 991:Drivers/STM32F7xx_HAL_Driver/Src/stm32f7xx_hal_sram.c **** /**
 992:Drivers/STM32F7xx_HAL_Driver/Src/stm32f7xx_hal_sram.c ****   * @}
 993:Drivers/STM32F7xx_HAL_Driver/Src/stm32f7xx_hal_sram.c ****   */
ARM GAS  C:\Users\benny\AppData\Local\Temp\ccwEP4Gk.s 			page 23


 994:Drivers/STM32F7xx_HAL_Driver/Src/stm32f7xx_hal_sram.c **** 
 995:Drivers/STM32F7xx_HAL_Driver/Src/stm32f7xx_hal_sram.c **** /** @defgroup SRAM_Exported_Functions_Group4 Peripheral State functions
 996:Drivers/STM32F7xx_HAL_Driver/Src/stm32f7xx_hal_sram.c ****   *  @brief   Peripheral State functions
 997:Drivers/STM32F7xx_HAL_Driver/Src/stm32f7xx_hal_sram.c ****   *
 998:Drivers/STM32F7xx_HAL_Driver/Src/stm32f7xx_hal_sram.c **** @verbatim
 999:Drivers/STM32F7xx_HAL_Driver/Src/stm32f7xx_hal_sram.c ****   ==============================================================================
1000:Drivers/STM32F7xx_HAL_Driver/Src/stm32f7xx_hal_sram.c ****                       ##### SRAM State functions #####
1001:Drivers/STM32F7xx_HAL_Driver/Src/stm32f7xx_hal_sram.c ****   ==============================================================================
1002:Drivers/STM32F7xx_HAL_Driver/Src/stm32f7xx_hal_sram.c ****   [..]
1003:Drivers/STM32F7xx_HAL_Driver/Src/stm32f7xx_hal_sram.c ****     This subsection permits to get in run-time the status of the SRAM controller
1004:Drivers/STM32F7xx_HAL_Driver/Src/stm32f7xx_hal_sram.c ****     and the data flow.
1005:Drivers/STM32F7xx_HAL_Driver/Src/stm32f7xx_hal_sram.c **** 
1006:Drivers/STM32F7xx_HAL_Driver/Src/stm32f7xx_hal_sram.c **** @endverbatim
1007:Drivers/STM32F7xx_HAL_Driver/Src/stm32f7xx_hal_sram.c ****   * @{
1008:Drivers/STM32F7xx_HAL_Driver/Src/stm32f7xx_hal_sram.c ****   */
1009:Drivers/STM32F7xx_HAL_Driver/Src/stm32f7xx_hal_sram.c **** 
1010:Drivers/STM32F7xx_HAL_Driver/Src/stm32f7xx_hal_sram.c **** /**
1011:Drivers/STM32F7xx_HAL_Driver/Src/stm32f7xx_hal_sram.c ****   * @brief  Returns the SRAM controller state
1012:Drivers/STM32F7xx_HAL_Driver/Src/stm32f7xx_hal_sram.c ****   * @param  hsram pointer to a SRAM_HandleTypeDef structure that contains
1013:Drivers/STM32F7xx_HAL_Driver/Src/stm32f7xx_hal_sram.c ****   *                the configuration information for SRAM module.
1014:Drivers/STM32F7xx_HAL_Driver/Src/stm32f7xx_hal_sram.c ****   * @retval HAL state
1015:Drivers/STM32F7xx_HAL_Driver/Src/stm32f7xx_hal_sram.c ****   */
1016:Drivers/STM32F7xx_HAL_Driver/Src/stm32f7xx_hal_sram.c **** HAL_SRAM_StateTypeDef HAL_SRAM_GetState(const SRAM_HandleTypeDef *hsram)
1017:Drivers/STM32F7xx_HAL_Driver/Src/stm32f7xx_hal_sram.c **** {
1018:Drivers/STM32F7xx_HAL_Driver/Src/stm32f7xx_hal_sram.c ****   return hsram->State;
1019:Drivers/STM32F7xx_HAL_Driver/Src/stm32f7xx_hal_sram.c **** }
1020:Drivers/STM32F7xx_HAL_Driver/Src/stm32f7xx_hal_sram.c **** 
1021:Drivers/STM32F7xx_HAL_Driver/Src/stm32f7xx_hal_sram.c **** /**
1022:Drivers/STM32F7xx_HAL_Driver/Src/stm32f7xx_hal_sram.c ****   * @}
1023:Drivers/STM32F7xx_HAL_Driver/Src/stm32f7xx_hal_sram.c ****   */
1024:Drivers/STM32F7xx_HAL_Driver/Src/stm32f7xx_hal_sram.c **** 
1025:Drivers/STM32F7xx_HAL_Driver/Src/stm32f7xx_hal_sram.c **** /**
1026:Drivers/STM32F7xx_HAL_Driver/Src/stm32f7xx_hal_sram.c ****   * @}
1027:Drivers/STM32F7xx_HAL_Driver/Src/stm32f7xx_hal_sram.c ****   */
1028:Drivers/STM32F7xx_HAL_Driver/Src/stm32f7xx_hal_sram.c **** 
1029:Drivers/STM32F7xx_HAL_Driver/Src/stm32f7xx_hal_sram.c **** /** @addtogroup SRAM_Private_Functions SRAM Private Functions
1030:Drivers/STM32F7xx_HAL_Driver/Src/stm32f7xx_hal_sram.c ****   * @{
1031:Drivers/STM32F7xx_HAL_Driver/Src/stm32f7xx_hal_sram.c ****   */
1032:Drivers/STM32F7xx_HAL_Driver/Src/stm32f7xx_hal_sram.c **** 
1033:Drivers/STM32F7xx_HAL_Driver/Src/stm32f7xx_hal_sram.c **** /**
1034:Drivers/STM32F7xx_HAL_Driver/Src/stm32f7xx_hal_sram.c ****   * @brief  DMA SRAM process complete callback.
1035:Drivers/STM32F7xx_HAL_Driver/Src/stm32f7xx_hal_sram.c ****   * @param  hdma : DMA handle
1036:Drivers/STM32F7xx_HAL_Driver/Src/stm32f7xx_hal_sram.c ****   * @retval None
1037:Drivers/STM32F7xx_HAL_Driver/Src/stm32f7xx_hal_sram.c ****   */
1038:Drivers/STM32F7xx_HAL_Driver/Src/stm32f7xx_hal_sram.c **** static void SRAM_DMACplt(DMA_HandleTypeDef *hdma)
1039:Drivers/STM32F7xx_HAL_Driver/Src/stm32f7xx_hal_sram.c **** {
1040:Drivers/STM32F7xx_HAL_Driver/Src/stm32f7xx_hal_sram.c ****   SRAM_HandleTypeDef *hsram = (SRAM_HandleTypeDef *)(hdma->Parent);
1041:Drivers/STM32F7xx_HAL_Driver/Src/stm32f7xx_hal_sram.c **** 
1042:Drivers/STM32F7xx_HAL_Driver/Src/stm32f7xx_hal_sram.c ****   /* Disable the DMA channel */
1043:Drivers/STM32F7xx_HAL_Driver/Src/stm32f7xx_hal_sram.c ****   __HAL_DMA_DISABLE(hdma);
1044:Drivers/STM32F7xx_HAL_Driver/Src/stm32f7xx_hal_sram.c **** 
1045:Drivers/STM32F7xx_HAL_Driver/Src/stm32f7xx_hal_sram.c ****   /* Update the SRAM controller state */
1046:Drivers/STM32F7xx_HAL_Driver/Src/stm32f7xx_hal_sram.c ****   hsram->State = HAL_SRAM_STATE_READY;
1047:Drivers/STM32F7xx_HAL_Driver/Src/stm32f7xx_hal_sram.c **** 
1048:Drivers/STM32F7xx_HAL_Driver/Src/stm32f7xx_hal_sram.c **** #if (USE_HAL_SRAM_REGISTER_CALLBACKS == 1)
1049:Drivers/STM32F7xx_HAL_Driver/Src/stm32f7xx_hal_sram.c ****   hsram->DmaXferCpltCallback(hdma);
1050:Drivers/STM32F7xx_HAL_Driver/Src/stm32f7xx_hal_sram.c **** #else
ARM GAS  C:\Users\benny\AppData\Local\Temp\ccwEP4Gk.s 			page 24


1051:Drivers/STM32F7xx_HAL_Driver/Src/stm32f7xx_hal_sram.c ****   HAL_SRAM_DMA_XferCpltCallback(hdma);
1052:Drivers/STM32F7xx_HAL_Driver/Src/stm32f7xx_hal_sram.c **** #endif /* USE_HAL_SRAM_REGISTER_CALLBACKS */
1053:Drivers/STM32F7xx_HAL_Driver/Src/stm32f7xx_hal_sram.c **** }
1054:Drivers/STM32F7xx_HAL_Driver/Src/stm32f7xx_hal_sram.c **** 
1055:Drivers/STM32F7xx_HAL_Driver/Src/stm32f7xx_hal_sram.c **** /**
1056:Drivers/STM32F7xx_HAL_Driver/Src/stm32f7xx_hal_sram.c ****   * @brief  DMA SRAM process complete callback.
1057:Drivers/STM32F7xx_HAL_Driver/Src/stm32f7xx_hal_sram.c ****   * @param  hdma : DMA handle
1058:Drivers/STM32F7xx_HAL_Driver/Src/stm32f7xx_hal_sram.c ****   * @retval None
1059:Drivers/STM32F7xx_HAL_Driver/Src/stm32f7xx_hal_sram.c ****   */
1060:Drivers/STM32F7xx_HAL_Driver/Src/stm32f7xx_hal_sram.c **** static void SRAM_DMACpltProt(DMA_HandleTypeDef *hdma)
1061:Drivers/STM32F7xx_HAL_Driver/Src/stm32f7xx_hal_sram.c **** {
 235              		.loc 1 1061 1 is_stmt 1 view -0
 236              		.cfi_startproc
 237              		@ args = 0, pretend = 0, frame = 0
 238              		@ frame_needed = 0, uses_anonymous_args = 0
 239              		.loc 1 1061 1 is_stmt 0 view .LVU48
 240 0000 08B5     		push	{r3, lr}
 241              	.LCFI3:
 242              		.cfi_def_cfa_offset 8
 243              		.cfi_offset 3, -8
 244              		.cfi_offset 14, -4
1062:Drivers/STM32F7xx_HAL_Driver/Src/stm32f7xx_hal_sram.c ****   SRAM_HandleTypeDef *hsram = (SRAM_HandleTypeDef *)(hdma->Parent);
 245              		.loc 1 1062 3 is_stmt 1 view .LVU49
 246              		.loc 1 1062 23 is_stmt 0 view .LVU50
 247 0002 816B     		ldr	r1, [r0, #56]
 248              	.LVL16:
1063:Drivers/STM32F7xx_HAL_Driver/Src/stm32f7xx_hal_sram.c **** 
1064:Drivers/STM32F7xx_HAL_Driver/Src/stm32f7xx_hal_sram.c ****   /* Disable the DMA channel */
1065:Drivers/STM32F7xx_HAL_Driver/Src/stm32f7xx_hal_sram.c ****   __HAL_DMA_DISABLE(hdma);
 249              		.loc 1 1065 3 is_stmt 1 view .LVU51
 250 0004 0268     		ldr	r2, [r0]
 251 0006 1368     		ldr	r3, [r2]
 252 0008 23F00103 		bic	r3, r3, #1
 253 000c 1360     		str	r3, [r2]
1066:Drivers/STM32F7xx_HAL_Driver/Src/stm32f7xx_hal_sram.c **** 
1067:Drivers/STM32F7xx_HAL_Driver/Src/stm32f7xx_hal_sram.c ****   /* Update the SRAM controller state */
1068:Drivers/STM32F7xx_HAL_Driver/Src/stm32f7xx_hal_sram.c ****   hsram->State = HAL_SRAM_STATE_PROTECTED;
 254              		.loc 1 1068 3 view .LVU52
 255              		.loc 1 1068 16 is_stmt 0 view .LVU53
 256 000e 0423     		movs	r3, #4
 257 0010 81F84530 		strb	r3, [r1, #69]
1069:Drivers/STM32F7xx_HAL_Driver/Src/stm32f7xx_hal_sram.c **** 
1070:Drivers/STM32F7xx_HAL_Driver/Src/stm32f7xx_hal_sram.c **** #if (USE_HAL_SRAM_REGISTER_CALLBACKS == 1)
1071:Drivers/STM32F7xx_HAL_Driver/Src/stm32f7xx_hal_sram.c ****   hsram->DmaXferCpltCallback(hdma);
1072:Drivers/STM32F7xx_HAL_Driver/Src/stm32f7xx_hal_sram.c **** #else
1073:Drivers/STM32F7xx_HAL_Driver/Src/stm32f7xx_hal_sram.c ****   HAL_SRAM_DMA_XferCpltCallback(hdma);
 258              		.loc 1 1073 3 is_stmt 1 view .LVU54
 259 0014 FFF7FEFF 		bl	HAL_SRAM_DMA_XferCpltCallback
 260              	.LVL17:
1074:Drivers/STM32F7xx_HAL_Driver/Src/stm32f7xx_hal_sram.c **** #endif /* USE_HAL_SRAM_REGISTER_CALLBACKS */
1075:Drivers/STM32F7xx_HAL_Driver/Src/stm32f7xx_hal_sram.c **** }
 261              		.loc 1 1075 1 is_stmt 0 view .LVU55
 262 0018 08BD     		pop	{r3, pc}
 263              		.cfi_endproc
 264              	.LFE159:
 266              		.section	.text.SRAM_DMACplt,"ax",%progbits
 267              		.align	1
ARM GAS  C:\Users\benny\AppData\Local\Temp\ccwEP4Gk.s 			page 25


 268              		.syntax unified
 269              		.thumb
 270              		.thumb_func
 272              	SRAM_DMACplt:
 273              	.LVL18:
 274              	.LFB158:
1039:Drivers/STM32F7xx_HAL_Driver/Src/stm32f7xx_hal_sram.c ****   SRAM_HandleTypeDef *hsram = (SRAM_HandleTypeDef *)(hdma->Parent);
 275              		.loc 1 1039 1 is_stmt 1 view -0
 276              		.cfi_startproc
 277              		@ args = 0, pretend = 0, frame = 0
 278              		@ frame_needed = 0, uses_anonymous_args = 0
1039:Drivers/STM32F7xx_HAL_Driver/Src/stm32f7xx_hal_sram.c ****   SRAM_HandleTypeDef *hsram = (SRAM_HandleTypeDef *)(hdma->Parent);
 279              		.loc 1 1039 1 is_stmt 0 view .LVU57
 280 0000 08B5     		push	{r3, lr}
 281              	.LCFI4:
 282              		.cfi_def_cfa_offset 8
 283              		.cfi_offset 3, -8
 284              		.cfi_offset 14, -4
1040:Drivers/STM32F7xx_HAL_Driver/Src/stm32f7xx_hal_sram.c **** 
 285              		.loc 1 1040 3 is_stmt 1 view .LVU58
1040:Drivers/STM32F7xx_HAL_Driver/Src/stm32f7xx_hal_sram.c **** 
 286              		.loc 1 1040 23 is_stmt 0 view .LVU59
 287 0002 816B     		ldr	r1, [r0, #56]
 288              	.LVL19:
1043:Drivers/STM32F7xx_HAL_Driver/Src/stm32f7xx_hal_sram.c **** 
 289              		.loc 1 1043 3 is_stmt 1 view .LVU60
 290 0004 0268     		ldr	r2, [r0]
 291 0006 1368     		ldr	r3, [r2]
 292 0008 23F00103 		bic	r3, r3, #1
 293 000c 1360     		str	r3, [r2]
1046:Drivers/STM32F7xx_HAL_Driver/Src/stm32f7xx_hal_sram.c **** 
 294              		.loc 1 1046 3 view .LVU61
1046:Drivers/STM32F7xx_HAL_Driver/Src/stm32f7xx_hal_sram.c **** 
 295              		.loc 1 1046 16 is_stmt 0 view .LVU62
 296 000e 0123     		movs	r3, #1
 297 0010 81F84530 		strb	r3, [r1, #69]
1051:Drivers/STM32F7xx_HAL_Driver/Src/stm32f7xx_hal_sram.c **** #endif /* USE_HAL_SRAM_REGISTER_CALLBACKS */
 298              		.loc 1 1051 3 is_stmt 1 view .LVU63
 299 0014 FFF7FEFF 		bl	HAL_SRAM_DMA_XferCpltCallback
 300              	.LVL20:
1053:Drivers/STM32F7xx_HAL_Driver/Src/stm32f7xx_hal_sram.c **** 
 301              		.loc 1 1053 1 is_stmt 0 view .LVU64
 302 0018 08BD     		pop	{r3, pc}
 303              		.cfi_endproc
 304              	.LFE158:
 306              		.section	.text.HAL_SRAM_DMA_XferErrorCallback,"ax",%progbits
 307              		.align	1
 308              		.weak	HAL_SRAM_DMA_XferErrorCallback
 309              		.syntax unified
 310              		.thumb
 311              		.thumb_func
 313              	HAL_SRAM_DMA_XferErrorCallback:
 314              	.LVL21:
 315              	.LFB146:
 310:Drivers/STM32F7xx_HAL_Driver/Src/stm32f7xx_hal_sram.c ****   /* Prevent unused argument(s) compilation warning */
 316              		.loc 1 310 1 is_stmt 1 view -0
 317              		.cfi_startproc
ARM GAS  C:\Users\benny\AppData\Local\Temp\ccwEP4Gk.s 			page 26


 318              		@ args = 0, pretend = 0, frame = 0
 319              		@ frame_needed = 0, uses_anonymous_args = 0
 320              		@ link register save eliminated.
 312:Drivers/STM32F7xx_HAL_Driver/Src/stm32f7xx_hal_sram.c **** 
 321              		.loc 1 312 3 view .LVU66
 317:Drivers/STM32F7xx_HAL_Driver/Src/stm32f7xx_hal_sram.c **** 
 322              		.loc 1 317 1 is_stmt 0 view .LVU67
 323 0000 7047     		bx	lr
 324              		.cfi_endproc
 325              	.LFE146:
 327              		.section	.text.SRAM_DMAError,"ax",%progbits
 328              		.align	1
 329              		.syntax unified
 330              		.thumb
 331              		.thumb_func
 333              	SRAM_DMAError:
 334              	.LVL22:
 335              	.LFB160:
1076:Drivers/STM32F7xx_HAL_Driver/Src/stm32f7xx_hal_sram.c **** 
1077:Drivers/STM32F7xx_HAL_Driver/Src/stm32f7xx_hal_sram.c **** /**
1078:Drivers/STM32F7xx_HAL_Driver/Src/stm32f7xx_hal_sram.c ****   * @brief  DMA SRAM error callback.
1079:Drivers/STM32F7xx_HAL_Driver/Src/stm32f7xx_hal_sram.c ****   * @param  hdma : DMA handle
1080:Drivers/STM32F7xx_HAL_Driver/Src/stm32f7xx_hal_sram.c ****   * @retval None
1081:Drivers/STM32F7xx_HAL_Driver/Src/stm32f7xx_hal_sram.c ****   */
1082:Drivers/STM32F7xx_HAL_Driver/Src/stm32f7xx_hal_sram.c **** static void SRAM_DMAError(DMA_HandleTypeDef *hdma)
1083:Drivers/STM32F7xx_HAL_Driver/Src/stm32f7xx_hal_sram.c **** {
 336              		.loc 1 1083 1 is_stmt 1 view -0
 337              		.cfi_startproc
 338              		@ args = 0, pretend = 0, frame = 0
 339              		@ frame_needed = 0, uses_anonymous_args = 0
 340              		.loc 1 1083 1 is_stmt 0 view .LVU69
 341 0000 08B5     		push	{r3, lr}
 342              	.LCFI5:
 343              		.cfi_def_cfa_offset 8
 344              		.cfi_offset 3, -8
 345              		.cfi_offset 14, -4
1084:Drivers/STM32F7xx_HAL_Driver/Src/stm32f7xx_hal_sram.c ****   SRAM_HandleTypeDef *hsram = (SRAM_HandleTypeDef *)(hdma->Parent);
 346              		.loc 1 1084 3 is_stmt 1 view .LVU70
 347              		.loc 1 1084 23 is_stmt 0 view .LVU71
 348 0002 816B     		ldr	r1, [r0, #56]
 349              	.LVL23:
1085:Drivers/STM32F7xx_HAL_Driver/Src/stm32f7xx_hal_sram.c **** 
1086:Drivers/STM32F7xx_HAL_Driver/Src/stm32f7xx_hal_sram.c ****   /* Disable the DMA channel */
1087:Drivers/STM32F7xx_HAL_Driver/Src/stm32f7xx_hal_sram.c ****   __HAL_DMA_DISABLE(hdma);
 350              		.loc 1 1087 3 is_stmt 1 view .LVU72
 351 0004 0268     		ldr	r2, [r0]
 352 0006 1368     		ldr	r3, [r2]
 353 0008 23F00103 		bic	r3, r3, #1
 354 000c 1360     		str	r3, [r2]
1088:Drivers/STM32F7xx_HAL_Driver/Src/stm32f7xx_hal_sram.c **** 
1089:Drivers/STM32F7xx_HAL_Driver/Src/stm32f7xx_hal_sram.c ****   /* Update the SRAM controller state */
1090:Drivers/STM32F7xx_HAL_Driver/Src/stm32f7xx_hal_sram.c ****   hsram->State = HAL_SRAM_STATE_ERROR;
 355              		.loc 1 1090 3 view .LVU73
 356              		.loc 1 1090 16 is_stmt 0 view .LVU74
 357 000e 0323     		movs	r3, #3
 358 0010 81F84530 		strb	r3, [r1, #69]
1091:Drivers/STM32F7xx_HAL_Driver/Src/stm32f7xx_hal_sram.c **** 
ARM GAS  C:\Users\benny\AppData\Local\Temp\ccwEP4Gk.s 			page 27


1092:Drivers/STM32F7xx_HAL_Driver/Src/stm32f7xx_hal_sram.c **** #if (USE_HAL_SRAM_REGISTER_CALLBACKS == 1)
1093:Drivers/STM32F7xx_HAL_Driver/Src/stm32f7xx_hal_sram.c ****   hsram->DmaXferErrorCallback(hdma);
1094:Drivers/STM32F7xx_HAL_Driver/Src/stm32f7xx_hal_sram.c **** #else
1095:Drivers/STM32F7xx_HAL_Driver/Src/stm32f7xx_hal_sram.c ****   HAL_SRAM_DMA_XferErrorCallback(hdma);
 359              		.loc 1 1095 3 is_stmt 1 view .LVU75
 360 0014 FFF7FEFF 		bl	HAL_SRAM_DMA_XferErrorCallback
 361              	.LVL24:
1096:Drivers/STM32F7xx_HAL_Driver/Src/stm32f7xx_hal_sram.c **** #endif /* USE_HAL_SRAM_REGISTER_CALLBACKS */
1097:Drivers/STM32F7xx_HAL_Driver/Src/stm32f7xx_hal_sram.c **** }
 362              		.loc 1 1097 1 is_stmt 0 view .LVU76
 363 0018 08BD     		pop	{r3, pc}
 364              		.cfi_endproc
 365              	.LFE160:
 367              		.section	.text.HAL_SRAM_Read_8b,"ax",%progbits
 368              		.align	1
 369              		.global	HAL_SRAM_Read_8b
 370              		.syntax unified
 371              		.thumb
 372              		.thumb_func
 374              	HAL_SRAM_Read_8b:
 375              	.LVL25:
 376              	.LFB147:
 348:Drivers/STM32F7xx_HAL_Driver/Src/stm32f7xx_hal_sram.c ****   uint32_t size;
 377              		.loc 1 348 1 is_stmt 1 view -0
 378              		.cfi_startproc
 379              		@ args = 0, pretend = 0, frame = 0
 380              		@ frame_needed = 0, uses_anonymous_args = 0
 348:Drivers/STM32F7xx_HAL_Driver/Src/stm32f7xx_hal_sram.c ****   uint32_t size;
 381              		.loc 1 348 1 is_stmt 0 view .LVU78
 382 0000 00B5     		push	{lr}
 383              	.LCFI6:
 384              		.cfi_def_cfa_offset 4
 385              		.cfi_offset 14, -4
 386 0002 8646     		mov	lr, r0
 349:Drivers/STM32F7xx_HAL_Driver/Src/stm32f7xx_hal_sram.c ****   __IO uint8_t *psramaddress = (uint8_t *)pAddress;
 387              		.loc 1 349 3 is_stmt 1 view .LVU79
 350:Drivers/STM32F7xx_HAL_Driver/Src/stm32f7xx_hal_sram.c ****   uint8_t *pdestbuff = pDstBuffer;
 388              		.loc 1 350 3 view .LVU80
 389              	.LVL26:
 351:Drivers/STM32F7xx_HAL_Driver/Src/stm32f7xx_hal_sram.c ****   HAL_SRAM_StateTypeDef state = hsram->State;
 390              		.loc 1 351 3 view .LVU81
 352:Drivers/STM32F7xx_HAL_Driver/Src/stm32f7xx_hal_sram.c **** 
 391              		.loc 1 352 3 view .LVU82
 352:Drivers/STM32F7xx_HAL_Driver/Src/stm32f7xx_hal_sram.c **** 
 392              		.loc 1 352 25 is_stmt 0 view .LVU83
 393 0004 90F84500 		ldrb	r0, [r0, #69]	@ zero_extendqisi2
 394              	.LVL27:
 352:Drivers/STM32F7xx_HAL_Driver/Src/stm32f7xx_hal_sram.c **** 
 395              		.loc 1 352 25 view .LVU84
 396 0008 C0B2     		uxtb	r0, r0
 397              	.LVL28:
 355:Drivers/STM32F7xx_HAL_Driver/Src/stm32f7xx_hal_sram.c ****   {
 398              		.loc 1 355 3 is_stmt 1 view .LVU85
 355:Drivers/STM32F7xx_HAL_Driver/Src/stm32f7xx_hal_sram.c ****   {
 399              		.loc 1 355 6 is_stmt 0 view .LVU86
 400 000a 0428     		cmp	r0, #4
 401 000c 18BF     		it	ne
ARM GAS  C:\Users\benny\AppData\Local\Temp\ccwEP4Gk.s 			page 28


 402 000e 0128     		cmpne	r0, #1
 403 0010 1BD1     		bne	.L26
 358:Drivers/STM32F7xx_HAL_Driver/Src/stm32f7xx_hal_sram.c **** 
 404              		.loc 1 358 5 is_stmt 1 view .LVU87
 358:Drivers/STM32F7xx_HAL_Driver/Src/stm32f7xx_hal_sram.c **** 
 405              		.loc 1 358 5 view .LVU88
 406 0012 9EF844C0 		ldrb	ip, [lr, #68]	@ zero_extendqisi2
 407 0016 BCF1010F 		cmp	ip, #1
 408 001a 18D0     		beq	.L27
 358:Drivers/STM32F7xx_HAL_Driver/Src/stm32f7xx_hal_sram.c **** 
 409              		.loc 1 358 5 discriminator 2 view .LVU89
 410 001c 4FF0010C 		mov	ip, #1
 411 0020 8EF844C0 		strb	ip, [lr, #68]
 358:Drivers/STM32F7xx_HAL_Driver/Src/stm32f7xx_hal_sram.c **** 
 412              		.loc 1 358 5 discriminator 2 view .LVU90
 361:Drivers/STM32F7xx_HAL_Driver/Src/stm32f7xx_hal_sram.c **** 
 413              		.loc 1 361 5 discriminator 2 view .LVU91
 361:Drivers/STM32F7xx_HAL_Driver/Src/stm32f7xx_hal_sram.c **** 
 414              		.loc 1 361 18 is_stmt 0 discriminator 2 view .LVU92
 415 0024 4FF0020C 		mov	ip, #2
 416 0028 8EF845C0 		strb	ip, [lr, #69]
 364:Drivers/STM32F7xx_HAL_Driver/Src/stm32f7xx_hal_sram.c ****     {
 417              		.loc 1 364 5 is_stmt 1 discriminator 2 view .LVU93
 418              	.LVL29:
 364:Drivers/STM32F7xx_HAL_Driver/Src/stm32f7xx_hal_sram.c ****     {
 419              		.loc 1 364 5 is_stmt 0 discriminator 2 view .LVU94
 420 002c 04E0     		b	.L24
 421              	.LVL30:
 422              	.L25:
 366:Drivers/STM32F7xx_HAL_Driver/Src/stm32f7xx_hal_sram.c ****       pdestbuff++;
 423              		.loc 1 366 7 is_stmt 1 discriminator 3 view .LVU95
 366:Drivers/STM32F7xx_HAL_Driver/Src/stm32f7xx_hal_sram.c ****       pdestbuff++;
 424              		.loc 1 366 20 is_stmt 0 discriminator 3 view .LVU96
 425 002e 11F801CB 		ldrb	ip, [r1], #1	@ zero_extendqisi2
 426              	.LVL31:
 366:Drivers/STM32F7xx_HAL_Driver/Src/stm32f7xx_hal_sram.c ****       pdestbuff++;
 427              		.loc 1 366 18 discriminator 3 view .LVU97
 428 0032 02F801CB 		strb	ip, [r2], #1
 429              	.LVL32:
 367:Drivers/STM32F7xx_HAL_Driver/Src/stm32f7xx_hal_sram.c ****       psramaddress++;
 430              		.loc 1 367 7 is_stmt 1 discriminator 3 view .LVU98
 368:Drivers/STM32F7xx_HAL_Driver/Src/stm32f7xx_hal_sram.c ****     }
 431              		.loc 1 368 7 discriminator 3 view .LVU99
 364:Drivers/STM32F7xx_HAL_Driver/Src/stm32f7xx_hal_sram.c ****     {
 432              		.loc 1 364 45 discriminator 3 view .LVU100
 433 0036 013B     		subs	r3, r3, #1
 434              	.LVL33:
 435              	.L24:
 364:Drivers/STM32F7xx_HAL_Driver/Src/stm32f7xx_hal_sram.c ****     {
 436              		.loc 1 364 34 discriminator 1 view .LVU101
 437 0038 002B     		cmp	r3, #0
 438 003a F8D1     		bne	.L25
 372:Drivers/STM32F7xx_HAL_Driver/Src/stm32f7xx_hal_sram.c **** 
 439              		.loc 1 372 5 view .LVU102
 372:Drivers/STM32F7xx_HAL_Driver/Src/stm32f7xx_hal_sram.c **** 
 440              		.loc 1 372 18 is_stmt 0 view .LVU103
 441 003c 8EF84500 		strb	r0, [lr, #69]
ARM GAS  C:\Users\benny\AppData\Local\Temp\ccwEP4Gk.s 			page 29


 375:Drivers/STM32F7xx_HAL_Driver/Src/stm32f7xx_hal_sram.c ****   }
 442              		.loc 1 375 5 is_stmt 1 view .LVU104
 375:Drivers/STM32F7xx_HAL_Driver/Src/stm32f7xx_hal_sram.c ****   }
 443              		.loc 1 375 5 view .LVU105
 444 0040 0020     		movs	r0, #0
 445              	.LVL34:
 375:Drivers/STM32F7xx_HAL_Driver/Src/stm32f7xx_hal_sram.c ****   }
 446              		.loc 1 375 5 is_stmt 0 view .LVU106
 447 0042 8EF84400 		strb	r0, [lr, #68]
 375:Drivers/STM32F7xx_HAL_Driver/Src/stm32f7xx_hal_sram.c ****   }
 448              		.loc 1 375 5 is_stmt 1 view .LVU107
 382:Drivers/STM32F7xx_HAL_Driver/Src/stm32f7xx_hal_sram.c **** }
 449              		.loc 1 382 3 view .LVU108
 450              	.LVL35:
 451              	.L23:
 383:Drivers/STM32F7xx_HAL_Driver/Src/stm32f7xx_hal_sram.c **** 
 452              		.loc 1 383 1 is_stmt 0 view .LVU109
 453 0046 5DF804FB 		ldr	pc, [sp], #4
 454              	.LVL36:
 455              	.L26:
 379:Drivers/STM32F7xx_HAL_Driver/Src/stm32f7xx_hal_sram.c ****   }
 456              		.loc 1 379 12 view .LVU110
 457 004a 0120     		movs	r0, #1
 458              	.LVL37:
 379:Drivers/STM32F7xx_HAL_Driver/Src/stm32f7xx_hal_sram.c ****   }
 459              		.loc 1 379 12 view .LVU111
 460 004c FBE7     		b	.L23
 461              	.LVL38:
 462              	.L27:
 358:Drivers/STM32F7xx_HAL_Driver/Src/stm32f7xx_hal_sram.c **** 
 463              		.loc 1 358 5 view .LVU112
 464 004e 0220     		movs	r0, #2
 465              	.LVL39:
 358:Drivers/STM32F7xx_HAL_Driver/Src/stm32f7xx_hal_sram.c **** 
 466              		.loc 1 358 5 view .LVU113
 467 0050 F9E7     		b	.L23
 468              		.cfi_endproc
 469              	.LFE147:
 471              		.section	.text.HAL_SRAM_Write_8b,"ax",%progbits
 472              		.align	1
 473              		.global	HAL_SRAM_Write_8b
 474              		.syntax unified
 475              		.thumb
 476              		.thumb_func
 478              	HAL_SRAM_Write_8b:
 479              	.LVL40:
 480              	.LFB148:
 396:Drivers/STM32F7xx_HAL_Driver/Src/stm32f7xx_hal_sram.c ****   uint32_t size;
 481              		.loc 1 396 1 is_stmt 1 view -0
 482              		.cfi_startproc
 483              		@ args = 0, pretend = 0, frame = 0
 484              		@ frame_needed = 0, uses_anonymous_args = 0
 485              		@ link register save eliminated.
 397:Drivers/STM32F7xx_HAL_Driver/Src/stm32f7xx_hal_sram.c ****   __IO uint8_t *psramaddress = (uint8_t *)pAddress;
 486              		.loc 1 397 3 view .LVU115
 398:Drivers/STM32F7xx_HAL_Driver/Src/stm32f7xx_hal_sram.c ****   uint8_t *psrcbuff = pSrcBuffer;
 487              		.loc 1 398 3 view .LVU116
ARM GAS  C:\Users\benny\AppData\Local\Temp\ccwEP4Gk.s 			page 30


 399:Drivers/STM32F7xx_HAL_Driver/Src/stm32f7xx_hal_sram.c **** 
 488              		.loc 1 399 3 view .LVU117
 402:Drivers/STM32F7xx_HAL_Driver/Src/stm32f7xx_hal_sram.c ****   {
 489              		.loc 1 402 3 view .LVU118
 402:Drivers/STM32F7xx_HAL_Driver/Src/stm32f7xx_hal_sram.c ****   {
 490              		.loc 1 402 12 is_stmt 0 view .LVU119
 491 0000 90F845C0 		ldrb	ip, [r0, #69]	@ zero_extendqisi2
 492 0004 5FFA8CFC 		uxtb	ip, ip
 402:Drivers/STM32F7xx_HAL_Driver/Src/stm32f7xx_hal_sram.c ****   {
 493              		.loc 1 402 6 view .LVU120
 494 0008 BCF1010F 		cmp	ip, #1
 495 000c 1CD1     		bne	.L33
 405:Drivers/STM32F7xx_HAL_Driver/Src/stm32f7xx_hal_sram.c **** 
 496              		.loc 1 405 5 is_stmt 1 view .LVU121
 405:Drivers/STM32F7xx_HAL_Driver/Src/stm32f7xx_hal_sram.c **** 
 497              		.loc 1 405 5 view .LVU122
 498 000e 90F844C0 		ldrb	ip, [r0, #68]	@ zero_extendqisi2
 499 0012 BCF1010F 		cmp	ip, #1
 500 0016 19D0     		beq	.L34
 405:Drivers/STM32F7xx_HAL_Driver/Src/stm32f7xx_hal_sram.c **** 
 501              		.loc 1 405 5 discriminator 2 view .LVU123
 502 0018 4FF0010C 		mov	ip, #1
 503 001c 80F844C0 		strb	ip, [r0, #68]
 405:Drivers/STM32F7xx_HAL_Driver/Src/stm32f7xx_hal_sram.c **** 
 504              		.loc 1 405 5 discriminator 2 view .LVU124
 408:Drivers/STM32F7xx_HAL_Driver/Src/stm32f7xx_hal_sram.c **** 
 505              		.loc 1 408 5 discriminator 2 view .LVU125
 408:Drivers/STM32F7xx_HAL_Driver/Src/stm32f7xx_hal_sram.c **** 
 506              		.loc 1 408 18 is_stmt 0 discriminator 2 view .LVU126
 507 0020 4FF0020C 		mov	ip, #2
 508 0024 80F845C0 		strb	ip, [r0, #69]
 411:Drivers/STM32F7xx_HAL_Driver/Src/stm32f7xx_hal_sram.c ****     {
 509              		.loc 1 411 5 is_stmt 1 discriminator 2 view .LVU127
 510              	.LVL41:
 411:Drivers/STM32F7xx_HAL_Driver/Src/stm32f7xx_hal_sram.c ****     {
 511              		.loc 1 411 5 is_stmt 0 discriminator 2 view .LVU128
 512 0028 04E0     		b	.L31
 513              	.LVL42:
 514              	.L32:
 413:Drivers/STM32F7xx_HAL_Driver/Src/stm32f7xx_hal_sram.c ****       psrcbuff++;
 515              		.loc 1 413 7 is_stmt 1 discriminator 3 view .LVU129
 413:Drivers/STM32F7xx_HAL_Driver/Src/stm32f7xx_hal_sram.c ****       psrcbuff++;
 516              		.loc 1 413 23 is_stmt 0 discriminator 3 view .LVU130
 517 002a 12F801CB 		ldrb	ip, [r2], #1	@ zero_extendqisi2
 518              	.LVL43:
 413:Drivers/STM32F7xx_HAL_Driver/Src/stm32f7xx_hal_sram.c ****       psrcbuff++;
 519              		.loc 1 413 21 discriminator 3 view .LVU131
 520 002e 01F801CB 		strb	ip, [r1], #1
 521              	.LVL44:
 414:Drivers/STM32F7xx_HAL_Driver/Src/stm32f7xx_hal_sram.c ****       psramaddress++;
 522              		.loc 1 414 7 is_stmt 1 discriminator 3 view .LVU132
 415:Drivers/STM32F7xx_HAL_Driver/Src/stm32f7xx_hal_sram.c ****     }
 523              		.loc 1 415 7 discriminator 3 view .LVU133
 411:Drivers/STM32F7xx_HAL_Driver/Src/stm32f7xx_hal_sram.c ****     {
 524              		.loc 1 411 45 discriminator 3 view .LVU134
 525 0032 013B     		subs	r3, r3, #1
 526              	.LVL45:
ARM GAS  C:\Users\benny\AppData\Local\Temp\ccwEP4Gk.s 			page 31


 527              	.L31:
 411:Drivers/STM32F7xx_HAL_Driver/Src/stm32f7xx_hal_sram.c ****     {
 528              		.loc 1 411 34 discriminator 1 view .LVU135
 529 0034 002B     		cmp	r3, #0
 530 0036 F8D1     		bne	.L32
 419:Drivers/STM32F7xx_HAL_Driver/Src/stm32f7xx_hal_sram.c **** 
 531              		.loc 1 419 5 view .LVU136
 419:Drivers/STM32F7xx_HAL_Driver/Src/stm32f7xx_hal_sram.c **** 
 532              		.loc 1 419 18 is_stmt 0 view .LVU137
 533 0038 0123     		movs	r3, #1
 534              	.LVL46:
 419:Drivers/STM32F7xx_HAL_Driver/Src/stm32f7xx_hal_sram.c **** 
 535              		.loc 1 419 18 view .LVU138
 536 003a 80F84530 		strb	r3, [r0, #69]
 422:Drivers/STM32F7xx_HAL_Driver/Src/stm32f7xx_hal_sram.c ****   }
 537              		.loc 1 422 5 is_stmt 1 view .LVU139
 422:Drivers/STM32F7xx_HAL_Driver/Src/stm32f7xx_hal_sram.c ****   }
 538              		.loc 1 422 5 view .LVU140
 539 003e 0023     		movs	r3, #0
 540 0040 80F84430 		strb	r3, [r0, #68]
 422:Drivers/STM32F7xx_HAL_Driver/Src/stm32f7xx_hal_sram.c ****   }
 541              		.loc 1 422 5 view .LVU141
 429:Drivers/STM32F7xx_HAL_Driver/Src/stm32f7xx_hal_sram.c **** }
 542              		.loc 1 429 3 view .LVU142
 429:Drivers/STM32F7xx_HAL_Driver/Src/stm32f7xx_hal_sram.c **** }
 543              		.loc 1 429 10 is_stmt 0 view .LVU143
 544 0044 1846     		mov	r0, r3
 545              	.LVL47:
 429:Drivers/STM32F7xx_HAL_Driver/Src/stm32f7xx_hal_sram.c **** }
 546              		.loc 1 429 10 view .LVU144
 547 0046 7047     		bx	lr
 548              	.LVL48:
 549              	.L33:
 426:Drivers/STM32F7xx_HAL_Driver/Src/stm32f7xx_hal_sram.c ****   }
 550              		.loc 1 426 12 view .LVU145
 551 0048 0120     		movs	r0, #1
 552              	.LVL49:
 426:Drivers/STM32F7xx_HAL_Driver/Src/stm32f7xx_hal_sram.c ****   }
 553              		.loc 1 426 12 view .LVU146
 554 004a 7047     		bx	lr
 555              	.LVL50:
 556              	.L34:
 405:Drivers/STM32F7xx_HAL_Driver/Src/stm32f7xx_hal_sram.c **** 
 557              		.loc 1 405 5 view .LVU147
 558 004c 0220     		movs	r0, #2
 559              	.LVL51:
 430:Drivers/STM32F7xx_HAL_Driver/Src/stm32f7xx_hal_sram.c **** 
 560              		.loc 1 430 1 view .LVU148
 561 004e 7047     		bx	lr
 562              		.cfi_endproc
 563              	.LFE148:
 565              		.section	.text.HAL_SRAM_Read_16b,"ax",%progbits
 566              		.align	1
 567              		.global	HAL_SRAM_Read_16b
 568              		.syntax unified
 569              		.thumb
 570              		.thumb_func
ARM GAS  C:\Users\benny\AppData\Local\Temp\ccwEP4Gk.s 			page 32


 572              	HAL_SRAM_Read_16b:
 573              	.LVL52:
 574              	.LFB149:
 443:Drivers/STM32F7xx_HAL_Driver/Src/stm32f7xx_hal_sram.c ****   uint32_t size;
 575              		.loc 1 443 1 is_stmt 1 view -0
 576              		.cfi_startproc
 577              		@ args = 0, pretend = 0, frame = 0
 578              		@ frame_needed = 0, uses_anonymous_args = 0
 443:Drivers/STM32F7xx_HAL_Driver/Src/stm32f7xx_hal_sram.c ****   uint32_t size;
 579              		.loc 1 443 1 is_stmt 0 view .LVU150
 580 0000 30B5     		push	{r4, r5, lr}
 581              	.LCFI7:
 582              		.cfi_def_cfa_offset 12
 583              		.cfi_offset 4, -12
 584              		.cfi_offset 5, -8
 585              		.cfi_offset 14, -4
 444:Drivers/STM32F7xx_HAL_Driver/Src/stm32f7xx_hal_sram.c ****   __IO uint32_t *psramaddress = pAddress;
 586              		.loc 1 444 3 is_stmt 1 view .LVU151
 445:Drivers/STM32F7xx_HAL_Driver/Src/stm32f7xx_hal_sram.c ****   uint16_t *pdestbuff = pDstBuffer;
 587              		.loc 1 445 3 view .LVU152
 588              	.LVL53:
 446:Drivers/STM32F7xx_HAL_Driver/Src/stm32f7xx_hal_sram.c ****   uint8_t limit;
 589              		.loc 1 446 3 view .LVU153
 447:Drivers/STM32F7xx_HAL_Driver/Src/stm32f7xx_hal_sram.c ****   HAL_SRAM_StateTypeDef state = hsram->State;
 590              		.loc 1 447 3 view .LVU154
 448:Drivers/STM32F7xx_HAL_Driver/Src/stm32f7xx_hal_sram.c **** 
 591              		.loc 1 448 3 view .LVU155
 448:Drivers/STM32F7xx_HAL_Driver/Src/stm32f7xx_hal_sram.c **** 
 592              		.loc 1 448 25 is_stmt 0 view .LVU156
 593 0002 90F84550 		ldrb	r5, [r0, #69]	@ zero_extendqisi2
 594 0006 EDB2     		uxtb	r5, r5
 595              	.LVL54:
 451:Drivers/STM32F7xx_HAL_Driver/Src/stm32f7xx_hal_sram.c ****   {
 596              		.loc 1 451 3 is_stmt 1 view .LVU157
 451:Drivers/STM32F7xx_HAL_Driver/Src/stm32f7xx_hal_sram.c ****   {
 597              		.loc 1 451 6 is_stmt 0 view .LVU158
 598 0008 042D     		cmp	r5, #4
 599 000a 18BF     		it	ne
 600 000c 012D     		cmpne	r5, #1
 601 000e 22D1     		bne	.L40
 602 0010 8646     		mov	lr, r0
 454:Drivers/STM32F7xx_HAL_Driver/Src/stm32f7xx_hal_sram.c **** 
 603              		.loc 1 454 5 is_stmt 1 view .LVU159
 454:Drivers/STM32F7xx_HAL_Driver/Src/stm32f7xx_hal_sram.c **** 
 604              		.loc 1 454 5 view .LVU160
 605 0012 90F84400 		ldrb	r0, [r0, #68]	@ zero_extendqisi2
 606              	.LVL55:
 454:Drivers/STM32F7xx_HAL_Driver/Src/stm32f7xx_hal_sram.c **** 
 607              		.loc 1 454 5 is_stmt 0 view .LVU161
 608 0016 0128     		cmp	r0, #1
 609 0018 1FD0     		beq	.L41
 454:Drivers/STM32F7xx_HAL_Driver/Src/stm32f7xx_hal_sram.c **** 
 610              		.loc 1 454 5 is_stmt 1 discriminator 2 view .LVU162
 611 001a 0120     		movs	r0, #1
 612 001c 8EF84400 		strb	r0, [lr, #68]
 454:Drivers/STM32F7xx_HAL_Driver/Src/stm32f7xx_hal_sram.c **** 
 613              		.loc 1 454 5 discriminator 2 view .LVU163
ARM GAS  C:\Users\benny\AppData\Local\Temp\ccwEP4Gk.s 			page 33


 457:Drivers/STM32F7xx_HAL_Driver/Src/stm32f7xx_hal_sram.c **** 
 614              		.loc 1 457 5 discriminator 2 view .LVU164
 457:Drivers/STM32F7xx_HAL_Driver/Src/stm32f7xx_hal_sram.c **** 
 615              		.loc 1 457 18 is_stmt 0 discriminator 2 view .LVU165
 616 0020 0220     		movs	r0, #2
 617 0022 8EF84500 		strb	r0, [lr, #69]
 460:Drivers/STM32F7xx_HAL_Driver/Src/stm32f7xx_hal_sram.c **** 
 618              		.loc 1 460 5 is_stmt 1 discriminator 2 view .LVU166
 460:Drivers/STM32F7xx_HAL_Driver/Src/stm32f7xx_hal_sram.c **** 
 619              		.loc 1 460 11 is_stmt 0 discriminator 2 view .LVU167
 620 0026 03F00100 		and	r0, r3, #1
 621              	.LVL56:
 463:Drivers/STM32F7xx_HAL_Driver/Src/stm32f7xx_hal_sram.c ****     {
 622              		.loc 1 463 5 is_stmt 1 discriminator 2 view .LVU168
 463:Drivers/STM32F7xx_HAL_Driver/Src/stm32f7xx_hal_sram.c ****     {
 623              		.loc 1 463 5 is_stmt 0 discriminator 2 view .LVU169
 624 002a 09E0     		b	.L37
 625              	.LVL57:
 626              	.L38:
 465:Drivers/STM32F7xx_HAL_Driver/Src/stm32f7xx_hal_sram.c ****       pdestbuff++;
 627              		.loc 1 465 7 is_stmt 1 discriminator 3 view .LVU170
 465:Drivers/STM32F7xx_HAL_Driver/Src/stm32f7xx_hal_sram.c ****       pdestbuff++;
 628              		.loc 1 465 32 is_stmt 0 discriminator 3 view .LVU171
 629 002c 0C68     		ldr	r4, [r1]
 465:Drivers/STM32F7xx_HAL_Driver/Src/stm32f7xx_hal_sram.c ****       pdestbuff++;
 630              		.loc 1 465 18 discriminator 3 view .LVU172
 631 002e 1480     		strh	r4, [r2]	@ movhi
 466:Drivers/STM32F7xx_HAL_Driver/Src/stm32f7xx_hal_sram.c ****       *pdestbuff = (uint16_t)(((*psramaddress) & 0xFFFF0000U) >> 16U);
 632              		.loc 1 466 7 is_stmt 1 discriminator 3 view .LVU173
 633              	.LVL58:
 467:Drivers/STM32F7xx_HAL_Driver/Src/stm32f7xx_hal_sram.c ****       pdestbuff++;
 634              		.loc 1 467 7 discriminator 3 view .LVU174
 467:Drivers/STM32F7xx_HAL_Driver/Src/stm32f7xx_hal_sram.c ****       pdestbuff++;
 635              		.loc 1 467 33 is_stmt 0 discriminator 3 view .LVU175
 636 0030 51F8044B 		ldr	r4, [r1], #4
 637              	.LVL59:
 467:Drivers/STM32F7xx_HAL_Driver/Src/stm32f7xx_hal_sram.c ****       pdestbuff++;
 638              		.loc 1 467 20 discriminator 3 view .LVU176
 639 0034 4FEA144C 		lsr	ip, r4, #16
 467:Drivers/STM32F7xx_HAL_Driver/Src/stm32f7xx_hal_sram.c ****       pdestbuff++;
 640              		.loc 1 467 18 discriminator 3 view .LVU177
 641 0038 A2F802C0 		strh	ip, [r2, #2]	@ movhi
 468:Drivers/STM32F7xx_HAL_Driver/Src/stm32f7xx_hal_sram.c ****       psramaddress++;
 642              		.loc 1 468 7 is_stmt 1 discriminator 3 view .LVU178
 468:Drivers/STM32F7xx_HAL_Driver/Src/stm32f7xx_hal_sram.c ****       psramaddress++;
 643              		.loc 1 468 16 is_stmt 0 discriminator 3 view .LVU179
 644 003c 0432     		adds	r2, r2, #4
 645              	.LVL60:
 469:Drivers/STM32F7xx_HAL_Driver/Src/stm32f7xx_hal_sram.c ****     }
 646              		.loc 1 469 7 is_stmt 1 discriminator 3 view .LVU180
 463:Drivers/STM32F7xx_HAL_Driver/Src/stm32f7xx_hal_sram.c ****     {
 647              		.loc 1 463 49 discriminator 3 view .LVU181
 648 003e 023B     		subs	r3, r3, #2
 649              	.LVL61:
 650              	.L37:
 463:Drivers/STM32F7xx_HAL_Driver/Src/stm32f7xx_hal_sram.c ****     {
 651              		.loc 1 463 34 discriminator 1 view .LVU182
ARM GAS  C:\Users\benny\AppData\Local\Temp\ccwEP4Gk.s 			page 34


 652 0040 9842     		cmp	r0, r3
 653 0042 F3D1     		bne	.L38
 473:Drivers/STM32F7xx_HAL_Driver/Src/stm32f7xx_hal_sram.c ****     {
 654              		.loc 1 473 5 view .LVU183
 473:Drivers/STM32F7xx_HAL_Driver/Src/stm32f7xx_hal_sram.c ****     {
 655              		.loc 1 473 8 is_stmt 0 view .LVU184
 656 0044 08B1     		cbz	r0, .L39
 475:Drivers/STM32F7xx_HAL_Driver/Src/stm32f7xx_hal_sram.c ****     }
 657              		.loc 1 475 7 is_stmt 1 view .LVU185
 475:Drivers/STM32F7xx_HAL_Driver/Src/stm32f7xx_hal_sram.c ****     }
 658              		.loc 1 475 32 is_stmt 0 view .LVU186
 659 0046 0B68     		ldr	r3, [r1]
 660              	.LVL62:
 475:Drivers/STM32F7xx_HAL_Driver/Src/stm32f7xx_hal_sram.c ****     }
 661              		.loc 1 475 18 view .LVU187
 662 0048 1380     		strh	r3, [r2]	@ movhi
 663              	.L39:
 479:Drivers/STM32F7xx_HAL_Driver/Src/stm32f7xx_hal_sram.c **** 
 664              		.loc 1 479 5 is_stmt 1 view .LVU188
 479:Drivers/STM32F7xx_HAL_Driver/Src/stm32f7xx_hal_sram.c **** 
 665              		.loc 1 479 18 is_stmt 0 view .LVU189
 666 004a 8EF84550 		strb	r5, [lr, #69]
 482:Drivers/STM32F7xx_HAL_Driver/Src/stm32f7xx_hal_sram.c ****   }
 667              		.loc 1 482 5 is_stmt 1 view .LVU190
 482:Drivers/STM32F7xx_HAL_Driver/Src/stm32f7xx_hal_sram.c ****   }
 668              		.loc 1 482 5 view .LVU191
 669 004e 0020     		movs	r0, #0
 670              	.LVL63:
 482:Drivers/STM32F7xx_HAL_Driver/Src/stm32f7xx_hal_sram.c ****   }
 671              		.loc 1 482 5 is_stmt 0 view .LVU192
 672 0050 8EF84400 		strb	r0, [lr, #68]
 482:Drivers/STM32F7xx_HAL_Driver/Src/stm32f7xx_hal_sram.c ****   }
 673              		.loc 1 482 5 is_stmt 1 view .LVU193
 489:Drivers/STM32F7xx_HAL_Driver/Src/stm32f7xx_hal_sram.c **** }
 674              		.loc 1 489 3 view .LVU194
 675              	.LVL64:
 676              	.L36:
 490:Drivers/STM32F7xx_HAL_Driver/Src/stm32f7xx_hal_sram.c **** 
 677              		.loc 1 490 1 is_stmt 0 view .LVU195
 678 0054 30BD     		pop	{r4, r5, pc}
 679              	.LVL65:
 680              	.L40:
 486:Drivers/STM32F7xx_HAL_Driver/Src/stm32f7xx_hal_sram.c ****   }
 681              		.loc 1 486 12 view .LVU196
 682 0056 0120     		movs	r0, #1
 683              	.LVL66:
 486:Drivers/STM32F7xx_HAL_Driver/Src/stm32f7xx_hal_sram.c ****   }
 684              		.loc 1 486 12 view .LVU197
 685 0058 FCE7     		b	.L36
 686              	.LVL67:
 687              	.L41:
 454:Drivers/STM32F7xx_HAL_Driver/Src/stm32f7xx_hal_sram.c **** 
 688              		.loc 1 454 5 view .LVU198
 689 005a 0220     		movs	r0, #2
 690 005c FAE7     		b	.L36
 691              		.cfi_endproc
 692              	.LFE149:
ARM GAS  C:\Users\benny\AppData\Local\Temp\ccwEP4Gk.s 			page 35


 694              		.section	.text.HAL_SRAM_Write_16b,"ax",%progbits
 695              		.align	1
 696              		.global	HAL_SRAM_Write_16b
 697              		.syntax unified
 698              		.thumb
 699              		.thumb_func
 701              	HAL_SRAM_Write_16b:
 702              	.LVL68:
 703              	.LFB150:
 503:Drivers/STM32F7xx_HAL_Driver/Src/stm32f7xx_hal_sram.c ****   uint32_t size;
 704              		.loc 1 503 1 is_stmt 1 view -0
 705              		.cfi_startproc
 706              		@ args = 0, pretend = 0, frame = 0
 707              		@ frame_needed = 0, uses_anonymous_args = 0
 708              		@ link register save eliminated.
 503:Drivers/STM32F7xx_HAL_Driver/Src/stm32f7xx_hal_sram.c ****   uint32_t size;
 709              		.loc 1 503 1 is_stmt 0 view .LVU200
 710 0000 30B4     		push	{r4, r5}
 711              	.LCFI8:
 712              		.cfi_def_cfa_offset 8
 713              		.cfi_offset 4, -8
 714              		.cfi_offset 5, -4
 504:Drivers/STM32F7xx_HAL_Driver/Src/stm32f7xx_hal_sram.c ****   __IO uint32_t *psramaddress = pAddress;
 715              		.loc 1 504 3 is_stmt 1 view .LVU201
 505:Drivers/STM32F7xx_HAL_Driver/Src/stm32f7xx_hal_sram.c ****   uint16_t *psrcbuff = pSrcBuffer;
 716              		.loc 1 505 3 view .LVU202
 717              	.LVL69:
 506:Drivers/STM32F7xx_HAL_Driver/Src/stm32f7xx_hal_sram.c ****   uint8_t limit;
 718              		.loc 1 506 3 view .LVU203
 507:Drivers/STM32F7xx_HAL_Driver/Src/stm32f7xx_hal_sram.c **** 
 719              		.loc 1 507 3 view .LVU204
 510:Drivers/STM32F7xx_HAL_Driver/Src/stm32f7xx_hal_sram.c ****   {
 720              		.loc 1 510 3 view .LVU205
 510:Drivers/STM32F7xx_HAL_Driver/Src/stm32f7xx_hal_sram.c ****   {
 721              		.loc 1 510 12 is_stmt 0 view .LVU206
 722 0002 90F84540 		ldrb	r4, [r0, #69]	@ zero_extendqisi2
 723 0006 E4B2     		uxtb	r4, r4
 510:Drivers/STM32F7xx_HAL_Driver/Src/stm32f7xx_hal_sram.c ****   {
 724              		.loc 1 510 6 view .LVU207
 725 0008 012C     		cmp	r4, #1
 726 000a 28D1     		bne	.L48
 513:Drivers/STM32F7xx_HAL_Driver/Src/stm32f7xx_hal_sram.c **** 
 727              		.loc 1 513 5 is_stmt 1 view .LVU208
 513:Drivers/STM32F7xx_HAL_Driver/Src/stm32f7xx_hal_sram.c **** 
 728              		.loc 1 513 5 view .LVU209
 729 000c 90F84440 		ldrb	r4, [r0, #68]	@ zero_extendqisi2
 730 0010 012C     		cmp	r4, #1
 731 0012 27D0     		beq	.L49
 513:Drivers/STM32F7xx_HAL_Driver/Src/stm32f7xx_hal_sram.c **** 
 732              		.loc 1 513 5 discriminator 2 view .LVU210
 733 0014 0124     		movs	r4, #1
 734 0016 80F84440 		strb	r4, [r0, #68]
 513:Drivers/STM32F7xx_HAL_Driver/Src/stm32f7xx_hal_sram.c **** 
 735              		.loc 1 513 5 discriminator 2 view .LVU211
 516:Drivers/STM32F7xx_HAL_Driver/Src/stm32f7xx_hal_sram.c **** 
 736              		.loc 1 516 5 discriminator 2 view .LVU212
 516:Drivers/STM32F7xx_HAL_Driver/Src/stm32f7xx_hal_sram.c **** 
ARM GAS  C:\Users\benny\AppData\Local\Temp\ccwEP4Gk.s 			page 36


 737              		.loc 1 516 18 is_stmt 0 discriminator 2 view .LVU213
 738 001a 0224     		movs	r4, #2
 739 001c 80F84540 		strb	r4, [r0, #69]
 519:Drivers/STM32F7xx_HAL_Driver/Src/stm32f7xx_hal_sram.c **** 
 740              		.loc 1 519 5 is_stmt 1 discriminator 2 view .LVU214
 519:Drivers/STM32F7xx_HAL_Driver/Src/stm32f7xx_hal_sram.c **** 
 741              		.loc 1 519 11 is_stmt 0 discriminator 2 view .LVU215
 742 0020 03F00105 		and	r5, r3, #1
 743              	.LVL70:
 522:Drivers/STM32F7xx_HAL_Driver/Src/stm32f7xx_hal_sram.c ****     {
 744              		.loc 1 522 5 is_stmt 1 discriminator 2 view .LVU216
 522:Drivers/STM32F7xx_HAL_Driver/Src/stm32f7xx_hal_sram.c ****     {
 745              		.loc 1 522 5 is_stmt 0 discriminator 2 view .LVU217
 746 0024 0AE0     		b	.L45
 747              	.LVL71:
 748              	.L46:
 524:Drivers/STM32F7xx_HAL_Driver/Src/stm32f7xx_hal_sram.c ****       psrcbuff++;
 749              		.loc 1 524 7 is_stmt 1 discriminator 3 view .LVU218
 524:Drivers/STM32F7xx_HAL_Driver/Src/stm32f7xx_hal_sram.c ****       psrcbuff++;
 750              		.loc 1 524 34 is_stmt 0 discriminator 3 view .LVU219
 751 0026 1488     		ldrh	r4, [r2]
 524:Drivers/STM32F7xx_HAL_Driver/Src/stm32f7xx_hal_sram.c ****       psrcbuff++;
 752              		.loc 1 524 21 discriminator 3 view .LVU220
 753 0028 0C60     		str	r4, [r1]
 525:Drivers/STM32F7xx_HAL_Driver/Src/stm32f7xx_hal_sram.c ****       *psramaddress |= ((uint32_t)(*psrcbuff) << 16U);
 754              		.loc 1 525 7 is_stmt 1 discriminator 3 view .LVU221
 755              	.LVL72:
 526:Drivers/STM32F7xx_HAL_Driver/Src/stm32f7xx_hal_sram.c ****       psrcbuff++;
 756              		.loc 1 526 7 discriminator 3 view .LVU222
 757 002a 0C68     		ldr	r4, [r1]
 526:Drivers/STM32F7xx_HAL_Driver/Src/stm32f7xx_hal_sram.c ****       psrcbuff++;
 758              		.loc 1 526 36 is_stmt 0 discriminator 3 view .LVU223
 759 002c B2F802C0 		ldrh	ip, [r2, #2]
 526:Drivers/STM32F7xx_HAL_Driver/Src/stm32f7xx_hal_sram.c ****       psrcbuff++;
 760              		.loc 1 526 21 discriminator 3 view .LVU224
 761 0030 44EA0C44 		orr	r4, r4, ip, lsl #16
 762 0034 41F8044B 		str	r4, [r1], #4
 763              	.LVL73:
 527:Drivers/STM32F7xx_HAL_Driver/Src/stm32f7xx_hal_sram.c ****       psramaddress++;
 764              		.loc 1 527 7 is_stmt 1 discriminator 3 view .LVU225
 527:Drivers/STM32F7xx_HAL_Driver/Src/stm32f7xx_hal_sram.c ****       psramaddress++;
 765              		.loc 1 527 15 is_stmt 0 discriminator 3 view .LVU226
 766 0038 0432     		adds	r2, r2, #4
 767              	.LVL74:
 528:Drivers/STM32F7xx_HAL_Driver/Src/stm32f7xx_hal_sram.c ****     }
 768              		.loc 1 528 7 is_stmt 1 discriminator 3 view .LVU227
 522:Drivers/STM32F7xx_HAL_Driver/Src/stm32f7xx_hal_sram.c ****     {
 769              		.loc 1 522 49 discriminator 3 view .LVU228
 770 003a 023B     		subs	r3, r3, #2
 771              	.LVL75:
 772              	.L45:
 522:Drivers/STM32F7xx_HAL_Driver/Src/stm32f7xx_hal_sram.c ****     {
 773              		.loc 1 522 34 discriminator 1 view .LVU229
 774 003c 9D42     		cmp	r5, r3
 775 003e F2D1     		bne	.L46
 532:Drivers/STM32F7xx_HAL_Driver/Src/stm32f7xx_hal_sram.c ****     {
 776              		.loc 1 532 5 view .LVU230
ARM GAS  C:\Users\benny\AppData\Local\Temp\ccwEP4Gk.s 			page 37


 532:Drivers/STM32F7xx_HAL_Driver/Src/stm32f7xx_hal_sram.c ****     {
 777              		.loc 1 532 8 is_stmt 0 view .LVU231
 778 0040 2DB1     		cbz	r5, .L47
 534:Drivers/STM32F7xx_HAL_Driver/Src/stm32f7xx_hal_sram.c ****     }
 779              		.loc 1 534 7 is_stmt 1 view .LVU232
 534:Drivers/STM32F7xx_HAL_Driver/Src/stm32f7xx_hal_sram.c ****     }
 780              		.loc 1 534 35 is_stmt 0 view .LVU233
 781 0042 1388     		ldrh	r3, [r2]
 782              	.LVL76:
 534:Drivers/STM32F7xx_HAL_Driver/Src/stm32f7xx_hal_sram.c ****     }
 783              		.loc 1 534 65 view .LVU234
 784 0044 0C68     		ldr	r4, [r1]
 534:Drivers/STM32F7xx_HAL_Driver/Src/stm32f7xx_hal_sram.c ****     }
 785              		.loc 1 534 80 view .LVU235
 786 0046 084A     		ldr	r2, .L51
 787              	.LVL77:
 534:Drivers/STM32F7xx_HAL_Driver/Src/stm32f7xx_hal_sram.c ****     }
 788              		.loc 1 534 80 view .LVU236
 789 0048 2240     		ands	r2, r2, r4
 534:Drivers/STM32F7xx_HAL_Driver/Src/stm32f7xx_hal_sram.c ****     }
 790              		.loc 1 534 61 view .LVU237
 791 004a 1343     		orrs	r3, r3, r2
 534:Drivers/STM32F7xx_HAL_Driver/Src/stm32f7xx_hal_sram.c ****     }
 792              		.loc 1 534 21 view .LVU238
 793 004c 0B60     		str	r3, [r1]
 794              	.L47:
 538:Drivers/STM32F7xx_HAL_Driver/Src/stm32f7xx_hal_sram.c **** 
 795              		.loc 1 538 5 is_stmt 1 view .LVU239
 538:Drivers/STM32F7xx_HAL_Driver/Src/stm32f7xx_hal_sram.c **** 
 796              		.loc 1 538 18 is_stmt 0 view .LVU240
 797 004e 0123     		movs	r3, #1
 798 0050 80F84530 		strb	r3, [r0, #69]
 541:Drivers/STM32F7xx_HAL_Driver/Src/stm32f7xx_hal_sram.c ****   }
 799              		.loc 1 541 5 is_stmt 1 view .LVU241
 541:Drivers/STM32F7xx_HAL_Driver/Src/stm32f7xx_hal_sram.c ****   }
 800              		.loc 1 541 5 view .LVU242
 801 0054 0023     		movs	r3, #0
 802 0056 80F84430 		strb	r3, [r0, #68]
 541:Drivers/STM32F7xx_HAL_Driver/Src/stm32f7xx_hal_sram.c ****   }
 803              		.loc 1 541 5 view .LVU243
 548:Drivers/STM32F7xx_HAL_Driver/Src/stm32f7xx_hal_sram.c **** }
 804              		.loc 1 548 3 view .LVU244
 548:Drivers/STM32F7xx_HAL_Driver/Src/stm32f7xx_hal_sram.c **** }
 805              		.loc 1 548 10 is_stmt 0 view .LVU245
 806 005a 1846     		mov	r0, r3
 807              	.LVL78:
 548:Drivers/STM32F7xx_HAL_Driver/Src/stm32f7xx_hal_sram.c **** }
 808              		.loc 1 548 10 view .LVU246
 809 005c 00E0     		b	.L44
 810              	.LVL79:
 811              	.L48:
 545:Drivers/STM32F7xx_HAL_Driver/Src/stm32f7xx_hal_sram.c ****   }
 812              		.loc 1 545 12 view .LVU247
 813 005e 0120     		movs	r0, #1
 814              	.LVL80:
 815              	.L44:
 549:Drivers/STM32F7xx_HAL_Driver/Src/stm32f7xx_hal_sram.c **** 
ARM GAS  C:\Users\benny\AppData\Local\Temp\ccwEP4Gk.s 			page 38


 816              		.loc 1 549 1 view .LVU248
 817 0060 30BC     		pop	{r4, r5}
 818              	.LCFI9:
 819              		.cfi_remember_state
 820              		.cfi_restore 5
 821              		.cfi_restore 4
 822              		.cfi_def_cfa_offset 0
 823 0062 7047     		bx	lr
 824              	.LVL81:
 825              	.L49:
 826              	.LCFI10:
 827              		.cfi_restore_state
 513:Drivers/STM32F7xx_HAL_Driver/Src/stm32f7xx_hal_sram.c **** 
 828              		.loc 1 513 5 view .LVU249
 829 0064 0220     		movs	r0, #2
 830              	.LVL82:
 513:Drivers/STM32F7xx_HAL_Driver/Src/stm32f7xx_hal_sram.c **** 
 831              		.loc 1 513 5 view .LVU250
 832 0066 FBE7     		b	.L44
 833              	.L52:
 834              		.align	2
 835              	.L51:
 836 0068 0000FFFF 		.word	-65536
 837              		.cfi_endproc
 838              	.LFE150:
 840              		.section	.text.HAL_SRAM_Read_32b,"ax",%progbits
 841              		.align	1
 842              		.global	HAL_SRAM_Read_32b
 843              		.syntax unified
 844              		.thumb
 845              		.thumb_func
 847              	HAL_SRAM_Read_32b:
 848              	.LVL83:
 849              	.LFB151:
 562:Drivers/STM32F7xx_HAL_Driver/Src/stm32f7xx_hal_sram.c ****   uint32_t size;
 850              		.loc 1 562 1 is_stmt 1 view -0
 851              		.cfi_startproc
 852              		@ args = 0, pretend = 0, frame = 0
 853              		@ frame_needed = 0, uses_anonymous_args = 0
 854              		@ link register save eliminated.
 562:Drivers/STM32F7xx_HAL_Driver/Src/stm32f7xx_hal_sram.c ****   uint32_t size;
 855              		.loc 1 562 1 is_stmt 0 view .LVU252
 856 0000 8446     		mov	ip, r0
 563:Drivers/STM32F7xx_HAL_Driver/Src/stm32f7xx_hal_sram.c ****   __IO uint32_t *psramaddress = pAddress;
 857              		.loc 1 563 3 is_stmt 1 view .LVU253
 564:Drivers/STM32F7xx_HAL_Driver/Src/stm32f7xx_hal_sram.c ****   uint32_t *pdestbuff = pDstBuffer;
 858              		.loc 1 564 3 view .LVU254
 859              	.LVL84:
 565:Drivers/STM32F7xx_HAL_Driver/Src/stm32f7xx_hal_sram.c ****   HAL_SRAM_StateTypeDef state = hsram->State;
 860              		.loc 1 565 3 view .LVU255
 566:Drivers/STM32F7xx_HAL_Driver/Src/stm32f7xx_hal_sram.c **** 
 861              		.loc 1 566 3 view .LVU256
 566:Drivers/STM32F7xx_HAL_Driver/Src/stm32f7xx_hal_sram.c **** 
 862              		.loc 1 566 25 is_stmt 0 view .LVU257
 863 0002 90F84500 		ldrb	r0, [r0, #69]	@ zero_extendqisi2
 864              	.LVL85:
 566:Drivers/STM32F7xx_HAL_Driver/Src/stm32f7xx_hal_sram.c **** 
ARM GAS  C:\Users\benny\AppData\Local\Temp\ccwEP4Gk.s 			page 39


 865              		.loc 1 566 25 view .LVU258
 866 0006 C0B2     		uxtb	r0, r0
 867              	.LVL86:
 569:Drivers/STM32F7xx_HAL_Driver/Src/stm32f7xx_hal_sram.c ****   {
 868              		.loc 1 569 3 is_stmt 1 view .LVU259
 569:Drivers/STM32F7xx_HAL_Driver/Src/stm32f7xx_hal_sram.c ****   {
 869              		.loc 1 569 6 is_stmt 0 view .LVU260
 870 0008 0428     		cmp	r0, #4
 871 000a 18BF     		it	ne
 872 000c 0128     		cmpne	r0, #1
 873 000e 1AD1     		bne	.L57
 562:Drivers/STM32F7xx_HAL_Driver/Src/stm32f7xx_hal_sram.c ****   uint32_t size;
 874              		.loc 1 562 1 view .LVU261
 875 0010 10B4     		push	{r4}
 876              	.LCFI11:
 877              		.cfi_def_cfa_offset 4
 878              		.cfi_offset 4, -4
 572:Drivers/STM32F7xx_HAL_Driver/Src/stm32f7xx_hal_sram.c **** 
 879              		.loc 1 572 5 is_stmt 1 view .LVU262
 572:Drivers/STM32F7xx_HAL_Driver/Src/stm32f7xx_hal_sram.c **** 
 880              		.loc 1 572 5 view .LVU263
 881 0012 9CF84440 		ldrb	r4, [ip, #68]	@ zero_extendqisi2
 882 0016 012C     		cmp	r4, #1
 883 0018 17D0     		beq	.L58
 572:Drivers/STM32F7xx_HAL_Driver/Src/stm32f7xx_hal_sram.c **** 
 884              		.loc 1 572 5 discriminator 2 view .LVU264
 885 001a 0124     		movs	r4, #1
 886 001c 8CF84440 		strb	r4, [ip, #68]
 572:Drivers/STM32F7xx_HAL_Driver/Src/stm32f7xx_hal_sram.c **** 
 887              		.loc 1 572 5 discriminator 2 view .LVU265
 575:Drivers/STM32F7xx_HAL_Driver/Src/stm32f7xx_hal_sram.c **** 
 888              		.loc 1 575 5 discriminator 2 view .LVU266
 575:Drivers/STM32F7xx_HAL_Driver/Src/stm32f7xx_hal_sram.c **** 
 889              		.loc 1 575 18 is_stmt 0 discriminator 2 view .LVU267
 890 0020 0224     		movs	r4, #2
 891 0022 8CF84540 		strb	r4, [ip, #69]
 578:Drivers/STM32F7xx_HAL_Driver/Src/stm32f7xx_hal_sram.c ****     {
 892              		.loc 1 578 5 is_stmt 1 discriminator 2 view .LVU268
 893              	.LVL87:
 578:Drivers/STM32F7xx_HAL_Driver/Src/stm32f7xx_hal_sram.c ****     {
 894              		.loc 1 578 5 is_stmt 0 discriminator 2 view .LVU269
 895 0026 04E0     		b	.L55
 896              	.LVL88:
 897              	.L56:
 580:Drivers/STM32F7xx_HAL_Driver/Src/stm32f7xx_hal_sram.c ****       pdestbuff++;
 898              		.loc 1 580 7 is_stmt 1 discriminator 3 view .LVU270
 580:Drivers/STM32F7xx_HAL_Driver/Src/stm32f7xx_hal_sram.c ****       pdestbuff++;
 899              		.loc 1 580 20 is_stmt 0 discriminator 3 view .LVU271
 900 0028 51F8044B 		ldr	r4, [r1], #4
 901              	.LVL89:
 580:Drivers/STM32F7xx_HAL_Driver/Src/stm32f7xx_hal_sram.c ****       pdestbuff++;
 902              		.loc 1 580 18 discriminator 3 view .LVU272
 903 002c 42F8044B 		str	r4, [r2], #4
 904              	.LVL90:
 581:Drivers/STM32F7xx_HAL_Driver/Src/stm32f7xx_hal_sram.c ****       psramaddress++;
 905              		.loc 1 581 7 is_stmt 1 discriminator 3 view .LVU273
 582:Drivers/STM32F7xx_HAL_Driver/Src/stm32f7xx_hal_sram.c ****     }
ARM GAS  C:\Users\benny\AppData\Local\Temp\ccwEP4Gk.s 			page 40


 906              		.loc 1 582 7 discriminator 3 view .LVU274
 578:Drivers/STM32F7xx_HAL_Driver/Src/stm32f7xx_hal_sram.c ****     {
 907              		.loc 1 578 45 discriminator 3 view .LVU275
 908 0030 013B     		subs	r3, r3, #1
 909              	.LVL91:
 910              	.L55:
 578:Drivers/STM32F7xx_HAL_Driver/Src/stm32f7xx_hal_sram.c ****     {
 911              		.loc 1 578 34 discriminator 1 view .LVU276
 912 0032 002B     		cmp	r3, #0
 913 0034 F8D1     		bne	.L56
 586:Drivers/STM32F7xx_HAL_Driver/Src/stm32f7xx_hal_sram.c **** 
 914              		.loc 1 586 5 view .LVU277
 586:Drivers/STM32F7xx_HAL_Driver/Src/stm32f7xx_hal_sram.c **** 
 915              		.loc 1 586 18 is_stmt 0 view .LVU278
 916 0036 8CF84500 		strb	r0, [ip, #69]
 589:Drivers/STM32F7xx_HAL_Driver/Src/stm32f7xx_hal_sram.c ****   }
 917              		.loc 1 589 5 is_stmt 1 view .LVU279
 589:Drivers/STM32F7xx_HAL_Driver/Src/stm32f7xx_hal_sram.c ****   }
 918              		.loc 1 589 5 view .LVU280
 919 003a 0020     		movs	r0, #0
 920              	.LVL92:
 589:Drivers/STM32F7xx_HAL_Driver/Src/stm32f7xx_hal_sram.c ****   }
 921              		.loc 1 589 5 is_stmt 0 view .LVU281
 922 003c 8CF84400 		strb	r0, [ip, #68]
 589:Drivers/STM32F7xx_HAL_Driver/Src/stm32f7xx_hal_sram.c ****   }
 923              		.loc 1 589 5 is_stmt 1 view .LVU282
 596:Drivers/STM32F7xx_HAL_Driver/Src/stm32f7xx_hal_sram.c **** }
 924              		.loc 1 596 3 view .LVU283
 925              	.LVL93:
 926              	.L54:
 597:Drivers/STM32F7xx_HAL_Driver/Src/stm32f7xx_hal_sram.c **** 
 927              		.loc 1 597 1 is_stmt 0 view .LVU284
 928 0040 5DF8044B 		ldr	r4, [sp], #4
 929              	.LCFI12:
 930              		.cfi_restore 4
 931              		.cfi_def_cfa_offset 0
 932 0044 7047     		bx	lr
 933              	.LVL94:
 934              	.L57:
 593:Drivers/STM32F7xx_HAL_Driver/Src/stm32f7xx_hal_sram.c ****   }
 935              		.loc 1 593 12 view .LVU285
 936 0046 0120     		movs	r0, #1
 937              	.LVL95:
 597:Drivers/STM32F7xx_HAL_Driver/Src/stm32f7xx_hal_sram.c **** 
 938              		.loc 1 597 1 view .LVU286
 939 0048 7047     		bx	lr
 940              	.LVL96:
 941              	.L58:
 942              	.LCFI13:
 943              		.cfi_def_cfa_offset 4
 944              		.cfi_offset 4, -4
 572:Drivers/STM32F7xx_HAL_Driver/Src/stm32f7xx_hal_sram.c **** 
 945              		.loc 1 572 5 view .LVU287
 946 004a 0220     		movs	r0, #2
 947              	.LVL97:
 572:Drivers/STM32F7xx_HAL_Driver/Src/stm32f7xx_hal_sram.c **** 
 948              		.loc 1 572 5 view .LVU288
ARM GAS  C:\Users\benny\AppData\Local\Temp\ccwEP4Gk.s 			page 41


 949 004c F8E7     		b	.L54
 950              		.cfi_endproc
 951              	.LFE151:
 953              		.section	.text.HAL_SRAM_Write_32b,"ax",%progbits
 954              		.align	1
 955              		.global	HAL_SRAM_Write_32b
 956              		.syntax unified
 957              		.thumb
 958              		.thumb_func
 960              	HAL_SRAM_Write_32b:
 961              	.LVL98:
 962              	.LFB152:
 610:Drivers/STM32F7xx_HAL_Driver/Src/stm32f7xx_hal_sram.c ****   uint32_t size;
 963              		.loc 1 610 1 is_stmt 1 view -0
 964              		.cfi_startproc
 965              		@ args = 0, pretend = 0, frame = 0
 966              		@ frame_needed = 0, uses_anonymous_args = 0
 967              		@ link register save eliminated.
 610:Drivers/STM32F7xx_HAL_Driver/Src/stm32f7xx_hal_sram.c ****   uint32_t size;
 968              		.loc 1 610 1 is_stmt 0 view .LVU290
 969 0000 10B4     		push	{r4}
 970              	.LCFI14:
 971              		.cfi_def_cfa_offset 4
 972              		.cfi_offset 4, -4
 611:Drivers/STM32F7xx_HAL_Driver/Src/stm32f7xx_hal_sram.c ****   __IO uint32_t *psramaddress = pAddress;
 973              		.loc 1 611 3 is_stmt 1 view .LVU291
 612:Drivers/STM32F7xx_HAL_Driver/Src/stm32f7xx_hal_sram.c ****   uint32_t *psrcbuff = pSrcBuffer;
 974              		.loc 1 612 3 view .LVU292
 975              	.LVL99:
 613:Drivers/STM32F7xx_HAL_Driver/Src/stm32f7xx_hal_sram.c **** 
 976              		.loc 1 613 3 view .LVU293
 616:Drivers/STM32F7xx_HAL_Driver/Src/stm32f7xx_hal_sram.c ****   {
 977              		.loc 1 616 3 view .LVU294
 616:Drivers/STM32F7xx_HAL_Driver/Src/stm32f7xx_hal_sram.c ****   {
 978              		.loc 1 616 12 is_stmt 0 view .LVU295
 979 0002 90F84540 		ldrb	r4, [r0, #69]	@ zero_extendqisi2
 980 0006 E4B2     		uxtb	r4, r4
 616:Drivers/STM32F7xx_HAL_Driver/Src/stm32f7xx_hal_sram.c ****   {
 981              		.loc 1 616 6 view .LVU296
 982 0008 012C     		cmp	r4, #1
 983 000a 19D1     		bne	.L67
 619:Drivers/STM32F7xx_HAL_Driver/Src/stm32f7xx_hal_sram.c **** 
 984              		.loc 1 619 5 is_stmt 1 view .LVU297
 619:Drivers/STM32F7xx_HAL_Driver/Src/stm32f7xx_hal_sram.c **** 
 985              		.loc 1 619 5 view .LVU298
 986 000c 90F84440 		ldrb	r4, [r0, #68]	@ zero_extendqisi2
 987 0010 012C     		cmp	r4, #1
 988 0012 19D0     		beq	.L68
 619:Drivers/STM32F7xx_HAL_Driver/Src/stm32f7xx_hal_sram.c **** 
 989              		.loc 1 619 5 discriminator 2 view .LVU299
 990 0014 0124     		movs	r4, #1
 991 0016 80F84440 		strb	r4, [r0, #68]
 619:Drivers/STM32F7xx_HAL_Driver/Src/stm32f7xx_hal_sram.c **** 
 992              		.loc 1 619 5 discriminator 2 view .LVU300
 622:Drivers/STM32F7xx_HAL_Driver/Src/stm32f7xx_hal_sram.c **** 
 993              		.loc 1 622 5 discriminator 2 view .LVU301
 622:Drivers/STM32F7xx_HAL_Driver/Src/stm32f7xx_hal_sram.c **** 
ARM GAS  C:\Users\benny\AppData\Local\Temp\ccwEP4Gk.s 			page 42


 994              		.loc 1 622 18 is_stmt 0 discriminator 2 view .LVU302
 995 001a 0224     		movs	r4, #2
 996 001c 80F84540 		strb	r4, [r0, #69]
 625:Drivers/STM32F7xx_HAL_Driver/Src/stm32f7xx_hal_sram.c ****     {
 997              		.loc 1 625 5 is_stmt 1 discriminator 2 view .LVU303
 998              	.LVL100:
 625:Drivers/STM32F7xx_HAL_Driver/Src/stm32f7xx_hal_sram.c ****     {
 999              		.loc 1 625 5 is_stmt 0 discriminator 2 view .LVU304
 1000 0020 04E0     		b	.L65
 1001              	.LVL101:
 1002              	.L66:
 627:Drivers/STM32F7xx_HAL_Driver/Src/stm32f7xx_hal_sram.c ****       psrcbuff++;
 1003              		.loc 1 627 7 is_stmt 1 discriminator 3 view .LVU305
 627:Drivers/STM32F7xx_HAL_Driver/Src/stm32f7xx_hal_sram.c ****       psrcbuff++;
 1004              		.loc 1 627 23 is_stmt 0 discriminator 3 view .LVU306
 1005 0022 52F8044B 		ldr	r4, [r2], #4
 1006              	.LVL102:
 627:Drivers/STM32F7xx_HAL_Driver/Src/stm32f7xx_hal_sram.c ****       psrcbuff++;
 1007              		.loc 1 627 21 discriminator 3 view .LVU307
 1008 0026 41F8044B 		str	r4, [r1], #4
 1009              	.LVL103:
 628:Drivers/STM32F7xx_HAL_Driver/Src/stm32f7xx_hal_sram.c ****       psramaddress++;
 1010              		.loc 1 628 7 is_stmt 1 discriminator 3 view .LVU308
 629:Drivers/STM32F7xx_HAL_Driver/Src/stm32f7xx_hal_sram.c ****     }
 1011              		.loc 1 629 7 discriminator 3 view .LVU309
 625:Drivers/STM32F7xx_HAL_Driver/Src/stm32f7xx_hal_sram.c ****     {
 1012              		.loc 1 625 45 discriminator 3 view .LVU310
 1013 002a 013B     		subs	r3, r3, #1
 1014              	.LVL104:
 1015              	.L65:
 625:Drivers/STM32F7xx_HAL_Driver/Src/stm32f7xx_hal_sram.c ****     {
 1016              		.loc 1 625 34 discriminator 1 view .LVU311
 1017 002c 002B     		cmp	r3, #0
 1018 002e F8D1     		bne	.L66
 633:Drivers/STM32F7xx_HAL_Driver/Src/stm32f7xx_hal_sram.c **** 
 1019              		.loc 1 633 5 view .LVU312
 633:Drivers/STM32F7xx_HAL_Driver/Src/stm32f7xx_hal_sram.c **** 
 1020              		.loc 1 633 18 is_stmt 0 view .LVU313
 1021 0030 0123     		movs	r3, #1
 1022              	.LVL105:
 633:Drivers/STM32F7xx_HAL_Driver/Src/stm32f7xx_hal_sram.c **** 
 1023              		.loc 1 633 18 view .LVU314
 1024 0032 80F84530 		strb	r3, [r0, #69]
 636:Drivers/STM32F7xx_HAL_Driver/Src/stm32f7xx_hal_sram.c ****   }
 1025              		.loc 1 636 5 is_stmt 1 view .LVU315
 636:Drivers/STM32F7xx_HAL_Driver/Src/stm32f7xx_hal_sram.c ****   }
 1026              		.loc 1 636 5 view .LVU316
 1027 0036 0023     		movs	r3, #0
 1028 0038 80F84430 		strb	r3, [r0, #68]
 636:Drivers/STM32F7xx_HAL_Driver/Src/stm32f7xx_hal_sram.c ****   }
 1029              		.loc 1 636 5 view .LVU317
 643:Drivers/STM32F7xx_HAL_Driver/Src/stm32f7xx_hal_sram.c **** }
 1030              		.loc 1 643 3 view .LVU318
 643:Drivers/STM32F7xx_HAL_Driver/Src/stm32f7xx_hal_sram.c **** }
 1031              		.loc 1 643 10 is_stmt 0 view .LVU319
 1032 003c 1846     		mov	r0, r3
 1033              	.LVL106:
ARM GAS  C:\Users\benny\AppData\Local\Temp\ccwEP4Gk.s 			page 43


 643:Drivers/STM32F7xx_HAL_Driver/Src/stm32f7xx_hal_sram.c **** }
 1034              		.loc 1 643 10 view .LVU320
 1035 003e 00E0     		b	.L64
 1036              	.LVL107:
 1037              	.L67:
 640:Drivers/STM32F7xx_HAL_Driver/Src/stm32f7xx_hal_sram.c ****   }
 1038              		.loc 1 640 12 view .LVU321
 1039 0040 0120     		movs	r0, #1
 1040              	.LVL108:
 1041              	.L64:
 644:Drivers/STM32F7xx_HAL_Driver/Src/stm32f7xx_hal_sram.c **** 
 1042              		.loc 1 644 1 view .LVU322
 1043 0042 5DF8044B 		ldr	r4, [sp], #4
 1044              	.LCFI15:
 1045              		.cfi_remember_state
 1046              		.cfi_restore 4
 1047              		.cfi_def_cfa_offset 0
 1048 0046 7047     		bx	lr
 1049              	.LVL109:
 1050              	.L68:
 1051              	.LCFI16:
 1052              		.cfi_restore_state
 619:Drivers/STM32F7xx_HAL_Driver/Src/stm32f7xx_hal_sram.c **** 
 1053              		.loc 1 619 5 view .LVU323
 1054 0048 0220     		movs	r0, #2
 1055              	.LVL110:
 619:Drivers/STM32F7xx_HAL_Driver/Src/stm32f7xx_hal_sram.c **** 
 1056              		.loc 1 619 5 view .LVU324
 1057 004a FAE7     		b	.L64
 1058              		.cfi_endproc
 1059              	.LFE152:
 1061              		.section	.text.HAL_SRAM_Read_DMA,"ax",%progbits
 1062              		.align	1
 1063              		.global	HAL_SRAM_Read_DMA
 1064              		.syntax unified
 1065              		.thumb
 1066              		.thumb_func
 1068              	HAL_SRAM_Read_DMA:
 1069              	.LVL111:
 1070              	.LFB153:
 657:Drivers/STM32F7xx_HAL_Driver/Src/stm32f7xx_hal_sram.c ****   HAL_StatusTypeDef status;
 1071              		.loc 1 657 1 is_stmt 1 view -0
 1072              		.cfi_startproc
 1073              		@ args = 0, pretend = 0, frame = 0
 1074              		@ frame_needed = 0, uses_anonymous_args = 0
 657:Drivers/STM32F7xx_HAL_Driver/Src/stm32f7xx_hal_sram.c ****   HAL_StatusTypeDef status;
 1075              		.loc 1 657 1 is_stmt 0 view .LVU326
 1076 0000 38B5     		push	{r3, r4, r5, lr}
 1077              	.LCFI17:
 1078              		.cfi_def_cfa_offset 16
 1079              		.cfi_offset 3, -16
 1080              		.cfi_offset 4, -12
 1081              		.cfi_offset 5, -8
 1082              		.cfi_offset 14, -4
 1083 0002 0446     		mov	r4, r0
 658:Drivers/STM32F7xx_HAL_Driver/Src/stm32f7xx_hal_sram.c ****   HAL_SRAM_StateTypeDef state = hsram->State;
 1084              		.loc 1 658 3 is_stmt 1 view .LVU327
ARM GAS  C:\Users\benny\AppData\Local\Temp\ccwEP4Gk.s 			page 44


 659:Drivers/STM32F7xx_HAL_Driver/Src/stm32f7xx_hal_sram.c **** 
 1085              		.loc 1 659 3 view .LVU328
 659:Drivers/STM32F7xx_HAL_Driver/Src/stm32f7xx_hal_sram.c **** 
 1086              		.loc 1 659 25 is_stmt 0 view .LVU329
 1087 0004 90F84500 		ldrb	r0, [r0, #69]	@ zero_extendqisi2
 1088              	.LVL112:
 659:Drivers/STM32F7xx_HAL_Driver/Src/stm32f7xx_hal_sram.c **** 
 1089              		.loc 1 659 25 view .LVU330
 1090 0008 C0B2     		uxtb	r0, r0
 1091              	.LVL113:
 662:Drivers/STM32F7xx_HAL_Driver/Src/stm32f7xx_hal_sram.c ****   {
 1092              		.loc 1 662 3 is_stmt 1 view .LVU331
 662:Drivers/STM32F7xx_HAL_Driver/Src/stm32f7xx_hal_sram.c ****   {
 1093              		.loc 1 662 6 is_stmt 0 view .LVU332
 1094 000a 0428     		cmp	r0, #4
 1095 000c 18BF     		it	ne
 1096 000e 0128     		cmpne	r0, #1
 1097 0010 1DD1     		bne	.L74
 665:Drivers/STM32F7xx_HAL_Driver/Src/stm32f7xx_hal_sram.c **** 
 1098              		.loc 1 665 5 is_stmt 1 view .LVU333
 665:Drivers/STM32F7xx_HAL_Driver/Src/stm32f7xx_hal_sram.c **** 
 1099              		.loc 1 665 5 view .LVU334
 1100 0012 94F844C0 		ldrb	ip, [r4, #68]	@ zero_extendqisi2
 1101 0016 BCF1010F 		cmp	ip, #1
 1102 001a 1AD0     		beq	.L75
 665:Drivers/STM32F7xx_HAL_Driver/Src/stm32f7xx_hal_sram.c **** 
 1103              		.loc 1 665 5 discriminator 2 view .LVU335
 1104 001c 0125     		movs	r5, #1
 1105 001e 84F84450 		strb	r5, [r4, #68]
 665:Drivers/STM32F7xx_HAL_Driver/Src/stm32f7xx_hal_sram.c **** 
 1106              		.loc 1 665 5 discriminator 2 view .LVU336
 668:Drivers/STM32F7xx_HAL_Driver/Src/stm32f7xx_hal_sram.c **** 
 1107              		.loc 1 668 5 discriminator 2 view .LVU337
 668:Drivers/STM32F7xx_HAL_Driver/Src/stm32f7xx_hal_sram.c **** 
 1108              		.loc 1 668 18 is_stmt 0 discriminator 2 view .LVU338
 1109 0022 0225     		movs	r5, #2
 1110 0024 84F84550 		strb	r5, [r4, #69]
 671:Drivers/STM32F7xx_HAL_Driver/Src/stm32f7xx_hal_sram.c ****     {
 1111              		.loc 1 671 5 is_stmt 1 discriminator 2 view .LVU339
 671:Drivers/STM32F7xx_HAL_Driver/Src/stm32f7xx_hal_sram.c ****     {
 1112              		.loc 1 671 8 is_stmt 0 discriminator 2 view .LVU340
 1113 0028 0128     		cmp	r0, #1
 1114 002a 0CD0     		beq	.L77
 677:Drivers/STM32F7xx_HAL_Driver/Src/stm32f7xx_hal_sram.c ****     }
 1115              		.loc 1 677 7 is_stmt 1 view .LVU341
 677:Drivers/STM32F7xx_HAL_Driver/Src/stm32f7xx_hal_sram.c ****     }
 1116              		.loc 1 677 12 is_stmt 0 view .LVU342
 1117 002c A06C     		ldr	r0, [r4, #72]
 1118              	.LVL114:
 677:Drivers/STM32F7xx_HAL_Driver/Src/stm32f7xx_hal_sram.c ****     }
 1119              		.loc 1 677 37 view .LVU343
 1120 002e 0A4D     		ldr	r5, .L78
 1121 0030 C563     		str	r5, [r0, #60]
 1122              	.L73:
 679:Drivers/STM32F7xx_HAL_Driver/Src/stm32f7xx_hal_sram.c **** 
 1123              		.loc 1 679 5 is_stmt 1 view .LVU344
 679:Drivers/STM32F7xx_HAL_Driver/Src/stm32f7xx_hal_sram.c **** 
ARM GAS  C:\Users\benny\AppData\Local\Temp\ccwEP4Gk.s 			page 45


 1124              		.loc 1 679 10 is_stmt 0 view .LVU345
 1125 0032 A06C     		ldr	r0, [r4, #72]
 679:Drivers/STM32F7xx_HAL_Driver/Src/stm32f7xx_hal_sram.c **** 
 1126              		.loc 1 679 36 view .LVU346
 1127 0034 094D     		ldr	r5, .L78+4
 1128 0036 C564     		str	r5, [r0, #76]
 682:Drivers/STM32F7xx_HAL_Driver/Src/stm32f7xx_hal_sram.c **** 
 1129              		.loc 1 682 5 is_stmt 1 view .LVU347
 682:Drivers/STM32F7xx_HAL_Driver/Src/stm32f7xx_hal_sram.c **** 
 1130              		.loc 1 682 14 is_stmt 0 view .LVU348
 1131 0038 A06C     		ldr	r0, [r4, #72]
 1132 003a FFF7FEFF 		bl	HAL_DMA_Start_IT
 1133              	.LVL115:
 685:Drivers/STM32F7xx_HAL_Driver/Src/stm32f7xx_hal_sram.c ****   }
 1134              		.loc 1 685 5 is_stmt 1 view .LVU349
 685:Drivers/STM32F7xx_HAL_Driver/Src/stm32f7xx_hal_sram.c ****   }
 1135              		.loc 1 685 5 view .LVU350
 1136 003e 0023     		movs	r3, #0
 1137 0040 84F84430 		strb	r3, [r4, #68]
 685:Drivers/STM32F7xx_HAL_Driver/Src/stm32f7xx_hal_sram.c ****   }
 1138              		.loc 1 685 5 view .LVU351
 1139 0044 04E0     		b	.L71
 1140              	.LVL116:
 1141              	.L77:
 673:Drivers/STM32F7xx_HAL_Driver/Src/stm32f7xx_hal_sram.c ****     }
 1142              		.loc 1 673 7 view .LVU352
 673:Drivers/STM32F7xx_HAL_Driver/Src/stm32f7xx_hal_sram.c ****     }
 1143              		.loc 1 673 12 is_stmt 0 view .LVU353
 1144 0046 A06C     		ldr	r0, [r4, #72]
 1145              	.LVL117:
 673:Drivers/STM32F7xx_HAL_Driver/Src/stm32f7xx_hal_sram.c ****     }
 1146              		.loc 1 673 37 view .LVU354
 1147 0048 054D     		ldr	r5, .L78+8
 1148 004a C563     		str	r5, [r0, #60]
 1149 004c F1E7     		b	.L73
 1150              	.LVL118:
 1151              	.L74:
 689:Drivers/STM32F7xx_HAL_Driver/Src/stm32f7xx_hal_sram.c ****   }
 1152              		.loc 1 689 12 view .LVU355
 1153 004e 0120     		movs	r0, #1
 1154              	.LVL119:
 1155              	.L71:
 693:Drivers/STM32F7xx_HAL_Driver/Src/stm32f7xx_hal_sram.c **** 
 1156              		.loc 1 693 1 view .LVU356
 1157 0050 38BD     		pop	{r3, r4, r5, pc}
 1158              	.LVL120:
 1159              	.L75:
 665:Drivers/STM32F7xx_HAL_Driver/Src/stm32f7xx_hal_sram.c **** 
 1160              		.loc 1 665 5 view .LVU357
 1161 0052 0220     		movs	r0, #2
 1162              	.LVL121:
 665:Drivers/STM32F7xx_HAL_Driver/Src/stm32f7xx_hal_sram.c **** 
 1163              		.loc 1 665 5 view .LVU358
 1164 0054 FCE7     		b	.L71
 1165              	.L79:
 1166 0056 00BF     		.align	2
 1167              	.L78:
ARM GAS  C:\Users\benny\AppData\Local\Temp\ccwEP4Gk.s 			page 46


 1168 0058 00000000 		.word	SRAM_DMACpltProt
 1169 005c 00000000 		.word	SRAM_DMAError
 1170 0060 00000000 		.word	SRAM_DMACplt
 1171              		.cfi_endproc
 1172              	.LFE153:
 1174              		.section	.text.HAL_SRAM_Write_DMA,"ax",%progbits
 1175              		.align	1
 1176              		.global	HAL_SRAM_Write_DMA
 1177              		.syntax unified
 1178              		.thumb
 1179              		.thumb_func
 1181              	HAL_SRAM_Write_DMA:
 1182              	.LVL122:
 1183              	.LFB154:
 706:Drivers/STM32F7xx_HAL_Driver/Src/stm32f7xx_hal_sram.c ****   HAL_StatusTypeDef status;
 1184              		.loc 1 706 1 is_stmt 1 view -0
 1185              		.cfi_startproc
 1186              		@ args = 0, pretend = 0, frame = 0
 1187              		@ frame_needed = 0, uses_anonymous_args = 0
 706:Drivers/STM32F7xx_HAL_Driver/Src/stm32f7xx_hal_sram.c ****   HAL_StatusTypeDef status;
 1188              		.loc 1 706 1 is_stmt 0 view .LVU360
 1189 0000 10B5     		push	{r4, lr}
 1190              	.LCFI18:
 1191              		.cfi_def_cfa_offset 8
 1192              		.cfi_offset 4, -8
 1193              		.cfi_offset 14, -4
 1194 0002 0446     		mov	r4, r0
 707:Drivers/STM32F7xx_HAL_Driver/Src/stm32f7xx_hal_sram.c **** 
 1195              		.loc 1 707 3 is_stmt 1 view .LVU361
 710:Drivers/STM32F7xx_HAL_Driver/Src/stm32f7xx_hal_sram.c ****   {
 1196              		.loc 1 710 3 view .LVU362
 710:Drivers/STM32F7xx_HAL_Driver/Src/stm32f7xx_hal_sram.c ****   {
 1197              		.loc 1 710 12 is_stmt 0 view .LVU363
 1198 0004 90F84500 		ldrb	r0, [r0, #69]	@ zero_extendqisi2
 1199              	.LVL123:
 710:Drivers/STM32F7xx_HAL_Driver/Src/stm32f7xx_hal_sram.c ****   {
 1200              		.loc 1 710 12 view .LVU364
 1201 0008 C0B2     		uxtb	r0, r0
 710:Drivers/STM32F7xx_HAL_Driver/Src/stm32f7xx_hal_sram.c ****   {
 1202              		.loc 1 710 6 view .LVU365
 1203 000a 0128     		cmp	r0, #1
 1204 000c 01D0     		beq	.L85
 730:Drivers/STM32F7xx_HAL_Driver/Src/stm32f7xx_hal_sram.c ****   }
 1205              		.loc 1 730 12 view .LVU366
 1206 000e 0120     		movs	r0, #1
 1207              	.LVL124:
 1208              	.L81:
 734:Drivers/STM32F7xx_HAL_Driver/Src/stm32f7xx_hal_sram.c **** 
 1209              		.loc 1 734 1 view .LVU367
 1210 0010 10BD     		pop	{r4, pc}
 1211              	.LVL125:
 1212              	.L85:
 734:Drivers/STM32F7xx_HAL_Driver/Src/stm32f7xx_hal_sram.c **** 
 1213              		.loc 1 734 1 view .LVU368
 1214 0012 8C46     		mov	ip, r1
 1215 0014 1146     		mov	r1, r2
 1216              	.LVL126:
ARM GAS  C:\Users\benny\AppData\Local\Temp\ccwEP4Gk.s 			page 47


 713:Drivers/STM32F7xx_HAL_Driver/Src/stm32f7xx_hal_sram.c **** 
 1217              		.loc 1 713 5 is_stmt 1 view .LVU369
 713:Drivers/STM32F7xx_HAL_Driver/Src/stm32f7xx_hal_sram.c **** 
 1218              		.loc 1 713 5 view .LVU370
 1219 0016 94F84420 		ldrb	r2, [r4, #68]	@ zero_extendqisi2
 1220              	.LVL127:
 713:Drivers/STM32F7xx_HAL_Driver/Src/stm32f7xx_hal_sram.c **** 
 1221              		.loc 1 713 5 is_stmt 0 view .LVU371
 1222 001a 012A     		cmp	r2, #1
 1223 001c 13D0     		beq	.L83
 713:Drivers/STM32F7xx_HAL_Driver/Src/stm32f7xx_hal_sram.c **** 
 1224              		.loc 1 713 5 is_stmt 1 discriminator 2 view .LVU372
 1225 001e 0122     		movs	r2, #1
 1226 0020 84F84420 		strb	r2, [r4, #68]
 713:Drivers/STM32F7xx_HAL_Driver/Src/stm32f7xx_hal_sram.c **** 
 1227              		.loc 1 713 5 discriminator 2 view .LVU373
 716:Drivers/STM32F7xx_HAL_Driver/Src/stm32f7xx_hal_sram.c **** 
 1228              		.loc 1 716 5 discriminator 2 view .LVU374
 716:Drivers/STM32F7xx_HAL_Driver/Src/stm32f7xx_hal_sram.c **** 
 1229              		.loc 1 716 18 is_stmt 0 discriminator 2 view .LVU375
 1230 0024 0222     		movs	r2, #2
 1231 0026 84F84520 		strb	r2, [r4, #69]
 719:Drivers/STM32F7xx_HAL_Driver/Src/stm32f7xx_hal_sram.c ****     hsram->hdma->XferErrorCallback = SRAM_DMAError;
 1232              		.loc 1 719 5 is_stmt 1 discriminator 2 view .LVU376
 719:Drivers/STM32F7xx_HAL_Driver/Src/stm32f7xx_hal_sram.c ****     hsram->hdma->XferErrorCallback = SRAM_DMAError;
 1233              		.loc 1 719 10 is_stmt 0 discriminator 2 view .LVU377
 1234 002a A26C     		ldr	r2, [r4, #72]
 719:Drivers/STM32F7xx_HAL_Driver/Src/stm32f7xx_hal_sram.c ****     hsram->hdma->XferErrorCallback = SRAM_DMAError;
 1235              		.loc 1 719 35 discriminator 2 view .LVU378
 1236 002c 0748     		ldr	r0, .L86
 1237 002e D063     		str	r0, [r2, #60]
 720:Drivers/STM32F7xx_HAL_Driver/Src/stm32f7xx_hal_sram.c **** 
 1238              		.loc 1 720 5 is_stmt 1 discriminator 2 view .LVU379
 720:Drivers/STM32F7xx_HAL_Driver/Src/stm32f7xx_hal_sram.c **** 
 1239              		.loc 1 720 10 is_stmt 0 discriminator 2 view .LVU380
 1240 0030 A26C     		ldr	r2, [r4, #72]
 720:Drivers/STM32F7xx_HAL_Driver/Src/stm32f7xx_hal_sram.c **** 
 1241              		.loc 1 720 36 discriminator 2 view .LVU381
 1242 0032 0748     		ldr	r0, .L86+4
 1243 0034 D064     		str	r0, [r2, #76]
 723:Drivers/STM32F7xx_HAL_Driver/Src/stm32f7xx_hal_sram.c **** 
 1244              		.loc 1 723 5 is_stmt 1 discriminator 2 view .LVU382
 723:Drivers/STM32F7xx_HAL_Driver/Src/stm32f7xx_hal_sram.c **** 
 1245              		.loc 1 723 14 is_stmt 0 discriminator 2 view .LVU383
 1246 0036 6246     		mov	r2, ip
 1247 0038 A06C     		ldr	r0, [r4, #72]
 1248 003a FFF7FEFF 		bl	HAL_DMA_Start_IT
 1249              	.LVL128:
 726:Drivers/STM32F7xx_HAL_Driver/Src/stm32f7xx_hal_sram.c ****   }
 1250              		.loc 1 726 5 is_stmt 1 discriminator 2 view .LVU384
 726:Drivers/STM32F7xx_HAL_Driver/Src/stm32f7xx_hal_sram.c ****   }
 1251              		.loc 1 726 5 discriminator 2 view .LVU385
 1252 003e 0023     		movs	r3, #0
 1253 0040 84F84430 		strb	r3, [r4, #68]
 726:Drivers/STM32F7xx_HAL_Driver/Src/stm32f7xx_hal_sram.c ****   }
 1254              		.loc 1 726 5 discriminator 2 view .LVU386
 1255 0044 E4E7     		b	.L81
ARM GAS  C:\Users\benny\AppData\Local\Temp\ccwEP4Gk.s 			page 48


 1256              	.LVL129:
 1257              	.L83:
 713:Drivers/STM32F7xx_HAL_Driver/Src/stm32f7xx_hal_sram.c **** 
 1258              		.loc 1 713 5 is_stmt 0 view .LVU387
 1259 0046 0220     		movs	r0, #2
 1260 0048 E2E7     		b	.L81
 1261              	.L87:
 1262 004a 00BF     		.align	2
 1263              	.L86:
 1264 004c 00000000 		.word	SRAM_DMACplt
 1265 0050 00000000 		.word	SRAM_DMAError
 1266              		.cfi_endproc
 1267              	.LFE154:
 1269              		.section	.text.HAL_SRAM_WriteOperation_Enable,"ax",%progbits
 1270              		.align	1
 1271              		.global	HAL_SRAM_WriteOperation_Enable
 1272              		.syntax unified
 1273              		.thumb
 1274              		.thumb_func
 1276              	HAL_SRAM_WriteOperation_Enable:
 1277              	.LVL130:
 1278              	.LFB155:
 930:Drivers/STM32F7xx_HAL_Driver/Src/stm32f7xx_hal_sram.c ****   /* Check the SRAM controller state */
 1279              		.loc 1 930 1 is_stmt 1 view -0
 1280              		.cfi_startproc
 1281              		@ args = 0, pretend = 0, frame = 0
 1282              		@ frame_needed = 0, uses_anonymous_args = 0
 930:Drivers/STM32F7xx_HAL_Driver/Src/stm32f7xx_hal_sram.c ****   /* Check the SRAM controller state */
 1283              		.loc 1 930 1 is_stmt 0 view .LVU389
 1284 0000 38B5     		push	{r3, r4, r5, lr}
 1285              	.LCFI19:
 1286              		.cfi_def_cfa_offset 16
 1287              		.cfi_offset 3, -16
 1288              		.cfi_offset 4, -12
 1289              		.cfi_offset 5, -8
 1290              		.cfi_offset 14, -4
 932:Drivers/STM32F7xx_HAL_Driver/Src/stm32f7xx_hal_sram.c ****   {
 1291              		.loc 1 932 3 is_stmt 1 view .LVU390
 932:Drivers/STM32F7xx_HAL_Driver/Src/stm32f7xx_hal_sram.c ****   {
 1292              		.loc 1 932 12 is_stmt 0 view .LVU391
 1293 0002 90F84530 		ldrb	r3, [r0, #69]	@ zero_extendqisi2
 1294 0006 DBB2     		uxtb	r3, r3
 932:Drivers/STM32F7xx_HAL_Driver/Src/stm32f7xx_hal_sram.c ****   {
 1295              		.loc 1 932 6 view .LVU392
 1296 0008 042B     		cmp	r3, #4
 1297 000a 14D1     		bne	.L90
 1298 000c 0446     		mov	r4, r0
 935:Drivers/STM32F7xx_HAL_Driver/Src/stm32f7xx_hal_sram.c **** 
 1299              		.loc 1 935 5 is_stmt 1 view .LVU393
 935:Drivers/STM32F7xx_HAL_Driver/Src/stm32f7xx_hal_sram.c **** 
 1300              		.loc 1 935 5 view .LVU394
 1301 000e 90F84430 		ldrb	r3, [r0, #68]	@ zero_extendqisi2
 1302 0012 012B     		cmp	r3, #1
 1303 0014 11D0     		beq	.L91
 935:Drivers/STM32F7xx_HAL_Driver/Src/stm32f7xx_hal_sram.c **** 
 1304              		.loc 1 935 5 discriminator 2 view .LVU395
 1305 0016 0125     		movs	r5, #1
ARM GAS  C:\Users\benny\AppData\Local\Temp\ccwEP4Gk.s 			page 49


 1306 0018 80F84450 		strb	r5, [r0, #68]
 935:Drivers/STM32F7xx_HAL_Driver/Src/stm32f7xx_hal_sram.c **** 
 1307              		.loc 1 935 5 discriminator 2 view .LVU396
 938:Drivers/STM32F7xx_HAL_Driver/Src/stm32f7xx_hal_sram.c **** 
 1308              		.loc 1 938 5 discriminator 2 view .LVU397
 938:Drivers/STM32F7xx_HAL_Driver/Src/stm32f7xx_hal_sram.c **** 
 1309              		.loc 1 938 18 is_stmt 0 discriminator 2 view .LVU398
 1310 001c 0223     		movs	r3, #2
 1311 001e 80F84530 		strb	r3, [r0, #69]
 941:Drivers/STM32F7xx_HAL_Driver/Src/stm32f7xx_hal_sram.c **** 
 1312              		.loc 1 941 5 is_stmt 1 discriminator 2 view .LVU399
 941:Drivers/STM32F7xx_HAL_Driver/Src/stm32f7xx_hal_sram.c **** 
 1313              		.loc 1 941 11 is_stmt 0 discriminator 2 view .LVU400
 1314 0022 8168     		ldr	r1, [r0, #8]
 1315 0024 0068     		ldr	r0, [r0]
 1316              	.LVL131:
 941:Drivers/STM32F7xx_HAL_Driver/Src/stm32f7xx_hal_sram.c **** 
 1317              		.loc 1 941 11 discriminator 2 view .LVU401
 1318 0026 FFF7FEFF 		bl	FMC_NORSRAM_WriteOperation_Enable
 1319              	.LVL132:
 944:Drivers/STM32F7xx_HAL_Driver/Src/stm32f7xx_hal_sram.c **** 
 1320              		.loc 1 944 5 is_stmt 1 discriminator 2 view .LVU402
 944:Drivers/STM32F7xx_HAL_Driver/Src/stm32f7xx_hal_sram.c **** 
 1321              		.loc 1 944 18 is_stmt 0 discriminator 2 view .LVU403
 1322 002a 84F84550 		strb	r5, [r4, #69]
 947:Drivers/STM32F7xx_HAL_Driver/Src/stm32f7xx_hal_sram.c ****   }
 1323              		.loc 1 947 5 is_stmt 1 discriminator 2 view .LVU404
 947:Drivers/STM32F7xx_HAL_Driver/Src/stm32f7xx_hal_sram.c ****   }
 1324              		.loc 1 947 5 discriminator 2 view .LVU405
 1325 002e 0020     		movs	r0, #0
 1326 0030 84F84400 		strb	r0, [r4, #68]
 947:Drivers/STM32F7xx_HAL_Driver/Src/stm32f7xx_hal_sram.c ****   }
 1327              		.loc 1 947 5 discriminator 2 view .LVU406
 954:Drivers/STM32F7xx_HAL_Driver/Src/stm32f7xx_hal_sram.c **** }
 1328              		.loc 1 954 3 discriminator 2 view .LVU407
 954:Drivers/STM32F7xx_HAL_Driver/Src/stm32f7xx_hal_sram.c **** }
 1329              		.loc 1 954 10 is_stmt 0 discriminator 2 view .LVU408
 1330 0034 00E0     		b	.L89
 1331              	.LVL133:
 1332              	.L90:
 951:Drivers/STM32F7xx_HAL_Driver/Src/stm32f7xx_hal_sram.c ****   }
 1333              		.loc 1 951 12 view .LVU409
 1334 0036 0120     		movs	r0, #1
 1335              	.LVL134:
 1336              	.L89:
 955:Drivers/STM32F7xx_HAL_Driver/Src/stm32f7xx_hal_sram.c **** 
 1337              		.loc 1 955 1 view .LVU410
 1338 0038 38BD     		pop	{r3, r4, r5, pc}
 1339              	.LVL135:
 1340              	.L91:
 935:Drivers/STM32F7xx_HAL_Driver/Src/stm32f7xx_hal_sram.c **** 
 1341              		.loc 1 935 5 view .LVU411
 1342 003a 0220     		movs	r0, #2
 1343              	.LVL136:
 935:Drivers/STM32F7xx_HAL_Driver/Src/stm32f7xx_hal_sram.c **** 
 1344              		.loc 1 935 5 view .LVU412
 1345 003c FCE7     		b	.L89
ARM GAS  C:\Users\benny\AppData\Local\Temp\ccwEP4Gk.s 			page 50


 1346              		.cfi_endproc
 1347              	.LFE155:
 1349              		.section	.text.HAL_SRAM_WriteOperation_Disable,"ax",%progbits
 1350              		.align	1
 1351              		.global	HAL_SRAM_WriteOperation_Disable
 1352              		.syntax unified
 1353              		.thumb
 1354              		.thumb_func
 1356              	HAL_SRAM_WriteOperation_Disable:
 1357              	.LVL137:
 1358              	.LFB156:
 964:Drivers/STM32F7xx_HAL_Driver/Src/stm32f7xx_hal_sram.c ****   /* Check the SRAM controller state */
 1359              		.loc 1 964 1 is_stmt 1 view -0
 1360              		.cfi_startproc
 1361              		@ args = 0, pretend = 0, frame = 0
 1362              		@ frame_needed = 0, uses_anonymous_args = 0
 966:Drivers/STM32F7xx_HAL_Driver/Src/stm32f7xx_hal_sram.c ****   {
 1363              		.loc 1 966 3 view .LVU414
 966:Drivers/STM32F7xx_HAL_Driver/Src/stm32f7xx_hal_sram.c ****   {
 1364              		.loc 1 966 12 is_stmt 0 view .LVU415
 1365 0000 90F84530 		ldrb	r3, [r0, #69]	@ zero_extendqisi2
 1366 0004 DBB2     		uxtb	r3, r3
 966:Drivers/STM32F7xx_HAL_Driver/Src/stm32f7xx_hal_sram.c ****   {
 1367              		.loc 1 966 6 view .LVU416
 1368 0006 012B     		cmp	r3, #1
 1369 0008 16D1     		bne	.L95
 964:Drivers/STM32F7xx_HAL_Driver/Src/stm32f7xx_hal_sram.c ****   /* Check the SRAM controller state */
 1370              		.loc 1 964 1 view .LVU417
 1371 000a 10B5     		push	{r4, lr}
 1372              	.LCFI20:
 1373              		.cfi_def_cfa_offset 8
 1374              		.cfi_offset 4, -8
 1375              		.cfi_offset 14, -4
 1376 000c 0446     		mov	r4, r0
 969:Drivers/STM32F7xx_HAL_Driver/Src/stm32f7xx_hal_sram.c **** 
 1377              		.loc 1 969 5 is_stmt 1 view .LVU418
 969:Drivers/STM32F7xx_HAL_Driver/Src/stm32f7xx_hal_sram.c **** 
 1378              		.loc 1 969 5 view .LVU419
 1379 000e 90F84430 		ldrb	r3, [r0, #68]	@ zero_extendqisi2
 1380 0012 012B     		cmp	r3, #1
 1381 0014 12D0     		beq	.L96
 969:Drivers/STM32F7xx_HAL_Driver/Src/stm32f7xx_hal_sram.c **** 
 1382              		.loc 1 969 5 discriminator 2 view .LVU420
 1383 0016 0123     		movs	r3, #1
 1384 0018 80F84430 		strb	r3, [r0, #68]
 969:Drivers/STM32F7xx_HAL_Driver/Src/stm32f7xx_hal_sram.c **** 
 1385              		.loc 1 969 5 discriminator 2 view .LVU421
 972:Drivers/STM32F7xx_HAL_Driver/Src/stm32f7xx_hal_sram.c **** 
 1386              		.loc 1 972 5 discriminator 2 view .LVU422
 972:Drivers/STM32F7xx_HAL_Driver/Src/stm32f7xx_hal_sram.c **** 
 1387              		.loc 1 972 18 is_stmt 0 discriminator 2 view .LVU423
 1388 001c 0223     		movs	r3, #2
 1389 001e 80F84530 		strb	r3, [r0, #69]
 975:Drivers/STM32F7xx_HAL_Driver/Src/stm32f7xx_hal_sram.c **** 
 1390              		.loc 1 975 5 is_stmt 1 discriminator 2 view .LVU424
 975:Drivers/STM32F7xx_HAL_Driver/Src/stm32f7xx_hal_sram.c **** 
 1391              		.loc 1 975 11 is_stmt 0 discriminator 2 view .LVU425
ARM GAS  C:\Users\benny\AppData\Local\Temp\ccwEP4Gk.s 			page 51


 1392 0022 8168     		ldr	r1, [r0, #8]
 1393 0024 0068     		ldr	r0, [r0]
 1394              	.LVL138:
 975:Drivers/STM32F7xx_HAL_Driver/Src/stm32f7xx_hal_sram.c **** 
 1395              		.loc 1 975 11 discriminator 2 view .LVU426
 1396 0026 FFF7FEFF 		bl	FMC_NORSRAM_WriteOperation_Disable
 1397              	.LVL139:
 978:Drivers/STM32F7xx_HAL_Driver/Src/stm32f7xx_hal_sram.c **** 
 1398              		.loc 1 978 5 is_stmt 1 discriminator 2 view .LVU427
 978:Drivers/STM32F7xx_HAL_Driver/Src/stm32f7xx_hal_sram.c **** 
 1399              		.loc 1 978 18 is_stmt 0 discriminator 2 view .LVU428
 1400 002a 0423     		movs	r3, #4
 1401 002c 84F84530 		strb	r3, [r4, #69]
 981:Drivers/STM32F7xx_HAL_Driver/Src/stm32f7xx_hal_sram.c ****   }
 1402              		.loc 1 981 5 is_stmt 1 discriminator 2 view .LVU429
 981:Drivers/STM32F7xx_HAL_Driver/Src/stm32f7xx_hal_sram.c ****   }
 1403              		.loc 1 981 5 discriminator 2 view .LVU430
 1404 0030 0020     		movs	r0, #0
 1405 0032 84F84400 		strb	r0, [r4, #68]
 981:Drivers/STM32F7xx_HAL_Driver/Src/stm32f7xx_hal_sram.c ****   }
 1406              		.loc 1 981 5 discriminator 2 view .LVU431
 988:Drivers/STM32F7xx_HAL_Driver/Src/stm32f7xx_hal_sram.c **** }
 1407              		.loc 1 988 3 discriminator 2 view .LVU432
 1408              	.L94:
 989:Drivers/STM32F7xx_HAL_Driver/Src/stm32f7xx_hal_sram.c **** 
 1409              		.loc 1 989 1 is_stmt 0 view .LVU433
 1410 0036 10BD     		pop	{r4, pc}
 1411              	.LVL140:
 1412              	.L95:
 1413              	.LCFI21:
 1414              		.cfi_def_cfa_offset 0
 1415              		.cfi_restore 4
 1416              		.cfi_restore 14
 985:Drivers/STM32F7xx_HAL_Driver/Src/stm32f7xx_hal_sram.c ****   }
 1417              		.loc 1 985 12 view .LVU434
 1418 0038 0120     		movs	r0, #1
 1419              	.LVL141:
 989:Drivers/STM32F7xx_HAL_Driver/Src/stm32f7xx_hal_sram.c **** 
 1420              		.loc 1 989 1 view .LVU435
 1421 003a 7047     		bx	lr
 1422              	.LVL142:
 1423              	.L96:
 1424              	.LCFI22:
 1425              		.cfi_def_cfa_offset 8
 1426              		.cfi_offset 4, -8
 1427              		.cfi_offset 14, -4
 969:Drivers/STM32F7xx_HAL_Driver/Src/stm32f7xx_hal_sram.c **** 
 1428              		.loc 1 969 5 view .LVU436
 1429 003c 0220     		movs	r0, #2
 1430              	.LVL143:
 969:Drivers/STM32F7xx_HAL_Driver/Src/stm32f7xx_hal_sram.c **** 
 1431              		.loc 1 969 5 view .LVU437
 1432 003e FAE7     		b	.L94
 1433              		.cfi_endproc
 1434              	.LFE156:
 1436              		.section	.text.HAL_SRAM_GetState,"ax",%progbits
 1437              		.align	1
ARM GAS  C:\Users\benny\AppData\Local\Temp\ccwEP4Gk.s 			page 52


 1438              		.global	HAL_SRAM_GetState
 1439              		.syntax unified
 1440              		.thumb
 1441              		.thumb_func
 1443              	HAL_SRAM_GetState:
 1444              	.LVL144:
 1445              	.LFB157:
1017:Drivers/STM32F7xx_HAL_Driver/Src/stm32f7xx_hal_sram.c ****   return hsram->State;
 1446              		.loc 1 1017 1 is_stmt 1 view -0
 1447              		.cfi_startproc
 1448              		@ args = 0, pretend = 0, frame = 0
 1449              		@ frame_needed = 0, uses_anonymous_args = 0
 1450              		@ link register save eliminated.
1018:Drivers/STM32F7xx_HAL_Driver/Src/stm32f7xx_hal_sram.c **** }
 1451              		.loc 1 1018 3 view .LVU439
1018:Drivers/STM32F7xx_HAL_Driver/Src/stm32f7xx_hal_sram.c **** }
 1452              		.loc 1 1018 15 is_stmt 0 view .LVU440
 1453 0000 90F84500 		ldrb	r0, [r0, #69]	@ zero_extendqisi2
 1454              	.LVL145:
1019:Drivers/STM32F7xx_HAL_Driver/Src/stm32f7xx_hal_sram.c **** 
 1455              		.loc 1 1019 1 view .LVU441
 1456 0004 7047     		bx	lr
 1457              		.cfi_endproc
 1458              	.LFE157:
 1460              		.text
 1461              	.Letext0:
 1462              		.file 2 "C:\\ST\\STM32CubeCLT_1.17.0\\GNU-tools-for-STM32\\bin/../lib/gcc/arm-none-eabi/12.3.1/../
 1463              		.file 3 "C:\\ST\\STM32CubeCLT_1.17.0\\GNU-tools-for-STM32\\bin/../lib/gcc/arm-none-eabi/12.3.1/../
 1464              		.file 4 "Drivers/CMSIS/Device/ST/STM32F7xx/Include/stm32f723xx.h"
 1465              		.file 5 "Drivers/STM32F7xx_HAL_Driver/Inc/stm32f7xx_hal_def.h"
 1466              		.file 6 "Drivers/STM32F7xx_HAL_Driver/Inc/stm32f7xx_hal_dma.h"
 1467              		.file 7 "Drivers/STM32F7xx_HAL_Driver/Inc/stm32f7xx_ll_fmc.h"
 1468              		.file 8 "Drivers/STM32F7xx_HAL_Driver/Inc/stm32f7xx_hal_sram.h"
ARM GAS  C:\Users\benny\AppData\Local\Temp\ccwEP4Gk.s 			page 53

