ARM GAS  C:\Users\benny\AppData\Local\Temp\ccI7WH9g.s 			page 1


   1              		.cpu cortex-m7
   2              		.arch armv7e-m
   3              		.fpu fpv5-sp-d16
   4              		.eabi_attribute 27, 1
   5              		.eabi_attribute 28, 1
   6              		.eabi_attribute 20, 1
   7              		.eabi_attribute 21, 1
   8              		.eabi_attribute 23, 3
   9              		.eabi_attribute 24, 1
  10              		.eabi_attribute 25, 1
  11              		.eabi_attribute 26, 1
  12              		.eabi_attribute 30, 1
  13              		.eabi_attribute 34, 1
  14              		.eabi_attribute 18, 4
  15              		.file	"syscalls.c"
  16              		.text
  17              	.Ltext0:
  18              		.cfi_sections	.debug_frame
  19              		.file 1 "Core/Src/syscalls.c"
  20              		.section	.text.ITM_SendChar,"ax",%progbits
  21              		.align	1
  22              		.global	ITM_SendChar
  23              		.syntax unified
  24              		.thumb
  25              		.thumb_func
  27              	ITM_SendChar:
  28              	.LVL0:
  29              	.LFB25:
   1:Core/Src/syscalls.c **** /**
   2:Core/Src/syscalls.c ****  ******************************************************************************
   3:Core/Src/syscalls.c ****  * @file      syscalls.c
   4:Core/Src/syscalls.c ****  * @author    Auto-generated by STM32CubeMX
   5:Core/Src/syscalls.c ****  * @brief     Minimal System calls file
   6:Core/Src/syscalls.c ****  *
   7:Core/Src/syscalls.c ****  *            For more information about which c-functions
   8:Core/Src/syscalls.c ****  *            need which of these lowlevel functions
   9:Core/Src/syscalls.c ****  *            please consult the Newlib libc-manual
  10:Core/Src/syscalls.c ****  ******************************************************************************
  11:Core/Src/syscalls.c ****  * @attention
  12:Core/Src/syscalls.c ****  *
  13:Core/Src/syscalls.c ****  * Copyright (c) 2020-2024 STMicroelectronics.
  14:Core/Src/syscalls.c ****  * All rights reserved.
  15:Core/Src/syscalls.c ****  *
  16:Core/Src/syscalls.c ****  * This software is licensed under terms that can be found in the LICENSE file
  17:Core/Src/syscalls.c ****  * in the root directory of this software component.
  18:Core/Src/syscalls.c ****  * If no LICENSE file comes with this software, it is provided AS-IS.
  19:Core/Src/syscalls.c ****  *
  20:Core/Src/syscalls.c ****  ******************************************************************************
  21:Core/Src/syscalls.c ****  */
  22:Core/Src/syscalls.c **** 
  23:Core/Src/syscalls.c **** /* Includes */
  24:Core/Src/syscalls.c **** #include <sys/stat.h>
  25:Core/Src/syscalls.c **** #include <stdlib.h>
  26:Core/Src/syscalls.c **** #include <errno.h>
  27:Core/Src/syscalls.c **** #include <stdio.h>
  28:Core/Src/syscalls.c **** #include <signal.h>
  29:Core/Src/syscalls.c **** #include <time.h>
ARM GAS  C:\Users\benny\AppData\Local\Temp\ccI7WH9g.s 			page 2


  30:Core/Src/syscalls.c **** #include <sys/time.h>
  31:Core/Src/syscalls.c **** #include <sys/times.h>
  32:Core/Src/syscalls.c **** 
  33:Core/Src/syscalls.c **** 
  34:Core/Src/syscalls.c **** #define ITM_TRACE_EN          *((volatile uint32_t*) 0xE00000E00)
  35:Core/Src/syscalls.c **** #define DEMCR                 *((volatile uint32_t*) 0xE000EDFCU)
  36:Core/Src/syscalls.c **** #define ITM_STIMULUS_PORT0    *((volatile uint32_t*) 0xE00000000)
  37:Core/Src/syscalls.c **** 
  38:Core/Src/syscalls.c **** /* Debug function for printf used in __write() */
  39:Core/Src/syscalls.c **** void ITM_SendChar(uint8_t ch) {
  30              		.loc 1 39 31 view -0
  31              		.cfi_startproc
  32              		@ args = 0, pretend = 0, frame = 0
  33              		@ frame_needed = 0, uses_anonymous_args = 0
  34              		@ link register save eliminated.
  40:Core/Src/syscalls.c ****     DEMCR |= (1 << 24);         // Enable Trace Control (TRCENA)
  35              		.loc 1 40 5 view .LVU1
  36 0000 4FF0E022 		mov	r2, #-536813568
  37 0004 D2F8FC3D 		ldr	r3, [r2, #3580]
  38              		.loc 1 40 11 is_stmt 0 view .LVU2
  39 0008 43F08073 		orr	r3, r3, #16777216
  40 000c C2F8FC3D 		str	r3, [r2, #3580]
  41:Core/Src/syscalls.c ****     ITM_TRACE_EN |= (1 << 0);   // Enable Stimulus Port 0
  41              		.loc 1 41 5 is_stmt 1 view .LVU3
  42 0010 0023     		movs	r3, #0
  43 0012 D3F8002E 		ldr	r2, [r3, #3584]
  44              		.loc 1 41 18 is_stmt 0 view .LVU4
  45 0016 42F00102 		orr	r2, r2, #1
  46 001a C3F8002E 		str	r2, [r3, #3584]
  42:Core/Src/syscalls.c **** 
  43:Core/Src/syscalls.c ****     if (ITM_STIMULUS_PORT0 & 1) {  // Check if FIFO is ready
  47              		.loc 1 43 5 is_stmt 1 view .LVU5
  48              		.loc 1 43 9 is_stmt 0 view .LVU6
  49 001e 1B68     		ldr	r3, [r3]
  50              		.loc 1 43 8 view .LVU7
  51 0020 13F0010F 		tst	r3, #1
  52 0024 01D0     		beq	.L1
  44:Core/Src/syscalls.c ****         ITM_STIMULUS_PORT0 = ch;  // Write to ITM Stimulus Port 0
  53              		.loc 1 44 9 is_stmt 1 view .LVU8
  54              		.loc 1 44 28 is_stmt 0 view .LVU9
  55 0026 0023     		movs	r3, #0
  56 0028 1860     		str	r0, [r3]
  57              	.L1:
  45:Core/Src/syscalls.c ****     }
  46:Core/Src/syscalls.c **** }
  58              		.loc 1 46 1 view .LVU10
  59 002a 7047     		bx	lr
  60              		.cfi_endproc
  61              	.LFE25:
  63              		.section	.text.initialise_monitor_handles,"ax",%progbits
  64              		.align	1
  65              		.global	initialise_monitor_handles
  66              		.syntax unified
  67              		.thumb
  68              		.thumb_func
  70              	initialise_monitor_handles:
  71              	.LFB26:
ARM GAS  C:\Users\benny\AppData\Local\Temp\ccI7WH9g.s 			page 3


  47:Core/Src/syscalls.c **** 
  48:Core/Src/syscalls.c **** 
  49:Core/Src/syscalls.c **** /* Variables */
  50:Core/Src/syscalls.c **** extern int __io_putchar(int ch) __attribute__((weak));
  51:Core/Src/syscalls.c **** extern int __io_getchar(void) __attribute__((weak));
  52:Core/Src/syscalls.c **** 
  53:Core/Src/syscalls.c **** 
  54:Core/Src/syscalls.c **** char *__env[1] = { 0 };
  55:Core/Src/syscalls.c **** char **environ = __env;
  56:Core/Src/syscalls.c **** 
  57:Core/Src/syscalls.c **** 
  58:Core/Src/syscalls.c **** /* Functions */
  59:Core/Src/syscalls.c **** void initialise_monitor_handles()
  60:Core/Src/syscalls.c **** {
  72              		.loc 1 60 1 is_stmt 1 view -0
  73              		.cfi_startproc
  74              		@ args = 0, pretend = 0, frame = 0
  75              		@ frame_needed = 0, uses_anonymous_args = 0
  76              		@ link register save eliminated.
  61:Core/Src/syscalls.c **** }
  77              		.loc 1 61 1 view .LVU12
  78 0000 7047     		bx	lr
  79              		.cfi_endproc
  80              	.LFE26:
  82              		.section	.text._getpid,"ax",%progbits
  83              		.align	1
  84              		.global	_getpid
  85              		.syntax unified
  86              		.thumb
  87              		.thumb_func
  89              	_getpid:
  90              	.LFB27:
  62:Core/Src/syscalls.c **** 
  63:Core/Src/syscalls.c **** int _getpid(void)
  64:Core/Src/syscalls.c **** {
  91              		.loc 1 64 1 view -0
  92              		.cfi_startproc
  93              		@ args = 0, pretend = 0, frame = 0
  94              		@ frame_needed = 0, uses_anonymous_args = 0
  95              		@ link register save eliminated.
  65:Core/Src/syscalls.c ****   return 1;
  96              		.loc 1 65 3 view .LVU14
  66:Core/Src/syscalls.c **** }
  97              		.loc 1 66 1 is_stmt 0 view .LVU15
  98 0000 0120     		movs	r0, #1
  99 0002 7047     		bx	lr
 100              		.cfi_endproc
 101              	.LFE27:
 103              		.section	.text._kill,"ax",%progbits
 104              		.align	1
 105              		.global	_kill
 106              		.syntax unified
 107              		.thumb
 108              		.thumb_func
 110              	_kill:
 111              	.LVL1:
 112              	.LFB28:
ARM GAS  C:\Users\benny\AppData\Local\Temp\ccI7WH9g.s 			page 4


  67:Core/Src/syscalls.c **** 
  68:Core/Src/syscalls.c **** int _kill(int pid, int sig)
  69:Core/Src/syscalls.c **** {
 113              		.loc 1 69 1 is_stmt 1 view -0
 114              		.cfi_startproc
 115              		@ args = 0, pretend = 0, frame = 0
 116              		@ frame_needed = 0, uses_anonymous_args = 0
 117              		.loc 1 69 1 is_stmt 0 view .LVU17
 118 0000 08B5     		push	{r3, lr}
 119              	.LCFI0:
 120              		.cfi_def_cfa_offset 8
 121              		.cfi_offset 3, -8
 122              		.cfi_offset 14, -4
  70:Core/Src/syscalls.c ****   (void)pid;
 123              		.loc 1 70 3 is_stmt 1 view .LVU18
  71:Core/Src/syscalls.c ****   (void)sig;
 124              		.loc 1 71 3 view .LVU19
  72:Core/Src/syscalls.c ****   errno = EINVAL;
 125              		.loc 1 72 3 view .LVU20
 126 0002 FFF7FEFF 		bl	__errno
 127              	.LVL2:
 128              		.loc 1 72 9 is_stmt 0 view .LVU21
 129 0006 1623     		movs	r3, #22
 130 0008 0360     		str	r3, [r0]
  73:Core/Src/syscalls.c ****   return -1;
 131              		.loc 1 73 3 is_stmt 1 view .LVU22
  74:Core/Src/syscalls.c **** }
 132              		.loc 1 74 1 is_stmt 0 view .LVU23
 133 000a 4FF0FF30 		mov	r0, #-1
 134 000e 08BD     		pop	{r3, pc}
 135              		.cfi_endproc
 136              	.LFE28:
 138              		.section	.text._exit,"ax",%progbits
 139              		.align	1
 140              		.global	_exit
 141              		.syntax unified
 142              		.thumb
 143              		.thumb_func
 145              	_exit:
 146              	.LVL3:
 147              	.LFB29:
  75:Core/Src/syscalls.c **** 
  76:Core/Src/syscalls.c **** void _exit (int status)
  77:Core/Src/syscalls.c **** {
 148              		.loc 1 77 1 is_stmt 1 view -0
 149              		.cfi_startproc
 150              		@ Volatile: function does not return.
 151              		@ args = 0, pretend = 0, frame = 0
 152              		@ frame_needed = 0, uses_anonymous_args = 0
 153              		.loc 1 77 1 is_stmt 0 view .LVU25
 154 0000 08B5     		push	{r3, lr}
 155              	.LCFI1:
 156              		.cfi_def_cfa_offset 8
 157              		.cfi_offset 3, -8
 158              		.cfi_offset 14, -4
  78:Core/Src/syscalls.c ****   _kill(status, -1);
 159              		.loc 1 78 3 is_stmt 1 view .LVU26
ARM GAS  C:\Users\benny\AppData\Local\Temp\ccI7WH9g.s 			page 5


 160 0002 4FF0FF31 		mov	r1, #-1
 161 0006 FFF7FEFF 		bl	_kill
 162              	.LVL4:
 163              	.L8:
  79:Core/Src/syscalls.c ****   while (1) {}    /* Make sure we hang here */
 164              		.loc 1 79 3 discriminator 1 view .LVU27
 165              		.loc 1 79 14 discriminator 1 view .LVU28
 166              		.loc 1 79 9 discriminator 1 view .LVU29
 167 000a FEE7     		b	.L8
 168              		.cfi_endproc
 169              	.LFE29:
 171              		.section	.text._read,"ax",%progbits
 172              		.align	1
 173              		.weak	_read
 174              		.syntax unified
 175              		.thumb
 176              		.thumb_func
 178              	_read:
 179              	.LVL5:
 180              	.LFB30:
  80:Core/Src/syscalls.c **** }
  81:Core/Src/syscalls.c **** 
  82:Core/Src/syscalls.c **** __attribute__((weak)) int _read(int file, char *ptr, int len)
  83:Core/Src/syscalls.c **** {
 181              		.loc 1 83 1 view -0
 182              		.cfi_startproc
 183              		@ args = 0, pretend = 0, frame = 0
 184              		@ frame_needed = 0, uses_anonymous_args = 0
 185              		.loc 1 83 1 is_stmt 0 view .LVU31
 186 0000 70B5     		push	{r4, r5, r6, lr}
 187              	.LCFI2:
 188              		.cfi_def_cfa_offset 16
 189              		.cfi_offset 4, -16
 190              		.cfi_offset 5, -12
 191              		.cfi_offset 6, -8
 192              		.cfi_offset 14, -4
 193 0002 0C46     		mov	r4, r1
 194 0004 1646     		mov	r6, r2
  84:Core/Src/syscalls.c ****   (void)file;
 195              		.loc 1 84 3 is_stmt 1 view .LVU32
  85:Core/Src/syscalls.c ****   int DataIdx;
 196              		.loc 1 85 3 view .LVU33
  86:Core/Src/syscalls.c **** 
  87:Core/Src/syscalls.c ****   for (DataIdx = 0; DataIdx < len; DataIdx++)
 197              		.loc 1 87 3 view .LVU34
 198              	.LVL6:
 199              		.loc 1 87 16 is_stmt 0 view .LVU35
 200 0006 0025     		movs	r5, #0
 201              		.loc 1 87 3 view .LVU36
 202 0008 06E0     		b	.L11
 203              	.LVL7:
 204              	.L12:
  88:Core/Src/syscalls.c ****   {
  89:Core/Src/syscalls.c ****     *ptr++ = __io_getchar();
 205              		.loc 1 89 5 is_stmt 1 discriminator 3 view .LVU37
 206              		.loc 1 89 14 is_stmt 0 discriminator 3 view .LVU38
 207 000a FFF7FEFF 		bl	__io_getchar
ARM GAS  C:\Users\benny\AppData\Local\Temp\ccI7WH9g.s 			page 6


 208              	.LVL8:
 209              		.loc 1 89 9 discriminator 3 view .LVU39
 210 000e 2146     		mov	r1, r4
 211              	.LVL9:
 212              		.loc 1 89 12 discriminator 3 view .LVU40
 213 0010 01F8010B 		strb	r0, [r1], #1
 214              	.LVL10:
  87:Core/Src/syscalls.c ****   {
 215              		.loc 1 87 43 is_stmt 1 discriminator 3 view .LVU41
 216 0014 0135     		adds	r5, r5, #1
 217              	.LVL11:
 218              		.loc 1 89 9 is_stmt 0 discriminator 3 view .LVU42
 219 0016 0C46     		mov	r4, r1
 220              	.LVL12:
 221              	.L11:
  87:Core/Src/syscalls.c ****   {
 222              		.loc 1 87 29 is_stmt 1 discriminator 1 view .LVU43
 223 0018 B542     		cmp	r5, r6
 224 001a F6DB     		blt	.L12
  90:Core/Src/syscalls.c ****   }
  91:Core/Src/syscalls.c **** 
  92:Core/Src/syscalls.c ****   return len;
 225              		.loc 1 92 3 view .LVU44
  93:Core/Src/syscalls.c **** }
 226              		.loc 1 93 1 is_stmt 0 view .LVU45
 227 001c 3046     		mov	r0, r6
 228 001e 70BD     		pop	{r4, r5, r6, pc}
 229              		.loc 1 93 1 view .LVU46
 230              		.cfi_endproc
 231              	.LFE30:
 233              		.section	.text._write,"ax",%progbits
 234              		.align	1
 235              		.weak	_write
 236              		.syntax unified
 237              		.thumb
 238              		.thumb_func
 240              	_write:
 241              	.LVL13:
 242              	.LFB31:
  94:Core/Src/syscalls.c **** 
  95:Core/Src/syscalls.c **** __attribute__((weak)) int _write(int file, char *ptr, int len)
  96:Core/Src/syscalls.c **** {
 243              		.loc 1 96 1 is_stmt 1 view -0
 244              		.cfi_startproc
 245              		@ args = 0, pretend = 0, frame = 0
 246              		@ frame_needed = 0, uses_anonymous_args = 0
 247              		.loc 1 96 1 is_stmt 0 view .LVU48
 248 0000 70B5     		push	{r4, r5, r6, lr}
 249              	.LCFI3:
 250              		.cfi_def_cfa_offset 16
 251              		.cfi_offset 4, -16
 252              		.cfi_offset 5, -12
 253              		.cfi_offset 6, -8
 254              		.cfi_offset 14, -4
 255 0002 0C46     		mov	r4, r1
 256 0004 1646     		mov	r6, r2
  97:Core/Src/syscalls.c ****   (void)file;
ARM GAS  C:\Users\benny\AppData\Local\Temp\ccI7WH9g.s 			page 7


 257              		.loc 1 97 3 is_stmt 1 view .LVU49
  98:Core/Src/syscalls.c ****   int DataIdx;
 258              		.loc 1 98 3 view .LVU50
  99:Core/Src/syscalls.c **** 
 100:Core/Src/syscalls.c ****   for (DataIdx = 0; DataIdx < len; DataIdx++)
 259              		.loc 1 100 3 view .LVU51
 260              	.LVL14:
 261              		.loc 1 100 16 is_stmt 0 view .LVU52
 262 0006 0025     		movs	r5, #0
 263              		.loc 1 100 3 view .LVU53
 264 0008 04E0     		b	.L15
 265              	.LVL15:
 266              	.L16:
 101:Core/Src/syscalls.c ****   {
 102:Core/Src/syscalls.c ****     // __io_putchar(*ptr++);
 103:Core/Src/syscalls.c ****     ITM_SendChar(*ptr++);
 267              		.loc 1 103 5 is_stmt 1 discriminator 3 view .LVU54
 268              		.loc 1 103 5 is_stmt 0 discriminator 3 view .LVU55
 269 000a 14F8010B 		ldrb	r0, [r4], #1	@ zero_extendqisi2
 270              	.LVL16:
 271              		.loc 1 103 5 discriminator 3 view .LVU56
 272 000e FFF7FEFF 		bl	ITM_SendChar
 273              	.LVL17:
 100:Core/Src/syscalls.c ****   {
 274              		.loc 1 100 43 is_stmt 1 discriminator 3 view .LVU57
 275 0012 0135     		adds	r5, r5, #1
 276              	.LVL18:
 277              	.L15:
 100:Core/Src/syscalls.c ****   {
 278              		.loc 1 100 29 discriminator 1 view .LVU58
 279 0014 B542     		cmp	r5, r6
 280 0016 F8DB     		blt	.L16
 104:Core/Src/syscalls.c **** 
 105:Core/Src/syscalls.c ****   }
 106:Core/Src/syscalls.c ****   return len;
 281              		.loc 1 106 3 view .LVU59
 107:Core/Src/syscalls.c **** }
 282              		.loc 1 107 1 is_stmt 0 view .LVU60
 283 0018 3046     		mov	r0, r6
 284 001a 70BD     		pop	{r4, r5, r6, pc}
 285              		.loc 1 107 1 view .LVU61
 286              		.cfi_endproc
 287              	.LFE31:
 289              		.section	.text._close,"ax",%progbits
 290              		.align	1
 291              		.global	_close
 292              		.syntax unified
 293              		.thumb
 294              		.thumb_func
 296              	_close:
 297              	.LVL19:
 298              	.LFB32:
 108:Core/Src/syscalls.c **** 
 109:Core/Src/syscalls.c **** int _close(int file)
 110:Core/Src/syscalls.c **** {
 299              		.loc 1 110 1 is_stmt 1 view -0
 300              		.cfi_startproc
ARM GAS  C:\Users\benny\AppData\Local\Temp\ccI7WH9g.s 			page 8


 301              		@ args = 0, pretend = 0, frame = 0
 302              		@ frame_needed = 0, uses_anonymous_args = 0
 303              		@ link register save eliminated.
 111:Core/Src/syscalls.c ****   (void)file;
 304              		.loc 1 111 3 view .LVU63
 112:Core/Src/syscalls.c ****   return -1;
 305              		.loc 1 112 3 view .LVU64
 113:Core/Src/syscalls.c **** }
 306              		.loc 1 113 1 is_stmt 0 view .LVU65
 307 0000 4FF0FF30 		mov	r0, #-1
 308              	.LVL20:
 309              		.loc 1 113 1 view .LVU66
 310 0004 7047     		bx	lr
 311              		.cfi_endproc
 312              	.LFE32:
 314              		.section	.text._fstat,"ax",%progbits
 315              		.align	1
 316              		.global	_fstat
 317              		.syntax unified
 318              		.thumb
 319              		.thumb_func
 321              	_fstat:
 322              	.LVL21:
 323              	.LFB33:
 114:Core/Src/syscalls.c **** 
 115:Core/Src/syscalls.c **** 
 116:Core/Src/syscalls.c **** int _fstat(int file, struct stat *st)
 117:Core/Src/syscalls.c **** {
 324              		.loc 1 117 1 is_stmt 1 view -0
 325              		.cfi_startproc
 326              		@ args = 0, pretend = 0, frame = 0
 327              		@ frame_needed = 0, uses_anonymous_args = 0
 328              		@ link register save eliminated.
 118:Core/Src/syscalls.c ****   (void)file;
 329              		.loc 1 118 3 view .LVU68
 119:Core/Src/syscalls.c ****   st->st_mode = S_IFCHR;
 330              		.loc 1 119 3 view .LVU69
 331              		.loc 1 119 15 is_stmt 0 view .LVU70
 332 0000 4FF40053 		mov	r3, #8192
 333 0004 4B60     		str	r3, [r1, #4]
 120:Core/Src/syscalls.c ****   return 0;
 334              		.loc 1 120 3 is_stmt 1 view .LVU71
 121:Core/Src/syscalls.c **** }
 335              		.loc 1 121 1 is_stmt 0 view .LVU72
 336 0006 0020     		movs	r0, #0
 337              	.LVL22:
 338              		.loc 1 121 1 view .LVU73
 339 0008 7047     		bx	lr
 340              		.cfi_endproc
 341              	.LFE33:
 343              		.section	.text._isatty,"ax",%progbits
 344              		.align	1
 345              		.global	_isatty
 346              		.syntax unified
 347              		.thumb
 348              		.thumb_func
 350              	_isatty:
ARM GAS  C:\Users\benny\AppData\Local\Temp\ccI7WH9g.s 			page 9


 351              	.LVL23:
 352              	.LFB34:
 122:Core/Src/syscalls.c **** 
 123:Core/Src/syscalls.c **** int _isatty(int file)
 124:Core/Src/syscalls.c **** {
 353              		.loc 1 124 1 is_stmt 1 view -0
 354              		.cfi_startproc
 355              		@ args = 0, pretend = 0, frame = 0
 356              		@ frame_needed = 0, uses_anonymous_args = 0
 357              		@ link register save eliminated.
 125:Core/Src/syscalls.c ****   (void)file;
 358              		.loc 1 125 3 view .LVU75
 126:Core/Src/syscalls.c ****   return 1;
 359              		.loc 1 126 3 view .LVU76
 127:Core/Src/syscalls.c **** }
 360              		.loc 1 127 1 is_stmt 0 view .LVU77
 361 0000 0120     		movs	r0, #1
 362              	.LVL24:
 363              		.loc 1 127 1 view .LVU78
 364 0002 7047     		bx	lr
 365              		.cfi_endproc
 366              	.LFE34:
 368              		.section	.text._lseek,"ax",%progbits
 369              		.align	1
 370              		.global	_lseek
 371              		.syntax unified
 372              		.thumb
 373              		.thumb_func
 375              	_lseek:
 376              	.LVL25:
 377              	.LFB35:
 128:Core/Src/syscalls.c **** 
 129:Core/Src/syscalls.c **** int _lseek(int file, int ptr, int dir)
 130:Core/Src/syscalls.c **** {
 378              		.loc 1 130 1 is_stmt 1 view -0
 379              		.cfi_startproc
 380              		@ args = 0, pretend = 0, frame = 0
 381              		@ frame_needed = 0, uses_anonymous_args = 0
 382              		@ link register save eliminated.
 131:Core/Src/syscalls.c ****   (void)file;
 383              		.loc 1 131 3 view .LVU80
 132:Core/Src/syscalls.c ****   (void)ptr;
 384              		.loc 1 132 3 view .LVU81
 133:Core/Src/syscalls.c ****   (void)dir;
 385              		.loc 1 133 3 view .LVU82
 134:Core/Src/syscalls.c ****   return 0;
 386              		.loc 1 134 3 view .LVU83
 135:Core/Src/syscalls.c **** }
 387              		.loc 1 135 1 is_stmt 0 view .LVU84
 388 0000 0020     		movs	r0, #0
 389              	.LVL26:
 390              		.loc 1 135 1 view .LVU85
 391 0002 7047     		bx	lr
 392              		.cfi_endproc
 393              	.LFE35:
 395              		.section	.text._open,"ax",%progbits
 396              		.align	1
ARM GAS  C:\Users\benny\AppData\Local\Temp\ccI7WH9g.s 			page 10


 397              		.global	_open
 398              		.syntax unified
 399              		.thumb
 400              		.thumb_func
 402              	_open:
 403              	.LVL27:
 404              	.LFB36:
 136:Core/Src/syscalls.c **** 
 137:Core/Src/syscalls.c **** int _open(char *path, int flags, ...)
 138:Core/Src/syscalls.c **** {
 405              		.loc 1 138 1 is_stmt 1 view -0
 406              		.cfi_startproc
 407              		@ args = 4, pretend = 12, frame = 0
 408              		@ frame_needed = 0, uses_anonymous_args = 1
 409              		@ link register save eliminated.
 410              		.loc 1 138 1 is_stmt 0 view .LVU87
 411 0000 0EB4     		push	{r1, r2, r3}
 412              	.LCFI4:
 413              		.cfi_def_cfa_offset 12
 414              		.cfi_offset 1, -12
 415              		.cfi_offset 2, -8
 416              		.cfi_offset 3, -4
 139:Core/Src/syscalls.c ****   (void)path;
 417              		.loc 1 139 3 is_stmt 1 view .LVU88
 140:Core/Src/syscalls.c ****   (void)flags;
 418              		.loc 1 140 3 view .LVU89
 141:Core/Src/syscalls.c ****   /* Pretend like we always fail */
 142:Core/Src/syscalls.c ****   return -1;
 419              		.loc 1 142 3 view .LVU90
 143:Core/Src/syscalls.c **** }
 420              		.loc 1 143 1 is_stmt 0 view .LVU91
 421 0002 4FF0FF30 		mov	r0, #-1
 422              	.LVL28:
 423              		.loc 1 143 1 view .LVU92
 424 0006 03B0     		add	sp, sp, #12
 425              	.LCFI5:
 426              		.cfi_restore 3
 427              		.cfi_restore 2
 428              		.cfi_restore 1
 429              		.cfi_def_cfa_offset 0
 430 0008 7047     		bx	lr
 431              		.cfi_endproc
 432              	.LFE36:
 434              		.section	.text._wait,"ax",%progbits
 435              		.align	1
 436              		.global	_wait
 437              		.syntax unified
 438              		.thumb
 439              		.thumb_func
 441              	_wait:
 442              	.LVL29:
 443              	.LFB37:
 144:Core/Src/syscalls.c **** 
 145:Core/Src/syscalls.c **** int _wait(int *status)
 146:Core/Src/syscalls.c **** {
 444              		.loc 1 146 1 is_stmt 1 view -0
 445              		.cfi_startproc
ARM GAS  C:\Users\benny\AppData\Local\Temp\ccI7WH9g.s 			page 11


 446              		@ args = 0, pretend = 0, frame = 0
 447              		@ frame_needed = 0, uses_anonymous_args = 0
 448              		.loc 1 146 1 is_stmt 0 view .LVU94
 449 0000 08B5     		push	{r3, lr}
 450              	.LCFI6:
 451              		.cfi_def_cfa_offset 8
 452              		.cfi_offset 3, -8
 453              		.cfi_offset 14, -4
 147:Core/Src/syscalls.c ****   (void)status;
 454              		.loc 1 147 3 is_stmt 1 view .LVU95
 148:Core/Src/syscalls.c ****   errno = ECHILD;
 455              		.loc 1 148 3 view .LVU96
 456 0002 FFF7FEFF 		bl	__errno
 457              	.LVL30:
 458              		.loc 1 148 9 is_stmt 0 view .LVU97
 459 0006 0A23     		movs	r3, #10
 460 0008 0360     		str	r3, [r0]
 149:Core/Src/syscalls.c ****   return -1;
 461              		.loc 1 149 3 is_stmt 1 view .LVU98
 150:Core/Src/syscalls.c **** }
 462              		.loc 1 150 1 is_stmt 0 view .LVU99
 463 000a 4FF0FF30 		mov	r0, #-1
 464 000e 08BD     		pop	{r3, pc}
 465              		.cfi_endproc
 466              	.LFE37:
 468              		.section	.text._unlink,"ax",%progbits
 469              		.align	1
 470              		.global	_unlink
 471              		.syntax unified
 472              		.thumb
 473              		.thumb_func
 475              	_unlink:
 476              	.LVL31:
 477              	.LFB38:
 151:Core/Src/syscalls.c **** 
 152:Core/Src/syscalls.c **** int _unlink(char *name)
 153:Core/Src/syscalls.c **** {
 478              		.loc 1 153 1 is_stmt 1 view -0
 479              		.cfi_startproc
 480              		@ args = 0, pretend = 0, frame = 0
 481              		@ frame_needed = 0, uses_anonymous_args = 0
 482              		.loc 1 153 1 is_stmt 0 view .LVU101
 483 0000 08B5     		push	{r3, lr}
 484              	.LCFI7:
 485              		.cfi_def_cfa_offset 8
 486              		.cfi_offset 3, -8
 487              		.cfi_offset 14, -4
 154:Core/Src/syscalls.c ****   (void)name;
 488              		.loc 1 154 3 is_stmt 1 view .LVU102
 155:Core/Src/syscalls.c ****   errno = ENOENT;
 489              		.loc 1 155 3 view .LVU103
 490 0002 FFF7FEFF 		bl	__errno
 491              	.LVL32:
 492              		.loc 1 155 9 is_stmt 0 view .LVU104
 493 0006 0223     		movs	r3, #2
 494 0008 0360     		str	r3, [r0]
 156:Core/Src/syscalls.c ****   return -1;
ARM GAS  C:\Users\benny\AppData\Local\Temp\ccI7WH9g.s 			page 12


 495              		.loc 1 156 3 is_stmt 1 view .LVU105
 157:Core/Src/syscalls.c **** }
 496              		.loc 1 157 1 is_stmt 0 view .LVU106
 497 000a 4FF0FF30 		mov	r0, #-1
 498 000e 08BD     		pop	{r3, pc}
 499              		.cfi_endproc
 500              	.LFE38:
 502              		.section	.text._times,"ax",%progbits
 503              		.align	1
 504              		.global	_times
 505              		.syntax unified
 506              		.thumb
 507              		.thumb_func
 509              	_times:
 510              	.LVL33:
 511              	.LFB39:
 158:Core/Src/syscalls.c **** 
 159:Core/Src/syscalls.c **** int _times(struct tms *buf)
 160:Core/Src/syscalls.c **** {
 512              		.loc 1 160 1 is_stmt 1 view -0
 513              		.cfi_startproc
 514              		@ args = 0, pretend = 0, frame = 0
 515              		@ frame_needed = 0, uses_anonymous_args = 0
 516              		@ link register save eliminated.
 161:Core/Src/syscalls.c ****   (void)buf;
 517              		.loc 1 161 3 view .LVU108
 162:Core/Src/syscalls.c ****   return -1;
 518              		.loc 1 162 3 view .LVU109
 163:Core/Src/syscalls.c **** }
 519              		.loc 1 163 1 is_stmt 0 view .LVU110
 520 0000 4FF0FF30 		mov	r0, #-1
 521              	.LVL34:
 522              		.loc 1 163 1 view .LVU111
 523 0004 7047     		bx	lr
 524              		.cfi_endproc
 525              	.LFE39:
 527              		.section	.text._stat,"ax",%progbits
 528              		.align	1
 529              		.global	_stat
 530              		.syntax unified
 531              		.thumb
 532              		.thumb_func
 534              	_stat:
 535              	.LVL35:
 536              	.LFB40:
 164:Core/Src/syscalls.c **** 
 165:Core/Src/syscalls.c **** int _stat(char *file, struct stat *st)
 166:Core/Src/syscalls.c **** {
 537              		.loc 1 166 1 is_stmt 1 view -0
 538              		.cfi_startproc
 539              		@ args = 0, pretend = 0, frame = 0
 540              		@ frame_needed = 0, uses_anonymous_args = 0
 541              		@ link register save eliminated.
 167:Core/Src/syscalls.c ****   (void)file;
 542              		.loc 1 167 3 view .LVU113
 168:Core/Src/syscalls.c ****   st->st_mode = S_IFCHR;
 543              		.loc 1 168 3 view .LVU114
ARM GAS  C:\Users\benny\AppData\Local\Temp\ccI7WH9g.s 			page 13


 544              		.loc 1 168 15 is_stmt 0 view .LVU115
 545 0000 4FF40053 		mov	r3, #8192
 546 0004 4B60     		str	r3, [r1, #4]
 169:Core/Src/syscalls.c ****   return 0;
 547              		.loc 1 169 3 is_stmt 1 view .LVU116
 170:Core/Src/syscalls.c **** }
 548              		.loc 1 170 1 is_stmt 0 view .LVU117
 549 0006 0020     		movs	r0, #0
 550              	.LVL36:
 551              		.loc 1 170 1 view .LVU118
 552 0008 7047     		bx	lr
 553              		.cfi_endproc
 554              	.LFE40:
 556              		.section	.text._link,"ax",%progbits
 557              		.align	1
 558              		.global	_link
 559              		.syntax unified
 560              		.thumb
 561              		.thumb_func
 563              	_link:
 564              	.LVL37:
 565              	.LFB41:
 171:Core/Src/syscalls.c **** 
 172:Core/Src/syscalls.c **** int _link(char *old, char *new)
 173:Core/Src/syscalls.c **** {
 566              		.loc 1 173 1 is_stmt 1 view -0
 567              		.cfi_startproc
 568              		@ args = 0, pretend = 0, frame = 0
 569              		@ frame_needed = 0, uses_anonymous_args = 0
 570              		.loc 1 173 1 is_stmt 0 view .LVU120
 571 0000 08B5     		push	{r3, lr}
 572              	.LCFI8:
 573              		.cfi_def_cfa_offset 8
 574              		.cfi_offset 3, -8
 575              		.cfi_offset 14, -4
 174:Core/Src/syscalls.c ****   (void)old;
 576              		.loc 1 174 3 is_stmt 1 view .LVU121
 175:Core/Src/syscalls.c ****   (void)new;
 577              		.loc 1 175 3 view .LVU122
 176:Core/Src/syscalls.c ****   errno = EMLINK;
 578              		.loc 1 176 3 view .LVU123
 579 0002 FFF7FEFF 		bl	__errno
 580              	.LVL38:
 581              		.loc 1 176 9 is_stmt 0 view .LVU124
 582 0006 1F23     		movs	r3, #31
 583 0008 0360     		str	r3, [r0]
 177:Core/Src/syscalls.c ****   return -1;
 584              		.loc 1 177 3 is_stmt 1 view .LVU125
 178:Core/Src/syscalls.c **** }
 585              		.loc 1 178 1 is_stmt 0 view .LVU126
 586 000a 4FF0FF30 		mov	r0, #-1
 587 000e 08BD     		pop	{r3, pc}
 588              		.cfi_endproc
 589              	.LFE41:
 591              		.section	.text._fork,"ax",%progbits
 592              		.align	1
 593              		.global	_fork
ARM GAS  C:\Users\benny\AppData\Local\Temp\ccI7WH9g.s 			page 14


 594              		.syntax unified
 595              		.thumb
 596              		.thumb_func
 598              	_fork:
 599              	.LFB42:
 179:Core/Src/syscalls.c **** 
 180:Core/Src/syscalls.c **** int _fork(void)
 181:Core/Src/syscalls.c **** {
 600              		.loc 1 181 1 is_stmt 1 view -0
 601              		.cfi_startproc
 602              		@ args = 0, pretend = 0, frame = 0
 603              		@ frame_needed = 0, uses_anonymous_args = 0
 604 0000 08B5     		push	{r3, lr}
 605              	.LCFI9:
 606              		.cfi_def_cfa_offset 8
 607              		.cfi_offset 3, -8
 608              		.cfi_offset 14, -4
 182:Core/Src/syscalls.c ****   errno = EAGAIN;
 609              		.loc 1 182 3 view .LVU128
 610 0002 FFF7FEFF 		bl	__errno
 611              	.LVL39:
 612              		.loc 1 182 9 is_stmt 0 view .LVU129
 613 0006 0B23     		movs	r3, #11
 614 0008 0360     		str	r3, [r0]
 183:Core/Src/syscalls.c ****   return -1;
 615              		.loc 1 183 3 is_stmt 1 view .LVU130
 184:Core/Src/syscalls.c **** }
 616              		.loc 1 184 1 is_stmt 0 view .LVU131
 617 000a 4FF0FF30 		mov	r0, #-1
 618 000e 08BD     		pop	{r3, pc}
 619              		.cfi_endproc
 620              	.LFE42:
 622              		.section	.text._execve,"ax",%progbits
 623              		.align	1
 624              		.global	_execve
 625              		.syntax unified
 626              		.thumb
 627              		.thumb_func
 629              	_execve:
 630              	.LVL40:
 631              	.LFB43:
 185:Core/Src/syscalls.c **** 
 186:Core/Src/syscalls.c **** int _execve(char *name, char **argv, char **env)
 187:Core/Src/syscalls.c **** {
 632              		.loc 1 187 1 is_stmt 1 view -0
 633              		.cfi_startproc
 634              		@ args = 0, pretend = 0, frame = 0
 635              		@ frame_needed = 0, uses_anonymous_args = 0
 636              		.loc 1 187 1 is_stmt 0 view .LVU133
 637 0000 08B5     		push	{r3, lr}
 638              	.LCFI10:
 639              		.cfi_def_cfa_offset 8
 640              		.cfi_offset 3, -8
 641              		.cfi_offset 14, -4
 188:Core/Src/syscalls.c ****   (void)name;
 642              		.loc 1 188 3 is_stmt 1 view .LVU134
 189:Core/Src/syscalls.c ****   (void)argv;
ARM GAS  C:\Users\benny\AppData\Local\Temp\ccI7WH9g.s 			page 15


 643              		.loc 1 189 3 view .LVU135
 190:Core/Src/syscalls.c ****   (void)env;
 644              		.loc 1 190 3 view .LVU136
 191:Core/Src/syscalls.c ****   errno = ENOMEM;
 645              		.loc 1 191 3 view .LVU137
 646 0002 FFF7FEFF 		bl	__errno
 647              	.LVL41:
 648              		.loc 1 191 9 is_stmt 0 view .LVU138
 649 0006 0C23     		movs	r3, #12
 650 0008 0360     		str	r3, [r0]
 192:Core/Src/syscalls.c ****   return -1;
 651              		.loc 1 192 3 is_stmt 1 view .LVU139
 193:Core/Src/syscalls.c **** }
 652              		.loc 1 193 1 is_stmt 0 view .LVU140
 653 000a 4FF0FF30 		mov	r0, #-1
 654 000e 08BD     		pop	{r3, pc}
 655              		.cfi_endproc
 656              	.LFE43:
 658              		.global	environ
 659              		.section	.data.environ,"aw"
 660              		.align	2
 663              	environ:
 664 0000 00000000 		.word	__env
 665              		.global	__env
 666              		.section	.bss.__env,"aw",%nobits
 667              		.align	2
 670              	__env:
 671 0000 00000000 		.space	4
 672              		.weak	__io_getchar
 673              		.text
 674              	.Letext0:
 675              		.file 2 "C:\\ST\\STM32CubeCLT_1.17.0\\GNU-tools-for-STM32\\bin/../lib/gcc/arm-none-eabi/12.3.1/../
 676              		.file 3 "C:\\ST\\STM32CubeCLT_1.17.0\\GNU-tools-for-STM32\\bin/../lib/gcc/arm-none-eabi/12.3.1/../
 677              		.file 4 "C:\\ST\\STM32CubeCLT_1.17.0\\GNU-tools-for-STM32\\bin/../lib/gcc/arm-none-eabi/12.3.1/../
 678              		.file 5 "C:\\ST\\STM32CubeCLT_1.17.0\\GNU-tools-for-STM32\\bin/../lib/gcc/arm-none-eabi/12.3.1/../
 679              		.file 6 "C:\\ST\\STM32CubeCLT_1.17.0\\GNU-tools-for-STM32\\bin/../lib/gcc/arm-none-eabi/12.3.1/../
 680              		.file 7 "C:\\ST\\STM32CubeCLT_1.17.0\\GNU-tools-for-STM32\\bin/../lib/gcc/arm-none-eabi/12.3.1/../
 681              		.file 8 "C:\\ST\\STM32CubeCLT_1.17.0\\GNU-tools-for-STM32\\bin/../lib/gcc/arm-none-eabi/12.3.1/../
 682              		.file 9 "C:\\ST\\STM32CubeCLT_1.17.0\\GNU-tools-for-STM32\\bin/../lib/gcc/arm-none-eabi/12.3.1/../
 683              		.file 10 "C:\\ST\\STM32CubeCLT_1.17.0\\GNU-tools-for-STM32\\bin/../lib/gcc/arm-none-eabi/12.3.1/..
ARM GAS  C:\Users\benny\AppData\Local\Temp\ccI7WH9g.s 			page 16

