ARM GAS  C:\Users\benny\AppData\Local\Temp\ccesklXC.s 			page 1


   1              		.cpu cortex-m7
   2              		.arch armv7e-m
   3              		.fpu fpv5-sp-d16
   4              		.eabi_attribute 27, 1
   5              		.eabi_attribute 28, 1
   6              		.eabi_attribute 20, 1
   7              		.eabi_attribute 21, 1
   8              		.eabi_attribute 23, 3
   9              		.eabi_attribute 24, 1
  10              		.eabi_attribute 25, 1
  11              		.eabi_attribute 26, 1
  12              		.eabi_attribute 30, 1
  13              		.eabi_attribute 34, 1
  14              		.eabi_attribute 18, 4
  15              		.file	"usbh_msc_bot.c"
  16              		.text
  17              	.Ltext0:
  18              		.cfi_sections	.debug_frame
  19              		.file 1 "Middlewares/ST/STM32_USB_Host_Library/Class/MSC/Src/usbh_msc_bot.c"
  20              		.section	.text.USBH_MSC_DecodeCSW,"ax",%progbits
  21              		.align	1
  22              		.syntax unified
  23              		.thumb
  24              		.thumb_func
  26              	USBH_MSC_DecodeCSW:
  27              	.LVL0:
  28              	.LFB149:
   1:Middlewares/ST/STM32_USB_Host_Library/Class/MSC/Src/usbh_msc_bot.c **** /**
   2:Middlewares/ST/STM32_USB_Host_Library/Class/MSC/Src/usbh_msc_bot.c ****   ******************************************************************************
   3:Middlewares/ST/STM32_USB_Host_Library/Class/MSC/Src/usbh_msc_bot.c ****   * @file    usbh_msc_bot.c
   4:Middlewares/ST/STM32_USB_Host_Library/Class/MSC/Src/usbh_msc_bot.c ****   * @author  MCD Application Team
   5:Middlewares/ST/STM32_USB_Host_Library/Class/MSC/Src/usbh_msc_bot.c ****   * @brief   This file includes the BOT protocol related functions
   6:Middlewares/ST/STM32_USB_Host_Library/Class/MSC/Src/usbh_msc_bot.c ****   ******************************************************************************
   7:Middlewares/ST/STM32_USB_Host_Library/Class/MSC/Src/usbh_msc_bot.c ****   * @attention
   8:Middlewares/ST/STM32_USB_Host_Library/Class/MSC/Src/usbh_msc_bot.c ****   *
   9:Middlewares/ST/STM32_USB_Host_Library/Class/MSC/Src/usbh_msc_bot.c ****   * Copyright (c) 2015 STMicroelectronics.
  10:Middlewares/ST/STM32_USB_Host_Library/Class/MSC/Src/usbh_msc_bot.c ****   * All rights reserved.
  11:Middlewares/ST/STM32_USB_Host_Library/Class/MSC/Src/usbh_msc_bot.c ****   *
  12:Middlewares/ST/STM32_USB_Host_Library/Class/MSC/Src/usbh_msc_bot.c ****   * This software is licensed under terms that can be found in the LICENSE file
  13:Middlewares/ST/STM32_USB_Host_Library/Class/MSC/Src/usbh_msc_bot.c ****   * in the root directory of this software component.
  14:Middlewares/ST/STM32_USB_Host_Library/Class/MSC/Src/usbh_msc_bot.c ****   * If no LICENSE file comes with this software, it is provided AS-IS.
  15:Middlewares/ST/STM32_USB_Host_Library/Class/MSC/Src/usbh_msc_bot.c ****   *
  16:Middlewares/ST/STM32_USB_Host_Library/Class/MSC/Src/usbh_msc_bot.c ****   ******************************************************************************
  17:Middlewares/ST/STM32_USB_Host_Library/Class/MSC/Src/usbh_msc_bot.c ****   */
  18:Middlewares/ST/STM32_USB_Host_Library/Class/MSC/Src/usbh_msc_bot.c **** 
  19:Middlewares/ST/STM32_USB_Host_Library/Class/MSC/Src/usbh_msc_bot.c **** /* BSPDependencies
  20:Middlewares/ST/STM32_USB_Host_Library/Class/MSC/Src/usbh_msc_bot.c **** - "stm32xxxxx_{eval}{discovery}{nucleo_144}.c"
  21:Middlewares/ST/STM32_USB_Host_Library/Class/MSC/Src/usbh_msc_bot.c **** - "stm32xxxxx_{eval}{discovery}_io.c"
  22:Middlewares/ST/STM32_USB_Host_Library/Class/MSC/Src/usbh_msc_bot.c **** - "stm32xxxxx_{eval}{discovery}{adafruit}_lcd.c"
  23:Middlewares/ST/STM32_USB_Host_Library/Class/MSC/Src/usbh_msc_bot.c **** - "stm32xxxxx_{eval}{discovery}_sdram.c"
  24:Middlewares/ST/STM32_USB_Host_Library/Class/MSC/Src/usbh_msc_bot.c **** EndBSPDependencies */
  25:Middlewares/ST/STM32_USB_Host_Library/Class/MSC/Src/usbh_msc_bot.c **** 
  26:Middlewares/ST/STM32_USB_Host_Library/Class/MSC/Src/usbh_msc_bot.c **** /* Includes ------------------------------------------------------------------*/
  27:Middlewares/ST/STM32_USB_Host_Library/Class/MSC/Src/usbh_msc_bot.c **** #include "usbh_msc_bot.h"
  28:Middlewares/ST/STM32_USB_Host_Library/Class/MSC/Src/usbh_msc_bot.c **** #include "usbh_msc.h"
  29:Middlewares/ST/STM32_USB_Host_Library/Class/MSC/Src/usbh_msc_bot.c **** 
  30:Middlewares/ST/STM32_USB_Host_Library/Class/MSC/Src/usbh_msc_bot.c **** /** @addtogroup USBH_LIB
ARM GAS  C:\Users\benny\AppData\Local\Temp\ccesklXC.s 			page 2


  31:Middlewares/ST/STM32_USB_Host_Library/Class/MSC/Src/usbh_msc_bot.c ****   * @{
  32:Middlewares/ST/STM32_USB_Host_Library/Class/MSC/Src/usbh_msc_bot.c ****   */
  33:Middlewares/ST/STM32_USB_Host_Library/Class/MSC/Src/usbh_msc_bot.c **** 
  34:Middlewares/ST/STM32_USB_Host_Library/Class/MSC/Src/usbh_msc_bot.c **** /** @addtogroup USBH_CLASS
  35:Middlewares/ST/STM32_USB_Host_Library/Class/MSC/Src/usbh_msc_bot.c ****   * @{
  36:Middlewares/ST/STM32_USB_Host_Library/Class/MSC/Src/usbh_msc_bot.c ****   */
  37:Middlewares/ST/STM32_USB_Host_Library/Class/MSC/Src/usbh_msc_bot.c **** 
  38:Middlewares/ST/STM32_USB_Host_Library/Class/MSC/Src/usbh_msc_bot.c **** /** @addtogroup USBH_MSC_CLASS
  39:Middlewares/ST/STM32_USB_Host_Library/Class/MSC/Src/usbh_msc_bot.c ****   * @{
  40:Middlewares/ST/STM32_USB_Host_Library/Class/MSC/Src/usbh_msc_bot.c ****   */
  41:Middlewares/ST/STM32_USB_Host_Library/Class/MSC/Src/usbh_msc_bot.c **** 
  42:Middlewares/ST/STM32_USB_Host_Library/Class/MSC/Src/usbh_msc_bot.c **** /** @defgroup USBH_MSC_BOT
  43:Middlewares/ST/STM32_USB_Host_Library/Class/MSC/Src/usbh_msc_bot.c ****   * @brief    This file includes the mass storage related functions
  44:Middlewares/ST/STM32_USB_Host_Library/Class/MSC/Src/usbh_msc_bot.c ****   * @{
  45:Middlewares/ST/STM32_USB_Host_Library/Class/MSC/Src/usbh_msc_bot.c ****   */
  46:Middlewares/ST/STM32_USB_Host_Library/Class/MSC/Src/usbh_msc_bot.c **** 
  47:Middlewares/ST/STM32_USB_Host_Library/Class/MSC/Src/usbh_msc_bot.c **** 
  48:Middlewares/ST/STM32_USB_Host_Library/Class/MSC/Src/usbh_msc_bot.c **** /** @defgroup USBH_MSC_BOT_Private_TypesDefinitions
  49:Middlewares/ST/STM32_USB_Host_Library/Class/MSC/Src/usbh_msc_bot.c ****   * @{
  50:Middlewares/ST/STM32_USB_Host_Library/Class/MSC/Src/usbh_msc_bot.c ****   */
  51:Middlewares/ST/STM32_USB_Host_Library/Class/MSC/Src/usbh_msc_bot.c **** /**
  52:Middlewares/ST/STM32_USB_Host_Library/Class/MSC/Src/usbh_msc_bot.c ****   * @}
  53:Middlewares/ST/STM32_USB_Host_Library/Class/MSC/Src/usbh_msc_bot.c ****   */
  54:Middlewares/ST/STM32_USB_Host_Library/Class/MSC/Src/usbh_msc_bot.c **** 
  55:Middlewares/ST/STM32_USB_Host_Library/Class/MSC/Src/usbh_msc_bot.c **** /** @defgroup USBH_MSC_BOT_Private_Defines
  56:Middlewares/ST/STM32_USB_Host_Library/Class/MSC/Src/usbh_msc_bot.c ****   * @{
  57:Middlewares/ST/STM32_USB_Host_Library/Class/MSC/Src/usbh_msc_bot.c ****   */
  58:Middlewares/ST/STM32_USB_Host_Library/Class/MSC/Src/usbh_msc_bot.c **** /**
  59:Middlewares/ST/STM32_USB_Host_Library/Class/MSC/Src/usbh_msc_bot.c ****   * @}
  60:Middlewares/ST/STM32_USB_Host_Library/Class/MSC/Src/usbh_msc_bot.c ****   */
  61:Middlewares/ST/STM32_USB_Host_Library/Class/MSC/Src/usbh_msc_bot.c **** 
  62:Middlewares/ST/STM32_USB_Host_Library/Class/MSC/Src/usbh_msc_bot.c **** /** @defgroup USBH_MSC_BOT_Private_Macros
  63:Middlewares/ST/STM32_USB_Host_Library/Class/MSC/Src/usbh_msc_bot.c ****   * @{
  64:Middlewares/ST/STM32_USB_Host_Library/Class/MSC/Src/usbh_msc_bot.c ****   */
  65:Middlewares/ST/STM32_USB_Host_Library/Class/MSC/Src/usbh_msc_bot.c **** /**
  66:Middlewares/ST/STM32_USB_Host_Library/Class/MSC/Src/usbh_msc_bot.c ****   * @}
  67:Middlewares/ST/STM32_USB_Host_Library/Class/MSC/Src/usbh_msc_bot.c ****   */
  68:Middlewares/ST/STM32_USB_Host_Library/Class/MSC/Src/usbh_msc_bot.c **** 
  69:Middlewares/ST/STM32_USB_Host_Library/Class/MSC/Src/usbh_msc_bot.c **** 
  70:Middlewares/ST/STM32_USB_Host_Library/Class/MSC/Src/usbh_msc_bot.c **** /** @defgroup USBH_MSC_BOT_Private_Variables
  71:Middlewares/ST/STM32_USB_Host_Library/Class/MSC/Src/usbh_msc_bot.c ****   * @{
  72:Middlewares/ST/STM32_USB_Host_Library/Class/MSC/Src/usbh_msc_bot.c ****   */
  73:Middlewares/ST/STM32_USB_Host_Library/Class/MSC/Src/usbh_msc_bot.c **** 
  74:Middlewares/ST/STM32_USB_Host_Library/Class/MSC/Src/usbh_msc_bot.c **** /**
  75:Middlewares/ST/STM32_USB_Host_Library/Class/MSC/Src/usbh_msc_bot.c ****   * @}
  76:Middlewares/ST/STM32_USB_Host_Library/Class/MSC/Src/usbh_msc_bot.c ****   */
  77:Middlewares/ST/STM32_USB_Host_Library/Class/MSC/Src/usbh_msc_bot.c **** 
  78:Middlewares/ST/STM32_USB_Host_Library/Class/MSC/Src/usbh_msc_bot.c **** 
  79:Middlewares/ST/STM32_USB_Host_Library/Class/MSC/Src/usbh_msc_bot.c **** /** @defgroup USBH_MSC_BOT_Private_FunctionPrototypes
  80:Middlewares/ST/STM32_USB_Host_Library/Class/MSC/Src/usbh_msc_bot.c ****   * @{
  81:Middlewares/ST/STM32_USB_Host_Library/Class/MSC/Src/usbh_msc_bot.c ****   */
  82:Middlewares/ST/STM32_USB_Host_Library/Class/MSC/Src/usbh_msc_bot.c **** static USBH_StatusTypeDef USBH_MSC_BOT_Abort(USBH_HandleTypeDef *phost, uint8_t lun, uint8_t dir);
  83:Middlewares/ST/STM32_USB_Host_Library/Class/MSC/Src/usbh_msc_bot.c **** static BOT_CSWStatusTypeDef USBH_MSC_DecodeCSW(USBH_HandleTypeDef *phost);
  84:Middlewares/ST/STM32_USB_Host_Library/Class/MSC/Src/usbh_msc_bot.c **** /**
  85:Middlewares/ST/STM32_USB_Host_Library/Class/MSC/Src/usbh_msc_bot.c ****   * @}
  86:Middlewares/ST/STM32_USB_Host_Library/Class/MSC/Src/usbh_msc_bot.c ****   */
  87:Middlewares/ST/STM32_USB_Host_Library/Class/MSC/Src/usbh_msc_bot.c **** 
ARM GAS  C:\Users\benny\AppData\Local\Temp\ccesklXC.s 			page 3


  88:Middlewares/ST/STM32_USB_Host_Library/Class/MSC/Src/usbh_msc_bot.c **** 
  89:Middlewares/ST/STM32_USB_Host_Library/Class/MSC/Src/usbh_msc_bot.c **** /** @defgroup USBH_MSC_BOT_Exported_Variables
  90:Middlewares/ST/STM32_USB_Host_Library/Class/MSC/Src/usbh_msc_bot.c ****   * @{
  91:Middlewares/ST/STM32_USB_Host_Library/Class/MSC/Src/usbh_msc_bot.c ****   */
  92:Middlewares/ST/STM32_USB_Host_Library/Class/MSC/Src/usbh_msc_bot.c **** /**
  93:Middlewares/ST/STM32_USB_Host_Library/Class/MSC/Src/usbh_msc_bot.c ****   * @}
  94:Middlewares/ST/STM32_USB_Host_Library/Class/MSC/Src/usbh_msc_bot.c ****   */
  95:Middlewares/ST/STM32_USB_Host_Library/Class/MSC/Src/usbh_msc_bot.c **** 
  96:Middlewares/ST/STM32_USB_Host_Library/Class/MSC/Src/usbh_msc_bot.c **** 
  97:Middlewares/ST/STM32_USB_Host_Library/Class/MSC/Src/usbh_msc_bot.c **** /** @defgroup USBH_MSC_BOT_Private_Functions
  98:Middlewares/ST/STM32_USB_Host_Library/Class/MSC/Src/usbh_msc_bot.c ****   * @{
  99:Middlewares/ST/STM32_USB_Host_Library/Class/MSC/Src/usbh_msc_bot.c ****   */
 100:Middlewares/ST/STM32_USB_Host_Library/Class/MSC/Src/usbh_msc_bot.c **** 
 101:Middlewares/ST/STM32_USB_Host_Library/Class/MSC/Src/usbh_msc_bot.c **** /**
 102:Middlewares/ST/STM32_USB_Host_Library/Class/MSC/Src/usbh_msc_bot.c ****   * @brief  USBH_MSC_BOT_REQ_Reset
 103:Middlewares/ST/STM32_USB_Host_Library/Class/MSC/Src/usbh_msc_bot.c ****   *         The function the MSC BOT Reset request.
 104:Middlewares/ST/STM32_USB_Host_Library/Class/MSC/Src/usbh_msc_bot.c ****   * @param  phost: Host handle
 105:Middlewares/ST/STM32_USB_Host_Library/Class/MSC/Src/usbh_msc_bot.c ****   * @retval USBH Status
 106:Middlewares/ST/STM32_USB_Host_Library/Class/MSC/Src/usbh_msc_bot.c ****   */
 107:Middlewares/ST/STM32_USB_Host_Library/Class/MSC/Src/usbh_msc_bot.c **** USBH_StatusTypeDef USBH_MSC_BOT_REQ_Reset(USBH_HandleTypeDef *phost)
 108:Middlewares/ST/STM32_USB_Host_Library/Class/MSC/Src/usbh_msc_bot.c **** {
 109:Middlewares/ST/STM32_USB_Host_Library/Class/MSC/Src/usbh_msc_bot.c **** 
 110:Middlewares/ST/STM32_USB_Host_Library/Class/MSC/Src/usbh_msc_bot.c ****   phost->Control.setup.b.bmRequestType = USB_H2D | USB_REQ_TYPE_CLASS
 111:Middlewares/ST/STM32_USB_Host_Library/Class/MSC/Src/usbh_msc_bot.c ****                                          | USB_REQ_RECIPIENT_INTERFACE;
 112:Middlewares/ST/STM32_USB_Host_Library/Class/MSC/Src/usbh_msc_bot.c **** 
 113:Middlewares/ST/STM32_USB_Host_Library/Class/MSC/Src/usbh_msc_bot.c ****   phost->Control.setup.b.bRequest = USB_REQ_BOT_RESET;
 114:Middlewares/ST/STM32_USB_Host_Library/Class/MSC/Src/usbh_msc_bot.c ****   phost->Control.setup.b.wValue.w = 0U;
 115:Middlewares/ST/STM32_USB_Host_Library/Class/MSC/Src/usbh_msc_bot.c ****   phost->Control.setup.b.wIndex.w = 0U;
 116:Middlewares/ST/STM32_USB_Host_Library/Class/MSC/Src/usbh_msc_bot.c ****   phost->Control.setup.b.wLength.w = 0U;
 117:Middlewares/ST/STM32_USB_Host_Library/Class/MSC/Src/usbh_msc_bot.c **** 
 118:Middlewares/ST/STM32_USB_Host_Library/Class/MSC/Src/usbh_msc_bot.c ****   return USBH_CtlReq(phost, NULL, 0U);
 119:Middlewares/ST/STM32_USB_Host_Library/Class/MSC/Src/usbh_msc_bot.c **** }
 120:Middlewares/ST/STM32_USB_Host_Library/Class/MSC/Src/usbh_msc_bot.c **** 
 121:Middlewares/ST/STM32_USB_Host_Library/Class/MSC/Src/usbh_msc_bot.c **** /**
 122:Middlewares/ST/STM32_USB_Host_Library/Class/MSC/Src/usbh_msc_bot.c ****   * @brief  USBH_MSC_BOT_REQ_GetMaxLUN
 123:Middlewares/ST/STM32_USB_Host_Library/Class/MSC/Src/usbh_msc_bot.c ****   *         The function the MSC BOT GetMaxLUN request.
 124:Middlewares/ST/STM32_USB_Host_Library/Class/MSC/Src/usbh_msc_bot.c ****   * @param  phost: Host handle
 125:Middlewares/ST/STM32_USB_Host_Library/Class/MSC/Src/usbh_msc_bot.c ****   * @param  Maxlun: pointer to Maxlun variable
 126:Middlewares/ST/STM32_USB_Host_Library/Class/MSC/Src/usbh_msc_bot.c ****   * @retval USBH Status
 127:Middlewares/ST/STM32_USB_Host_Library/Class/MSC/Src/usbh_msc_bot.c ****   */
 128:Middlewares/ST/STM32_USB_Host_Library/Class/MSC/Src/usbh_msc_bot.c **** USBH_StatusTypeDef USBH_MSC_BOT_REQ_GetMaxLUN(USBH_HandleTypeDef *phost, uint8_t *Maxlun)
 129:Middlewares/ST/STM32_USB_Host_Library/Class/MSC/Src/usbh_msc_bot.c **** {
 130:Middlewares/ST/STM32_USB_Host_Library/Class/MSC/Src/usbh_msc_bot.c ****   phost->Control.setup.b.bmRequestType = USB_D2H | USB_REQ_TYPE_CLASS
 131:Middlewares/ST/STM32_USB_Host_Library/Class/MSC/Src/usbh_msc_bot.c ****                                          | USB_REQ_RECIPIENT_INTERFACE;
 132:Middlewares/ST/STM32_USB_Host_Library/Class/MSC/Src/usbh_msc_bot.c **** 
 133:Middlewares/ST/STM32_USB_Host_Library/Class/MSC/Src/usbh_msc_bot.c ****   phost->Control.setup.b.bRequest = USB_REQ_GET_MAX_LUN;
 134:Middlewares/ST/STM32_USB_Host_Library/Class/MSC/Src/usbh_msc_bot.c ****   phost->Control.setup.b.wValue.w = 0U;
 135:Middlewares/ST/STM32_USB_Host_Library/Class/MSC/Src/usbh_msc_bot.c ****   phost->Control.setup.b.wIndex.w = 0U;
 136:Middlewares/ST/STM32_USB_Host_Library/Class/MSC/Src/usbh_msc_bot.c ****   phost->Control.setup.b.wLength.w = 1U;
 137:Middlewares/ST/STM32_USB_Host_Library/Class/MSC/Src/usbh_msc_bot.c **** 
 138:Middlewares/ST/STM32_USB_Host_Library/Class/MSC/Src/usbh_msc_bot.c ****   return USBH_CtlReq(phost, Maxlun, 1U);
 139:Middlewares/ST/STM32_USB_Host_Library/Class/MSC/Src/usbh_msc_bot.c **** }
 140:Middlewares/ST/STM32_USB_Host_Library/Class/MSC/Src/usbh_msc_bot.c **** 
 141:Middlewares/ST/STM32_USB_Host_Library/Class/MSC/Src/usbh_msc_bot.c **** 
 142:Middlewares/ST/STM32_USB_Host_Library/Class/MSC/Src/usbh_msc_bot.c **** 
 143:Middlewares/ST/STM32_USB_Host_Library/Class/MSC/Src/usbh_msc_bot.c **** /**
 144:Middlewares/ST/STM32_USB_Host_Library/Class/MSC/Src/usbh_msc_bot.c ****   * @brief  USBH_MSC_BOT_Init
ARM GAS  C:\Users\benny\AppData\Local\Temp\ccesklXC.s 			page 4


 145:Middlewares/ST/STM32_USB_Host_Library/Class/MSC/Src/usbh_msc_bot.c ****   *         The function Initializes the BOT protocol.
 146:Middlewares/ST/STM32_USB_Host_Library/Class/MSC/Src/usbh_msc_bot.c ****   * @param  phost: Host handle
 147:Middlewares/ST/STM32_USB_Host_Library/Class/MSC/Src/usbh_msc_bot.c ****   * @retval USBH Status
 148:Middlewares/ST/STM32_USB_Host_Library/Class/MSC/Src/usbh_msc_bot.c ****   */
 149:Middlewares/ST/STM32_USB_Host_Library/Class/MSC/Src/usbh_msc_bot.c **** USBH_StatusTypeDef USBH_MSC_BOT_Init(USBH_HandleTypeDef *phost)
 150:Middlewares/ST/STM32_USB_Host_Library/Class/MSC/Src/usbh_msc_bot.c **** {
 151:Middlewares/ST/STM32_USB_Host_Library/Class/MSC/Src/usbh_msc_bot.c **** 
 152:Middlewares/ST/STM32_USB_Host_Library/Class/MSC/Src/usbh_msc_bot.c ****   MSC_HandleTypeDef *MSC_Handle = (MSC_HandleTypeDef *) phost->pActiveClass->pData;
 153:Middlewares/ST/STM32_USB_Host_Library/Class/MSC/Src/usbh_msc_bot.c **** 
 154:Middlewares/ST/STM32_USB_Host_Library/Class/MSC/Src/usbh_msc_bot.c ****   MSC_Handle->hbot.cbw.field.Signature = BOT_CBW_SIGNATURE;
 155:Middlewares/ST/STM32_USB_Host_Library/Class/MSC/Src/usbh_msc_bot.c ****   MSC_Handle->hbot.cbw.field.Tag = BOT_CBW_TAG;
 156:Middlewares/ST/STM32_USB_Host_Library/Class/MSC/Src/usbh_msc_bot.c ****   MSC_Handle->hbot.state = BOT_SEND_CBW;
 157:Middlewares/ST/STM32_USB_Host_Library/Class/MSC/Src/usbh_msc_bot.c ****   MSC_Handle->hbot.cmd_state = BOT_CMD_SEND;
 158:Middlewares/ST/STM32_USB_Host_Library/Class/MSC/Src/usbh_msc_bot.c **** 
 159:Middlewares/ST/STM32_USB_Host_Library/Class/MSC/Src/usbh_msc_bot.c ****   return USBH_OK;
 160:Middlewares/ST/STM32_USB_Host_Library/Class/MSC/Src/usbh_msc_bot.c **** }
 161:Middlewares/ST/STM32_USB_Host_Library/Class/MSC/Src/usbh_msc_bot.c **** 
 162:Middlewares/ST/STM32_USB_Host_Library/Class/MSC/Src/usbh_msc_bot.c **** 
 163:Middlewares/ST/STM32_USB_Host_Library/Class/MSC/Src/usbh_msc_bot.c **** 
 164:Middlewares/ST/STM32_USB_Host_Library/Class/MSC/Src/usbh_msc_bot.c **** /**
 165:Middlewares/ST/STM32_USB_Host_Library/Class/MSC/Src/usbh_msc_bot.c ****   * @brief  USBH_MSC_BOT_Process
 166:Middlewares/ST/STM32_USB_Host_Library/Class/MSC/Src/usbh_msc_bot.c ****   *         The function handle the BOT protocol.
 167:Middlewares/ST/STM32_USB_Host_Library/Class/MSC/Src/usbh_msc_bot.c ****   * @param  phost: Host handle
 168:Middlewares/ST/STM32_USB_Host_Library/Class/MSC/Src/usbh_msc_bot.c ****   * @param  lun: Logical Unit Number
 169:Middlewares/ST/STM32_USB_Host_Library/Class/MSC/Src/usbh_msc_bot.c ****   * @retval USBH Status
 170:Middlewares/ST/STM32_USB_Host_Library/Class/MSC/Src/usbh_msc_bot.c ****   */
 171:Middlewares/ST/STM32_USB_Host_Library/Class/MSC/Src/usbh_msc_bot.c **** USBH_StatusTypeDef USBH_MSC_BOT_Process(USBH_HandleTypeDef *phost, uint8_t lun)
 172:Middlewares/ST/STM32_USB_Host_Library/Class/MSC/Src/usbh_msc_bot.c **** {
 173:Middlewares/ST/STM32_USB_Host_Library/Class/MSC/Src/usbh_msc_bot.c ****   USBH_StatusTypeDef   status = USBH_BUSY;
 174:Middlewares/ST/STM32_USB_Host_Library/Class/MSC/Src/usbh_msc_bot.c ****   USBH_StatusTypeDef   error  = USBH_BUSY;
 175:Middlewares/ST/STM32_USB_Host_Library/Class/MSC/Src/usbh_msc_bot.c ****   BOT_CSWStatusTypeDef CSW_Status = BOT_CSW_CMD_FAILED;
 176:Middlewares/ST/STM32_USB_Host_Library/Class/MSC/Src/usbh_msc_bot.c ****   USBH_URBStateTypeDef URB_Status = USBH_URB_IDLE;
 177:Middlewares/ST/STM32_USB_Host_Library/Class/MSC/Src/usbh_msc_bot.c ****   MSC_HandleTypeDef *MSC_Handle = (MSC_HandleTypeDef *) phost->pActiveClass->pData;
 178:Middlewares/ST/STM32_USB_Host_Library/Class/MSC/Src/usbh_msc_bot.c ****   uint8_t toggle = 0U;
 179:Middlewares/ST/STM32_USB_Host_Library/Class/MSC/Src/usbh_msc_bot.c **** 
 180:Middlewares/ST/STM32_USB_Host_Library/Class/MSC/Src/usbh_msc_bot.c ****   switch (MSC_Handle->hbot.state)
 181:Middlewares/ST/STM32_USB_Host_Library/Class/MSC/Src/usbh_msc_bot.c ****   {
 182:Middlewares/ST/STM32_USB_Host_Library/Class/MSC/Src/usbh_msc_bot.c ****     case BOT_SEND_CBW:
 183:Middlewares/ST/STM32_USB_Host_Library/Class/MSC/Src/usbh_msc_bot.c ****       MSC_Handle->hbot.cbw.field.LUN = lun;
 184:Middlewares/ST/STM32_USB_Host_Library/Class/MSC/Src/usbh_msc_bot.c ****       MSC_Handle->hbot.state = BOT_SEND_CBW_WAIT;
 185:Middlewares/ST/STM32_USB_Host_Library/Class/MSC/Src/usbh_msc_bot.c ****       (void)USBH_BulkSendData(phost, MSC_Handle->hbot.cbw.data,
 186:Middlewares/ST/STM32_USB_Host_Library/Class/MSC/Src/usbh_msc_bot.c ****                               BOT_CBW_LENGTH, MSC_Handle->OutPipe, 1U);
 187:Middlewares/ST/STM32_USB_Host_Library/Class/MSC/Src/usbh_msc_bot.c **** 
 188:Middlewares/ST/STM32_USB_Host_Library/Class/MSC/Src/usbh_msc_bot.c ****       break;
 189:Middlewares/ST/STM32_USB_Host_Library/Class/MSC/Src/usbh_msc_bot.c **** 
 190:Middlewares/ST/STM32_USB_Host_Library/Class/MSC/Src/usbh_msc_bot.c ****     case BOT_SEND_CBW_WAIT:
 191:Middlewares/ST/STM32_USB_Host_Library/Class/MSC/Src/usbh_msc_bot.c **** 
 192:Middlewares/ST/STM32_USB_Host_Library/Class/MSC/Src/usbh_msc_bot.c ****       URB_Status = USBH_LL_GetURBState(phost, MSC_Handle->OutPipe);
 193:Middlewares/ST/STM32_USB_Host_Library/Class/MSC/Src/usbh_msc_bot.c **** 
 194:Middlewares/ST/STM32_USB_Host_Library/Class/MSC/Src/usbh_msc_bot.c ****       if (URB_Status == USBH_URB_DONE)
 195:Middlewares/ST/STM32_USB_Host_Library/Class/MSC/Src/usbh_msc_bot.c ****       {
 196:Middlewares/ST/STM32_USB_Host_Library/Class/MSC/Src/usbh_msc_bot.c ****         if (MSC_Handle->hbot.cbw.field.DataTransferLength != 0U)
 197:Middlewares/ST/STM32_USB_Host_Library/Class/MSC/Src/usbh_msc_bot.c ****         {
 198:Middlewares/ST/STM32_USB_Host_Library/Class/MSC/Src/usbh_msc_bot.c ****           /* If there is Data Transfer Stage */
 199:Middlewares/ST/STM32_USB_Host_Library/Class/MSC/Src/usbh_msc_bot.c ****           if (((MSC_Handle->hbot.cbw.field.Flags) & USB_REQ_DIR_MASK) == USB_D2H)
 200:Middlewares/ST/STM32_USB_Host_Library/Class/MSC/Src/usbh_msc_bot.c ****           {
 201:Middlewares/ST/STM32_USB_Host_Library/Class/MSC/Src/usbh_msc_bot.c ****             /* Data Direction is IN */
ARM GAS  C:\Users\benny\AppData\Local\Temp\ccesklXC.s 			page 5


 202:Middlewares/ST/STM32_USB_Host_Library/Class/MSC/Src/usbh_msc_bot.c ****             MSC_Handle->hbot.state = BOT_DATA_IN;
 203:Middlewares/ST/STM32_USB_Host_Library/Class/MSC/Src/usbh_msc_bot.c ****           }
 204:Middlewares/ST/STM32_USB_Host_Library/Class/MSC/Src/usbh_msc_bot.c ****           else
 205:Middlewares/ST/STM32_USB_Host_Library/Class/MSC/Src/usbh_msc_bot.c ****           {
 206:Middlewares/ST/STM32_USB_Host_Library/Class/MSC/Src/usbh_msc_bot.c ****             /* Data Direction is OUT */
 207:Middlewares/ST/STM32_USB_Host_Library/Class/MSC/Src/usbh_msc_bot.c ****             MSC_Handle->hbot.state = BOT_DATA_OUT;
 208:Middlewares/ST/STM32_USB_Host_Library/Class/MSC/Src/usbh_msc_bot.c ****           }
 209:Middlewares/ST/STM32_USB_Host_Library/Class/MSC/Src/usbh_msc_bot.c ****         }
 210:Middlewares/ST/STM32_USB_Host_Library/Class/MSC/Src/usbh_msc_bot.c ****         else
 211:Middlewares/ST/STM32_USB_Host_Library/Class/MSC/Src/usbh_msc_bot.c ****         {
 212:Middlewares/ST/STM32_USB_Host_Library/Class/MSC/Src/usbh_msc_bot.c ****           /* If there is NO Data Transfer Stage */
 213:Middlewares/ST/STM32_USB_Host_Library/Class/MSC/Src/usbh_msc_bot.c ****           MSC_Handle->hbot.state = BOT_RECEIVE_CSW;
 214:Middlewares/ST/STM32_USB_Host_Library/Class/MSC/Src/usbh_msc_bot.c ****         }
 215:Middlewares/ST/STM32_USB_Host_Library/Class/MSC/Src/usbh_msc_bot.c **** 
 216:Middlewares/ST/STM32_USB_Host_Library/Class/MSC/Src/usbh_msc_bot.c **** #if (USBH_USE_OS == 1U)
 217:Middlewares/ST/STM32_USB_Host_Library/Class/MSC/Src/usbh_msc_bot.c ****         phost->os_msg = (uint32_t)USBH_URB_EVENT;
 218:Middlewares/ST/STM32_USB_Host_Library/Class/MSC/Src/usbh_msc_bot.c **** #if (osCMSIS < 0x20000U)
 219:Middlewares/ST/STM32_USB_Host_Library/Class/MSC/Src/usbh_msc_bot.c ****         (void)osMessagePut(phost->os_event, phost->os_msg, 0U);
 220:Middlewares/ST/STM32_USB_Host_Library/Class/MSC/Src/usbh_msc_bot.c **** #else
 221:Middlewares/ST/STM32_USB_Host_Library/Class/MSC/Src/usbh_msc_bot.c ****         (void)osMessageQueuePut(phost->os_event, &phost->os_msg, 0U, 0U);
 222:Middlewares/ST/STM32_USB_Host_Library/Class/MSC/Src/usbh_msc_bot.c **** #endif
 223:Middlewares/ST/STM32_USB_Host_Library/Class/MSC/Src/usbh_msc_bot.c **** #endif
 224:Middlewares/ST/STM32_USB_Host_Library/Class/MSC/Src/usbh_msc_bot.c ****       }
 225:Middlewares/ST/STM32_USB_Host_Library/Class/MSC/Src/usbh_msc_bot.c ****       else if (URB_Status == USBH_URB_NOTREADY)
 226:Middlewares/ST/STM32_USB_Host_Library/Class/MSC/Src/usbh_msc_bot.c ****       {
 227:Middlewares/ST/STM32_USB_Host_Library/Class/MSC/Src/usbh_msc_bot.c ****         /* Re-send CBW */
 228:Middlewares/ST/STM32_USB_Host_Library/Class/MSC/Src/usbh_msc_bot.c ****         MSC_Handle->hbot.state = BOT_SEND_CBW;
 229:Middlewares/ST/STM32_USB_Host_Library/Class/MSC/Src/usbh_msc_bot.c **** 
 230:Middlewares/ST/STM32_USB_Host_Library/Class/MSC/Src/usbh_msc_bot.c **** #if (USBH_USE_OS == 1U)
 231:Middlewares/ST/STM32_USB_Host_Library/Class/MSC/Src/usbh_msc_bot.c ****         phost->os_msg = (uint32_t)USBH_URB_EVENT;
 232:Middlewares/ST/STM32_USB_Host_Library/Class/MSC/Src/usbh_msc_bot.c **** #if (osCMSIS < 0x20000U)
 233:Middlewares/ST/STM32_USB_Host_Library/Class/MSC/Src/usbh_msc_bot.c ****         (void)osMessagePut(phost->os_event, phost->os_msg, 0U);
 234:Middlewares/ST/STM32_USB_Host_Library/Class/MSC/Src/usbh_msc_bot.c **** #else
 235:Middlewares/ST/STM32_USB_Host_Library/Class/MSC/Src/usbh_msc_bot.c ****         (void)osMessageQueuePut(phost->os_event, &phost->os_msg, 0U, 0U);
 236:Middlewares/ST/STM32_USB_Host_Library/Class/MSC/Src/usbh_msc_bot.c **** #endif
 237:Middlewares/ST/STM32_USB_Host_Library/Class/MSC/Src/usbh_msc_bot.c **** #endif
 238:Middlewares/ST/STM32_USB_Host_Library/Class/MSC/Src/usbh_msc_bot.c ****       }
 239:Middlewares/ST/STM32_USB_Host_Library/Class/MSC/Src/usbh_msc_bot.c ****       else
 240:Middlewares/ST/STM32_USB_Host_Library/Class/MSC/Src/usbh_msc_bot.c ****       {
 241:Middlewares/ST/STM32_USB_Host_Library/Class/MSC/Src/usbh_msc_bot.c ****         if (URB_Status == USBH_URB_STALL)
 242:Middlewares/ST/STM32_USB_Host_Library/Class/MSC/Src/usbh_msc_bot.c ****         {
 243:Middlewares/ST/STM32_USB_Host_Library/Class/MSC/Src/usbh_msc_bot.c ****           MSC_Handle->hbot.state = BOT_ERROR_OUT;
 244:Middlewares/ST/STM32_USB_Host_Library/Class/MSC/Src/usbh_msc_bot.c **** 
 245:Middlewares/ST/STM32_USB_Host_Library/Class/MSC/Src/usbh_msc_bot.c **** #if (USBH_USE_OS == 1U)
 246:Middlewares/ST/STM32_USB_Host_Library/Class/MSC/Src/usbh_msc_bot.c ****           phost->os_msg = (uint32_t)USBH_URB_EVENT;
 247:Middlewares/ST/STM32_USB_Host_Library/Class/MSC/Src/usbh_msc_bot.c **** #if (osCMSIS < 0x20000U)
 248:Middlewares/ST/STM32_USB_Host_Library/Class/MSC/Src/usbh_msc_bot.c ****           (void)osMessagePut(phost->os_event, phost->os_msg, 0U);
 249:Middlewares/ST/STM32_USB_Host_Library/Class/MSC/Src/usbh_msc_bot.c **** #else
 250:Middlewares/ST/STM32_USB_Host_Library/Class/MSC/Src/usbh_msc_bot.c ****           (void)osMessageQueuePut(phost->os_event, &phost->os_msg, 0U, 0U);
 251:Middlewares/ST/STM32_USB_Host_Library/Class/MSC/Src/usbh_msc_bot.c **** #endif
 252:Middlewares/ST/STM32_USB_Host_Library/Class/MSC/Src/usbh_msc_bot.c **** #endif
 253:Middlewares/ST/STM32_USB_Host_Library/Class/MSC/Src/usbh_msc_bot.c ****         }
 254:Middlewares/ST/STM32_USB_Host_Library/Class/MSC/Src/usbh_msc_bot.c ****       }
 255:Middlewares/ST/STM32_USB_Host_Library/Class/MSC/Src/usbh_msc_bot.c ****       break;
 256:Middlewares/ST/STM32_USB_Host_Library/Class/MSC/Src/usbh_msc_bot.c **** 
 257:Middlewares/ST/STM32_USB_Host_Library/Class/MSC/Src/usbh_msc_bot.c ****     case BOT_DATA_IN:
 258:Middlewares/ST/STM32_USB_Host_Library/Class/MSC/Src/usbh_msc_bot.c ****       /* Send first packet */
ARM GAS  C:\Users\benny\AppData\Local\Temp\ccesklXC.s 			page 6


 259:Middlewares/ST/STM32_USB_Host_Library/Class/MSC/Src/usbh_msc_bot.c ****       (void)USBH_BulkReceiveData(phost, MSC_Handle->hbot.pbuf,
 260:Middlewares/ST/STM32_USB_Host_Library/Class/MSC/Src/usbh_msc_bot.c ****                                  MSC_Handle->InEpSize, MSC_Handle->InPipe);
 261:Middlewares/ST/STM32_USB_Host_Library/Class/MSC/Src/usbh_msc_bot.c **** 
 262:Middlewares/ST/STM32_USB_Host_Library/Class/MSC/Src/usbh_msc_bot.c ****       MSC_Handle->hbot.state = BOT_DATA_IN_WAIT;
 263:Middlewares/ST/STM32_USB_Host_Library/Class/MSC/Src/usbh_msc_bot.c **** 
 264:Middlewares/ST/STM32_USB_Host_Library/Class/MSC/Src/usbh_msc_bot.c ****       break;
 265:Middlewares/ST/STM32_USB_Host_Library/Class/MSC/Src/usbh_msc_bot.c **** 
 266:Middlewares/ST/STM32_USB_Host_Library/Class/MSC/Src/usbh_msc_bot.c ****     case BOT_DATA_IN_WAIT:
 267:Middlewares/ST/STM32_USB_Host_Library/Class/MSC/Src/usbh_msc_bot.c **** 
 268:Middlewares/ST/STM32_USB_Host_Library/Class/MSC/Src/usbh_msc_bot.c ****       URB_Status = USBH_LL_GetURBState(phost, MSC_Handle->InPipe);
 269:Middlewares/ST/STM32_USB_Host_Library/Class/MSC/Src/usbh_msc_bot.c **** 
 270:Middlewares/ST/STM32_USB_Host_Library/Class/MSC/Src/usbh_msc_bot.c ****       if (URB_Status == USBH_URB_DONE)
 271:Middlewares/ST/STM32_USB_Host_Library/Class/MSC/Src/usbh_msc_bot.c ****       {
 272:Middlewares/ST/STM32_USB_Host_Library/Class/MSC/Src/usbh_msc_bot.c ****         /* Adjust Data pointer and data length */
 273:Middlewares/ST/STM32_USB_Host_Library/Class/MSC/Src/usbh_msc_bot.c ****         if (MSC_Handle->hbot.cbw.field.DataTransferLength > MSC_Handle->InEpSize)
 274:Middlewares/ST/STM32_USB_Host_Library/Class/MSC/Src/usbh_msc_bot.c ****         {
 275:Middlewares/ST/STM32_USB_Host_Library/Class/MSC/Src/usbh_msc_bot.c ****           MSC_Handle->hbot.pbuf += MSC_Handle->InEpSize;
 276:Middlewares/ST/STM32_USB_Host_Library/Class/MSC/Src/usbh_msc_bot.c ****           MSC_Handle->hbot.cbw.field.DataTransferLength -= MSC_Handle->InEpSize;
 277:Middlewares/ST/STM32_USB_Host_Library/Class/MSC/Src/usbh_msc_bot.c ****         }
 278:Middlewares/ST/STM32_USB_Host_Library/Class/MSC/Src/usbh_msc_bot.c ****         else
 279:Middlewares/ST/STM32_USB_Host_Library/Class/MSC/Src/usbh_msc_bot.c ****         {
 280:Middlewares/ST/STM32_USB_Host_Library/Class/MSC/Src/usbh_msc_bot.c ****           MSC_Handle->hbot.cbw.field.DataTransferLength = 0U;
 281:Middlewares/ST/STM32_USB_Host_Library/Class/MSC/Src/usbh_msc_bot.c ****         }
 282:Middlewares/ST/STM32_USB_Host_Library/Class/MSC/Src/usbh_msc_bot.c **** 
 283:Middlewares/ST/STM32_USB_Host_Library/Class/MSC/Src/usbh_msc_bot.c ****         /* More Data To be Received */
 284:Middlewares/ST/STM32_USB_Host_Library/Class/MSC/Src/usbh_msc_bot.c ****         if (MSC_Handle->hbot.cbw.field.DataTransferLength > 0U)
 285:Middlewares/ST/STM32_USB_Host_Library/Class/MSC/Src/usbh_msc_bot.c ****         {
 286:Middlewares/ST/STM32_USB_Host_Library/Class/MSC/Src/usbh_msc_bot.c ****           /* Send next packet */
 287:Middlewares/ST/STM32_USB_Host_Library/Class/MSC/Src/usbh_msc_bot.c ****           (void)USBH_BulkReceiveData(phost, MSC_Handle->hbot.pbuf,
 288:Middlewares/ST/STM32_USB_Host_Library/Class/MSC/Src/usbh_msc_bot.c ****                                      MSC_Handle->InEpSize, MSC_Handle->InPipe);
 289:Middlewares/ST/STM32_USB_Host_Library/Class/MSC/Src/usbh_msc_bot.c ****         }
 290:Middlewares/ST/STM32_USB_Host_Library/Class/MSC/Src/usbh_msc_bot.c ****         else
 291:Middlewares/ST/STM32_USB_Host_Library/Class/MSC/Src/usbh_msc_bot.c ****         {
 292:Middlewares/ST/STM32_USB_Host_Library/Class/MSC/Src/usbh_msc_bot.c ****           /* If value was 0, and successful transfer, then change the state */
 293:Middlewares/ST/STM32_USB_Host_Library/Class/MSC/Src/usbh_msc_bot.c ****           MSC_Handle->hbot.state = BOT_RECEIVE_CSW;
 294:Middlewares/ST/STM32_USB_Host_Library/Class/MSC/Src/usbh_msc_bot.c **** 
 295:Middlewares/ST/STM32_USB_Host_Library/Class/MSC/Src/usbh_msc_bot.c **** #if (USBH_USE_OS == 1U)
 296:Middlewares/ST/STM32_USB_Host_Library/Class/MSC/Src/usbh_msc_bot.c ****           phost->os_msg = (uint32_t)USBH_URB_EVENT;
 297:Middlewares/ST/STM32_USB_Host_Library/Class/MSC/Src/usbh_msc_bot.c **** #if (osCMSIS < 0x20000U)
 298:Middlewares/ST/STM32_USB_Host_Library/Class/MSC/Src/usbh_msc_bot.c ****           (void)osMessagePut(phost->os_event, phost->os_msg, 0U);
 299:Middlewares/ST/STM32_USB_Host_Library/Class/MSC/Src/usbh_msc_bot.c **** #else
 300:Middlewares/ST/STM32_USB_Host_Library/Class/MSC/Src/usbh_msc_bot.c ****           (void)osMessageQueuePut(phost->os_event, &phost->os_msg, 0U, 0U);
 301:Middlewares/ST/STM32_USB_Host_Library/Class/MSC/Src/usbh_msc_bot.c **** #endif
 302:Middlewares/ST/STM32_USB_Host_Library/Class/MSC/Src/usbh_msc_bot.c **** #endif
 303:Middlewares/ST/STM32_USB_Host_Library/Class/MSC/Src/usbh_msc_bot.c ****         }
 304:Middlewares/ST/STM32_USB_Host_Library/Class/MSC/Src/usbh_msc_bot.c ****       }
 305:Middlewares/ST/STM32_USB_Host_Library/Class/MSC/Src/usbh_msc_bot.c ****       else if (URB_Status == USBH_URB_STALL)
 306:Middlewares/ST/STM32_USB_Host_Library/Class/MSC/Src/usbh_msc_bot.c ****       {
 307:Middlewares/ST/STM32_USB_Host_Library/Class/MSC/Src/usbh_msc_bot.c ****         /* This is Data IN Stage STALL Condition */
 308:Middlewares/ST/STM32_USB_Host_Library/Class/MSC/Src/usbh_msc_bot.c ****         MSC_Handle->hbot.state  = BOT_ERROR_IN;
 309:Middlewares/ST/STM32_USB_Host_Library/Class/MSC/Src/usbh_msc_bot.c **** 
 310:Middlewares/ST/STM32_USB_Host_Library/Class/MSC/Src/usbh_msc_bot.c ****         /* Refer to USB Mass-Storage Class : BOT (www.usb.org)
 311:Middlewares/ST/STM32_USB_Host_Library/Class/MSC/Src/usbh_msc_bot.c ****         6.7.2 Host expects to receive data from the device
 312:Middlewares/ST/STM32_USB_Host_Library/Class/MSC/Src/usbh_msc_bot.c ****         3. On a STALL condition receiving data, then:
 313:Middlewares/ST/STM32_USB_Host_Library/Class/MSC/Src/usbh_msc_bot.c ****         The host shall accept the data received.
 314:Middlewares/ST/STM32_USB_Host_Library/Class/MSC/Src/usbh_msc_bot.c ****         The host shall clear the Bulk-In pipe.
 315:Middlewares/ST/STM32_USB_Host_Library/Class/MSC/Src/usbh_msc_bot.c ****         4. The host shall attempt to receive a CSW.*/
ARM GAS  C:\Users\benny\AppData\Local\Temp\ccesklXC.s 			page 7


 316:Middlewares/ST/STM32_USB_Host_Library/Class/MSC/Src/usbh_msc_bot.c **** 
 317:Middlewares/ST/STM32_USB_Host_Library/Class/MSC/Src/usbh_msc_bot.c **** #if (USBH_USE_OS == 1U)
 318:Middlewares/ST/STM32_USB_Host_Library/Class/MSC/Src/usbh_msc_bot.c ****         phost->os_msg = (uint32_t)USBH_URB_EVENT;
 319:Middlewares/ST/STM32_USB_Host_Library/Class/MSC/Src/usbh_msc_bot.c **** #if (osCMSIS < 0x20000U)
 320:Middlewares/ST/STM32_USB_Host_Library/Class/MSC/Src/usbh_msc_bot.c ****         (void)osMessagePut(phost->os_event, phost->os_msg, 0U);
 321:Middlewares/ST/STM32_USB_Host_Library/Class/MSC/Src/usbh_msc_bot.c **** #else
 322:Middlewares/ST/STM32_USB_Host_Library/Class/MSC/Src/usbh_msc_bot.c ****         (void)osMessageQueuePut(phost->os_event, &phost->os_msg, 0U, 0U);
 323:Middlewares/ST/STM32_USB_Host_Library/Class/MSC/Src/usbh_msc_bot.c **** #endif
 324:Middlewares/ST/STM32_USB_Host_Library/Class/MSC/Src/usbh_msc_bot.c **** #endif
 325:Middlewares/ST/STM32_USB_Host_Library/Class/MSC/Src/usbh_msc_bot.c ****       }
 326:Middlewares/ST/STM32_USB_Host_Library/Class/MSC/Src/usbh_msc_bot.c ****       else
 327:Middlewares/ST/STM32_USB_Host_Library/Class/MSC/Src/usbh_msc_bot.c ****       {
 328:Middlewares/ST/STM32_USB_Host_Library/Class/MSC/Src/usbh_msc_bot.c ****       }
 329:Middlewares/ST/STM32_USB_Host_Library/Class/MSC/Src/usbh_msc_bot.c ****       break;
 330:Middlewares/ST/STM32_USB_Host_Library/Class/MSC/Src/usbh_msc_bot.c **** 
 331:Middlewares/ST/STM32_USB_Host_Library/Class/MSC/Src/usbh_msc_bot.c ****     case BOT_DATA_OUT:
 332:Middlewares/ST/STM32_USB_Host_Library/Class/MSC/Src/usbh_msc_bot.c **** 
 333:Middlewares/ST/STM32_USB_Host_Library/Class/MSC/Src/usbh_msc_bot.c ****       (void)USBH_BulkSendData(phost, MSC_Handle->hbot.pbuf,
 334:Middlewares/ST/STM32_USB_Host_Library/Class/MSC/Src/usbh_msc_bot.c ****                               MSC_Handle->OutEpSize, MSC_Handle->OutPipe, 1U);
 335:Middlewares/ST/STM32_USB_Host_Library/Class/MSC/Src/usbh_msc_bot.c **** 
 336:Middlewares/ST/STM32_USB_Host_Library/Class/MSC/Src/usbh_msc_bot.c ****       MSC_Handle->hbot.state  = BOT_DATA_OUT_WAIT;
 337:Middlewares/ST/STM32_USB_Host_Library/Class/MSC/Src/usbh_msc_bot.c ****       break;
 338:Middlewares/ST/STM32_USB_Host_Library/Class/MSC/Src/usbh_msc_bot.c **** 
 339:Middlewares/ST/STM32_USB_Host_Library/Class/MSC/Src/usbh_msc_bot.c ****     case BOT_DATA_OUT_WAIT:
 340:Middlewares/ST/STM32_USB_Host_Library/Class/MSC/Src/usbh_msc_bot.c ****       URB_Status = USBH_LL_GetURBState(phost, MSC_Handle->OutPipe);
 341:Middlewares/ST/STM32_USB_Host_Library/Class/MSC/Src/usbh_msc_bot.c **** 
 342:Middlewares/ST/STM32_USB_Host_Library/Class/MSC/Src/usbh_msc_bot.c ****       if (URB_Status == USBH_URB_DONE)
 343:Middlewares/ST/STM32_USB_Host_Library/Class/MSC/Src/usbh_msc_bot.c ****       {
 344:Middlewares/ST/STM32_USB_Host_Library/Class/MSC/Src/usbh_msc_bot.c ****         /* Adjust Data pointer and data length */
 345:Middlewares/ST/STM32_USB_Host_Library/Class/MSC/Src/usbh_msc_bot.c ****         if (MSC_Handle->hbot.cbw.field.DataTransferLength > MSC_Handle->OutEpSize)
 346:Middlewares/ST/STM32_USB_Host_Library/Class/MSC/Src/usbh_msc_bot.c ****         {
 347:Middlewares/ST/STM32_USB_Host_Library/Class/MSC/Src/usbh_msc_bot.c ****           MSC_Handle->hbot.pbuf += MSC_Handle->OutEpSize;
 348:Middlewares/ST/STM32_USB_Host_Library/Class/MSC/Src/usbh_msc_bot.c ****           MSC_Handle->hbot.cbw.field.DataTransferLength -= MSC_Handle->OutEpSize;
 349:Middlewares/ST/STM32_USB_Host_Library/Class/MSC/Src/usbh_msc_bot.c ****         }
 350:Middlewares/ST/STM32_USB_Host_Library/Class/MSC/Src/usbh_msc_bot.c ****         else
 351:Middlewares/ST/STM32_USB_Host_Library/Class/MSC/Src/usbh_msc_bot.c ****         {
 352:Middlewares/ST/STM32_USB_Host_Library/Class/MSC/Src/usbh_msc_bot.c ****           MSC_Handle->hbot.cbw.field.DataTransferLength = 0U;
 353:Middlewares/ST/STM32_USB_Host_Library/Class/MSC/Src/usbh_msc_bot.c ****         }
 354:Middlewares/ST/STM32_USB_Host_Library/Class/MSC/Src/usbh_msc_bot.c **** 
 355:Middlewares/ST/STM32_USB_Host_Library/Class/MSC/Src/usbh_msc_bot.c ****         /* More Data To be Sent */
 356:Middlewares/ST/STM32_USB_Host_Library/Class/MSC/Src/usbh_msc_bot.c ****         if (MSC_Handle->hbot.cbw.field.DataTransferLength > 0U)
 357:Middlewares/ST/STM32_USB_Host_Library/Class/MSC/Src/usbh_msc_bot.c ****         {
 358:Middlewares/ST/STM32_USB_Host_Library/Class/MSC/Src/usbh_msc_bot.c ****           (void)USBH_BulkSendData(phost, MSC_Handle->hbot.pbuf,
 359:Middlewares/ST/STM32_USB_Host_Library/Class/MSC/Src/usbh_msc_bot.c ****                                   MSC_Handle->OutEpSize, MSC_Handle->OutPipe, 1U);
 360:Middlewares/ST/STM32_USB_Host_Library/Class/MSC/Src/usbh_msc_bot.c ****         }
 361:Middlewares/ST/STM32_USB_Host_Library/Class/MSC/Src/usbh_msc_bot.c ****         else
 362:Middlewares/ST/STM32_USB_Host_Library/Class/MSC/Src/usbh_msc_bot.c ****         {
 363:Middlewares/ST/STM32_USB_Host_Library/Class/MSC/Src/usbh_msc_bot.c ****           /* If value was 0, and successful transfer, then change the state */
 364:Middlewares/ST/STM32_USB_Host_Library/Class/MSC/Src/usbh_msc_bot.c ****           MSC_Handle->hbot.state = BOT_RECEIVE_CSW;
 365:Middlewares/ST/STM32_USB_Host_Library/Class/MSC/Src/usbh_msc_bot.c ****         }
 366:Middlewares/ST/STM32_USB_Host_Library/Class/MSC/Src/usbh_msc_bot.c **** 
 367:Middlewares/ST/STM32_USB_Host_Library/Class/MSC/Src/usbh_msc_bot.c **** #if (USBH_USE_OS == 1U)
 368:Middlewares/ST/STM32_USB_Host_Library/Class/MSC/Src/usbh_msc_bot.c ****         phost->os_msg = (uint32_t)USBH_URB_EVENT;
 369:Middlewares/ST/STM32_USB_Host_Library/Class/MSC/Src/usbh_msc_bot.c **** #if (osCMSIS < 0x20000U)
 370:Middlewares/ST/STM32_USB_Host_Library/Class/MSC/Src/usbh_msc_bot.c ****         (void)osMessagePut(phost->os_event, phost->os_msg, 0U);
 371:Middlewares/ST/STM32_USB_Host_Library/Class/MSC/Src/usbh_msc_bot.c **** #else
 372:Middlewares/ST/STM32_USB_Host_Library/Class/MSC/Src/usbh_msc_bot.c ****         (void)osMessageQueuePut(phost->os_event, &phost->os_msg, 0U, 0U);
ARM GAS  C:\Users\benny\AppData\Local\Temp\ccesklXC.s 			page 8


 373:Middlewares/ST/STM32_USB_Host_Library/Class/MSC/Src/usbh_msc_bot.c **** #endif
 374:Middlewares/ST/STM32_USB_Host_Library/Class/MSC/Src/usbh_msc_bot.c **** #endif
 375:Middlewares/ST/STM32_USB_Host_Library/Class/MSC/Src/usbh_msc_bot.c ****       }
 376:Middlewares/ST/STM32_USB_Host_Library/Class/MSC/Src/usbh_msc_bot.c **** 
 377:Middlewares/ST/STM32_USB_Host_Library/Class/MSC/Src/usbh_msc_bot.c ****       else if (URB_Status == USBH_URB_NOTREADY)
 378:Middlewares/ST/STM32_USB_Host_Library/Class/MSC/Src/usbh_msc_bot.c ****       {
 379:Middlewares/ST/STM32_USB_Host_Library/Class/MSC/Src/usbh_msc_bot.c ****         /* Resend same data */
 380:Middlewares/ST/STM32_USB_Host_Library/Class/MSC/Src/usbh_msc_bot.c ****         MSC_Handle->hbot.state = BOT_DATA_OUT;
 381:Middlewares/ST/STM32_USB_Host_Library/Class/MSC/Src/usbh_msc_bot.c **** 
 382:Middlewares/ST/STM32_USB_Host_Library/Class/MSC/Src/usbh_msc_bot.c **** #if (USBH_USE_OS == 1U)
 383:Middlewares/ST/STM32_USB_Host_Library/Class/MSC/Src/usbh_msc_bot.c ****         phost->os_msg = (uint32_t)USBH_URB_EVENT;
 384:Middlewares/ST/STM32_USB_Host_Library/Class/MSC/Src/usbh_msc_bot.c **** #if (osCMSIS < 0x20000U)
 385:Middlewares/ST/STM32_USB_Host_Library/Class/MSC/Src/usbh_msc_bot.c ****         (void)osMessagePut(phost->os_event, phost->os_msg, 0U);
 386:Middlewares/ST/STM32_USB_Host_Library/Class/MSC/Src/usbh_msc_bot.c **** #else
 387:Middlewares/ST/STM32_USB_Host_Library/Class/MSC/Src/usbh_msc_bot.c ****         (void)osMessageQueuePut(phost->os_event, &phost->os_msg, 0U, 0U);
 388:Middlewares/ST/STM32_USB_Host_Library/Class/MSC/Src/usbh_msc_bot.c **** #endif
 389:Middlewares/ST/STM32_USB_Host_Library/Class/MSC/Src/usbh_msc_bot.c **** #endif
 390:Middlewares/ST/STM32_USB_Host_Library/Class/MSC/Src/usbh_msc_bot.c ****       }
 391:Middlewares/ST/STM32_USB_Host_Library/Class/MSC/Src/usbh_msc_bot.c **** 
 392:Middlewares/ST/STM32_USB_Host_Library/Class/MSC/Src/usbh_msc_bot.c ****       else if (URB_Status == USBH_URB_STALL)
 393:Middlewares/ST/STM32_USB_Host_Library/Class/MSC/Src/usbh_msc_bot.c ****       {
 394:Middlewares/ST/STM32_USB_Host_Library/Class/MSC/Src/usbh_msc_bot.c ****         MSC_Handle->hbot.state = BOT_ERROR_OUT;
 395:Middlewares/ST/STM32_USB_Host_Library/Class/MSC/Src/usbh_msc_bot.c **** 
 396:Middlewares/ST/STM32_USB_Host_Library/Class/MSC/Src/usbh_msc_bot.c ****         /* Refer to USB Mass-Storage Class : BOT (www.usb.org)
 397:Middlewares/ST/STM32_USB_Host_Library/Class/MSC/Src/usbh_msc_bot.c ****         6.7.3 Ho - Host expects to send data to the device
 398:Middlewares/ST/STM32_USB_Host_Library/Class/MSC/Src/usbh_msc_bot.c ****         3. On a STALL condition sending data, then:
 399:Middlewares/ST/STM32_USB_Host_Library/Class/MSC/Src/usbh_msc_bot.c ****         " The host shall clear the Bulk-Out pipe.
 400:Middlewares/ST/STM32_USB_Host_Library/Class/MSC/Src/usbh_msc_bot.c ****         4. The host shall attempt to receive a CSW.
 401:Middlewares/ST/STM32_USB_Host_Library/Class/MSC/Src/usbh_msc_bot.c ****         */
 402:Middlewares/ST/STM32_USB_Host_Library/Class/MSC/Src/usbh_msc_bot.c **** 
 403:Middlewares/ST/STM32_USB_Host_Library/Class/MSC/Src/usbh_msc_bot.c **** #if (USBH_USE_OS == 1U)
 404:Middlewares/ST/STM32_USB_Host_Library/Class/MSC/Src/usbh_msc_bot.c ****         phost->os_msg = (uint32_t)USBH_URB_EVENT;
 405:Middlewares/ST/STM32_USB_Host_Library/Class/MSC/Src/usbh_msc_bot.c **** #if (osCMSIS < 0x20000U)
 406:Middlewares/ST/STM32_USB_Host_Library/Class/MSC/Src/usbh_msc_bot.c ****         (void)osMessagePut(phost->os_event, phost->os_msg, 0U);
 407:Middlewares/ST/STM32_USB_Host_Library/Class/MSC/Src/usbh_msc_bot.c **** #else
 408:Middlewares/ST/STM32_USB_Host_Library/Class/MSC/Src/usbh_msc_bot.c ****         (void)osMessageQueuePut(phost->os_event, &phost->os_msg, 0U, 0U);
 409:Middlewares/ST/STM32_USB_Host_Library/Class/MSC/Src/usbh_msc_bot.c **** #endif
 410:Middlewares/ST/STM32_USB_Host_Library/Class/MSC/Src/usbh_msc_bot.c **** #endif
 411:Middlewares/ST/STM32_USB_Host_Library/Class/MSC/Src/usbh_msc_bot.c ****       }
 412:Middlewares/ST/STM32_USB_Host_Library/Class/MSC/Src/usbh_msc_bot.c ****       else
 413:Middlewares/ST/STM32_USB_Host_Library/Class/MSC/Src/usbh_msc_bot.c ****       {
 414:Middlewares/ST/STM32_USB_Host_Library/Class/MSC/Src/usbh_msc_bot.c ****       }
 415:Middlewares/ST/STM32_USB_Host_Library/Class/MSC/Src/usbh_msc_bot.c ****       break;
 416:Middlewares/ST/STM32_USB_Host_Library/Class/MSC/Src/usbh_msc_bot.c **** 
 417:Middlewares/ST/STM32_USB_Host_Library/Class/MSC/Src/usbh_msc_bot.c ****     case BOT_RECEIVE_CSW:
 418:Middlewares/ST/STM32_USB_Host_Library/Class/MSC/Src/usbh_msc_bot.c **** 
 419:Middlewares/ST/STM32_USB_Host_Library/Class/MSC/Src/usbh_msc_bot.c ****       (void)USBH_BulkReceiveData(phost, MSC_Handle->hbot.csw.data,
 420:Middlewares/ST/STM32_USB_Host_Library/Class/MSC/Src/usbh_msc_bot.c ****                                  BOT_CSW_LENGTH, MSC_Handle->InPipe);
 421:Middlewares/ST/STM32_USB_Host_Library/Class/MSC/Src/usbh_msc_bot.c **** 
 422:Middlewares/ST/STM32_USB_Host_Library/Class/MSC/Src/usbh_msc_bot.c ****       MSC_Handle->hbot.state = BOT_RECEIVE_CSW_WAIT;
 423:Middlewares/ST/STM32_USB_Host_Library/Class/MSC/Src/usbh_msc_bot.c ****       break;
 424:Middlewares/ST/STM32_USB_Host_Library/Class/MSC/Src/usbh_msc_bot.c **** 
 425:Middlewares/ST/STM32_USB_Host_Library/Class/MSC/Src/usbh_msc_bot.c ****     case BOT_RECEIVE_CSW_WAIT:
 426:Middlewares/ST/STM32_USB_Host_Library/Class/MSC/Src/usbh_msc_bot.c **** 
 427:Middlewares/ST/STM32_USB_Host_Library/Class/MSC/Src/usbh_msc_bot.c ****       URB_Status = USBH_LL_GetURBState(phost, MSC_Handle->InPipe);
 428:Middlewares/ST/STM32_USB_Host_Library/Class/MSC/Src/usbh_msc_bot.c **** 
 429:Middlewares/ST/STM32_USB_Host_Library/Class/MSC/Src/usbh_msc_bot.c ****       /* Decode CSW */
ARM GAS  C:\Users\benny\AppData\Local\Temp\ccesklXC.s 			page 9


 430:Middlewares/ST/STM32_USB_Host_Library/Class/MSC/Src/usbh_msc_bot.c ****       if (URB_Status == USBH_URB_DONE)
 431:Middlewares/ST/STM32_USB_Host_Library/Class/MSC/Src/usbh_msc_bot.c ****       {
 432:Middlewares/ST/STM32_USB_Host_Library/Class/MSC/Src/usbh_msc_bot.c ****         MSC_Handle->hbot.state = BOT_SEND_CBW;
 433:Middlewares/ST/STM32_USB_Host_Library/Class/MSC/Src/usbh_msc_bot.c ****         MSC_Handle->hbot.cmd_state = BOT_CMD_SEND;
 434:Middlewares/ST/STM32_USB_Host_Library/Class/MSC/Src/usbh_msc_bot.c ****         CSW_Status = USBH_MSC_DecodeCSW(phost);
 435:Middlewares/ST/STM32_USB_Host_Library/Class/MSC/Src/usbh_msc_bot.c **** 
 436:Middlewares/ST/STM32_USB_Host_Library/Class/MSC/Src/usbh_msc_bot.c ****         if (CSW_Status == BOT_CSW_CMD_PASSED)
 437:Middlewares/ST/STM32_USB_Host_Library/Class/MSC/Src/usbh_msc_bot.c ****         {
 438:Middlewares/ST/STM32_USB_Host_Library/Class/MSC/Src/usbh_msc_bot.c ****           status = USBH_OK;
 439:Middlewares/ST/STM32_USB_Host_Library/Class/MSC/Src/usbh_msc_bot.c ****         }
 440:Middlewares/ST/STM32_USB_Host_Library/Class/MSC/Src/usbh_msc_bot.c ****         else
 441:Middlewares/ST/STM32_USB_Host_Library/Class/MSC/Src/usbh_msc_bot.c ****         {
 442:Middlewares/ST/STM32_USB_Host_Library/Class/MSC/Src/usbh_msc_bot.c ****           status = USBH_FAIL;
 443:Middlewares/ST/STM32_USB_Host_Library/Class/MSC/Src/usbh_msc_bot.c ****         }
 444:Middlewares/ST/STM32_USB_Host_Library/Class/MSC/Src/usbh_msc_bot.c **** 
 445:Middlewares/ST/STM32_USB_Host_Library/Class/MSC/Src/usbh_msc_bot.c **** #if (USBH_USE_OS == 1U)
 446:Middlewares/ST/STM32_USB_Host_Library/Class/MSC/Src/usbh_msc_bot.c ****         phost->os_msg = (uint32_t)USBH_URB_EVENT;
 447:Middlewares/ST/STM32_USB_Host_Library/Class/MSC/Src/usbh_msc_bot.c **** #if (osCMSIS < 0x20000U)
 448:Middlewares/ST/STM32_USB_Host_Library/Class/MSC/Src/usbh_msc_bot.c ****         (void)osMessagePut(phost->os_event, phost->os_msg, 0U);
 449:Middlewares/ST/STM32_USB_Host_Library/Class/MSC/Src/usbh_msc_bot.c **** #else
 450:Middlewares/ST/STM32_USB_Host_Library/Class/MSC/Src/usbh_msc_bot.c ****         (void)osMessageQueuePut(phost->os_event, &phost->os_msg, 0U, 0U);
 451:Middlewares/ST/STM32_USB_Host_Library/Class/MSC/Src/usbh_msc_bot.c **** #endif
 452:Middlewares/ST/STM32_USB_Host_Library/Class/MSC/Src/usbh_msc_bot.c **** #endif
 453:Middlewares/ST/STM32_USB_Host_Library/Class/MSC/Src/usbh_msc_bot.c ****       }
 454:Middlewares/ST/STM32_USB_Host_Library/Class/MSC/Src/usbh_msc_bot.c ****       else if (URB_Status == USBH_URB_STALL)
 455:Middlewares/ST/STM32_USB_Host_Library/Class/MSC/Src/usbh_msc_bot.c ****       {
 456:Middlewares/ST/STM32_USB_Host_Library/Class/MSC/Src/usbh_msc_bot.c ****         MSC_Handle->hbot.state = BOT_ERROR_IN;
 457:Middlewares/ST/STM32_USB_Host_Library/Class/MSC/Src/usbh_msc_bot.c **** 
 458:Middlewares/ST/STM32_USB_Host_Library/Class/MSC/Src/usbh_msc_bot.c **** #if (USBH_USE_OS == 1U)
 459:Middlewares/ST/STM32_USB_Host_Library/Class/MSC/Src/usbh_msc_bot.c ****         phost->os_msg = (uint32_t)USBH_URB_EVENT;
 460:Middlewares/ST/STM32_USB_Host_Library/Class/MSC/Src/usbh_msc_bot.c **** #if (osCMSIS < 0x20000U)
 461:Middlewares/ST/STM32_USB_Host_Library/Class/MSC/Src/usbh_msc_bot.c ****         (void)osMessagePut(phost->os_event, phost->os_msg, 0U);
 462:Middlewares/ST/STM32_USB_Host_Library/Class/MSC/Src/usbh_msc_bot.c **** #else
 463:Middlewares/ST/STM32_USB_Host_Library/Class/MSC/Src/usbh_msc_bot.c ****         (void)osMessageQueuePut(phost->os_event, &phost->os_msg, 0U, 0U);
 464:Middlewares/ST/STM32_USB_Host_Library/Class/MSC/Src/usbh_msc_bot.c **** #endif
 465:Middlewares/ST/STM32_USB_Host_Library/Class/MSC/Src/usbh_msc_bot.c **** #endif
 466:Middlewares/ST/STM32_USB_Host_Library/Class/MSC/Src/usbh_msc_bot.c ****       }
 467:Middlewares/ST/STM32_USB_Host_Library/Class/MSC/Src/usbh_msc_bot.c ****       else
 468:Middlewares/ST/STM32_USB_Host_Library/Class/MSC/Src/usbh_msc_bot.c ****       {
 469:Middlewares/ST/STM32_USB_Host_Library/Class/MSC/Src/usbh_msc_bot.c ****       }
 470:Middlewares/ST/STM32_USB_Host_Library/Class/MSC/Src/usbh_msc_bot.c ****       break;
 471:Middlewares/ST/STM32_USB_Host_Library/Class/MSC/Src/usbh_msc_bot.c **** 
 472:Middlewares/ST/STM32_USB_Host_Library/Class/MSC/Src/usbh_msc_bot.c ****     case BOT_ERROR_IN:
 473:Middlewares/ST/STM32_USB_Host_Library/Class/MSC/Src/usbh_msc_bot.c ****       error = USBH_MSC_BOT_Abort(phost, lun, BOT_DIR_IN);
 474:Middlewares/ST/STM32_USB_Host_Library/Class/MSC/Src/usbh_msc_bot.c **** 
 475:Middlewares/ST/STM32_USB_Host_Library/Class/MSC/Src/usbh_msc_bot.c ****       if (error == USBH_OK)
 476:Middlewares/ST/STM32_USB_Host_Library/Class/MSC/Src/usbh_msc_bot.c ****       {
 477:Middlewares/ST/STM32_USB_Host_Library/Class/MSC/Src/usbh_msc_bot.c ****         MSC_Handle->hbot.state = BOT_RECEIVE_CSW;
 478:Middlewares/ST/STM32_USB_Host_Library/Class/MSC/Src/usbh_msc_bot.c ****       }
 479:Middlewares/ST/STM32_USB_Host_Library/Class/MSC/Src/usbh_msc_bot.c ****       else if (error == USBH_UNRECOVERED_ERROR)
 480:Middlewares/ST/STM32_USB_Host_Library/Class/MSC/Src/usbh_msc_bot.c ****       {
 481:Middlewares/ST/STM32_USB_Host_Library/Class/MSC/Src/usbh_msc_bot.c ****         /* This means that there is a STALL Error limit, Do Reset Recovery */
 482:Middlewares/ST/STM32_USB_Host_Library/Class/MSC/Src/usbh_msc_bot.c ****         MSC_Handle->hbot.state = BOT_UNRECOVERED_ERROR;
 483:Middlewares/ST/STM32_USB_Host_Library/Class/MSC/Src/usbh_msc_bot.c ****       }
 484:Middlewares/ST/STM32_USB_Host_Library/Class/MSC/Src/usbh_msc_bot.c ****       else
 485:Middlewares/ST/STM32_USB_Host_Library/Class/MSC/Src/usbh_msc_bot.c ****       {
 486:Middlewares/ST/STM32_USB_Host_Library/Class/MSC/Src/usbh_msc_bot.c ****       }
ARM GAS  C:\Users\benny\AppData\Local\Temp\ccesklXC.s 			page 10


 487:Middlewares/ST/STM32_USB_Host_Library/Class/MSC/Src/usbh_msc_bot.c ****       break;
 488:Middlewares/ST/STM32_USB_Host_Library/Class/MSC/Src/usbh_msc_bot.c **** 
 489:Middlewares/ST/STM32_USB_Host_Library/Class/MSC/Src/usbh_msc_bot.c ****     case BOT_ERROR_OUT:
 490:Middlewares/ST/STM32_USB_Host_Library/Class/MSC/Src/usbh_msc_bot.c ****       error = USBH_MSC_BOT_Abort(phost, lun, BOT_DIR_OUT);
 491:Middlewares/ST/STM32_USB_Host_Library/Class/MSC/Src/usbh_msc_bot.c **** 
 492:Middlewares/ST/STM32_USB_Host_Library/Class/MSC/Src/usbh_msc_bot.c ****       if (error == USBH_OK)
 493:Middlewares/ST/STM32_USB_Host_Library/Class/MSC/Src/usbh_msc_bot.c ****       {
 494:Middlewares/ST/STM32_USB_Host_Library/Class/MSC/Src/usbh_msc_bot.c ****         toggle = USBH_LL_GetToggle(phost, MSC_Handle->OutPipe);
 495:Middlewares/ST/STM32_USB_Host_Library/Class/MSC/Src/usbh_msc_bot.c ****         (void)USBH_LL_SetToggle(phost, MSC_Handle->OutPipe, 1U - toggle);
 496:Middlewares/ST/STM32_USB_Host_Library/Class/MSC/Src/usbh_msc_bot.c ****         (void)USBH_LL_SetToggle(phost, MSC_Handle->InPipe, 0U);
 497:Middlewares/ST/STM32_USB_Host_Library/Class/MSC/Src/usbh_msc_bot.c ****         MSC_Handle->hbot.state = BOT_ERROR_IN;
 498:Middlewares/ST/STM32_USB_Host_Library/Class/MSC/Src/usbh_msc_bot.c ****       }
 499:Middlewares/ST/STM32_USB_Host_Library/Class/MSC/Src/usbh_msc_bot.c ****       else
 500:Middlewares/ST/STM32_USB_Host_Library/Class/MSC/Src/usbh_msc_bot.c ****       {
 501:Middlewares/ST/STM32_USB_Host_Library/Class/MSC/Src/usbh_msc_bot.c ****         if (error == USBH_UNRECOVERED_ERROR)
 502:Middlewares/ST/STM32_USB_Host_Library/Class/MSC/Src/usbh_msc_bot.c ****         {
 503:Middlewares/ST/STM32_USB_Host_Library/Class/MSC/Src/usbh_msc_bot.c ****           MSC_Handle->hbot.state = BOT_UNRECOVERED_ERROR;
 504:Middlewares/ST/STM32_USB_Host_Library/Class/MSC/Src/usbh_msc_bot.c ****         }
 505:Middlewares/ST/STM32_USB_Host_Library/Class/MSC/Src/usbh_msc_bot.c ****       }
 506:Middlewares/ST/STM32_USB_Host_Library/Class/MSC/Src/usbh_msc_bot.c ****       break;
 507:Middlewares/ST/STM32_USB_Host_Library/Class/MSC/Src/usbh_msc_bot.c **** 
 508:Middlewares/ST/STM32_USB_Host_Library/Class/MSC/Src/usbh_msc_bot.c **** 
 509:Middlewares/ST/STM32_USB_Host_Library/Class/MSC/Src/usbh_msc_bot.c ****     case BOT_UNRECOVERED_ERROR:
 510:Middlewares/ST/STM32_USB_Host_Library/Class/MSC/Src/usbh_msc_bot.c ****       status = USBH_MSC_BOT_REQ_Reset(phost);
 511:Middlewares/ST/STM32_USB_Host_Library/Class/MSC/Src/usbh_msc_bot.c ****       if (status == USBH_OK)
 512:Middlewares/ST/STM32_USB_Host_Library/Class/MSC/Src/usbh_msc_bot.c ****       {
 513:Middlewares/ST/STM32_USB_Host_Library/Class/MSC/Src/usbh_msc_bot.c ****         MSC_Handle->hbot.state = BOT_SEND_CBW;
 514:Middlewares/ST/STM32_USB_Host_Library/Class/MSC/Src/usbh_msc_bot.c ****       }
 515:Middlewares/ST/STM32_USB_Host_Library/Class/MSC/Src/usbh_msc_bot.c ****       break;
 516:Middlewares/ST/STM32_USB_Host_Library/Class/MSC/Src/usbh_msc_bot.c **** 
 517:Middlewares/ST/STM32_USB_Host_Library/Class/MSC/Src/usbh_msc_bot.c ****     default:
 518:Middlewares/ST/STM32_USB_Host_Library/Class/MSC/Src/usbh_msc_bot.c ****       break;
 519:Middlewares/ST/STM32_USB_Host_Library/Class/MSC/Src/usbh_msc_bot.c ****   }
 520:Middlewares/ST/STM32_USB_Host_Library/Class/MSC/Src/usbh_msc_bot.c ****   return status;
 521:Middlewares/ST/STM32_USB_Host_Library/Class/MSC/Src/usbh_msc_bot.c **** }
 522:Middlewares/ST/STM32_USB_Host_Library/Class/MSC/Src/usbh_msc_bot.c **** 
 523:Middlewares/ST/STM32_USB_Host_Library/Class/MSC/Src/usbh_msc_bot.c **** /**
 524:Middlewares/ST/STM32_USB_Host_Library/Class/MSC/Src/usbh_msc_bot.c ****   * @brief  USBH_MSC_BOT_Abort
 525:Middlewares/ST/STM32_USB_Host_Library/Class/MSC/Src/usbh_msc_bot.c ****   *         The function handle the BOT Abort process.
 526:Middlewares/ST/STM32_USB_Host_Library/Class/MSC/Src/usbh_msc_bot.c ****   * @param  phost: Host handle
 527:Middlewares/ST/STM32_USB_Host_Library/Class/MSC/Src/usbh_msc_bot.c ****   * @param  lun: Logical Unit Number
 528:Middlewares/ST/STM32_USB_Host_Library/Class/MSC/Src/usbh_msc_bot.c ****   * @param  dir: direction (0: out / 1 : in)
 529:Middlewares/ST/STM32_USB_Host_Library/Class/MSC/Src/usbh_msc_bot.c ****   * @retval USBH Status
 530:Middlewares/ST/STM32_USB_Host_Library/Class/MSC/Src/usbh_msc_bot.c ****   */
 531:Middlewares/ST/STM32_USB_Host_Library/Class/MSC/Src/usbh_msc_bot.c **** static USBH_StatusTypeDef USBH_MSC_BOT_Abort(USBH_HandleTypeDef *phost, uint8_t lun, uint8_t dir)
 532:Middlewares/ST/STM32_USB_Host_Library/Class/MSC/Src/usbh_msc_bot.c **** {
 533:Middlewares/ST/STM32_USB_Host_Library/Class/MSC/Src/usbh_msc_bot.c ****   /* Prevent unused argument(s) compilation warning */
 534:Middlewares/ST/STM32_USB_Host_Library/Class/MSC/Src/usbh_msc_bot.c ****   UNUSED(lun);
 535:Middlewares/ST/STM32_USB_Host_Library/Class/MSC/Src/usbh_msc_bot.c **** 
 536:Middlewares/ST/STM32_USB_Host_Library/Class/MSC/Src/usbh_msc_bot.c ****   USBH_StatusTypeDef status = USBH_FAIL;
 537:Middlewares/ST/STM32_USB_Host_Library/Class/MSC/Src/usbh_msc_bot.c ****   MSC_HandleTypeDef *MSC_Handle = (MSC_HandleTypeDef *) phost->pActiveClass->pData;
 538:Middlewares/ST/STM32_USB_Host_Library/Class/MSC/Src/usbh_msc_bot.c **** 
 539:Middlewares/ST/STM32_USB_Host_Library/Class/MSC/Src/usbh_msc_bot.c ****   switch (dir)
 540:Middlewares/ST/STM32_USB_Host_Library/Class/MSC/Src/usbh_msc_bot.c ****   {
 541:Middlewares/ST/STM32_USB_Host_Library/Class/MSC/Src/usbh_msc_bot.c ****     case BOT_DIR_IN :
 542:Middlewares/ST/STM32_USB_Host_Library/Class/MSC/Src/usbh_msc_bot.c ****       /* send ClrFeture on Bulk IN endpoint */
 543:Middlewares/ST/STM32_USB_Host_Library/Class/MSC/Src/usbh_msc_bot.c ****       status = USBH_ClrFeature(phost, MSC_Handle->InEp);
ARM GAS  C:\Users\benny\AppData\Local\Temp\ccesklXC.s 			page 11


 544:Middlewares/ST/STM32_USB_Host_Library/Class/MSC/Src/usbh_msc_bot.c **** 
 545:Middlewares/ST/STM32_USB_Host_Library/Class/MSC/Src/usbh_msc_bot.c ****       break;
 546:Middlewares/ST/STM32_USB_Host_Library/Class/MSC/Src/usbh_msc_bot.c **** 
 547:Middlewares/ST/STM32_USB_Host_Library/Class/MSC/Src/usbh_msc_bot.c ****     case BOT_DIR_OUT :
 548:Middlewares/ST/STM32_USB_Host_Library/Class/MSC/Src/usbh_msc_bot.c ****       /*send ClrFeature on Bulk OUT endpoint */
 549:Middlewares/ST/STM32_USB_Host_Library/Class/MSC/Src/usbh_msc_bot.c ****       status = USBH_ClrFeature(phost, MSC_Handle->OutEp);
 550:Middlewares/ST/STM32_USB_Host_Library/Class/MSC/Src/usbh_msc_bot.c ****       break;
 551:Middlewares/ST/STM32_USB_Host_Library/Class/MSC/Src/usbh_msc_bot.c **** 
 552:Middlewares/ST/STM32_USB_Host_Library/Class/MSC/Src/usbh_msc_bot.c ****     default:
 553:Middlewares/ST/STM32_USB_Host_Library/Class/MSC/Src/usbh_msc_bot.c ****       break;
 554:Middlewares/ST/STM32_USB_Host_Library/Class/MSC/Src/usbh_msc_bot.c ****   }
 555:Middlewares/ST/STM32_USB_Host_Library/Class/MSC/Src/usbh_msc_bot.c ****   return status;
 556:Middlewares/ST/STM32_USB_Host_Library/Class/MSC/Src/usbh_msc_bot.c **** }
 557:Middlewares/ST/STM32_USB_Host_Library/Class/MSC/Src/usbh_msc_bot.c **** 
 558:Middlewares/ST/STM32_USB_Host_Library/Class/MSC/Src/usbh_msc_bot.c **** /**
 559:Middlewares/ST/STM32_USB_Host_Library/Class/MSC/Src/usbh_msc_bot.c ****   * @brief  USBH_MSC_BOT_DecodeCSW
 560:Middlewares/ST/STM32_USB_Host_Library/Class/MSC/Src/usbh_msc_bot.c ****   *         This function decodes the CSW received by the device and updates the
 561:Middlewares/ST/STM32_USB_Host_Library/Class/MSC/Src/usbh_msc_bot.c ****   *         same to upper layer.
 562:Middlewares/ST/STM32_USB_Host_Library/Class/MSC/Src/usbh_msc_bot.c ****   * @param  phost: Host handle
 563:Middlewares/ST/STM32_USB_Host_Library/Class/MSC/Src/usbh_msc_bot.c ****   * @retval USBH Status
 564:Middlewares/ST/STM32_USB_Host_Library/Class/MSC/Src/usbh_msc_bot.c ****   * @notes
 565:Middlewares/ST/STM32_USB_Host_Library/Class/MSC/Src/usbh_msc_bot.c ****   *     Refer to USB Mass-Storage Class : BOT (www.usb.org)
 566:Middlewares/ST/STM32_USB_Host_Library/Class/MSC/Src/usbh_msc_bot.c ****   *    6.3.1 Valid CSW Conditions :
 567:Middlewares/ST/STM32_USB_Host_Library/Class/MSC/Src/usbh_msc_bot.c ****   *     The host shall consider the CSW valid when:
 568:Middlewares/ST/STM32_USB_Host_Library/Class/MSC/Src/usbh_msc_bot.c ****   *     1. dCSWSignature is equal to 53425355h
 569:Middlewares/ST/STM32_USB_Host_Library/Class/MSC/Src/usbh_msc_bot.c ****   *     2. the CSW is 13 (Dh) bytes in length,
 570:Middlewares/ST/STM32_USB_Host_Library/Class/MSC/Src/usbh_msc_bot.c ****   *     3. dCSWTag matches the dCBWTag from the corresponding CBW.
 571:Middlewares/ST/STM32_USB_Host_Library/Class/MSC/Src/usbh_msc_bot.c ****   */
 572:Middlewares/ST/STM32_USB_Host_Library/Class/MSC/Src/usbh_msc_bot.c **** 
 573:Middlewares/ST/STM32_USB_Host_Library/Class/MSC/Src/usbh_msc_bot.c **** static BOT_CSWStatusTypeDef USBH_MSC_DecodeCSW(USBH_HandleTypeDef *phost)
 574:Middlewares/ST/STM32_USB_Host_Library/Class/MSC/Src/usbh_msc_bot.c **** {
  29              		.loc 1 574 1 view -0
  30              		.cfi_startproc
  31              		@ args = 0, pretend = 0, frame = 0
  32              		@ frame_needed = 0, uses_anonymous_args = 0
  33              		.loc 1 574 1 is_stmt 0 view .LVU1
  34 0000 10B5     		push	{r4, lr}
  35              	.LCFI0:
  36              		.cfi_def_cfa_offset 8
  37              		.cfi_offset 4, -8
  38              		.cfi_offset 14, -4
 575:Middlewares/ST/STM32_USB_Host_Library/Class/MSC/Src/usbh_msc_bot.c ****   MSC_HandleTypeDef *MSC_Handle = (MSC_HandleTypeDef *) phost->pActiveClass->pData;
  39              		.loc 1 575 3 is_stmt 1 view .LVU2
  40              		.loc 1 575 62 is_stmt 0 view .LVU3
  41 0002 D0F84C34 		ldr	r3, [r0, #1100]
  42              		.loc 1 575 22 view .LVU4
  43 0006 DC69     		ldr	r4, [r3, #28]
  44              	.LVL1:
 576:Middlewares/ST/STM32_USB_Host_Library/Class/MSC/Src/usbh_msc_bot.c ****   BOT_CSWStatusTypeDef status = BOT_CSW_CMD_FAILED;
  45              		.loc 1 576 3 is_stmt 1 view .LVU5
 577:Middlewares/ST/STM32_USB_Host_Library/Class/MSC/Src/usbh_msc_bot.c **** 
 578:Middlewares/ST/STM32_USB_Host_Library/Class/MSC/Src/usbh_msc_bot.c ****   /*Checking if the transfer length is different than 13*/
 579:Middlewares/ST/STM32_USB_Host_Library/Class/MSC/Src/usbh_msc_bot.c ****   if (USBH_LL_GetLastXferSize(phost, MSC_Handle->InPipe) != BOT_CSW_LENGTH)
  46              		.loc 1 579 3 view .LVU6
  47              		.loc 1 579 7 is_stmt 0 view .LVU7
  48 0008 2179     		ldrb	r1, [r4, #4]	@ zero_extendqisi2
  49 000a FFF7FEFF 		bl	USBH_LL_GetLastXferSize
ARM GAS  C:\Users\benny\AppData\Local\Temp\ccesklXC.s 			page 12


  50              	.LVL2:
  51              		.loc 1 579 6 view .LVU8
  52 000e 0D28     		cmp	r0, #13
  53 0010 01D0     		beq	.L7
 580:Middlewares/ST/STM32_USB_Host_Library/Class/MSC/Src/usbh_msc_bot.c ****   {
 581:Middlewares/ST/STM32_USB_Host_Library/Class/MSC/Src/usbh_msc_bot.c ****     /*(4) Hi > Dn (Host expects to receive data from the device,
 582:Middlewares/ST/STM32_USB_Host_Library/Class/MSC/Src/usbh_msc_bot.c ****     Device intends to transfer no data)
 583:Middlewares/ST/STM32_USB_Host_Library/Class/MSC/Src/usbh_msc_bot.c ****     (5) Hi > Di (Host expects to receive data from the device,
 584:Middlewares/ST/STM32_USB_Host_Library/Class/MSC/Src/usbh_msc_bot.c ****     Device intends to send data to the host)
 585:Middlewares/ST/STM32_USB_Host_Library/Class/MSC/Src/usbh_msc_bot.c ****     (9) Ho > Dn (Host expects to send data to the device,
 586:Middlewares/ST/STM32_USB_Host_Library/Class/MSC/Src/usbh_msc_bot.c ****     Device intends to transfer no data)
 587:Middlewares/ST/STM32_USB_Host_Library/Class/MSC/Src/usbh_msc_bot.c ****     (11) Ho > Do  (Host expects to send data to the device,
 588:Middlewares/ST/STM32_USB_Host_Library/Class/MSC/Src/usbh_msc_bot.c ****     Device intends to receive data from the host)*/
 589:Middlewares/ST/STM32_USB_Host_Library/Class/MSC/Src/usbh_msc_bot.c **** 
 590:Middlewares/ST/STM32_USB_Host_Library/Class/MSC/Src/usbh_msc_bot.c ****     status = BOT_CSW_PHASE_ERROR;
  54              		.loc 1 590 12 view .LVU9
  55 0012 0220     		movs	r0, #2
  56              	.L2:
  57              	.LVL3:
 591:Middlewares/ST/STM32_USB_Host_Library/Class/MSC/Src/usbh_msc_bot.c ****   }
 592:Middlewares/ST/STM32_USB_Host_Library/Class/MSC/Src/usbh_msc_bot.c ****   else
 593:Middlewares/ST/STM32_USB_Host_Library/Class/MSC/Src/usbh_msc_bot.c ****   {
 594:Middlewares/ST/STM32_USB_Host_Library/Class/MSC/Src/usbh_msc_bot.c ****     /* CSW length is Correct */
 595:Middlewares/ST/STM32_USB_Host_Library/Class/MSC/Src/usbh_msc_bot.c **** 
 596:Middlewares/ST/STM32_USB_Host_Library/Class/MSC/Src/usbh_msc_bot.c ****     /* Check validity of the CSW Signature and CSWStatus */
 597:Middlewares/ST/STM32_USB_Host_Library/Class/MSC/Src/usbh_msc_bot.c ****     if (MSC_Handle->hbot.csw.field.Signature == BOT_CSW_SIGNATURE)
 598:Middlewares/ST/STM32_USB_Host_Library/Class/MSC/Src/usbh_msc_bot.c ****     {
 599:Middlewares/ST/STM32_USB_Host_Library/Class/MSC/Src/usbh_msc_bot.c ****       /* Check Condition 1. dCSWSignature is equal to 53425355h */
 600:Middlewares/ST/STM32_USB_Host_Library/Class/MSC/Src/usbh_msc_bot.c **** 
 601:Middlewares/ST/STM32_USB_Host_Library/Class/MSC/Src/usbh_msc_bot.c ****       if (MSC_Handle->hbot.csw.field.Tag == MSC_Handle->hbot.cbw.field.Tag)
 602:Middlewares/ST/STM32_USB_Host_Library/Class/MSC/Src/usbh_msc_bot.c ****       {
 603:Middlewares/ST/STM32_USB_Host_Library/Class/MSC/Src/usbh_msc_bot.c ****         /* Check Condition 3. dCSWTag matches the dCBWTag from the
 604:Middlewares/ST/STM32_USB_Host_Library/Class/MSC/Src/usbh_msc_bot.c ****         corresponding CBW */
 605:Middlewares/ST/STM32_USB_Host_Library/Class/MSC/Src/usbh_msc_bot.c **** 
 606:Middlewares/ST/STM32_USB_Host_Library/Class/MSC/Src/usbh_msc_bot.c ****         if (MSC_Handle->hbot.csw.field.Status == 0U)
 607:Middlewares/ST/STM32_USB_Host_Library/Class/MSC/Src/usbh_msc_bot.c ****         {
 608:Middlewares/ST/STM32_USB_Host_Library/Class/MSC/Src/usbh_msc_bot.c ****           /* Refer to USB Mass-Storage Class : BOT (www.usb.org)
 609:Middlewares/ST/STM32_USB_Host_Library/Class/MSC/Src/usbh_msc_bot.c **** 
 610:Middlewares/ST/STM32_USB_Host_Library/Class/MSC/Src/usbh_msc_bot.c ****           Hn Host expects no data transfers
 611:Middlewares/ST/STM32_USB_Host_Library/Class/MSC/Src/usbh_msc_bot.c ****           Hi Host expects to receive data from the device
 612:Middlewares/ST/STM32_USB_Host_Library/Class/MSC/Src/usbh_msc_bot.c ****           Ho Host expects to send data to the device
 613:Middlewares/ST/STM32_USB_Host_Library/Class/MSC/Src/usbh_msc_bot.c **** 
 614:Middlewares/ST/STM32_USB_Host_Library/Class/MSC/Src/usbh_msc_bot.c ****           Dn Device intends to transfer no data
 615:Middlewares/ST/STM32_USB_Host_Library/Class/MSC/Src/usbh_msc_bot.c ****           Di Device intends to send data to the host
 616:Middlewares/ST/STM32_USB_Host_Library/Class/MSC/Src/usbh_msc_bot.c ****           Do Device intends to receive data from the host
 617:Middlewares/ST/STM32_USB_Host_Library/Class/MSC/Src/usbh_msc_bot.c **** 
 618:Middlewares/ST/STM32_USB_Host_Library/Class/MSC/Src/usbh_msc_bot.c ****           Section 6.7
 619:Middlewares/ST/STM32_USB_Host_Library/Class/MSC/Src/usbh_msc_bot.c ****           (1) Hn = Dn (Host expects no data transfers,
 620:Middlewares/ST/STM32_USB_Host_Library/Class/MSC/Src/usbh_msc_bot.c ****           Device intends to transfer no data)
 621:Middlewares/ST/STM32_USB_Host_Library/Class/MSC/Src/usbh_msc_bot.c ****           (6) Hi = Di (Host expects to receive data from the device,
 622:Middlewares/ST/STM32_USB_Host_Library/Class/MSC/Src/usbh_msc_bot.c ****           Device intends to send data to the host)
 623:Middlewares/ST/STM32_USB_Host_Library/Class/MSC/Src/usbh_msc_bot.c ****           (12) Ho = Do (Host expects to send data to the device,
 624:Middlewares/ST/STM32_USB_Host_Library/Class/MSC/Src/usbh_msc_bot.c ****           Device intends to receive data from the host)
 625:Middlewares/ST/STM32_USB_Host_Library/Class/MSC/Src/usbh_msc_bot.c ****           */
 626:Middlewares/ST/STM32_USB_Host_Library/Class/MSC/Src/usbh_msc_bot.c **** 
 627:Middlewares/ST/STM32_USB_Host_Library/Class/MSC/Src/usbh_msc_bot.c ****           status = BOT_CSW_CMD_PASSED;
 628:Middlewares/ST/STM32_USB_Host_Library/Class/MSC/Src/usbh_msc_bot.c ****         }
ARM GAS  C:\Users\benny\AppData\Local\Temp\ccesklXC.s 			page 13


 629:Middlewares/ST/STM32_USB_Host_Library/Class/MSC/Src/usbh_msc_bot.c ****         else if (MSC_Handle->hbot.csw.field.Status == 1U)
 630:Middlewares/ST/STM32_USB_Host_Library/Class/MSC/Src/usbh_msc_bot.c ****         {
 631:Middlewares/ST/STM32_USB_Host_Library/Class/MSC/Src/usbh_msc_bot.c ****           status = BOT_CSW_CMD_FAILED;
 632:Middlewares/ST/STM32_USB_Host_Library/Class/MSC/Src/usbh_msc_bot.c ****         }
 633:Middlewares/ST/STM32_USB_Host_Library/Class/MSC/Src/usbh_msc_bot.c ****         else if (MSC_Handle->hbot.csw.field.Status == 2U)
 634:Middlewares/ST/STM32_USB_Host_Library/Class/MSC/Src/usbh_msc_bot.c ****         {
 635:Middlewares/ST/STM32_USB_Host_Library/Class/MSC/Src/usbh_msc_bot.c ****           /* Refer to USB Mass-Storage Class : BOT (www.usb.org)
 636:Middlewares/ST/STM32_USB_Host_Library/Class/MSC/Src/usbh_msc_bot.c ****           Section 6.7
 637:Middlewares/ST/STM32_USB_Host_Library/Class/MSC/Src/usbh_msc_bot.c ****           (2) Hn < Di ( Host expects no data transfers,
 638:Middlewares/ST/STM32_USB_Host_Library/Class/MSC/Src/usbh_msc_bot.c ****           Device intends to send data to the host)
 639:Middlewares/ST/STM32_USB_Host_Library/Class/MSC/Src/usbh_msc_bot.c ****           (3) Hn < Do ( Host expects no data transfers,
 640:Middlewares/ST/STM32_USB_Host_Library/Class/MSC/Src/usbh_msc_bot.c ****           Device intends to receive data from the host)
 641:Middlewares/ST/STM32_USB_Host_Library/Class/MSC/Src/usbh_msc_bot.c ****           (7) Hi < Di ( Host expects to receive data from the device,
 642:Middlewares/ST/STM32_USB_Host_Library/Class/MSC/Src/usbh_msc_bot.c ****           Device intends to send data to the host)
 643:Middlewares/ST/STM32_USB_Host_Library/Class/MSC/Src/usbh_msc_bot.c ****           (8) Hi <> Do ( Host expects to receive data from the device,
 644:Middlewares/ST/STM32_USB_Host_Library/Class/MSC/Src/usbh_msc_bot.c ****           Device intends to receive data from the host)
 645:Middlewares/ST/STM32_USB_Host_Library/Class/MSC/Src/usbh_msc_bot.c ****           (10) Ho <> Di (Host expects to send data to the device,
 646:Middlewares/ST/STM32_USB_Host_Library/Class/MSC/Src/usbh_msc_bot.c ****           Di Device intends to send data to the host)
 647:Middlewares/ST/STM32_USB_Host_Library/Class/MSC/Src/usbh_msc_bot.c ****           (13) Ho < Do (Host expects to send data to the device,
 648:Middlewares/ST/STM32_USB_Host_Library/Class/MSC/Src/usbh_msc_bot.c ****           Device intends to receive data from the host)
 649:Middlewares/ST/STM32_USB_Host_Library/Class/MSC/Src/usbh_msc_bot.c ****           */
 650:Middlewares/ST/STM32_USB_Host_Library/Class/MSC/Src/usbh_msc_bot.c **** 
 651:Middlewares/ST/STM32_USB_Host_Library/Class/MSC/Src/usbh_msc_bot.c ****           status = BOT_CSW_PHASE_ERROR;
 652:Middlewares/ST/STM32_USB_Host_Library/Class/MSC/Src/usbh_msc_bot.c ****         }
 653:Middlewares/ST/STM32_USB_Host_Library/Class/MSC/Src/usbh_msc_bot.c ****         else
 654:Middlewares/ST/STM32_USB_Host_Library/Class/MSC/Src/usbh_msc_bot.c ****         {
 655:Middlewares/ST/STM32_USB_Host_Library/Class/MSC/Src/usbh_msc_bot.c ****         }
 656:Middlewares/ST/STM32_USB_Host_Library/Class/MSC/Src/usbh_msc_bot.c ****       } /* CSW Tag Matching is Checked  */
 657:Middlewares/ST/STM32_USB_Host_Library/Class/MSC/Src/usbh_msc_bot.c ****     } /* CSW Signature Correct Checking */
 658:Middlewares/ST/STM32_USB_Host_Library/Class/MSC/Src/usbh_msc_bot.c ****     else
 659:Middlewares/ST/STM32_USB_Host_Library/Class/MSC/Src/usbh_msc_bot.c ****     {
 660:Middlewares/ST/STM32_USB_Host_Library/Class/MSC/Src/usbh_msc_bot.c ****       /* If the CSW Signature is not valid, We sall return the Phase Error to
 661:Middlewares/ST/STM32_USB_Host_Library/Class/MSC/Src/usbh_msc_bot.c ****       Upper Layers for Reset Recovery */
 662:Middlewares/ST/STM32_USB_Host_Library/Class/MSC/Src/usbh_msc_bot.c **** 
 663:Middlewares/ST/STM32_USB_Host_Library/Class/MSC/Src/usbh_msc_bot.c ****       status = BOT_CSW_PHASE_ERROR;
 664:Middlewares/ST/STM32_USB_Host_Library/Class/MSC/Src/usbh_msc_bot.c ****     }
 665:Middlewares/ST/STM32_USB_Host_Library/Class/MSC/Src/usbh_msc_bot.c ****   } /* CSW Length Check*/
 666:Middlewares/ST/STM32_USB_Host_Library/Class/MSC/Src/usbh_msc_bot.c **** 
 667:Middlewares/ST/STM32_USB_Host_Library/Class/MSC/Src/usbh_msc_bot.c ****   return status;
  58              		.loc 1 667 3 is_stmt 1 view .LVU10
 668:Middlewares/ST/STM32_USB_Host_Library/Class/MSC/Src/usbh_msc_bot.c **** }
  59              		.loc 1 668 1 is_stmt 0 view .LVU11
  60 0014 10BD     		pop	{r4, pc}
  61              	.LVL4:
  62              	.L7:
 597:Middlewares/ST/STM32_USB_Host_Library/Class/MSC/Src/usbh_msc_bot.c ****     {
  63              		.loc 1 597 5 is_stmt 1 view .LVU12
 597:Middlewares/ST/STM32_USB_Host_Library/Class/MSC/Src/usbh_msc_bot.c ****     {
  64              		.loc 1 597 35 is_stmt 0 view .LVU13
  65 0016 A26F     		ldr	r2, [r4, #120]
 597:Middlewares/ST/STM32_USB_Host_Library/Class/MSC/Src/usbh_msc_bot.c ****     {
  66              		.loc 1 597 8 view .LVU14
  67 0018 0A4B     		ldr	r3, .L10
  68 001a 9A42     		cmp	r2, r3
  69 001c 01D0     		beq	.L8
 663:Middlewares/ST/STM32_USB_Host_Library/Class/MSC/Src/usbh_msc_bot.c ****     }
  70              		.loc 1 663 14 view .LVU15
ARM GAS  C:\Users\benny\AppData\Local\Temp\ccesklXC.s 			page 14


  71 001e 0220     		movs	r0, #2
  72 0020 F8E7     		b	.L2
  73              	.L8:
 601:Middlewares/ST/STM32_USB_Host_Library/Class/MSC/Src/usbh_msc_bot.c ****       {
  74              		.loc 1 601 7 is_stmt 1 view .LVU16
 601:Middlewares/ST/STM32_USB_Host_Library/Class/MSC/Src/usbh_msc_bot.c ****       {
  75              		.loc 1 601 37 is_stmt 0 view .LVU17
  76 0022 E26F     		ldr	r2, [r4, #124]
 601:Middlewares/ST/STM32_USB_Host_Library/Class/MSC/Src/usbh_msc_bot.c ****       {
  77              		.loc 1 601 71 view .LVU18
  78 0024 A36D     		ldr	r3, [r4, #88]
 601:Middlewares/ST/STM32_USB_Host_Library/Class/MSC/Src/usbh_msc_bot.c ****       {
  79              		.loc 1 601 10 view .LVU19
  80 0026 9A42     		cmp	r2, r3
  81 0028 01D0     		beq	.L9
 576:Middlewares/ST/STM32_USB_Host_Library/Class/MSC/Src/usbh_msc_bot.c **** 
  82              		.loc 1 576 24 view .LVU20
  83 002a 0120     		movs	r0, #1
  84 002c F2E7     		b	.L2
  85              	.L9:
 606:Middlewares/ST/STM32_USB_Host_Library/Class/MSC/Src/usbh_msc_bot.c ****         {
  86              		.loc 1 606 9 is_stmt 1 view .LVU21
 606:Middlewares/ST/STM32_USB_Host_Library/Class/MSC/Src/usbh_msc_bot.c ****         {
  87              		.loc 1 606 39 is_stmt 0 view .LVU22
  88 002e 94F88400 		ldrb	r0, [r4, #132]	@ zero_extendqisi2
 606:Middlewares/ST/STM32_USB_Host_Library/Class/MSC/Src/usbh_msc_bot.c ****         {
  89              		.loc 1 606 12 view .LVU23
  90 0032 0028     		cmp	r0, #0
  91 0034 EED0     		beq	.L2
 629:Middlewares/ST/STM32_USB_Host_Library/Class/MSC/Src/usbh_msc_bot.c ****         {
  92              		.loc 1 629 14 is_stmt 1 view .LVU24
 629:Middlewares/ST/STM32_USB_Host_Library/Class/MSC/Src/usbh_msc_bot.c ****         {
  93              		.loc 1 629 17 is_stmt 0 view .LVU25
  94 0036 0128     		cmp	r0, #1
  95 0038 ECD0     		beq	.L2
 633:Middlewares/ST/STM32_USB_Host_Library/Class/MSC/Src/usbh_msc_bot.c ****         {
  96              		.loc 1 633 14 is_stmt 1 view .LVU26
 633:Middlewares/ST/STM32_USB_Host_Library/Class/MSC/Src/usbh_msc_bot.c ****         {
  97              		.loc 1 633 17 is_stmt 0 view .LVU27
  98 003a 0228     		cmp	r0, #2
  99 003c EAD0     		beq	.L2
 576:Middlewares/ST/STM32_USB_Host_Library/Class/MSC/Src/usbh_msc_bot.c **** 
 100              		.loc 1 576 24 view .LVU28
 101 003e 0120     		movs	r0, #1
 102 0040 E8E7     		b	.L2
 103              	.L11:
 104 0042 00BF     		.align	2
 105              	.L10:
 106 0044 55534253 		.word	1396855637
 107              		.cfi_endproc
 108              	.LFE149:
 110              		.section	.text.USBH_MSC_BOT_Abort,"ax",%progbits
 111              		.align	1
 112              		.syntax unified
 113              		.thumb
 114              		.thumb_func
 116              	USBH_MSC_BOT_Abort:
ARM GAS  C:\Users\benny\AppData\Local\Temp\ccesklXC.s 			page 15


 117              	.LVL5:
 118              	.LFB148:
 532:Middlewares/ST/STM32_USB_Host_Library/Class/MSC/Src/usbh_msc_bot.c ****   /* Prevent unused argument(s) compilation warning */
 119              		.loc 1 532 1 is_stmt 1 view -0
 120              		.cfi_startproc
 121              		@ args = 0, pretend = 0, frame = 0
 122              		@ frame_needed = 0, uses_anonymous_args = 0
 532:Middlewares/ST/STM32_USB_Host_Library/Class/MSC/Src/usbh_msc_bot.c ****   /* Prevent unused argument(s) compilation warning */
 123              		.loc 1 532 1 is_stmt 0 view .LVU30
 124 0000 08B5     		push	{r3, lr}
 125              	.LCFI1:
 126              		.cfi_def_cfa_offset 8
 127              		.cfi_offset 3, -8
 128              		.cfi_offset 14, -4
 534:Middlewares/ST/STM32_USB_Host_Library/Class/MSC/Src/usbh_msc_bot.c **** 
 129              		.loc 1 534 3 is_stmt 1 view .LVU31
 536:Middlewares/ST/STM32_USB_Host_Library/Class/MSC/Src/usbh_msc_bot.c ****   MSC_HandleTypeDef *MSC_Handle = (MSC_HandleTypeDef *) phost->pActiveClass->pData;
 130              		.loc 1 536 3 view .LVU32
 131              	.LVL6:
 537:Middlewares/ST/STM32_USB_Host_Library/Class/MSC/Src/usbh_msc_bot.c **** 
 132              		.loc 1 537 3 view .LVU33
 537:Middlewares/ST/STM32_USB_Host_Library/Class/MSC/Src/usbh_msc_bot.c **** 
 133              		.loc 1 537 62 is_stmt 0 view .LVU34
 134 0002 D0F84C34 		ldr	r3, [r0, #1100]
 537:Middlewares/ST/STM32_USB_Host_Library/Class/MSC/Src/usbh_msc_bot.c **** 
 135              		.loc 1 537 22 view .LVU35
 136 0006 D969     		ldr	r1, [r3, #28]
 137              	.LVL7:
 539:Middlewares/ST/STM32_USB_Host_Library/Class/MSC/Src/usbh_msc_bot.c ****   {
 138              		.loc 1 539 3 is_stmt 1 view .LVU36
 139 0008 1AB1     		cbz	r2, .L13
 140 000a 012A     		cmp	r2, #1
 141 000c 05D0     		beq	.L14
 142 000e 0220     		movs	r0, #2
 143              	.LVL8:
 144              	.L15:
 555:Middlewares/ST/STM32_USB_Host_Library/Class/MSC/Src/usbh_msc_bot.c **** }
 145              		.loc 1 555 3 view .LVU37
 556:Middlewares/ST/STM32_USB_Host_Library/Class/MSC/Src/usbh_msc_bot.c **** 
 146              		.loc 1 556 1 is_stmt 0 view .LVU38
 147 0010 08BD     		pop	{r3, pc}
 148              	.LVL9:
 149              	.L13:
 543:Middlewares/ST/STM32_USB_Host_Library/Class/MSC/Src/usbh_msc_bot.c **** 
 150              		.loc 1 543 7 is_stmt 1 view .LVU39
 543:Middlewares/ST/STM32_USB_Host_Library/Class/MSC/Src/usbh_msc_bot.c **** 
 151              		.loc 1 543 16 is_stmt 0 view .LVU40
 152 0012 C979     		ldrb	r1, [r1, #7]	@ zero_extendqisi2
 153              	.LVL10:
 543:Middlewares/ST/STM32_USB_Host_Library/Class/MSC/Src/usbh_msc_bot.c **** 
 154              		.loc 1 543 16 view .LVU41
 155 0014 FFF7FEFF 		bl	USBH_ClrFeature
 156              	.LVL11:
 545:Middlewares/ST/STM32_USB_Host_Library/Class/MSC/Src/usbh_msc_bot.c **** 
 157              		.loc 1 545 7 is_stmt 1 view .LVU42
 158 0018 FAE7     		b	.L15
 159              	.LVL12:
ARM GAS  C:\Users\benny\AppData\Local\Temp\ccesklXC.s 			page 16


 160              	.L14:
 549:Middlewares/ST/STM32_USB_Host_Library/Class/MSC/Src/usbh_msc_bot.c ****       break;
 161              		.loc 1 549 7 view .LVU43
 549:Middlewares/ST/STM32_USB_Host_Library/Class/MSC/Src/usbh_msc_bot.c ****       break;
 162              		.loc 1 549 16 is_stmt 0 view .LVU44
 163 001a 8979     		ldrb	r1, [r1, #6]	@ zero_extendqisi2
 164              	.LVL13:
 549:Middlewares/ST/STM32_USB_Host_Library/Class/MSC/Src/usbh_msc_bot.c ****       break;
 165              		.loc 1 549 16 view .LVU45
 166 001c FFF7FEFF 		bl	USBH_ClrFeature
 167              	.LVL14:
 550:Middlewares/ST/STM32_USB_Host_Library/Class/MSC/Src/usbh_msc_bot.c **** 
 168              		.loc 1 550 7 is_stmt 1 view .LVU46
 169 0020 F6E7     		b	.L15
 170              		.cfi_endproc
 171              	.LFE148:
 173              		.section	.text.USBH_MSC_BOT_REQ_Reset,"ax",%progbits
 174              		.align	1
 175              		.global	USBH_MSC_BOT_REQ_Reset
 176              		.syntax unified
 177              		.thumb
 178              		.thumb_func
 180              	USBH_MSC_BOT_REQ_Reset:
 181              	.LVL15:
 182              	.LFB144:
 108:Middlewares/ST/STM32_USB_Host_Library/Class/MSC/Src/usbh_msc_bot.c **** 
 183              		.loc 1 108 1 view -0
 184              		.cfi_startproc
 185              		@ args = 0, pretend = 0, frame = 0
 186              		@ frame_needed = 0, uses_anonymous_args = 0
 108:Middlewares/ST/STM32_USB_Host_Library/Class/MSC/Src/usbh_msc_bot.c **** 
 187              		.loc 1 108 1 is_stmt 0 view .LVU48
 188 0000 08B5     		push	{r3, lr}
 189              	.LCFI2:
 190              		.cfi_def_cfa_offset 8
 191              		.cfi_offset 3, -8
 192              		.cfi_offset 14, -4
 110:Middlewares/ST/STM32_USB_Host_Library/Class/MSC/Src/usbh_msc_bot.c ****                                          | USB_REQ_RECIPIENT_INTERFACE;
 193              		.loc 1 110 3 is_stmt 1 view .LVU49
 110:Middlewares/ST/STM32_USB_Host_Library/Class/MSC/Src/usbh_msc_bot.c ****                                          | USB_REQ_RECIPIENT_INTERFACE;
 194              		.loc 1 110 40 is_stmt 0 view .LVU50
 195 0002 2122     		movs	r2, #33
 196 0004 0274     		strb	r2, [r0, #16]
 113:Middlewares/ST/STM32_USB_Host_Library/Class/MSC/Src/usbh_msc_bot.c ****   phost->Control.setup.b.wValue.w = 0U;
 197              		.loc 1 113 3 is_stmt 1 view .LVU51
 113:Middlewares/ST/STM32_USB_Host_Library/Class/MSC/Src/usbh_msc_bot.c ****   phost->Control.setup.b.wValue.w = 0U;
 198              		.loc 1 113 35 is_stmt 0 view .LVU52
 199 0006 FF22     		movs	r2, #255
 200 0008 4274     		strb	r2, [r0, #17]
 114:Middlewares/ST/STM32_USB_Host_Library/Class/MSC/Src/usbh_msc_bot.c ****   phost->Control.setup.b.wIndex.w = 0U;
 201              		.loc 1 114 3 is_stmt 1 view .LVU53
 114:Middlewares/ST/STM32_USB_Host_Library/Class/MSC/Src/usbh_msc_bot.c ****   phost->Control.setup.b.wIndex.w = 0U;
 202              		.loc 1 114 35 is_stmt 0 view .LVU54
 203 000a 0021     		movs	r1, #0
 204 000c 4182     		strh	r1, [r0, #18]	@ movhi
 115:Middlewares/ST/STM32_USB_Host_Library/Class/MSC/Src/usbh_msc_bot.c ****   phost->Control.setup.b.wLength.w = 0U;
 205              		.loc 1 115 3 is_stmt 1 view .LVU55
ARM GAS  C:\Users\benny\AppData\Local\Temp\ccesklXC.s 			page 17


 115:Middlewares/ST/STM32_USB_Host_Library/Class/MSC/Src/usbh_msc_bot.c ****   phost->Control.setup.b.wLength.w = 0U;
 206              		.loc 1 115 35 is_stmt 0 view .LVU56
 207 000e 8182     		strh	r1, [r0, #20]	@ movhi
 116:Middlewares/ST/STM32_USB_Host_Library/Class/MSC/Src/usbh_msc_bot.c **** 
 208              		.loc 1 116 3 is_stmt 1 view .LVU57
 116:Middlewares/ST/STM32_USB_Host_Library/Class/MSC/Src/usbh_msc_bot.c **** 
 209              		.loc 1 116 36 is_stmt 0 view .LVU58
 210 0010 C182     		strh	r1, [r0, #22]	@ movhi
 118:Middlewares/ST/STM32_USB_Host_Library/Class/MSC/Src/usbh_msc_bot.c **** }
 211              		.loc 1 118 3 is_stmt 1 view .LVU59
 118:Middlewares/ST/STM32_USB_Host_Library/Class/MSC/Src/usbh_msc_bot.c **** }
 212              		.loc 1 118 10 is_stmt 0 view .LVU60
 213 0012 0A46     		mov	r2, r1
 214 0014 FFF7FEFF 		bl	USBH_CtlReq
 215              	.LVL16:
 119:Middlewares/ST/STM32_USB_Host_Library/Class/MSC/Src/usbh_msc_bot.c **** 
 216              		.loc 1 119 1 view .LVU61
 217 0018 08BD     		pop	{r3, pc}
 218              		.cfi_endproc
 219              	.LFE144:
 221              		.section	.text.USBH_MSC_BOT_REQ_GetMaxLUN,"ax",%progbits
 222              		.align	1
 223              		.global	USBH_MSC_BOT_REQ_GetMaxLUN
 224              		.syntax unified
 225              		.thumb
 226              		.thumb_func
 228              	USBH_MSC_BOT_REQ_GetMaxLUN:
 229              	.LVL17:
 230              	.LFB145:
 129:Middlewares/ST/STM32_USB_Host_Library/Class/MSC/Src/usbh_msc_bot.c ****   phost->Control.setup.b.bmRequestType = USB_D2H | USB_REQ_TYPE_CLASS
 231              		.loc 1 129 1 is_stmt 1 view -0
 232              		.cfi_startproc
 233              		@ args = 0, pretend = 0, frame = 0
 234              		@ frame_needed = 0, uses_anonymous_args = 0
 129:Middlewares/ST/STM32_USB_Host_Library/Class/MSC/Src/usbh_msc_bot.c ****   phost->Control.setup.b.bmRequestType = USB_D2H | USB_REQ_TYPE_CLASS
 235              		.loc 1 129 1 is_stmt 0 view .LVU63
 236 0000 08B5     		push	{r3, lr}
 237              	.LCFI3:
 238              		.cfi_def_cfa_offset 8
 239              		.cfi_offset 3, -8
 240              		.cfi_offset 14, -4
 130:Middlewares/ST/STM32_USB_Host_Library/Class/MSC/Src/usbh_msc_bot.c ****                                          | USB_REQ_RECIPIENT_INTERFACE;
 241              		.loc 1 130 3 is_stmt 1 view .LVU64
 130:Middlewares/ST/STM32_USB_Host_Library/Class/MSC/Src/usbh_msc_bot.c ****                                          | USB_REQ_RECIPIENT_INTERFACE;
 242              		.loc 1 130 40 is_stmt 0 view .LVU65
 243 0002 A122     		movs	r2, #161
 244 0004 0274     		strb	r2, [r0, #16]
 133:Middlewares/ST/STM32_USB_Host_Library/Class/MSC/Src/usbh_msc_bot.c ****   phost->Control.setup.b.wValue.w = 0U;
 245              		.loc 1 133 3 is_stmt 1 view .LVU66
 133:Middlewares/ST/STM32_USB_Host_Library/Class/MSC/Src/usbh_msc_bot.c ****   phost->Control.setup.b.wValue.w = 0U;
 246              		.loc 1 133 35 is_stmt 0 view .LVU67
 247 0006 FE22     		movs	r2, #254
 248 0008 4274     		strb	r2, [r0, #17]
 134:Middlewares/ST/STM32_USB_Host_Library/Class/MSC/Src/usbh_msc_bot.c ****   phost->Control.setup.b.wIndex.w = 0U;
 249              		.loc 1 134 3 is_stmt 1 view .LVU68
 134:Middlewares/ST/STM32_USB_Host_Library/Class/MSC/Src/usbh_msc_bot.c ****   phost->Control.setup.b.wIndex.w = 0U;
 250              		.loc 1 134 35 is_stmt 0 view .LVU69
ARM GAS  C:\Users\benny\AppData\Local\Temp\ccesklXC.s 			page 18


 251 000a 0022     		movs	r2, #0
 252 000c 4282     		strh	r2, [r0, #18]	@ movhi
 135:Middlewares/ST/STM32_USB_Host_Library/Class/MSC/Src/usbh_msc_bot.c ****   phost->Control.setup.b.wLength.w = 1U;
 253              		.loc 1 135 3 is_stmt 1 view .LVU70
 135:Middlewares/ST/STM32_USB_Host_Library/Class/MSC/Src/usbh_msc_bot.c ****   phost->Control.setup.b.wLength.w = 1U;
 254              		.loc 1 135 35 is_stmt 0 view .LVU71
 255 000e 8282     		strh	r2, [r0, #20]	@ movhi
 136:Middlewares/ST/STM32_USB_Host_Library/Class/MSC/Src/usbh_msc_bot.c **** 
 256              		.loc 1 136 3 is_stmt 1 view .LVU72
 136:Middlewares/ST/STM32_USB_Host_Library/Class/MSC/Src/usbh_msc_bot.c **** 
 257              		.loc 1 136 36 is_stmt 0 view .LVU73
 258 0010 0122     		movs	r2, #1
 259 0012 C282     		strh	r2, [r0, #22]	@ movhi
 138:Middlewares/ST/STM32_USB_Host_Library/Class/MSC/Src/usbh_msc_bot.c **** }
 260              		.loc 1 138 3 is_stmt 1 view .LVU74
 138:Middlewares/ST/STM32_USB_Host_Library/Class/MSC/Src/usbh_msc_bot.c **** }
 261              		.loc 1 138 10 is_stmt 0 view .LVU75
 262 0014 FFF7FEFF 		bl	USBH_CtlReq
 263              	.LVL18:
 139:Middlewares/ST/STM32_USB_Host_Library/Class/MSC/Src/usbh_msc_bot.c **** 
 264              		.loc 1 139 1 view .LVU76
 265 0018 08BD     		pop	{r3, pc}
 266              		.cfi_endproc
 267              	.LFE145:
 269              		.section	.text.USBH_MSC_BOT_Init,"ax",%progbits
 270              		.align	1
 271              		.global	USBH_MSC_BOT_Init
 272              		.syntax unified
 273              		.thumb
 274              		.thumb_func
 276              	USBH_MSC_BOT_Init:
 277              	.LVL19:
 278              	.LFB146:
 150:Middlewares/ST/STM32_USB_Host_Library/Class/MSC/Src/usbh_msc_bot.c **** 
 279              		.loc 1 150 1 is_stmt 1 view -0
 280              		.cfi_startproc
 281              		@ args = 0, pretend = 0, frame = 0
 282              		@ frame_needed = 0, uses_anonymous_args = 0
 283              		@ link register save eliminated.
 152:Middlewares/ST/STM32_USB_Host_Library/Class/MSC/Src/usbh_msc_bot.c **** 
 284              		.loc 1 152 3 view .LVU78
 152:Middlewares/ST/STM32_USB_Host_Library/Class/MSC/Src/usbh_msc_bot.c **** 
 285              		.loc 1 152 62 is_stmt 0 view .LVU79
 286 0000 D0F84C34 		ldr	r3, [r0, #1100]
 152:Middlewares/ST/STM32_USB_Host_Library/Class/MSC/Src/usbh_msc_bot.c **** 
 287              		.loc 1 152 22 view .LVU80
 288 0004 DB69     		ldr	r3, [r3, #28]
 289              	.LVL20:
 154:Middlewares/ST/STM32_USB_Host_Library/Class/MSC/Src/usbh_msc_bot.c ****   MSC_Handle->hbot.cbw.field.Tag = BOT_CBW_TAG;
 290              		.loc 1 154 3 is_stmt 1 view .LVU81
 154:Middlewares/ST/STM32_USB_Host_Library/Class/MSC/Src/usbh_msc_bot.c ****   MSC_Handle->hbot.cbw.field.Tag = BOT_CBW_TAG;
 291              		.loc 1 154 40 is_stmt 0 view .LVU82
 292 0006 054A     		ldr	r2, .L22
 293 0008 5A65     		str	r2, [r3, #84]
 155:Middlewares/ST/STM32_USB_Host_Library/Class/MSC/Src/usbh_msc_bot.c ****   MSC_Handle->hbot.state = BOT_SEND_CBW;
 294              		.loc 1 155 3 is_stmt 1 view .LVU83
 155:Middlewares/ST/STM32_USB_Host_Library/Class/MSC/Src/usbh_msc_bot.c ****   MSC_Handle->hbot.state = BOT_SEND_CBW;
ARM GAS  C:\Users\benny\AppData\Local\Temp\ccesklXC.s 			page 19


 295              		.loc 1 155 34 is_stmt 0 view .LVU84
 296 000a 054A     		ldr	r2, .L22+4
 297 000c 9A65     		str	r2, [r3, #88]
 156:Middlewares/ST/STM32_USB_Host_Library/Class/MSC/Src/usbh_msc_bot.c ****   MSC_Handle->hbot.cmd_state = BOT_CMD_SEND;
 298              		.loc 1 156 3 is_stmt 1 view .LVU85
 156:Middlewares/ST/STM32_USB_Host_Library/Class/MSC/Src/usbh_msc_bot.c ****   MSC_Handle->hbot.cmd_state = BOT_CMD_SEND;
 299              		.loc 1 156 26 is_stmt 0 view .LVU86
 300 000e 0122     		movs	r2, #1
 301 0010 83F85020 		strb	r2, [r3, #80]
 157:Middlewares/ST/STM32_USB_Host_Library/Class/MSC/Src/usbh_msc_bot.c **** 
 302              		.loc 1 157 3 is_stmt 1 view .LVU87
 157:Middlewares/ST/STM32_USB_Host_Library/Class/MSC/Src/usbh_msc_bot.c **** 
 303              		.loc 1 157 30 is_stmt 0 view .LVU88
 304 0014 83F85220 		strb	r2, [r3, #82]
 159:Middlewares/ST/STM32_USB_Host_Library/Class/MSC/Src/usbh_msc_bot.c **** }
 305              		.loc 1 159 3 is_stmt 1 view .LVU89
 160:Middlewares/ST/STM32_USB_Host_Library/Class/MSC/Src/usbh_msc_bot.c **** 
 306              		.loc 1 160 1 is_stmt 0 view .LVU90
 307 0018 0020     		movs	r0, #0
 308              	.LVL21:
 160:Middlewares/ST/STM32_USB_Host_Library/Class/MSC/Src/usbh_msc_bot.c **** 
 309              		.loc 1 160 1 view .LVU91
 310 001a 7047     		bx	lr
 311              	.L23:
 312              		.align	2
 313              	.L22:
 314 001c 55534243 		.word	1128420181
 315 0020 50403020 		.word	540033104
 316              		.cfi_endproc
 317              	.LFE146:
 319              		.section	.text.USBH_MSC_BOT_Process,"ax",%progbits
 320              		.align	1
 321              		.global	USBH_MSC_BOT_Process
 322              		.syntax unified
 323              		.thumb
 324              		.thumb_func
 326              	USBH_MSC_BOT_Process:
 327              	.LVL22:
 328              	.LFB147:
 172:Middlewares/ST/STM32_USB_Host_Library/Class/MSC/Src/usbh_msc_bot.c ****   USBH_StatusTypeDef   status = USBH_BUSY;
 329              		.loc 1 172 1 is_stmt 1 view -0
 330              		.cfi_startproc
 331              		@ args = 0, pretend = 0, frame = 0
 332              		@ frame_needed = 0, uses_anonymous_args = 0
 172:Middlewares/ST/STM32_USB_Host_Library/Class/MSC/Src/usbh_msc_bot.c ****   USBH_StatusTypeDef   status = USBH_BUSY;
 333              		.loc 1 172 1 is_stmt 0 view .LVU93
 334 0000 70B5     		push	{r4, r5, r6, lr}
 335              	.LCFI4:
 336              		.cfi_def_cfa_offset 16
 337              		.cfi_offset 4, -16
 338              		.cfi_offset 5, -12
 339              		.cfi_offset 6, -8
 340              		.cfi_offset 14, -4
 341 0002 82B0     		sub	sp, sp, #8
 342              	.LCFI5:
 343              		.cfi_def_cfa_offset 24
 344 0004 0546     		mov	r5, r0
ARM GAS  C:\Users\benny\AppData\Local\Temp\ccesklXC.s 			page 20


 173:Middlewares/ST/STM32_USB_Host_Library/Class/MSC/Src/usbh_msc_bot.c ****   USBH_StatusTypeDef   error  = USBH_BUSY;
 345              		.loc 1 173 3 is_stmt 1 view .LVU94
 346              	.LVL23:
 174:Middlewares/ST/STM32_USB_Host_Library/Class/MSC/Src/usbh_msc_bot.c ****   BOT_CSWStatusTypeDef CSW_Status = BOT_CSW_CMD_FAILED;
 347              		.loc 1 174 3 view .LVU95
 175:Middlewares/ST/STM32_USB_Host_Library/Class/MSC/Src/usbh_msc_bot.c ****   USBH_URBStateTypeDef URB_Status = USBH_URB_IDLE;
 348              		.loc 1 175 3 view .LVU96
 176:Middlewares/ST/STM32_USB_Host_Library/Class/MSC/Src/usbh_msc_bot.c ****   MSC_HandleTypeDef *MSC_Handle = (MSC_HandleTypeDef *) phost->pActiveClass->pData;
 349              		.loc 1 176 3 view .LVU97
 177:Middlewares/ST/STM32_USB_Host_Library/Class/MSC/Src/usbh_msc_bot.c ****   uint8_t toggle = 0U;
 350              		.loc 1 177 3 view .LVU98
 177:Middlewares/ST/STM32_USB_Host_Library/Class/MSC/Src/usbh_msc_bot.c ****   uint8_t toggle = 0U;
 351              		.loc 1 177 62 is_stmt 0 view .LVU99
 352 0006 D0F84C34 		ldr	r3, [r0, #1100]
 177:Middlewares/ST/STM32_USB_Host_Library/Class/MSC/Src/usbh_msc_bot.c ****   uint8_t toggle = 0U;
 353              		.loc 1 177 22 view .LVU100
 354 000a DE69     		ldr	r6, [r3, #28]
 355              	.LVL24:
 178:Middlewares/ST/STM32_USB_Host_Library/Class/MSC/Src/usbh_msc_bot.c **** 
 356              		.loc 1 178 3 is_stmt 1 view .LVU101
 180:Middlewares/ST/STM32_USB_Host_Library/Class/MSC/Src/usbh_msc_bot.c ****   {
 357              		.loc 1 180 3 view .LVU102
 180:Middlewares/ST/STM32_USB_Host_Library/Class/MSC/Src/usbh_msc_bot.c ****   {
 358              		.loc 1 180 27 is_stmt 0 view .LVU103
 359 000c 96F85040 		ldrb	r4, [r6, #80]	@ zero_extendqisi2
 180:Middlewares/ST/STM32_USB_Host_Library/Class/MSC/Src/usbh_msc_bot.c ****   {
 360              		.loc 1 180 3 view .LVU104
 361 0010 631E     		subs	r3, r4, #1
 362 0012 0A2B     		cmp	r3, #10
 363 0014 00F21D81 		bhi	.L54
 364 0018 DFE813F0 		tbh	[pc, r3, lsl #1]
 365              	.L27:
 366 001c 0B00     		.2byte	(.L37-.L27)/2
 367 001e 1B00     		.2byte	(.L36-.L27)/2
 368 0020 4200     		.2byte	(.L35-.L27)/2
 369 0022 4D00     		.2byte	(.L34-.L27)/2
 370 0024 7700     		.2byte	(.L33-.L27)/2
 371 0026 8300     		.2byte	(.L32-.L27)/2
 372 0028 B600     		.2byte	(.L31-.L27)/2
 373 002a C100     		.2byte	(.L30-.L27)/2
 374 002c DD00     		.2byte	(.L29-.L27)/2
 375 002e EF00     		.2byte	(.L28-.L27)/2
 376 0030 1101     		.2byte	(.L26-.L27)/2
 377              		.p2align 1
 378              	.L37:
 183:Middlewares/ST/STM32_USB_Host_Library/Class/MSC/Src/usbh_msc_bot.c ****       MSC_Handle->hbot.state = BOT_SEND_CBW_WAIT;
 379              		.loc 1 183 7 is_stmt 1 view .LVU105
 183:Middlewares/ST/STM32_USB_Host_Library/Class/MSC/Src/usbh_msc_bot.c ****       MSC_Handle->hbot.state = BOT_SEND_CBW_WAIT;
 380              		.loc 1 183 38 is_stmt 0 view .LVU106
 381 0032 86F86110 		strb	r1, [r6, #97]
 184:Middlewares/ST/STM32_USB_Host_Library/Class/MSC/Src/usbh_msc_bot.c ****       (void)USBH_BulkSendData(phost, MSC_Handle->hbot.cbw.data,
 382              		.loc 1 184 7 is_stmt 1 view .LVU107
 184:Middlewares/ST/STM32_USB_Host_Library/Class/MSC/Src/usbh_msc_bot.c ****       (void)USBH_BulkSendData(phost, MSC_Handle->hbot.cbw.data,
 383              		.loc 1 184 30 is_stmt 0 view .LVU108
 384 0036 0223     		movs	r3, #2
 385 0038 86F85030 		strb	r3, [r6, #80]
 185:Middlewares/ST/STM32_USB_Host_Library/Class/MSC/Src/usbh_msc_bot.c ****                               BOT_CBW_LENGTH, MSC_Handle->OutPipe, 1U);
ARM GAS  C:\Users\benny\AppData\Local\Temp\ccesklXC.s 			page 21


 386              		.loc 1 185 7 is_stmt 1 view .LVU109
 185:Middlewares/ST/STM32_USB_Host_Library/Class/MSC/Src/usbh_msc_bot.c ****                               BOT_CBW_LENGTH, MSC_Handle->OutPipe, 1U);
 387              		.loc 1 185 13 is_stmt 0 view .LVU110
 388 003c 7379     		ldrb	r3, [r6, #5]	@ zero_extendqisi2
 389 003e 0122     		movs	r2, #1
 390 0040 0092     		str	r2, [sp]
 391 0042 1F22     		movs	r2, #31
 392 0044 06F15401 		add	r1, r6, #84
 393              	.LVL25:
 185:Middlewares/ST/STM32_USB_Host_Library/Class/MSC/Src/usbh_msc_bot.c ****                               BOT_CBW_LENGTH, MSC_Handle->OutPipe, 1U);
 394              		.loc 1 185 13 view .LVU111
 395 0048 FFF7FEFF 		bl	USBH_BulkSendData
 396              	.LVL26:
 188:Middlewares/ST/STM32_USB_Host_Library/Class/MSC/Src/usbh_msc_bot.c **** 
 397              		.loc 1 188 7 is_stmt 1 view .LVU112
 398              	.L25:
 520:Middlewares/ST/STM32_USB_Host_Library/Class/MSC/Src/usbh_msc_bot.c **** }
 399              		.loc 1 520 3 view .LVU113
 521:Middlewares/ST/STM32_USB_Host_Library/Class/MSC/Src/usbh_msc_bot.c **** 
 400              		.loc 1 521 1 is_stmt 0 view .LVU114
 401 004c 2046     		mov	r0, r4
 402 004e 02B0     		add	sp, sp, #8
 403              	.LCFI6:
 404              		.cfi_remember_state
 405              		.cfi_def_cfa_offset 16
 406              		@ sp needed
 407 0050 70BD     		pop	{r4, r5, r6, pc}
 408              	.LVL27:
 409              	.L36:
 410              	.LCFI7:
 411              		.cfi_restore_state
 192:Middlewares/ST/STM32_USB_Host_Library/Class/MSC/Src/usbh_msc_bot.c **** 
 412              		.loc 1 192 7 is_stmt 1 view .LVU115
 192:Middlewares/ST/STM32_USB_Host_Library/Class/MSC/Src/usbh_msc_bot.c **** 
 413              		.loc 1 192 20 is_stmt 0 view .LVU116
 414 0052 7179     		ldrb	r1, [r6, #5]	@ zero_extendqisi2
 415              	.LVL28:
 192:Middlewares/ST/STM32_USB_Host_Library/Class/MSC/Src/usbh_msc_bot.c **** 
 416              		.loc 1 192 20 view .LVU117
 417 0054 FFF7FEFF 		bl	USBH_LL_GetURBState
 418              	.LVL29:
 192:Middlewares/ST/STM32_USB_Host_Library/Class/MSC/Src/usbh_msc_bot.c **** 
 419              		.loc 1 192 20 view .LVU118
 420 0058 0446     		mov	r4, r0
 421              	.LVL30:
 194:Middlewares/ST/STM32_USB_Host_Library/Class/MSC/Src/usbh_msc_bot.c ****       {
 422              		.loc 1 194 7 is_stmt 1 view .LVU119
 194:Middlewares/ST/STM32_USB_Host_Library/Class/MSC/Src/usbh_msc_bot.c ****       {
 423              		.loc 1 194 10 is_stmt 0 view .LVU120
 424 005a 0128     		cmp	r0, #1
 425 005c 05D0     		beq	.L63
 225:Middlewares/ST/STM32_USB_Host_Library/Class/MSC/Src/usbh_msc_bot.c ****       {
 426              		.loc 1 225 12 is_stmt 1 view .LVU121
 225:Middlewares/ST/STM32_USB_Host_Library/Class/MSC/Src/usbh_msc_bot.c ****       {
 427              		.loc 1 225 15 is_stmt 0 view .LVU122
 428 005e 0228     		cmp	r0, #2
 429 0060 15D0     		beq	.L64
ARM GAS  C:\Users\benny\AppData\Local\Temp\ccesklXC.s 			page 22


 241:Middlewares/ST/STM32_USB_Host_Library/Class/MSC/Src/usbh_msc_bot.c ****         {
 430              		.loc 1 241 9 is_stmt 1 view .LVU123
 241:Middlewares/ST/STM32_USB_Host_Library/Class/MSC/Src/usbh_msc_bot.c ****         {
 431              		.loc 1 241 12 is_stmt 0 view .LVU124
 432 0062 0528     		cmp	r0, #5
 433 0064 17D0     		beq	.L65
 173:Middlewares/ST/STM32_USB_Host_Library/Class/MSC/Src/usbh_msc_bot.c ****   USBH_StatusTypeDef   error  = USBH_BUSY;
 434              		.loc 1 173 24 view .LVU125
 435 0066 0124     		movs	r4, #1
 436 0068 F0E7     		b	.L25
 437              	.L63:
 196:Middlewares/ST/STM32_USB_Host_Library/Class/MSC/Src/usbh_msc_bot.c ****         {
 438              		.loc 1 196 9 is_stmt 1 view .LVU126
 196:Middlewares/ST/STM32_USB_Host_Library/Class/MSC/Src/usbh_msc_bot.c ****         {
 439              		.loc 1 196 39 is_stmt 0 view .LVU127
 440 006a F36D     		ldr	r3, [r6, #92]
 196:Middlewares/ST/STM32_USB_Host_Library/Class/MSC/Src/usbh_msc_bot.c ****         {
 441              		.loc 1 196 12 view .LVU128
 442 006c 5BB1     		cbz	r3, .L39
 199:Middlewares/ST/STM32_USB_Host_Library/Class/MSC/Src/usbh_msc_bot.c ****           {
 443              		.loc 1 199 11 is_stmt 1 view .LVU129
 199:Middlewares/ST/STM32_USB_Host_Library/Class/MSC/Src/usbh_msc_bot.c ****           {
 444              		.loc 1 199 71 is_stmt 0 view .LVU130
 445 006e 96F96030 		ldrsb	r3, [r6, #96]
 199:Middlewares/ST/STM32_USB_Host_Library/Class/MSC/Src/usbh_msc_bot.c ****           {
 446              		.loc 1 199 14 view .LVU131
 447 0072 002B     		cmp	r3, #0
 448 0074 03DB     		blt	.L66
 207:Middlewares/ST/STM32_USB_Host_Library/Class/MSC/Src/usbh_msc_bot.c ****           }
 449              		.loc 1 207 13 is_stmt 1 view .LVU132
 207:Middlewares/ST/STM32_USB_Host_Library/Class/MSC/Src/usbh_msc_bot.c ****           }
 450              		.loc 1 207 36 is_stmt 0 view .LVU133
 451 0076 0523     		movs	r3, #5
 452 0078 86F85030 		strb	r3, [r6, #80]
 453 007c E6E7     		b	.L25
 454              	.L66:
 202:Middlewares/ST/STM32_USB_Host_Library/Class/MSC/Src/usbh_msc_bot.c ****           }
 455              		.loc 1 202 13 is_stmt 1 view .LVU134
 202:Middlewares/ST/STM32_USB_Host_Library/Class/MSC/Src/usbh_msc_bot.c ****           }
 456              		.loc 1 202 36 is_stmt 0 view .LVU135
 457 007e 0323     		movs	r3, #3
 458 0080 86F85030 		strb	r3, [r6, #80]
 459 0084 E2E7     		b	.L25
 460              	.L39:
 213:Middlewares/ST/STM32_USB_Host_Library/Class/MSC/Src/usbh_msc_bot.c ****         }
 461              		.loc 1 213 11 is_stmt 1 view .LVU136
 213:Middlewares/ST/STM32_USB_Host_Library/Class/MSC/Src/usbh_msc_bot.c ****         }
 462              		.loc 1 213 34 is_stmt 0 view .LVU137
 463 0086 0723     		movs	r3, #7
 464 0088 86F85030 		strb	r3, [r6, #80]
 465 008c DEE7     		b	.L25
 466              	.L64:
 228:Middlewares/ST/STM32_USB_Host_Library/Class/MSC/Src/usbh_msc_bot.c **** 
 467              		.loc 1 228 9 is_stmt 1 view .LVU138
 228:Middlewares/ST/STM32_USB_Host_Library/Class/MSC/Src/usbh_msc_bot.c **** 
 468              		.loc 1 228 32 is_stmt 0 view .LVU139
 469 008e 0124     		movs	r4, #1
ARM GAS  C:\Users\benny\AppData\Local\Temp\ccesklXC.s 			page 23


 470 0090 86F85040 		strb	r4, [r6, #80]
 471 0094 DAE7     		b	.L25
 472              	.L65:
 243:Middlewares/ST/STM32_USB_Host_Library/Class/MSC/Src/usbh_msc_bot.c **** 
 473              		.loc 1 243 11 is_stmt 1 view .LVU140
 243:Middlewares/ST/STM32_USB_Host_Library/Class/MSC/Src/usbh_msc_bot.c **** 
 474              		.loc 1 243 34 is_stmt 0 view .LVU141
 475 0096 0A23     		movs	r3, #10
 476 0098 86F85030 		strb	r3, [r6, #80]
 173:Middlewares/ST/STM32_USB_Host_Library/Class/MSC/Src/usbh_msc_bot.c ****   USBH_StatusTypeDef   error  = USBH_BUSY;
 477              		.loc 1 173 24 view .LVU142
 478 009c 0124     		movs	r4, #1
 479 009e D5E7     		b	.L25
 480              	.LVL31:
 481              	.L35:
 259:Middlewares/ST/STM32_USB_Host_Library/Class/MSC/Src/usbh_msc_bot.c ****                                  MSC_Handle->InEpSize, MSC_Handle->InPipe);
 482              		.loc 1 259 7 is_stmt 1 view .LVU143
 259:Middlewares/ST/STM32_USB_Host_Library/Class/MSC/Src/usbh_msc_bot.c ****                                  MSC_Handle->InEpSize, MSC_Handle->InPipe);
 483              		.loc 1 259 13 is_stmt 0 view .LVU144
 484 00a0 3379     		ldrb	r3, [r6, #4]	@ zero_extendqisi2
 485 00a2 7289     		ldrh	r2, [r6, #10]
 486 00a4 D6F88C10 		ldr	r1, [r6, #140]
 487              	.LVL32:
 259:Middlewares/ST/STM32_USB_Host_Library/Class/MSC/Src/usbh_msc_bot.c ****                                  MSC_Handle->InEpSize, MSC_Handle->InPipe);
 488              		.loc 1 259 13 view .LVU145
 489 00a8 FFF7FEFF 		bl	USBH_BulkReceiveData
 490              	.LVL33:
 262:Middlewares/ST/STM32_USB_Host_Library/Class/MSC/Src/usbh_msc_bot.c **** 
 491              		.loc 1 262 7 is_stmt 1 view .LVU146
 262:Middlewares/ST/STM32_USB_Host_Library/Class/MSC/Src/usbh_msc_bot.c **** 
 492              		.loc 1 262 30 is_stmt 0 view .LVU147
 493 00ac 0423     		movs	r3, #4
 494 00ae 86F85030 		strb	r3, [r6, #80]
 264:Middlewares/ST/STM32_USB_Host_Library/Class/MSC/Src/usbh_msc_bot.c **** 
 495              		.loc 1 264 7 is_stmt 1 view .LVU148
 173:Middlewares/ST/STM32_USB_Host_Library/Class/MSC/Src/usbh_msc_bot.c ****   USBH_StatusTypeDef   error  = USBH_BUSY;
 496              		.loc 1 173 24 is_stmt 0 view .LVU149
 497 00b2 0124     		movs	r4, #1
 264:Middlewares/ST/STM32_USB_Host_Library/Class/MSC/Src/usbh_msc_bot.c **** 
 498              		.loc 1 264 7 view .LVU150
 499 00b4 CAE7     		b	.L25
 500              	.LVL34:
 501              	.L34:
 268:Middlewares/ST/STM32_USB_Host_Library/Class/MSC/Src/usbh_msc_bot.c **** 
 502              		.loc 1 268 7 is_stmt 1 view .LVU151
 268:Middlewares/ST/STM32_USB_Host_Library/Class/MSC/Src/usbh_msc_bot.c **** 
 503              		.loc 1 268 20 is_stmt 0 view .LVU152
 504 00b6 3179     		ldrb	r1, [r6, #4]	@ zero_extendqisi2
 505              	.LVL35:
 268:Middlewares/ST/STM32_USB_Host_Library/Class/MSC/Src/usbh_msc_bot.c **** 
 506              		.loc 1 268 20 view .LVU153
 507 00b8 FFF7FEFF 		bl	USBH_LL_GetURBState
 508              	.LVL36:
 268:Middlewares/ST/STM32_USB_Host_Library/Class/MSC/Src/usbh_msc_bot.c **** 
 509              		.loc 1 268 20 view .LVU154
 510 00bc 0446     		mov	r4, r0
 511              	.LVL37:
ARM GAS  C:\Users\benny\AppData\Local\Temp\ccesklXC.s 			page 24


 270:Middlewares/ST/STM32_USB_Host_Library/Class/MSC/Src/usbh_msc_bot.c ****       {
 512              		.loc 1 270 7 is_stmt 1 view .LVU155
 270:Middlewares/ST/STM32_USB_Host_Library/Class/MSC/Src/usbh_msc_bot.c ****       {
 513              		.loc 1 270 10 is_stmt 0 view .LVU156
 514 00be 0128     		cmp	r0, #1
 515 00c0 03D0     		beq	.L67
 305:Middlewares/ST/STM32_USB_Host_Library/Class/MSC/Src/usbh_msc_bot.c ****       {
 516              		.loc 1 305 12 is_stmt 1 view .LVU157
 305:Middlewares/ST/STM32_USB_Host_Library/Class/MSC/Src/usbh_msc_bot.c ****       {
 517              		.loc 1 305 15 is_stmt 0 view .LVU158
 518 00c2 0528     		cmp	r0, #5
 519 00c4 1CD0     		beq	.L68
 173:Middlewares/ST/STM32_USB_Host_Library/Class/MSC/Src/usbh_msc_bot.c ****   USBH_StatusTypeDef   error  = USBH_BUSY;
 520              		.loc 1 173 24 view .LVU159
 521 00c6 0124     		movs	r4, #1
 522 00c8 C0E7     		b	.L25
 523              	.L67:
 273:Middlewares/ST/STM32_USB_Host_Library/Class/MSC/Src/usbh_msc_bot.c ****         {
 524              		.loc 1 273 9 is_stmt 1 view .LVU160
 273:Middlewares/ST/STM32_USB_Host_Library/Class/MSC/Src/usbh_msc_bot.c ****         {
 525              		.loc 1 273 39 is_stmt 0 view .LVU161
 526 00ca F36D     		ldr	r3, [r6, #92]
 273:Middlewares/ST/STM32_USB_Host_Library/Class/MSC/Src/usbh_msc_bot.c ****         {
 527              		.loc 1 273 71 view .LVU162
 528 00cc 7289     		ldrh	r2, [r6, #10]
 273:Middlewares/ST/STM32_USB_Host_Library/Class/MSC/Src/usbh_msc_bot.c ****         {
 529              		.loc 1 273 12 view .LVU163
 530 00ce 9342     		cmp	r3, r2
 531 00d0 0CD9     		bls	.L43
 275:Middlewares/ST/STM32_USB_Host_Library/Class/MSC/Src/usbh_msc_bot.c ****           MSC_Handle->hbot.cbw.field.DataTransferLength -= MSC_Handle->InEpSize;
 532              		.loc 1 275 11 is_stmt 1 view .LVU164
 275:Middlewares/ST/STM32_USB_Host_Library/Class/MSC/Src/usbh_msc_bot.c ****           MSC_Handle->hbot.cbw.field.DataTransferLength -= MSC_Handle->InEpSize;
 533              		.loc 1 275 27 is_stmt 0 view .LVU165
 534 00d2 D6F88C10 		ldr	r1, [r6, #140]
 275:Middlewares/ST/STM32_USB_Host_Library/Class/MSC/Src/usbh_msc_bot.c ****           MSC_Handle->hbot.cbw.field.DataTransferLength -= MSC_Handle->InEpSize;
 535              		.loc 1 275 33 view .LVU166
 536 00d6 1144     		add	r1, r1, r2
 537 00d8 C6F88C10 		str	r1, [r6, #140]
 276:Middlewares/ST/STM32_USB_Host_Library/Class/MSC/Src/usbh_msc_bot.c ****         }
 538              		.loc 1 276 11 is_stmt 1 view .LVU167
 276:Middlewares/ST/STM32_USB_Host_Library/Class/MSC/Src/usbh_msc_bot.c ****         }
 539              		.loc 1 276 57 is_stmt 0 view .LVU168
 540 00dc 9B1A     		subs	r3, r3, r2
 541 00de F365     		str	r3, [r6, #92]
 542              	.L44:
 284:Middlewares/ST/STM32_USB_Host_Library/Class/MSC/Src/usbh_msc_bot.c ****         {
 543              		.loc 1 284 9 is_stmt 1 view .LVU169
 284:Middlewares/ST/STM32_USB_Host_Library/Class/MSC/Src/usbh_msc_bot.c ****         {
 544              		.loc 1 284 39 is_stmt 0 view .LVU170
 545 00e0 F36D     		ldr	r3, [r6, #92]
 284:Middlewares/ST/STM32_USB_Host_Library/Class/MSC/Src/usbh_msc_bot.c ****         {
 546              		.loc 1 284 12 view .LVU171
 547 00e2 33B9     		cbnz	r3, .L69
 293:Middlewares/ST/STM32_USB_Host_Library/Class/MSC/Src/usbh_msc_bot.c **** 
 548              		.loc 1 293 11 is_stmt 1 view .LVU172
 293:Middlewares/ST/STM32_USB_Host_Library/Class/MSC/Src/usbh_msc_bot.c **** 
 549              		.loc 1 293 34 is_stmt 0 view .LVU173
ARM GAS  C:\Users\benny\AppData\Local\Temp\ccesklXC.s 			page 25


 550 00e4 0723     		movs	r3, #7
 551 00e6 86F85030 		strb	r3, [r6, #80]
 552 00ea AFE7     		b	.L25
 553              	.L43:
 280:Middlewares/ST/STM32_USB_Host_Library/Class/MSC/Src/usbh_msc_bot.c ****         }
 554              		.loc 1 280 11 is_stmt 1 view .LVU174
 280:Middlewares/ST/STM32_USB_Host_Library/Class/MSC/Src/usbh_msc_bot.c ****         }
 555              		.loc 1 280 57 is_stmt 0 view .LVU175
 556 00ec 0023     		movs	r3, #0
 557 00ee F365     		str	r3, [r6, #92]
 558 00f0 F6E7     		b	.L44
 559              	.L69:
 287:Middlewares/ST/STM32_USB_Host_Library/Class/MSC/Src/usbh_msc_bot.c ****                                      MSC_Handle->InEpSize, MSC_Handle->InPipe);
 560              		.loc 1 287 11 is_stmt 1 view .LVU176
 287:Middlewares/ST/STM32_USB_Host_Library/Class/MSC/Src/usbh_msc_bot.c ****                                      MSC_Handle->InEpSize, MSC_Handle->InPipe);
 561              		.loc 1 287 17 is_stmt 0 view .LVU177
 562 00f2 3379     		ldrb	r3, [r6, #4]	@ zero_extendqisi2
 563 00f4 D6F88C10 		ldr	r1, [r6, #140]
 564 00f8 2846     		mov	r0, r5
 565              	.LVL38:
 287:Middlewares/ST/STM32_USB_Host_Library/Class/MSC/Src/usbh_msc_bot.c ****                                      MSC_Handle->InEpSize, MSC_Handle->InPipe);
 566              		.loc 1 287 17 view .LVU178
 567 00fa FFF7FEFF 		bl	USBH_BulkReceiveData
 568              	.LVL39:
 569 00fe A5E7     		b	.L25
 570              	.LVL40:
 571              	.L68:
 308:Middlewares/ST/STM32_USB_Host_Library/Class/MSC/Src/usbh_msc_bot.c **** 
 572              		.loc 1 308 9 is_stmt 1 view .LVU179
 308:Middlewares/ST/STM32_USB_Host_Library/Class/MSC/Src/usbh_msc_bot.c **** 
 573              		.loc 1 308 33 is_stmt 0 view .LVU180
 574 0100 0923     		movs	r3, #9
 575 0102 86F85030 		strb	r3, [r6, #80]
 173:Middlewares/ST/STM32_USB_Host_Library/Class/MSC/Src/usbh_msc_bot.c ****   USBH_StatusTypeDef   error  = USBH_BUSY;
 576              		.loc 1 173 24 view .LVU181
 577 0106 0124     		movs	r4, #1
 578 0108 A0E7     		b	.L25
 579              	.LVL41:
 580              	.L33:
 333:Middlewares/ST/STM32_USB_Host_Library/Class/MSC/Src/usbh_msc_bot.c ****                               MSC_Handle->OutEpSize, MSC_Handle->OutPipe, 1U);
 581              		.loc 1 333 7 is_stmt 1 view .LVU182
 333:Middlewares/ST/STM32_USB_Host_Library/Class/MSC/Src/usbh_msc_bot.c ****                               MSC_Handle->OutEpSize, MSC_Handle->OutPipe, 1U);
 582              		.loc 1 333 13 is_stmt 0 view .LVU183
 583 010a 7379     		ldrb	r3, [r6, #5]	@ zero_extendqisi2
 584 010c 3289     		ldrh	r2, [r6, #8]
 585 010e D6F88C10 		ldr	r1, [r6, #140]
 586              	.LVL42:
 333:Middlewares/ST/STM32_USB_Host_Library/Class/MSC/Src/usbh_msc_bot.c ****                               MSC_Handle->OutEpSize, MSC_Handle->OutPipe, 1U);
 587              		.loc 1 333 13 view .LVU184
 588 0112 0124     		movs	r4, #1
 589 0114 0094     		str	r4, [sp]
 590 0116 FFF7FEFF 		bl	USBH_BulkSendData
 591              	.LVL43:
 336:Middlewares/ST/STM32_USB_Host_Library/Class/MSC/Src/usbh_msc_bot.c ****       break;
 592              		.loc 1 336 7 is_stmt 1 view .LVU185
 336:Middlewares/ST/STM32_USB_Host_Library/Class/MSC/Src/usbh_msc_bot.c ****       break;
 593              		.loc 1 336 31 is_stmt 0 view .LVU186
ARM GAS  C:\Users\benny\AppData\Local\Temp\ccesklXC.s 			page 26


 594 011a 0623     		movs	r3, #6
 595 011c 86F85030 		strb	r3, [r6, #80]
 337:Middlewares/ST/STM32_USB_Host_Library/Class/MSC/Src/usbh_msc_bot.c **** 
 596              		.loc 1 337 7 is_stmt 1 view .LVU187
 597 0120 94E7     		b	.L25
 598              	.LVL44:
 599              	.L32:
 340:Middlewares/ST/STM32_USB_Host_Library/Class/MSC/Src/usbh_msc_bot.c **** 
 600              		.loc 1 340 7 view .LVU188
 340:Middlewares/ST/STM32_USB_Host_Library/Class/MSC/Src/usbh_msc_bot.c **** 
 601              		.loc 1 340 20 is_stmt 0 view .LVU189
 602 0122 7179     		ldrb	r1, [r6, #5]	@ zero_extendqisi2
 603              	.LVL45:
 340:Middlewares/ST/STM32_USB_Host_Library/Class/MSC/Src/usbh_msc_bot.c **** 
 604              		.loc 1 340 20 view .LVU190
 605 0124 FFF7FEFF 		bl	USBH_LL_GetURBState
 606              	.LVL46:
 340:Middlewares/ST/STM32_USB_Host_Library/Class/MSC/Src/usbh_msc_bot.c **** 
 607              		.loc 1 340 20 view .LVU191
 608 0128 0446     		mov	r4, r0
 609              	.LVL47:
 342:Middlewares/ST/STM32_USB_Host_Library/Class/MSC/Src/usbh_msc_bot.c ****       {
 610              		.loc 1 342 7 is_stmt 1 view .LVU192
 342:Middlewares/ST/STM32_USB_Host_Library/Class/MSC/Src/usbh_msc_bot.c ****       {
 611              		.loc 1 342 10 is_stmt 0 view .LVU193
 612 012a 0128     		cmp	r0, #1
 613 012c 05D0     		beq	.L70
 377:Middlewares/ST/STM32_USB_Host_Library/Class/MSC/Src/usbh_msc_bot.c ****       {
 614              		.loc 1 377 12 is_stmt 1 view .LVU194
 377:Middlewares/ST/STM32_USB_Host_Library/Class/MSC/Src/usbh_msc_bot.c ****       {
 615              		.loc 1 377 15 is_stmt 0 view .LVU195
 616 012e 0228     		cmp	r0, #2
 617 0130 20D0     		beq	.L71
 392:Middlewares/ST/STM32_USB_Host_Library/Class/MSC/Src/usbh_msc_bot.c ****       {
 618              		.loc 1 392 12 is_stmt 1 view .LVU196
 392:Middlewares/ST/STM32_USB_Host_Library/Class/MSC/Src/usbh_msc_bot.c ****       {
 619              		.loc 1 392 15 is_stmt 0 view .LVU197
 620 0132 0528     		cmp	r0, #5
 621 0134 23D0     		beq	.L72
 173:Middlewares/ST/STM32_USB_Host_Library/Class/MSC/Src/usbh_msc_bot.c ****   USBH_StatusTypeDef   error  = USBH_BUSY;
 622              		.loc 1 173 24 view .LVU198
 623 0136 0124     		movs	r4, #1
 624 0138 88E7     		b	.L25
 625              	.L70:
 345:Middlewares/ST/STM32_USB_Host_Library/Class/MSC/Src/usbh_msc_bot.c ****         {
 626              		.loc 1 345 9 is_stmt 1 view .LVU199
 345:Middlewares/ST/STM32_USB_Host_Library/Class/MSC/Src/usbh_msc_bot.c ****         {
 627              		.loc 1 345 39 is_stmt 0 view .LVU200
 628 013a F36D     		ldr	r3, [r6, #92]
 345:Middlewares/ST/STM32_USB_Host_Library/Class/MSC/Src/usbh_msc_bot.c ****         {
 629              		.loc 1 345 71 view .LVU201
 630 013c 3289     		ldrh	r2, [r6, #8]
 345:Middlewares/ST/STM32_USB_Host_Library/Class/MSC/Src/usbh_msc_bot.c ****         {
 631              		.loc 1 345 12 view .LVU202
 632 013e 9342     		cmp	r3, r2
 633 0140 0CD9     		bls	.L47
 347:Middlewares/ST/STM32_USB_Host_Library/Class/MSC/Src/usbh_msc_bot.c ****           MSC_Handle->hbot.cbw.field.DataTransferLength -= MSC_Handle->OutEpSize;
ARM GAS  C:\Users\benny\AppData\Local\Temp\ccesklXC.s 			page 27


 634              		.loc 1 347 11 is_stmt 1 view .LVU203
 347:Middlewares/ST/STM32_USB_Host_Library/Class/MSC/Src/usbh_msc_bot.c ****           MSC_Handle->hbot.cbw.field.DataTransferLength -= MSC_Handle->OutEpSize;
 635              		.loc 1 347 27 is_stmt 0 view .LVU204
 636 0142 D6F88C10 		ldr	r1, [r6, #140]
 347:Middlewares/ST/STM32_USB_Host_Library/Class/MSC/Src/usbh_msc_bot.c ****           MSC_Handle->hbot.cbw.field.DataTransferLength -= MSC_Handle->OutEpSize;
 637              		.loc 1 347 33 view .LVU205
 638 0146 1144     		add	r1, r1, r2
 639 0148 C6F88C10 		str	r1, [r6, #140]
 348:Middlewares/ST/STM32_USB_Host_Library/Class/MSC/Src/usbh_msc_bot.c ****         }
 640              		.loc 1 348 11 is_stmt 1 view .LVU206
 348:Middlewares/ST/STM32_USB_Host_Library/Class/MSC/Src/usbh_msc_bot.c ****         }
 641              		.loc 1 348 57 is_stmt 0 view .LVU207
 642 014c 9B1A     		subs	r3, r3, r2
 643 014e F365     		str	r3, [r6, #92]
 644              	.L48:
 356:Middlewares/ST/STM32_USB_Host_Library/Class/MSC/Src/usbh_msc_bot.c ****         {
 645              		.loc 1 356 9 is_stmt 1 view .LVU208
 356:Middlewares/ST/STM32_USB_Host_Library/Class/MSC/Src/usbh_msc_bot.c ****         {
 646              		.loc 1 356 39 is_stmt 0 view .LVU209
 647 0150 F36D     		ldr	r3, [r6, #92]
 356:Middlewares/ST/STM32_USB_Host_Library/Class/MSC/Src/usbh_msc_bot.c ****         {
 648              		.loc 1 356 12 view .LVU210
 649 0152 33B9     		cbnz	r3, .L73
 364:Middlewares/ST/STM32_USB_Host_Library/Class/MSC/Src/usbh_msc_bot.c ****         }
 650              		.loc 1 364 11 is_stmt 1 view .LVU211
 364:Middlewares/ST/STM32_USB_Host_Library/Class/MSC/Src/usbh_msc_bot.c ****         }
 651              		.loc 1 364 34 is_stmt 0 view .LVU212
 652 0154 0723     		movs	r3, #7
 653 0156 86F85030 		strb	r3, [r6, #80]
 654 015a 77E7     		b	.L25
 655              	.L47:
 352:Middlewares/ST/STM32_USB_Host_Library/Class/MSC/Src/usbh_msc_bot.c ****         }
 656              		.loc 1 352 11 is_stmt 1 view .LVU213
 352:Middlewares/ST/STM32_USB_Host_Library/Class/MSC/Src/usbh_msc_bot.c ****         }
 657              		.loc 1 352 57 is_stmt 0 view .LVU214
 658 015c 0023     		movs	r3, #0
 659 015e F365     		str	r3, [r6, #92]
 660 0160 F6E7     		b	.L48
 661              	.L73:
 358:Middlewares/ST/STM32_USB_Host_Library/Class/MSC/Src/usbh_msc_bot.c ****                                   MSC_Handle->OutEpSize, MSC_Handle->OutPipe, 1U);
 662              		.loc 1 358 11 is_stmt 1 view .LVU215
 358:Middlewares/ST/STM32_USB_Host_Library/Class/MSC/Src/usbh_msc_bot.c ****                                   MSC_Handle->OutEpSize, MSC_Handle->OutPipe, 1U);
 663              		.loc 1 358 17 is_stmt 0 view .LVU216
 664 0162 7379     		ldrb	r3, [r6, #5]	@ zero_extendqisi2
 665 0164 D6F88C10 		ldr	r1, [r6, #140]
 666 0168 0120     		movs	r0, #1
 667              	.LVL48:
 358:Middlewares/ST/STM32_USB_Host_Library/Class/MSC/Src/usbh_msc_bot.c ****                                   MSC_Handle->OutEpSize, MSC_Handle->OutPipe, 1U);
 668              		.loc 1 358 17 view .LVU217
 669 016a 0090     		str	r0, [sp]
 670 016c 2846     		mov	r0, r5
 671 016e FFF7FEFF 		bl	USBH_BulkSendData
 672              	.LVL49:
 673 0172 6BE7     		b	.L25
 674              	.LVL50:
 675              	.L71:
 380:Middlewares/ST/STM32_USB_Host_Library/Class/MSC/Src/usbh_msc_bot.c **** 
ARM GAS  C:\Users\benny\AppData\Local\Temp\ccesklXC.s 			page 28


 676              		.loc 1 380 9 is_stmt 1 view .LVU218
 380:Middlewares/ST/STM32_USB_Host_Library/Class/MSC/Src/usbh_msc_bot.c **** 
 677              		.loc 1 380 32 is_stmt 0 view .LVU219
 678 0174 0523     		movs	r3, #5
 679 0176 86F85030 		strb	r3, [r6, #80]
 173:Middlewares/ST/STM32_USB_Host_Library/Class/MSC/Src/usbh_msc_bot.c ****   USBH_StatusTypeDef   error  = USBH_BUSY;
 680              		.loc 1 173 24 view .LVU220
 681 017a 0124     		movs	r4, #1
 682 017c 66E7     		b	.L25
 683              	.L72:
 394:Middlewares/ST/STM32_USB_Host_Library/Class/MSC/Src/usbh_msc_bot.c **** 
 684              		.loc 1 394 9 is_stmt 1 view .LVU221
 394:Middlewares/ST/STM32_USB_Host_Library/Class/MSC/Src/usbh_msc_bot.c **** 
 685              		.loc 1 394 32 is_stmt 0 view .LVU222
 686 017e 0A23     		movs	r3, #10
 687 0180 86F85030 		strb	r3, [r6, #80]
 173:Middlewares/ST/STM32_USB_Host_Library/Class/MSC/Src/usbh_msc_bot.c ****   USBH_StatusTypeDef   error  = USBH_BUSY;
 688              		.loc 1 173 24 view .LVU223
 689 0184 0124     		movs	r4, #1
 690 0186 61E7     		b	.L25
 691              	.LVL51:
 692              	.L31:
 419:Middlewares/ST/STM32_USB_Host_Library/Class/MSC/Src/usbh_msc_bot.c ****                                  BOT_CSW_LENGTH, MSC_Handle->InPipe);
 693              		.loc 1 419 7 is_stmt 1 view .LVU224
 419:Middlewares/ST/STM32_USB_Host_Library/Class/MSC/Src/usbh_msc_bot.c ****                                  BOT_CSW_LENGTH, MSC_Handle->InPipe);
 694              		.loc 1 419 13 is_stmt 0 view .LVU225
 695 0188 3379     		ldrb	r3, [r6, #4]	@ zero_extendqisi2
 696 018a 0D22     		movs	r2, #13
 697 018c 06F17801 		add	r1, r6, #120
 698              	.LVL52:
 419:Middlewares/ST/STM32_USB_Host_Library/Class/MSC/Src/usbh_msc_bot.c ****                                  BOT_CSW_LENGTH, MSC_Handle->InPipe);
 699              		.loc 1 419 13 view .LVU226
 700 0190 FFF7FEFF 		bl	USBH_BulkReceiveData
 701              	.LVL53:
 422:Middlewares/ST/STM32_USB_Host_Library/Class/MSC/Src/usbh_msc_bot.c ****       break;
 702              		.loc 1 422 7 is_stmt 1 view .LVU227
 422:Middlewares/ST/STM32_USB_Host_Library/Class/MSC/Src/usbh_msc_bot.c ****       break;
 703              		.loc 1 422 30 is_stmt 0 view .LVU228
 704 0194 0823     		movs	r3, #8
 705 0196 86F85030 		strb	r3, [r6, #80]
 423:Middlewares/ST/STM32_USB_Host_Library/Class/MSC/Src/usbh_msc_bot.c **** 
 706              		.loc 1 423 7 is_stmt 1 view .LVU229
 173:Middlewares/ST/STM32_USB_Host_Library/Class/MSC/Src/usbh_msc_bot.c ****   USBH_StatusTypeDef   error  = USBH_BUSY;
 707              		.loc 1 173 24 is_stmt 0 view .LVU230
 708 019a 0124     		movs	r4, #1
 423:Middlewares/ST/STM32_USB_Host_Library/Class/MSC/Src/usbh_msc_bot.c **** 
 709              		.loc 1 423 7 view .LVU231
 710 019c 56E7     		b	.L25
 711              	.LVL54:
 712              	.L30:
 427:Middlewares/ST/STM32_USB_Host_Library/Class/MSC/Src/usbh_msc_bot.c **** 
 713              		.loc 1 427 7 is_stmt 1 view .LVU232
 427:Middlewares/ST/STM32_USB_Host_Library/Class/MSC/Src/usbh_msc_bot.c **** 
 714              		.loc 1 427 20 is_stmt 0 view .LVU233
 715 019e 3179     		ldrb	r1, [r6, #4]	@ zero_extendqisi2
 716              	.LVL55:
 427:Middlewares/ST/STM32_USB_Host_Library/Class/MSC/Src/usbh_msc_bot.c **** 
ARM GAS  C:\Users\benny\AppData\Local\Temp\ccesklXC.s 			page 29


 717              		.loc 1 427 20 view .LVU234
 718 01a0 FFF7FEFF 		bl	USBH_LL_GetURBState
 719              	.LVL56:
 430:Middlewares/ST/STM32_USB_Host_Library/Class/MSC/Src/usbh_msc_bot.c ****       {
 720              		.loc 1 430 7 is_stmt 1 view .LVU235
 430:Middlewares/ST/STM32_USB_Host_Library/Class/MSC/Src/usbh_msc_bot.c ****       {
 721              		.loc 1 430 10 is_stmt 0 view .LVU236
 722 01a4 0128     		cmp	r0, #1
 723 01a6 03D0     		beq	.L74
 454:Middlewares/ST/STM32_USB_Host_Library/Class/MSC/Src/usbh_msc_bot.c ****       {
 724              		.loc 1 454 12 is_stmt 1 view .LVU237
 454:Middlewares/ST/STM32_USB_Host_Library/Class/MSC/Src/usbh_msc_bot.c ****       {
 725              		.loc 1 454 15 is_stmt 0 view .LVU238
 726 01a8 0528     		cmp	r0, #5
 727 01aa 0FD0     		beq	.L75
 173:Middlewares/ST/STM32_USB_Host_Library/Class/MSC/Src/usbh_msc_bot.c ****   USBH_StatusTypeDef   error  = USBH_BUSY;
 728              		.loc 1 173 24 view .LVU239
 729 01ac 0124     		movs	r4, #1
 730 01ae 4DE7     		b	.L25
 731              	.L74:
 432:Middlewares/ST/STM32_USB_Host_Library/Class/MSC/Src/usbh_msc_bot.c ****         MSC_Handle->hbot.cmd_state = BOT_CMD_SEND;
 732              		.loc 1 432 9 is_stmt 1 view .LVU240
 432:Middlewares/ST/STM32_USB_Host_Library/Class/MSC/Src/usbh_msc_bot.c ****         MSC_Handle->hbot.cmd_state = BOT_CMD_SEND;
 733              		.loc 1 432 32 is_stmt 0 view .LVU241
 734 01b0 0123     		movs	r3, #1
 735 01b2 86F85030 		strb	r3, [r6, #80]
 433:Middlewares/ST/STM32_USB_Host_Library/Class/MSC/Src/usbh_msc_bot.c ****         CSW_Status = USBH_MSC_DecodeCSW(phost);
 736              		.loc 1 433 9 is_stmt 1 view .LVU242
 433:Middlewares/ST/STM32_USB_Host_Library/Class/MSC/Src/usbh_msc_bot.c ****         CSW_Status = USBH_MSC_DecodeCSW(phost);
 737              		.loc 1 433 36 is_stmt 0 view .LVU243
 738 01b6 86F85230 		strb	r3, [r6, #82]
 434:Middlewares/ST/STM32_USB_Host_Library/Class/MSC/Src/usbh_msc_bot.c **** 
 739              		.loc 1 434 9 is_stmt 1 view .LVU244
 434:Middlewares/ST/STM32_USB_Host_Library/Class/MSC/Src/usbh_msc_bot.c **** 
 740              		.loc 1 434 22 is_stmt 0 view .LVU245
 741 01ba 2846     		mov	r0, r5
 742              	.LVL57:
 434:Middlewares/ST/STM32_USB_Host_Library/Class/MSC/Src/usbh_msc_bot.c **** 
 743              		.loc 1 434 22 view .LVU246
 744 01bc FFF7FEFF 		bl	USBH_MSC_DecodeCSW
 745              	.LVL58:
 436:Middlewares/ST/STM32_USB_Host_Library/Class/MSC/Src/usbh_msc_bot.c ****         {
 746              		.loc 1 436 9 is_stmt 1 view .LVU247
 436:Middlewares/ST/STM32_USB_Host_Library/Class/MSC/Src/usbh_msc_bot.c ****         {
 747              		.loc 1 436 12 is_stmt 0 view .LVU248
 748 01c0 0446     		mov	r4, r0
 749 01c2 0028     		cmp	r0, #0
 750 01c4 3FF442AF 		beq	.L25
 442:Middlewares/ST/STM32_USB_Host_Library/Class/MSC/Src/usbh_msc_bot.c ****         }
 751              		.loc 1 442 18 view .LVU249
 752 01c8 0224     		movs	r4, #2
 753 01ca 3FE7     		b	.L25
 754              	.LVL59:
 755              	.L75:
 456:Middlewares/ST/STM32_USB_Host_Library/Class/MSC/Src/usbh_msc_bot.c **** 
 756              		.loc 1 456 9 is_stmt 1 view .LVU250
 456:Middlewares/ST/STM32_USB_Host_Library/Class/MSC/Src/usbh_msc_bot.c **** 
ARM GAS  C:\Users\benny\AppData\Local\Temp\ccesklXC.s 			page 30


 757              		.loc 1 456 32 is_stmt 0 view .LVU251
 758 01cc 0923     		movs	r3, #9
 759 01ce 86F85030 		strb	r3, [r6, #80]
 173:Middlewares/ST/STM32_USB_Host_Library/Class/MSC/Src/usbh_msc_bot.c ****   USBH_StatusTypeDef   error  = USBH_BUSY;
 760              		.loc 1 173 24 view .LVU252
 761 01d2 0124     		movs	r4, #1
 762 01d4 3AE7     		b	.L25
 763              	.LVL60:
 764              	.L29:
 473:Middlewares/ST/STM32_USB_Host_Library/Class/MSC/Src/usbh_msc_bot.c **** 
 765              		.loc 1 473 7 is_stmt 1 view .LVU253
 473:Middlewares/ST/STM32_USB_Host_Library/Class/MSC/Src/usbh_msc_bot.c **** 
 766              		.loc 1 473 15 is_stmt 0 view .LVU254
 767 01d6 0022     		movs	r2, #0
 768 01d8 FFF7FEFF 		bl	USBH_MSC_BOT_Abort
 769              	.LVL61:
 475:Middlewares/ST/STM32_USB_Host_Library/Class/MSC/Src/usbh_msc_bot.c ****       {
 770              		.loc 1 475 7 is_stmt 1 view .LVU255
 475:Middlewares/ST/STM32_USB_Host_Library/Class/MSC/Src/usbh_msc_bot.c ****       {
 771              		.loc 1 475 10 is_stmt 0 view .LVU256
 772 01dc 20B9     		cbnz	r0, .L52
 477:Middlewares/ST/STM32_USB_Host_Library/Class/MSC/Src/usbh_msc_bot.c ****       }
 773              		.loc 1 477 9 is_stmt 1 view .LVU257
 477:Middlewares/ST/STM32_USB_Host_Library/Class/MSC/Src/usbh_msc_bot.c ****       }
 774              		.loc 1 477 32 is_stmt 0 view .LVU258
 775 01de 0723     		movs	r3, #7
 776 01e0 86F85030 		strb	r3, [r6, #80]
 173:Middlewares/ST/STM32_USB_Host_Library/Class/MSC/Src/usbh_msc_bot.c ****   USBH_StatusTypeDef   error  = USBH_BUSY;
 777              		.loc 1 173 24 view .LVU259
 778 01e4 0124     		movs	r4, #1
 779 01e6 31E7     		b	.L25
 780              	.L52:
 479:Middlewares/ST/STM32_USB_Host_Library/Class/MSC/Src/usbh_msc_bot.c ****       {
 781              		.loc 1 479 12 is_stmt 1 view .LVU260
 479:Middlewares/ST/STM32_USB_Host_Library/Class/MSC/Src/usbh_msc_bot.c ****       {
 782              		.loc 1 479 15 is_stmt 0 view .LVU261
 783 01e8 0428     		cmp	r0, #4
 784 01ea 01D0     		beq	.L76
 173:Middlewares/ST/STM32_USB_Host_Library/Class/MSC/Src/usbh_msc_bot.c ****   USBH_StatusTypeDef   error  = USBH_BUSY;
 785              		.loc 1 173 24 view .LVU262
 786 01ec 0124     		movs	r4, #1
 787 01ee 2DE7     		b	.L25
 788              	.L76:
 482:Middlewares/ST/STM32_USB_Host_Library/Class/MSC/Src/usbh_msc_bot.c ****       }
 789              		.loc 1 482 9 is_stmt 1 view .LVU263
 482:Middlewares/ST/STM32_USB_Host_Library/Class/MSC/Src/usbh_msc_bot.c ****       }
 790              		.loc 1 482 32 is_stmt 0 view .LVU264
 791 01f0 0B23     		movs	r3, #11
 792 01f2 86F85030 		strb	r3, [r6, #80]
 173:Middlewares/ST/STM32_USB_Host_Library/Class/MSC/Src/usbh_msc_bot.c ****   USBH_StatusTypeDef   error  = USBH_BUSY;
 793              		.loc 1 173 24 view .LVU265
 794 01f6 0124     		movs	r4, #1
 795 01f8 28E7     		b	.L25
 796              	.LVL62:
 797              	.L28:
 490:Middlewares/ST/STM32_USB_Host_Library/Class/MSC/Src/usbh_msc_bot.c **** 
 798              		.loc 1 490 7 is_stmt 1 view .LVU266
ARM GAS  C:\Users\benny\AppData\Local\Temp\ccesklXC.s 			page 31


 490:Middlewares/ST/STM32_USB_Host_Library/Class/MSC/Src/usbh_msc_bot.c **** 
 799              		.loc 1 490 15 is_stmt 0 view .LVU267
 800 01fa 0122     		movs	r2, #1
 801 01fc FFF7FEFF 		bl	USBH_MSC_BOT_Abort
 802              	.LVL63:
 492:Middlewares/ST/STM32_USB_Host_Library/Class/MSC/Src/usbh_msc_bot.c ****       {
 803              		.loc 1 492 7 is_stmt 1 view .LVU268
 492:Middlewares/ST/STM32_USB_Host_Library/Class/MSC/Src/usbh_msc_bot.c ****       {
 804              		.loc 1 492 10 is_stmt 0 view .LVU269
 805 0200 18B1     		cbz	r0, .L77
 501:Middlewares/ST/STM32_USB_Host_Library/Class/MSC/Src/usbh_msc_bot.c ****         {
 806              		.loc 1 501 9 is_stmt 1 view .LVU270
 501:Middlewares/ST/STM32_USB_Host_Library/Class/MSC/Src/usbh_msc_bot.c ****         {
 807              		.loc 1 501 12 is_stmt 0 view .LVU271
 808 0202 0428     		cmp	r0, #4
 809 0204 16D0     		beq	.L78
 173:Middlewares/ST/STM32_USB_Host_Library/Class/MSC/Src/usbh_msc_bot.c ****   USBH_StatusTypeDef   error  = USBH_BUSY;
 810              		.loc 1 173 24 view .LVU272
 811 0206 0124     		movs	r4, #1
 812 0208 20E7     		b	.L25
 813              	.L77:
 494:Middlewares/ST/STM32_USB_Host_Library/Class/MSC/Src/usbh_msc_bot.c ****         (void)USBH_LL_SetToggle(phost, MSC_Handle->OutPipe, 1U - toggle);
 814              		.loc 1 494 9 is_stmt 1 view .LVU273
 494:Middlewares/ST/STM32_USB_Host_Library/Class/MSC/Src/usbh_msc_bot.c ****         (void)USBH_LL_SetToggle(phost, MSC_Handle->OutPipe, 1U - toggle);
 815              		.loc 1 494 18 is_stmt 0 view .LVU274
 816 020a 7179     		ldrb	r1, [r6, #5]	@ zero_extendqisi2
 817 020c 2846     		mov	r0, r5
 818              	.LVL64:
 494:Middlewares/ST/STM32_USB_Host_Library/Class/MSC/Src/usbh_msc_bot.c ****         (void)USBH_LL_SetToggle(phost, MSC_Handle->OutPipe, 1U - toggle);
 819              		.loc 1 494 18 view .LVU275
 820 020e FFF7FEFF 		bl	USBH_LL_GetToggle
 821              	.LVL65:
 495:Middlewares/ST/STM32_USB_Host_Library/Class/MSC/Src/usbh_msc_bot.c ****         (void)USBH_LL_SetToggle(phost, MSC_Handle->InPipe, 0U);
 822              		.loc 1 495 9 is_stmt 1 view .LVU276
 495:Middlewares/ST/STM32_USB_Host_Library/Class/MSC/Src/usbh_msc_bot.c ****         (void)USBH_LL_SetToggle(phost, MSC_Handle->InPipe, 0U);
 823              		.loc 1 495 15 is_stmt 0 view .LVU277
 824 0212 C0F10102 		rsb	r2, r0, #1
 825 0216 D2B2     		uxtb	r2, r2
 826 0218 7179     		ldrb	r1, [r6, #5]	@ zero_extendqisi2
 827 021a 2846     		mov	r0, r5
 828              	.LVL66:
 495:Middlewares/ST/STM32_USB_Host_Library/Class/MSC/Src/usbh_msc_bot.c ****         (void)USBH_LL_SetToggle(phost, MSC_Handle->InPipe, 0U);
 829              		.loc 1 495 15 view .LVU278
 830 021c FFF7FEFF 		bl	USBH_LL_SetToggle
 831              	.LVL67:
 496:Middlewares/ST/STM32_USB_Host_Library/Class/MSC/Src/usbh_msc_bot.c ****         MSC_Handle->hbot.state = BOT_ERROR_IN;
 832              		.loc 1 496 9 is_stmt 1 view .LVU279
 496:Middlewares/ST/STM32_USB_Host_Library/Class/MSC/Src/usbh_msc_bot.c ****         MSC_Handle->hbot.state = BOT_ERROR_IN;
 833              		.loc 1 496 15 is_stmt 0 view .LVU280
 834 0220 0022     		movs	r2, #0
 835 0222 3179     		ldrb	r1, [r6, #4]	@ zero_extendqisi2
 836 0224 2846     		mov	r0, r5
 837 0226 FFF7FEFF 		bl	USBH_LL_SetToggle
 838              	.LVL68:
 497:Middlewares/ST/STM32_USB_Host_Library/Class/MSC/Src/usbh_msc_bot.c ****       }
 839              		.loc 1 497 9 is_stmt 1 view .LVU281
 497:Middlewares/ST/STM32_USB_Host_Library/Class/MSC/Src/usbh_msc_bot.c ****       }
ARM GAS  C:\Users\benny\AppData\Local\Temp\ccesklXC.s 			page 32


 840              		.loc 1 497 32 is_stmt 0 view .LVU282
 841 022a 0923     		movs	r3, #9
 842 022c 86F85030 		strb	r3, [r6, #80]
 173:Middlewares/ST/STM32_USB_Host_Library/Class/MSC/Src/usbh_msc_bot.c ****   USBH_StatusTypeDef   error  = USBH_BUSY;
 843              		.loc 1 173 24 view .LVU283
 844 0230 0124     		movs	r4, #1
 845 0232 0BE7     		b	.L25
 846              	.LVL69:
 847              	.L78:
 503:Middlewares/ST/STM32_USB_Host_Library/Class/MSC/Src/usbh_msc_bot.c ****         }
 848              		.loc 1 503 11 is_stmt 1 view .LVU284
 503:Middlewares/ST/STM32_USB_Host_Library/Class/MSC/Src/usbh_msc_bot.c ****         }
 849              		.loc 1 503 34 is_stmt 0 view .LVU285
 850 0234 0B23     		movs	r3, #11
 851 0236 86F85030 		strb	r3, [r6, #80]
 173:Middlewares/ST/STM32_USB_Host_Library/Class/MSC/Src/usbh_msc_bot.c ****   USBH_StatusTypeDef   error  = USBH_BUSY;
 852              		.loc 1 173 24 view .LVU286
 853 023a 0124     		movs	r4, #1
 854 023c 06E7     		b	.L25
 855              	.LVL70:
 856              	.L26:
 510:Middlewares/ST/STM32_USB_Host_Library/Class/MSC/Src/usbh_msc_bot.c ****       if (status == USBH_OK)
 857              		.loc 1 510 7 is_stmt 1 view .LVU287
 510:Middlewares/ST/STM32_USB_Host_Library/Class/MSC/Src/usbh_msc_bot.c ****       if (status == USBH_OK)
 858              		.loc 1 510 16 is_stmt 0 view .LVU288
 859 023e FFF7FEFF 		bl	USBH_MSC_BOT_REQ_Reset
 860              	.LVL71:
 511:Middlewares/ST/STM32_USB_Host_Library/Class/MSC/Src/usbh_msc_bot.c ****       {
 861              		.loc 1 511 7 is_stmt 1 view .LVU289
 511:Middlewares/ST/STM32_USB_Host_Library/Class/MSC/Src/usbh_msc_bot.c ****       {
 862              		.loc 1 511 10 is_stmt 0 view .LVU290
 863 0242 0446     		mov	r4, r0
 864 0244 0028     		cmp	r0, #0
 865 0246 7FF401AF 		bne	.L25
 513:Middlewares/ST/STM32_USB_Host_Library/Class/MSC/Src/usbh_msc_bot.c ****       }
 866              		.loc 1 513 9 is_stmt 1 view .LVU291
 513:Middlewares/ST/STM32_USB_Host_Library/Class/MSC/Src/usbh_msc_bot.c ****       }
 867              		.loc 1 513 32 is_stmt 0 view .LVU292
 868 024a 0123     		movs	r3, #1
 869 024c 86F85030 		strb	r3, [r6, #80]
 870 0250 FCE6     		b	.L25
 871              	.LVL72:
 872              	.L54:
 180:Middlewares/ST/STM32_USB_Host_Library/Class/MSC/Src/usbh_msc_bot.c ****   {
 873              		.loc 1 180 3 view .LVU293
 874 0252 0124     		movs	r4, #1
 875 0254 FAE6     		b	.L25
 876              		.cfi_endproc
 877              	.LFE147:
 879              		.text
 880              	.Letext0:
 881              		.file 2 "C:\\ST\\STM32CubeCLT_1.17.0\\GNU-tools-for-STM32\\bin/../lib/gcc/arm-none-eabi/12.3.1/../
 882              		.file 3 "C:\\ST\\STM32CubeCLT_1.17.0\\GNU-tools-for-STM32\\bin/../lib/gcc/arm-none-eabi/12.3.1/../
 883              		.file 4 "Middlewares/ST/STM32_USB_Host_Library/Core/Inc/usbh_def.h"
 884              		.file 5 "Middlewares/ST/STM32_USB_Host_Library/Class/MSC/Inc/usbh_msc_bot.h"
 885              		.file 6 "Middlewares/ST/STM32_USB_Host_Library/Class/MSC/Inc/usbh_msc_scsi.h"
 886              		.file 7 "Middlewares/ST/STM32_USB_Host_Library/Class/MSC/Inc/usbh_msc.h"
ARM GAS  C:\Users\benny\AppData\Local\Temp\ccesklXC.s 			page 33


 887              		.file 8 "Middlewares/ST/STM32_USB_Host_Library/Core/Inc/usbh_ctlreq.h"
 888              		.file 9 "Middlewares/ST/STM32_USB_Host_Library/Core/Inc/usbh_core.h"
 889              		.file 10 "Middlewares/ST/STM32_USB_Host_Library/Core/Inc/usbh_ioreq.h"
ARM GAS  C:\Users\benny\AppData\Local\Temp\ccesklXC.s 			page 34

