ARM GAS  C:\Users\benny\AppData\Local\Temp\ccktZh7f.s 			page 1


   1              		.cpu cortex-m7
   2              		.arch armv7e-m
   3              		.fpu fpv5-sp-d16
   4              		.eabi_attribute 27, 1
   5              		.eabi_attribute 28, 1
   6              		.eabi_attribute 20, 1
   7              		.eabi_attribute 21, 1
   8              		.eabi_attribute 23, 3
   9              		.eabi_attribute 24, 1
  10              		.eabi_attribute 25, 1
  11              		.eabi_attribute 26, 1
  12              		.eabi_attribute 30, 1
  13              		.eabi_attribute 34, 1
  14              		.eabi_attribute 18, 4
  15              		.file	"usbh_msc.c"
  16              		.text
  17              	.Ltext0:
  18              		.cfi_sections	.debug_frame
  19              		.file 1 "Middlewares/ST/STM32_USB_Host_Library/Class/MSC/Src/usbh_msc.c"
  20              		.section	.text.USBH_MSC_SOFProcess,"ax",%progbits
  21              		.align	1
  22              		.syntax unified
  23              		.thumb
  24              		.thumb_func
  26              	USBH_MSC_SOFProcess:
  27              	.LVL0:
  28              	.LFB148:
   1:Middlewares/ST/STM32_USB_Host_Library/Class/MSC/Src/usbh_msc.c **** /**
   2:Middlewares/ST/STM32_USB_Host_Library/Class/MSC/Src/usbh_msc.c ****   ******************************************************************************
   3:Middlewares/ST/STM32_USB_Host_Library/Class/MSC/Src/usbh_msc.c ****   * @file    usbh_msc.c
   4:Middlewares/ST/STM32_USB_Host_Library/Class/MSC/Src/usbh_msc.c ****   * @author  MCD Application Team
   5:Middlewares/ST/STM32_USB_Host_Library/Class/MSC/Src/usbh_msc.c ****   * @brief   This file implements the MSC class driver functions
   6:Middlewares/ST/STM32_USB_Host_Library/Class/MSC/Src/usbh_msc.c ****   *
   7:Middlewares/ST/STM32_USB_Host_Library/Class/MSC/Src/usbh_msc.c ****   ******************************************************************************
   8:Middlewares/ST/STM32_USB_Host_Library/Class/MSC/Src/usbh_msc.c ****   * @attention
   9:Middlewares/ST/STM32_USB_Host_Library/Class/MSC/Src/usbh_msc.c ****   *
  10:Middlewares/ST/STM32_USB_Host_Library/Class/MSC/Src/usbh_msc.c ****   * Copyright (c) 2015 STMicroelectronics.
  11:Middlewares/ST/STM32_USB_Host_Library/Class/MSC/Src/usbh_msc.c ****   * All rights reserved.
  12:Middlewares/ST/STM32_USB_Host_Library/Class/MSC/Src/usbh_msc.c ****   *
  13:Middlewares/ST/STM32_USB_Host_Library/Class/MSC/Src/usbh_msc.c ****   * This software is licensed under terms that can be found in the LICENSE file
  14:Middlewares/ST/STM32_USB_Host_Library/Class/MSC/Src/usbh_msc.c ****   * in the root directory of this software component.
  15:Middlewares/ST/STM32_USB_Host_Library/Class/MSC/Src/usbh_msc.c ****   * If no LICENSE file comes with this software, it is provided AS-IS.
  16:Middlewares/ST/STM32_USB_Host_Library/Class/MSC/Src/usbh_msc.c ****   *
  17:Middlewares/ST/STM32_USB_Host_Library/Class/MSC/Src/usbh_msc.c ****   ******************************************************************************
  18:Middlewares/ST/STM32_USB_Host_Library/Class/MSC/Src/usbh_msc.c ****   *  @verbatim
  19:Middlewares/ST/STM32_USB_Host_Library/Class/MSC/Src/usbh_msc.c ****   *
  20:Middlewares/ST/STM32_USB_Host_Library/Class/MSC/Src/usbh_msc.c ****   *          ===================================================================
  21:Middlewares/ST/STM32_USB_Host_Library/Class/MSC/Src/usbh_msc.c ****   *                                MSC Class  Description
  22:Middlewares/ST/STM32_USB_Host_Library/Class/MSC/Src/usbh_msc.c ****   *          ===================================================================
  23:Middlewares/ST/STM32_USB_Host_Library/Class/MSC/Src/usbh_msc.c ****   *           This module manages the MSC class V1.0 following the "Universal
  24:Middlewares/ST/STM32_USB_Host_Library/Class/MSC/Src/usbh_msc.c ****   *           Serial Bus Mass Storage Class (MSC) Bulk-Only Transport (BOT) Version 1.0
  25:Middlewares/ST/STM32_USB_Host_Library/Class/MSC/Src/usbh_msc.c ****   *           Sep. 31, 1999".
  26:Middlewares/ST/STM32_USB_Host_Library/Class/MSC/Src/usbh_msc.c ****   *           This driver implements the following aspects of the specification:
  27:Middlewares/ST/STM32_USB_Host_Library/Class/MSC/Src/usbh_msc.c ****   *             - Bulk-Only Transport protocol
  28:Middlewares/ST/STM32_USB_Host_Library/Class/MSC/Src/usbh_msc.c ****   *             - Subclass : SCSI transparent command set (ref. SCSI Primary Commands - 3 (SPC-3))
  29:Middlewares/ST/STM32_USB_Host_Library/Class/MSC/Src/usbh_msc.c ****   *
  30:Middlewares/ST/STM32_USB_Host_Library/Class/MSC/Src/usbh_msc.c ****   *  @endverbatim
ARM GAS  C:\Users\benny\AppData\Local\Temp\ccktZh7f.s 			page 2


  31:Middlewares/ST/STM32_USB_Host_Library/Class/MSC/Src/usbh_msc.c ****   *
  32:Middlewares/ST/STM32_USB_Host_Library/Class/MSC/Src/usbh_msc.c ****   ******************************************************************************
  33:Middlewares/ST/STM32_USB_Host_Library/Class/MSC/Src/usbh_msc.c ****   */
  34:Middlewares/ST/STM32_USB_Host_Library/Class/MSC/Src/usbh_msc.c **** 
  35:Middlewares/ST/STM32_USB_Host_Library/Class/MSC/Src/usbh_msc.c **** /* BSPDependencies
  36:Middlewares/ST/STM32_USB_Host_Library/Class/MSC/Src/usbh_msc.c **** - "stm32xxxxx_{eval}{discovery}{nucleo_144}.c"
  37:Middlewares/ST/STM32_USB_Host_Library/Class/MSC/Src/usbh_msc.c **** - "stm32xxxxx_{eval}{discovery}_io.c"
  38:Middlewares/ST/STM32_USB_Host_Library/Class/MSC/Src/usbh_msc.c **** - "stm32xxxxx_{eval}{discovery}{adafruit}_lcd.c"
  39:Middlewares/ST/STM32_USB_Host_Library/Class/MSC/Src/usbh_msc.c **** - "stm32xxxxx_{eval}{discovery}_sdram.c"
  40:Middlewares/ST/STM32_USB_Host_Library/Class/MSC/Src/usbh_msc.c **** EndBSPDependencies */
  41:Middlewares/ST/STM32_USB_Host_Library/Class/MSC/Src/usbh_msc.c **** 
  42:Middlewares/ST/STM32_USB_Host_Library/Class/MSC/Src/usbh_msc.c **** /* Includes ------------------------------------------------------------------*/
  43:Middlewares/ST/STM32_USB_Host_Library/Class/MSC/Src/usbh_msc.c **** #include "usbh_msc.h"
  44:Middlewares/ST/STM32_USB_Host_Library/Class/MSC/Src/usbh_msc.c **** #include "usbh_msc_bot.h"
  45:Middlewares/ST/STM32_USB_Host_Library/Class/MSC/Src/usbh_msc.c **** #include "usbh_msc_scsi.h"
  46:Middlewares/ST/STM32_USB_Host_Library/Class/MSC/Src/usbh_msc.c **** 
  47:Middlewares/ST/STM32_USB_Host_Library/Class/MSC/Src/usbh_msc.c **** 
  48:Middlewares/ST/STM32_USB_Host_Library/Class/MSC/Src/usbh_msc.c **** /** @addtogroup USBH_LIB
  49:Middlewares/ST/STM32_USB_Host_Library/Class/MSC/Src/usbh_msc.c ****   * @{
  50:Middlewares/ST/STM32_USB_Host_Library/Class/MSC/Src/usbh_msc.c ****   */
  51:Middlewares/ST/STM32_USB_Host_Library/Class/MSC/Src/usbh_msc.c **** 
  52:Middlewares/ST/STM32_USB_Host_Library/Class/MSC/Src/usbh_msc.c **** /** @addtogroup USBH_CLASS
  53:Middlewares/ST/STM32_USB_Host_Library/Class/MSC/Src/usbh_msc.c ****   * @{
  54:Middlewares/ST/STM32_USB_Host_Library/Class/MSC/Src/usbh_msc.c ****   */
  55:Middlewares/ST/STM32_USB_Host_Library/Class/MSC/Src/usbh_msc.c **** 
  56:Middlewares/ST/STM32_USB_Host_Library/Class/MSC/Src/usbh_msc.c **** /** @addtogroup USBH_MSC_CLASS
  57:Middlewares/ST/STM32_USB_Host_Library/Class/MSC/Src/usbh_msc.c ****   * @{
  58:Middlewares/ST/STM32_USB_Host_Library/Class/MSC/Src/usbh_msc.c ****   */
  59:Middlewares/ST/STM32_USB_Host_Library/Class/MSC/Src/usbh_msc.c **** 
  60:Middlewares/ST/STM32_USB_Host_Library/Class/MSC/Src/usbh_msc.c **** /** @defgroup USBH_MSC_CORE
  61:Middlewares/ST/STM32_USB_Host_Library/Class/MSC/Src/usbh_msc.c ****   * @brief    This file includes the mass storage related functions
  62:Middlewares/ST/STM32_USB_Host_Library/Class/MSC/Src/usbh_msc.c ****   * @{
  63:Middlewares/ST/STM32_USB_Host_Library/Class/MSC/Src/usbh_msc.c ****   */
  64:Middlewares/ST/STM32_USB_Host_Library/Class/MSC/Src/usbh_msc.c **** 
  65:Middlewares/ST/STM32_USB_Host_Library/Class/MSC/Src/usbh_msc.c **** /** @defgroup USBH_MSC_CORE_Private_TypesDefinitions
  66:Middlewares/ST/STM32_USB_Host_Library/Class/MSC/Src/usbh_msc.c ****   * @{
  67:Middlewares/ST/STM32_USB_Host_Library/Class/MSC/Src/usbh_msc.c ****   */
  68:Middlewares/ST/STM32_USB_Host_Library/Class/MSC/Src/usbh_msc.c **** /**
  69:Middlewares/ST/STM32_USB_Host_Library/Class/MSC/Src/usbh_msc.c ****   * @}
  70:Middlewares/ST/STM32_USB_Host_Library/Class/MSC/Src/usbh_msc.c ****   */
  71:Middlewares/ST/STM32_USB_Host_Library/Class/MSC/Src/usbh_msc.c **** 
  72:Middlewares/ST/STM32_USB_Host_Library/Class/MSC/Src/usbh_msc.c **** /** @defgroup USBH_MSC_CORE_Private_Defines
  73:Middlewares/ST/STM32_USB_Host_Library/Class/MSC/Src/usbh_msc.c ****   * @{
  74:Middlewares/ST/STM32_USB_Host_Library/Class/MSC/Src/usbh_msc.c ****   */
  75:Middlewares/ST/STM32_USB_Host_Library/Class/MSC/Src/usbh_msc.c **** /**
  76:Middlewares/ST/STM32_USB_Host_Library/Class/MSC/Src/usbh_msc.c ****   * @}
  77:Middlewares/ST/STM32_USB_Host_Library/Class/MSC/Src/usbh_msc.c ****   */
  78:Middlewares/ST/STM32_USB_Host_Library/Class/MSC/Src/usbh_msc.c **** 
  79:Middlewares/ST/STM32_USB_Host_Library/Class/MSC/Src/usbh_msc.c **** /** @defgroup USBH_MSC_CORE_Private_Macros
  80:Middlewares/ST/STM32_USB_Host_Library/Class/MSC/Src/usbh_msc.c ****   * @{
  81:Middlewares/ST/STM32_USB_Host_Library/Class/MSC/Src/usbh_msc.c ****   */
  82:Middlewares/ST/STM32_USB_Host_Library/Class/MSC/Src/usbh_msc.c **** /**
  83:Middlewares/ST/STM32_USB_Host_Library/Class/MSC/Src/usbh_msc.c ****   * @}
  84:Middlewares/ST/STM32_USB_Host_Library/Class/MSC/Src/usbh_msc.c ****   */
  85:Middlewares/ST/STM32_USB_Host_Library/Class/MSC/Src/usbh_msc.c **** 
  86:Middlewares/ST/STM32_USB_Host_Library/Class/MSC/Src/usbh_msc.c **** /** @defgroup USBH_MSC_CORE_Private_Variables
  87:Middlewares/ST/STM32_USB_Host_Library/Class/MSC/Src/usbh_msc.c ****   * @{
ARM GAS  C:\Users\benny\AppData\Local\Temp\ccktZh7f.s 			page 3


  88:Middlewares/ST/STM32_USB_Host_Library/Class/MSC/Src/usbh_msc.c ****   */
  89:Middlewares/ST/STM32_USB_Host_Library/Class/MSC/Src/usbh_msc.c **** /**
  90:Middlewares/ST/STM32_USB_Host_Library/Class/MSC/Src/usbh_msc.c ****   * @}
  91:Middlewares/ST/STM32_USB_Host_Library/Class/MSC/Src/usbh_msc.c ****   */
  92:Middlewares/ST/STM32_USB_Host_Library/Class/MSC/Src/usbh_msc.c **** 
  93:Middlewares/ST/STM32_USB_Host_Library/Class/MSC/Src/usbh_msc.c **** /** @defgroup USBH_MSC_CORE_Private_FunctionPrototypes
  94:Middlewares/ST/STM32_USB_Host_Library/Class/MSC/Src/usbh_msc.c ****   * @{
  95:Middlewares/ST/STM32_USB_Host_Library/Class/MSC/Src/usbh_msc.c ****   */
  96:Middlewares/ST/STM32_USB_Host_Library/Class/MSC/Src/usbh_msc.c **** 
  97:Middlewares/ST/STM32_USB_Host_Library/Class/MSC/Src/usbh_msc.c **** static USBH_StatusTypeDef USBH_MSC_InterfaceInit(USBH_HandleTypeDef *phost);
  98:Middlewares/ST/STM32_USB_Host_Library/Class/MSC/Src/usbh_msc.c **** static USBH_StatusTypeDef USBH_MSC_InterfaceDeInit(USBH_HandleTypeDef *phost);
  99:Middlewares/ST/STM32_USB_Host_Library/Class/MSC/Src/usbh_msc.c **** static USBH_StatusTypeDef USBH_MSC_Process(USBH_HandleTypeDef *phost);
 100:Middlewares/ST/STM32_USB_Host_Library/Class/MSC/Src/usbh_msc.c **** static USBH_StatusTypeDef USBH_MSC_ClassRequest(USBH_HandleTypeDef *phost);
 101:Middlewares/ST/STM32_USB_Host_Library/Class/MSC/Src/usbh_msc.c **** static USBH_StatusTypeDef USBH_MSC_SOFProcess(USBH_HandleTypeDef *phost);
 102:Middlewares/ST/STM32_USB_Host_Library/Class/MSC/Src/usbh_msc.c **** static USBH_StatusTypeDef USBH_MSC_RdWrProcess(USBH_HandleTypeDef *phost, uint8_t lun);
 103:Middlewares/ST/STM32_USB_Host_Library/Class/MSC/Src/usbh_msc.c **** 
 104:Middlewares/ST/STM32_USB_Host_Library/Class/MSC/Src/usbh_msc.c **** USBH_ClassTypeDef  USBH_msc =
 105:Middlewares/ST/STM32_USB_Host_Library/Class/MSC/Src/usbh_msc.c **** {
 106:Middlewares/ST/STM32_USB_Host_Library/Class/MSC/Src/usbh_msc.c ****   "MSC",
 107:Middlewares/ST/STM32_USB_Host_Library/Class/MSC/Src/usbh_msc.c ****   USB_MSC_CLASS,
 108:Middlewares/ST/STM32_USB_Host_Library/Class/MSC/Src/usbh_msc.c ****   USBH_MSC_InterfaceInit,
 109:Middlewares/ST/STM32_USB_Host_Library/Class/MSC/Src/usbh_msc.c ****   USBH_MSC_InterfaceDeInit,
 110:Middlewares/ST/STM32_USB_Host_Library/Class/MSC/Src/usbh_msc.c ****   USBH_MSC_ClassRequest,
 111:Middlewares/ST/STM32_USB_Host_Library/Class/MSC/Src/usbh_msc.c ****   USBH_MSC_Process,
 112:Middlewares/ST/STM32_USB_Host_Library/Class/MSC/Src/usbh_msc.c ****   USBH_MSC_SOFProcess,
 113:Middlewares/ST/STM32_USB_Host_Library/Class/MSC/Src/usbh_msc.c ****   NULL,
 114:Middlewares/ST/STM32_USB_Host_Library/Class/MSC/Src/usbh_msc.c **** };
 115:Middlewares/ST/STM32_USB_Host_Library/Class/MSC/Src/usbh_msc.c **** 
 116:Middlewares/ST/STM32_USB_Host_Library/Class/MSC/Src/usbh_msc.c **** /**
 117:Middlewares/ST/STM32_USB_Host_Library/Class/MSC/Src/usbh_msc.c ****   * @}
 118:Middlewares/ST/STM32_USB_Host_Library/Class/MSC/Src/usbh_msc.c ****   */
 119:Middlewares/ST/STM32_USB_Host_Library/Class/MSC/Src/usbh_msc.c **** 
 120:Middlewares/ST/STM32_USB_Host_Library/Class/MSC/Src/usbh_msc.c **** /** @defgroup USBH_MSC_CORE_Exported_Variables
 121:Middlewares/ST/STM32_USB_Host_Library/Class/MSC/Src/usbh_msc.c ****   * @{
 122:Middlewares/ST/STM32_USB_Host_Library/Class/MSC/Src/usbh_msc.c ****   */
 123:Middlewares/ST/STM32_USB_Host_Library/Class/MSC/Src/usbh_msc.c **** /**
 124:Middlewares/ST/STM32_USB_Host_Library/Class/MSC/Src/usbh_msc.c ****   * @}
 125:Middlewares/ST/STM32_USB_Host_Library/Class/MSC/Src/usbh_msc.c ****   */
 126:Middlewares/ST/STM32_USB_Host_Library/Class/MSC/Src/usbh_msc.c **** 
 127:Middlewares/ST/STM32_USB_Host_Library/Class/MSC/Src/usbh_msc.c **** /** @defgroup USBH_MSC_CORE_Private_Functions
 128:Middlewares/ST/STM32_USB_Host_Library/Class/MSC/Src/usbh_msc.c ****   * @{
 129:Middlewares/ST/STM32_USB_Host_Library/Class/MSC/Src/usbh_msc.c ****   */
 130:Middlewares/ST/STM32_USB_Host_Library/Class/MSC/Src/usbh_msc.c **** 
 131:Middlewares/ST/STM32_USB_Host_Library/Class/MSC/Src/usbh_msc.c **** /**
 132:Middlewares/ST/STM32_USB_Host_Library/Class/MSC/Src/usbh_msc.c ****   * @brief  USBH_MSC_InterfaceInit
 133:Middlewares/ST/STM32_USB_Host_Library/Class/MSC/Src/usbh_msc.c ****   *         The function init the MSC class.
 134:Middlewares/ST/STM32_USB_Host_Library/Class/MSC/Src/usbh_msc.c ****   * @param  phost: Host handle
 135:Middlewares/ST/STM32_USB_Host_Library/Class/MSC/Src/usbh_msc.c ****   * @retval USBH Status
 136:Middlewares/ST/STM32_USB_Host_Library/Class/MSC/Src/usbh_msc.c ****   */
 137:Middlewares/ST/STM32_USB_Host_Library/Class/MSC/Src/usbh_msc.c **** static USBH_StatusTypeDef USBH_MSC_InterfaceInit(USBH_HandleTypeDef *phost)
 138:Middlewares/ST/STM32_USB_Host_Library/Class/MSC/Src/usbh_msc.c **** {
 139:Middlewares/ST/STM32_USB_Host_Library/Class/MSC/Src/usbh_msc.c ****   USBH_StatusTypeDef status;
 140:Middlewares/ST/STM32_USB_Host_Library/Class/MSC/Src/usbh_msc.c ****   uint8_t interface;
 141:Middlewares/ST/STM32_USB_Host_Library/Class/MSC/Src/usbh_msc.c ****   MSC_HandleTypeDef *MSC_Handle;
 142:Middlewares/ST/STM32_USB_Host_Library/Class/MSC/Src/usbh_msc.c **** 
 143:Middlewares/ST/STM32_USB_Host_Library/Class/MSC/Src/usbh_msc.c ****   interface = USBH_FindInterface(phost, phost->pActiveClass->ClassCode, MSC_TRANSPARENT, MSC_BOT);
 144:Middlewares/ST/STM32_USB_Host_Library/Class/MSC/Src/usbh_msc.c **** 
ARM GAS  C:\Users\benny\AppData\Local\Temp\ccktZh7f.s 			page 4


 145:Middlewares/ST/STM32_USB_Host_Library/Class/MSC/Src/usbh_msc.c ****   if ((interface == 0xFFU) || (interface >= USBH_MAX_NUM_INTERFACES)) /* Not Valid Interface */
 146:Middlewares/ST/STM32_USB_Host_Library/Class/MSC/Src/usbh_msc.c ****   {
 147:Middlewares/ST/STM32_USB_Host_Library/Class/MSC/Src/usbh_msc.c ****     USBH_DbgLog("Cannot Find the interface for %s class.", phost->pActiveClass->Name);
 148:Middlewares/ST/STM32_USB_Host_Library/Class/MSC/Src/usbh_msc.c ****     return USBH_FAIL;
 149:Middlewares/ST/STM32_USB_Host_Library/Class/MSC/Src/usbh_msc.c ****   }
 150:Middlewares/ST/STM32_USB_Host_Library/Class/MSC/Src/usbh_msc.c **** 
 151:Middlewares/ST/STM32_USB_Host_Library/Class/MSC/Src/usbh_msc.c ****   status = USBH_SelectInterface(phost, interface);
 152:Middlewares/ST/STM32_USB_Host_Library/Class/MSC/Src/usbh_msc.c **** 
 153:Middlewares/ST/STM32_USB_Host_Library/Class/MSC/Src/usbh_msc.c ****   if (status != USBH_OK)
 154:Middlewares/ST/STM32_USB_Host_Library/Class/MSC/Src/usbh_msc.c ****   {
 155:Middlewares/ST/STM32_USB_Host_Library/Class/MSC/Src/usbh_msc.c ****     return USBH_FAIL;
 156:Middlewares/ST/STM32_USB_Host_Library/Class/MSC/Src/usbh_msc.c ****   }
 157:Middlewares/ST/STM32_USB_Host_Library/Class/MSC/Src/usbh_msc.c **** 
 158:Middlewares/ST/STM32_USB_Host_Library/Class/MSC/Src/usbh_msc.c ****   phost->pActiveClass->pData = (MSC_HandleTypeDef *)USBH_malloc(sizeof(MSC_HandleTypeDef));
 159:Middlewares/ST/STM32_USB_Host_Library/Class/MSC/Src/usbh_msc.c ****   MSC_Handle = (MSC_HandleTypeDef *) phost->pActiveClass->pData;
 160:Middlewares/ST/STM32_USB_Host_Library/Class/MSC/Src/usbh_msc.c **** 
 161:Middlewares/ST/STM32_USB_Host_Library/Class/MSC/Src/usbh_msc.c ****   if (MSC_Handle == NULL)
 162:Middlewares/ST/STM32_USB_Host_Library/Class/MSC/Src/usbh_msc.c ****   {
 163:Middlewares/ST/STM32_USB_Host_Library/Class/MSC/Src/usbh_msc.c ****     USBH_DbgLog("Cannot allocate memory for MSC Handle");
 164:Middlewares/ST/STM32_USB_Host_Library/Class/MSC/Src/usbh_msc.c ****     return USBH_FAIL;
 165:Middlewares/ST/STM32_USB_Host_Library/Class/MSC/Src/usbh_msc.c ****   }
 166:Middlewares/ST/STM32_USB_Host_Library/Class/MSC/Src/usbh_msc.c **** 
 167:Middlewares/ST/STM32_USB_Host_Library/Class/MSC/Src/usbh_msc.c ****   /* Initialize msc handler */
 168:Middlewares/ST/STM32_USB_Host_Library/Class/MSC/Src/usbh_msc.c ****   (void)USBH_memset(MSC_Handle, 0, sizeof(MSC_HandleTypeDef));
 169:Middlewares/ST/STM32_USB_Host_Library/Class/MSC/Src/usbh_msc.c **** 
 170:Middlewares/ST/STM32_USB_Host_Library/Class/MSC/Src/usbh_msc.c ****   if ((phost->device.CfgDesc.Itf_Desc[interface].Ep_Desc[0].bEndpointAddress & 0x80U) != 0U)
 171:Middlewares/ST/STM32_USB_Host_Library/Class/MSC/Src/usbh_msc.c ****   {
 172:Middlewares/ST/STM32_USB_Host_Library/Class/MSC/Src/usbh_msc.c ****     MSC_Handle->InEp = (phost->device.CfgDesc.Itf_Desc[interface].Ep_Desc[0].bEndpointAddress);
 173:Middlewares/ST/STM32_USB_Host_Library/Class/MSC/Src/usbh_msc.c ****     MSC_Handle->InEpSize = phost->device.CfgDesc.Itf_Desc[interface].Ep_Desc[0].wMaxPacketSize;
 174:Middlewares/ST/STM32_USB_Host_Library/Class/MSC/Src/usbh_msc.c ****   }
 175:Middlewares/ST/STM32_USB_Host_Library/Class/MSC/Src/usbh_msc.c ****   else
 176:Middlewares/ST/STM32_USB_Host_Library/Class/MSC/Src/usbh_msc.c ****   {
 177:Middlewares/ST/STM32_USB_Host_Library/Class/MSC/Src/usbh_msc.c ****     MSC_Handle->OutEp = (phost->device.CfgDesc.Itf_Desc[interface].Ep_Desc[0].bEndpointAddress);
 178:Middlewares/ST/STM32_USB_Host_Library/Class/MSC/Src/usbh_msc.c ****     MSC_Handle->OutEpSize = phost->device.CfgDesc.Itf_Desc[interface].Ep_Desc[0].wMaxPacketSize;
 179:Middlewares/ST/STM32_USB_Host_Library/Class/MSC/Src/usbh_msc.c ****   }
 180:Middlewares/ST/STM32_USB_Host_Library/Class/MSC/Src/usbh_msc.c **** 
 181:Middlewares/ST/STM32_USB_Host_Library/Class/MSC/Src/usbh_msc.c ****   if ((phost->device.CfgDesc.Itf_Desc[interface].Ep_Desc[1].bEndpointAddress & 0x80U) != 0U)
 182:Middlewares/ST/STM32_USB_Host_Library/Class/MSC/Src/usbh_msc.c ****   {
 183:Middlewares/ST/STM32_USB_Host_Library/Class/MSC/Src/usbh_msc.c ****     MSC_Handle->InEp = (phost->device.CfgDesc.Itf_Desc[interface].Ep_Desc[1].bEndpointAddress);
 184:Middlewares/ST/STM32_USB_Host_Library/Class/MSC/Src/usbh_msc.c ****     MSC_Handle->InEpSize = phost->device.CfgDesc.Itf_Desc[interface].Ep_Desc[1].wMaxPacketSize;
 185:Middlewares/ST/STM32_USB_Host_Library/Class/MSC/Src/usbh_msc.c ****   }
 186:Middlewares/ST/STM32_USB_Host_Library/Class/MSC/Src/usbh_msc.c ****   else
 187:Middlewares/ST/STM32_USB_Host_Library/Class/MSC/Src/usbh_msc.c ****   {
 188:Middlewares/ST/STM32_USB_Host_Library/Class/MSC/Src/usbh_msc.c ****     MSC_Handle->OutEp = (phost->device.CfgDesc.Itf_Desc[interface].Ep_Desc[1].bEndpointAddress);
 189:Middlewares/ST/STM32_USB_Host_Library/Class/MSC/Src/usbh_msc.c ****     MSC_Handle->OutEpSize = phost->device.CfgDesc.Itf_Desc[interface].Ep_Desc[1].wMaxPacketSize;
 190:Middlewares/ST/STM32_USB_Host_Library/Class/MSC/Src/usbh_msc.c ****   }
 191:Middlewares/ST/STM32_USB_Host_Library/Class/MSC/Src/usbh_msc.c **** 
 192:Middlewares/ST/STM32_USB_Host_Library/Class/MSC/Src/usbh_msc.c ****   MSC_Handle->state = MSC_INIT;
 193:Middlewares/ST/STM32_USB_Host_Library/Class/MSC/Src/usbh_msc.c ****   MSC_Handle->error = MSC_OK;
 194:Middlewares/ST/STM32_USB_Host_Library/Class/MSC/Src/usbh_msc.c ****   MSC_Handle->req_state = MSC_REQ_IDLE;
 195:Middlewares/ST/STM32_USB_Host_Library/Class/MSC/Src/usbh_msc.c ****   MSC_Handle->OutPipe = USBH_AllocPipe(phost, MSC_Handle->OutEp);
 196:Middlewares/ST/STM32_USB_Host_Library/Class/MSC/Src/usbh_msc.c ****   MSC_Handle->InPipe = USBH_AllocPipe(phost, MSC_Handle->InEp);
 197:Middlewares/ST/STM32_USB_Host_Library/Class/MSC/Src/usbh_msc.c **** 
 198:Middlewares/ST/STM32_USB_Host_Library/Class/MSC/Src/usbh_msc.c ****   (void)USBH_MSC_BOT_Init(phost);
 199:Middlewares/ST/STM32_USB_Host_Library/Class/MSC/Src/usbh_msc.c **** 
 200:Middlewares/ST/STM32_USB_Host_Library/Class/MSC/Src/usbh_msc.c ****   /* Open the new channels */
 201:Middlewares/ST/STM32_USB_Host_Library/Class/MSC/Src/usbh_msc.c ****   if ((MSC_Handle->OutEp != 0U) && (MSC_Handle->OutEpSize != 0U))
ARM GAS  C:\Users\benny\AppData\Local\Temp\ccktZh7f.s 			page 5


 202:Middlewares/ST/STM32_USB_Host_Library/Class/MSC/Src/usbh_msc.c ****   {
 203:Middlewares/ST/STM32_USB_Host_Library/Class/MSC/Src/usbh_msc.c ****     (void)USBH_OpenPipe(phost, MSC_Handle->OutPipe, MSC_Handle->OutEp,
 204:Middlewares/ST/STM32_USB_Host_Library/Class/MSC/Src/usbh_msc.c ****                         phost->device.address, phost->device.speed,
 205:Middlewares/ST/STM32_USB_Host_Library/Class/MSC/Src/usbh_msc.c ****                         USB_EP_TYPE_BULK, MSC_Handle->OutEpSize);
 206:Middlewares/ST/STM32_USB_Host_Library/Class/MSC/Src/usbh_msc.c ****   }
 207:Middlewares/ST/STM32_USB_Host_Library/Class/MSC/Src/usbh_msc.c ****   else
 208:Middlewares/ST/STM32_USB_Host_Library/Class/MSC/Src/usbh_msc.c ****   {
 209:Middlewares/ST/STM32_USB_Host_Library/Class/MSC/Src/usbh_msc.c ****     return USBH_NOT_SUPPORTED;
 210:Middlewares/ST/STM32_USB_Host_Library/Class/MSC/Src/usbh_msc.c ****   }
 211:Middlewares/ST/STM32_USB_Host_Library/Class/MSC/Src/usbh_msc.c **** 
 212:Middlewares/ST/STM32_USB_Host_Library/Class/MSC/Src/usbh_msc.c ****   if ((MSC_Handle->InEp != 0U) && (MSC_Handle->InEpSize != 0U))
 213:Middlewares/ST/STM32_USB_Host_Library/Class/MSC/Src/usbh_msc.c ****   {
 214:Middlewares/ST/STM32_USB_Host_Library/Class/MSC/Src/usbh_msc.c ****     (void)USBH_OpenPipe(phost, MSC_Handle->InPipe, MSC_Handle->InEp,
 215:Middlewares/ST/STM32_USB_Host_Library/Class/MSC/Src/usbh_msc.c ****                         phost->device.address, phost->device.speed, USB_EP_TYPE_BULK,
 216:Middlewares/ST/STM32_USB_Host_Library/Class/MSC/Src/usbh_msc.c ****                         MSC_Handle->InEpSize);
 217:Middlewares/ST/STM32_USB_Host_Library/Class/MSC/Src/usbh_msc.c ****   }
 218:Middlewares/ST/STM32_USB_Host_Library/Class/MSC/Src/usbh_msc.c ****   else
 219:Middlewares/ST/STM32_USB_Host_Library/Class/MSC/Src/usbh_msc.c ****   {
 220:Middlewares/ST/STM32_USB_Host_Library/Class/MSC/Src/usbh_msc.c ****     return USBH_NOT_SUPPORTED;
 221:Middlewares/ST/STM32_USB_Host_Library/Class/MSC/Src/usbh_msc.c ****   }
 222:Middlewares/ST/STM32_USB_Host_Library/Class/MSC/Src/usbh_msc.c **** 
 223:Middlewares/ST/STM32_USB_Host_Library/Class/MSC/Src/usbh_msc.c ****   (void)USBH_LL_SetToggle(phost, MSC_Handle->InPipe, 0U);
 224:Middlewares/ST/STM32_USB_Host_Library/Class/MSC/Src/usbh_msc.c ****   (void)USBH_LL_SetToggle(phost, MSC_Handle->OutPipe, 0U);
 225:Middlewares/ST/STM32_USB_Host_Library/Class/MSC/Src/usbh_msc.c **** 
 226:Middlewares/ST/STM32_USB_Host_Library/Class/MSC/Src/usbh_msc.c ****   return USBH_OK;
 227:Middlewares/ST/STM32_USB_Host_Library/Class/MSC/Src/usbh_msc.c **** }
 228:Middlewares/ST/STM32_USB_Host_Library/Class/MSC/Src/usbh_msc.c **** 
 229:Middlewares/ST/STM32_USB_Host_Library/Class/MSC/Src/usbh_msc.c **** /**
 230:Middlewares/ST/STM32_USB_Host_Library/Class/MSC/Src/usbh_msc.c ****   * @brief  USBH_MSC_InterfaceDeInit
 231:Middlewares/ST/STM32_USB_Host_Library/Class/MSC/Src/usbh_msc.c ****   *         The function DeInit the Pipes used for the MSC class.
 232:Middlewares/ST/STM32_USB_Host_Library/Class/MSC/Src/usbh_msc.c ****   * @param  phost: Host handle
 233:Middlewares/ST/STM32_USB_Host_Library/Class/MSC/Src/usbh_msc.c ****   * @retval USBH Status
 234:Middlewares/ST/STM32_USB_Host_Library/Class/MSC/Src/usbh_msc.c ****   */
 235:Middlewares/ST/STM32_USB_Host_Library/Class/MSC/Src/usbh_msc.c **** static USBH_StatusTypeDef USBH_MSC_InterfaceDeInit(USBH_HandleTypeDef *phost)
 236:Middlewares/ST/STM32_USB_Host_Library/Class/MSC/Src/usbh_msc.c **** {
 237:Middlewares/ST/STM32_USB_Host_Library/Class/MSC/Src/usbh_msc.c ****   MSC_HandleTypeDef *MSC_Handle = (MSC_HandleTypeDef *) phost->pActiveClass->pData;
 238:Middlewares/ST/STM32_USB_Host_Library/Class/MSC/Src/usbh_msc.c **** 
 239:Middlewares/ST/STM32_USB_Host_Library/Class/MSC/Src/usbh_msc.c ****   if ((MSC_Handle->OutPipe) != 0U)
 240:Middlewares/ST/STM32_USB_Host_Library/Class/MSC/Src/usbh_msc.c ****   {
 241:Middlewares/ST/STM32_USB_Host_Library/Class/MSC/Src/usbh_msc.c ****     (void)USBH_ClosePipe(phost, MSC_Handle->OutPipe);
 242:Middlewares/ST/STM32_USB_Host_Library/Class/MSC/Src/usbh_msc.c ****     (void)USBH_FreePipe(phost, MSC_Handle->OutPipe);
 243:Middlewares/ST/STM32_USB_Host_Library/Class/MSC/Src/usbh_msc.c ****     MSC_Handle->OutPipe = 0U;     /* Reset the Channel as Free */
 244:Middlewares/ST/STM32_USB_Host_Library/Class/MSC/Src/usbh_msc.c ****   }
 245:Middlewares/ST/STM32_USB_Host_Library/Class/MSC/Src/usbh_msc.c **** 
 246:Middlewares/ST/STM32_USB_Host_Library/Class/MSC/Src/usbh_msc.c ****   if ((MSC_Handle->InPipe != 0U))
 247:Middlewares/ST/STM32_USB_Host_Library/Class/MSC/Src/usbh_msc.c ****   {
 248:Middlewares/ST/STM32_USB_Host_Library/Class/MSC/Src/usbh_msc.c ****     (void)USBH_ClosePipe(phost, MSC_Handle->InPipe);
 249:Middlewares/ST/STM32_USB_Host_Library/Class/MSC/Src/usbh_msc.c ****     (void)USBH_FreePipe(phost, MSC_Handle->InPipe);
 250:Middlewares/ST/STM32_USB_Host_Library/Class/MSC/Src/usbh_msc.c ****     MSC_Handle->InPipe = 0U;     /* Reset the Channel as Free */
 251:Middlewares/ST/STM32_USB_Host_Library/Class/MSC/Src/usbh_msc.c ****   }
 252:Middlewares/ST/STM32_USB_Host_Library/Class/MSC/Src/usbh_msc.c **** 
 253:Middlewares/ST/STM32_USB_Host_Library/Class/MSC/Src/usbh_msc.c ****   if ((phost->pActiveClass->pData) != NULL)
 254:Middlewares/ST/STM32_USB_Host_Library/Class/MSC/Src/usbh_msc.c ****   {
 255:Middlewares/ST/STM32_USB_Host_Library/Class/MSC/Src/usbh_msc.c ****     USBH_free(phost->pActiveClass->pData);
 256:Middlewares/ST/STM32_USB_Host_Library/Class/MSC/Src/usbh_msc.c ****     phost->pActiveClass->pData = 0U;
 257:Middlewares/ST/STM32_USB_Host_Library/Class/MSC/Src/usbh_msc.c ****   }
 258:Middlewares/ST/STM32_USB_Host_Library/Class/MSC/Src/usbh_msc.c **** 
ARM GAS  C:\Users\benny\AppData\Local\Temp\ccktZh7f.s 			page 6


 259:Middlewares/ST/STM32_USB_Host_Library/Class/MSC/Src/usbh_msc.c ****   return USBH_OK;
 260:Middlewares/ST/STM32_USB_Host_Library/Class/MSC/Src/usbh_msc.c **** }
 261:Middlewares/ST/STM32_USB_Host_Library/Class/MSC/Src/usbh_msc.c **** 
 262:Middlewares/ST/STM32_USB_Host_Library/Class/MSC/Src/usbh_msc.c **** /**
 263:Middlewares/ST/STM32_USB_Host_Library/Class/MSC/Src/usbh_msc.c ****   * @brief  USBH_MSC_ClassRequest
 264:Middlewares/ST/STM32_USB_Host_Library/Class/MSC/Src/usbh_msc.c ****   *         The function is responsible for handling Standard requests
 265:Middlewares/ST/STM32_USB_Host_Library/Class/MSC/Src/usbh_msc.c ****   *         for MSC class.
 266:Middlewares/ST/STM32_USB_Host_Library/Class/MSC/Src/usbh_msc.c ****   * @param  phost: Host handle
 267:Middlewares/ST/STM32_USB_Host_Library/Class/MSC/Src/usbh_msc.c ****   * @retval USBH Status
 268:Middlewares/ST/STM32_USB_Host_Library/Class/MSC/Src/usbh_msc.c ****   */
 269:Middlewares/ST/STM32_USB_Host_Library/Class/MSC/Src/usbh_msc.c **** static USBH_StatusTypeDef USBH_MSC_ClassRequest(USBH_HandleTypeDef *phost)
 270:Middlewares/ST/STM32_USB_Host_Library/Class/MSC/Src/usbh_msc.c **** {
 271:Middlewares/ST/STM32_USB_Host_Library/Class/MSC/Src/usbh_msc.c ****   MSC_HandleTypeDef *MSC_Handle = (MSC_HandleTypeDef *) phost->pActiveClass->pData;
 272:Middlewares/ST/STM32_USB_Host_Library/Class/MSC/Src/usbh_msc.c ****   USBH_StatusTypeDef status = USBH_BUSY;
 273:Middlewares/ST/STM32_USB_Host_Library/Class/MSC/Src/usbh_msc.c ****   uint8_t lun_idx;
 274:Middlewares/ST/STM32_USB_Host_Library/Class/MSC/Src/usbh_msc.c **** 
 275:Middlewares/ST/STM32_USB_Host_Library/Class/MSC/Src/usbh_msc.c ****   /* Switch MSC REQ state machine */
 276:Middlewares/ST/STM32_USB_Host_Library/Class/MSC/Src/usbh_msc.c ****   switch (MSC_Handle->req_state)
 277:Middlewares/ST/STM32_USB_Host_Library/Class/MSC/Src/usbh_msc.c ****   {
 278:Middlewares/ST/STM32_USB_Host_Library/Class/MSC/Src/usbh_msc.c ****     case MSC_REQ_IDLE:
 279:Middlewares/ST/STM32_USB_Host_Library/Class/MSC/Src/usbh_msc.c ****     case MSC_REQ_GET_MAX_LUN:
 280:Middlewares/ST/STM32_USB_Host_Library/Class/MSC/Src/usbh_msc.c **** 
 281:Middlewares/ST/STM32_USB_Host_Library/Class/MSC/Src/usbh_msc.c ****       /* Issue GetMaxLUN request */
 282:Middlewares/ST/STM32_USB_Host_Library/Class/MSC/Src/usbh_msc.c ****       status = USBH_MSC_BOT_REQ_GetMaxLUN(phost, &MSC_Handle->max_lun);
 283:Middlewares/ST/STM32_USB_Host_Library/Class/MSC/Src/usbh_msc.c **** 
 284:Middlewares/ST/STM32_USB_Host_Library/Class/MSC/Src/usbh_msc.c ****       /* When devices do not support the GetMaxLun request, this should
 285:Middlewares/ST/STM32_USB_Host_Library/Class/MSC/Src/usbh_msc.c ****          be considered as only one logical unit is supported */
 286:Middlewares/ST/STM32_USB_Host_Library/Class/MSC/Src/usbh_msc.c ****       if (status == USBH_NOT_SUPPORTED)
 287:Middlewares/ST/STM32_USB_Host_Library/Class/MSC/Src/usbh_msc.c ****       {
 288:Middlewares/ST/STM32_USB_Host_Library/Class/MSC/Src/usbh_msc.c ****         MSC_Handle->max_lun = 0U;
 289:Middlewares/ST/STM32_USB_Host_Library/Class/MSC/Src/usbh_msc.c ****         status = USBH_OK;
 290:Middlewares/ST/STM32_USB_Host_Library/Class/MSC/Src/usbh_msc.c ****       }
 291:Middlewares/ST/STM32_USB_Host_Library/Class/MSC/Src/usbh_msc.c **** 
 292:Middlewares/ST/STM32_USB_Host_Library/Class/MSC/Src/usbh_msc.c ****       if (status == USBH_OK)
 293:Middlewares/ST/STM32_USB_Host_Library/Class/MSC/Src/usbh_msc.c ****       {
 294:Middlewares/ST/STM32_USB_Host_Library/Class/MSC/Src/usbh_msc.c ****         MSC_Handle->max_lun = (MSC_Handle->max_lun > MAX_SUPPORTED_LUN) ? MAX_SUPPORTED_LUN : (MSC_
 295:Middlewares/ST/STM32_USB_Host_Library/Class/MSC/Src/usbh_msc.c ****         USBH_UsrLog("Number of supported LUN: %d", MSC_Handle->max_lun);
 296:Middlewares/ST/STM32_USB_Host_Library/Class/MSC/Src/usbh_msc.c **** 
 297:Middlewares/ST/STM32_USB_Host_Library/Class/MSC/Src/usbh_msc.c ****         for (lun_idx = 0U; lun_idx < MSC_Handle->max_lun; lun_idx++)
 298:Middlewares/ST/STM32_USB_Host_Library/Class/MSC/Src/usbh_msc.c ****         {
 299:Middlewares/ST/STM32_USB_Host_Library/Class/MSC/Src/usbh_msc.c ****           MSC_Handle->unit[lun_idx].prev_ready_state = USBH_FAIL;
 300:Middlewares/ST/STM32_USB_Host_Library/Class/MSC/Src/usbh_msc.c ****           MSC_Handle->unit[lun_idx].state_changed = 0U;
 301:Middlewares/ST/STM32_USB_Host_Library/Class/MSC/Src/usbh_msc.c ****         }
 302:Middlewares/ST/STM32_USB_Host_Library/Class/MSC/Src/usbh_msc.c ****       }
 303:Middlewares/ST/STM32_USB_Host_Library/Class/MSC/Src/usbh_msc.c ****       break;
 304:Middlewares/ST/STM32_USB_Host_Library/Class/MSC/Src/usbh_msc.c **** 
 305:Middlewares/ST/STM32_USB_Host_Library/Class/MSC/Src/usbh_msc.c ****     case MSC_REQ_ERROR:
 306:Middlewares/ST/STM32_USB_Host_Library/Class/MSC/Src/usbh_msc.c ****       /* a Clear Feature should be issued here */
 307:Middlewares/ST/STM32_USB_Host_Library/Class/MSC/Src/usbh_msc.c ****       if (USBH_ClrFeature(phost, 0x00U) == USBH_OK)
 308:Middlewares/ST/STM32_USB_Host_Library/Class/MSC/Src/usbh_msc.c ****       {
 309:Middlewares/ST/STM32_USB_Host_Library/Class/MSC/Src/usbh_msc.c ****         MSC_Handle->req_state = MSC_Handle->prev_req_state;
 310:Middlewares/ST/STM32_USB_Host_Library/Class/MSC/Src/usbh_msc.c ****       }
 311:Middlewares/ST/STM32_USB_Host_Library/Class/MSC/Src/usbh_msc.c ****       break;
 312:Middlewares/ST/STM32_USB_Host_Library/Class/MSC/Src/usbh_msc.c **** 
 313:Middlewares/ST/STM32_USB_Host_Library/Class/MSC/Src/usbh_msc.c ****     default:
 314:Middlewares/ST/STM32_USB_Host_Library/Class/MSC/Src/usbh_msc.c ****       break;
 315:Middlewares/ST/STM32_USB_Host_Library/Class/MSC/Src/usbh_msc.c ****   }
ARM GAS  C:\Users\benny\AppData\Local\Temp\ccktZh7f.s 			page 7


 316:Middlewares/ST/STM32_USB_Host_Library/Class/MSC/Src/usbh_msc.c **** 
 317:Middlewares/ST/STM32_USB_Host_Library/Class/MSC/Src/usbh_msc.c ****   return status;
 318:Middlewares/ST/STM32_USB_Host_Library/Class/MSC/Src/usbh_msc.c **** }
 319:Middlewares/ST/STM32_USB_Host_Library/Class/MSC/Src/usbh_msc.c **** 
 320:Middlewares/ST/STM32_USB_Host_Library/Class/MSC/Src/usbh_msc.c **** /**
 321:Middlewares/ST/STM32_USB_Host_Library/Class/MSC/Src/usbh_msc.c ****   * @brief  USBH_MSC_Process
 322:Middlewares/ST/STM32_USB_Host_Library/Class/MSC/Src/usbh_msc.c ****   *         The function is for managing state machine for MSC data transfers
 323:Middlewares/ST/STM32_USB_Host_Library/Class/MSC/Src/usbh_msc.c ****   * @param  phost: Host handle
 324:Middlewares/ST/STM32_USB_Host_Library/Class/MSC/Src/usbh_msc.c ****   * @retval USBH Status
 325:Middlewares/ST/STM32_USB_Host_Library/Class/MSC/Src/usbh_msc.c ****   */
 326:Middlewares/ST/STM32_USB_Host_Library/Class/MSC/Src/usbh_msc.c **** static USBH_StatusTypeDef USBH_MSC_Process(USBH_HandleTypeDef *phost)
 327:Middlewares/ST/STM32_USB_Host_Library/Class/MSC/Src/usbh_msc.c **** {
 328:Middlewares/ST/STM32_USB_Host_Library/Class/MSC/Src/usbh_msc.c ****   MSC_HandleTypeDef *MSC_Handle = (MSC_HandleTypeDef *) phost->pActiveClass->pData;
 329:Middlewares/ST/STM32_USB_Host_Library/Class/MSC/Src/usbh_msc.c ****   USBH_StatusTypeDef error = USBH_BUSY;
 330:Middlewares/ST/STM32_USB_Host_Library/Class/MSC/Src/usbh_msc.c ****   USBH_StatusTypeDef scsi_status = USBH_BUSY;
 331:Middlewares/ST/STM32_USB_Host_Library/Class/MSC/Src/usbh_msc.c ****   USBH_StatusTypeDef ready_status = USBH_BUSY;
 332:Middlewares/ST/STM32_USB_Host_Library/Class/MSC/Src/usbh_msc.c **** 
 333:Middlewares/ST/STM32_USB_Host_Library/Class/MSC/Src/usbh_msc.c ****   switch (MSC_Handle->state)
 334:Middlewares/ST/STM32_USB_Host_Library/Class/MSC/Src/usbh_msc.c ****   {
 335:Middlewares/ST/STM32_USB_Host_Library/Class/MSC/Src/usbh_msc.c ****     case MSC_INIT:
 336:Middlewares/ST/STM32_USB_Host_Library/Class/MSC/Src/usbh_msc.c **** 
 337:Middlewares/ST/STM32_USB_Host_Library/Class/MSC/Src/usbh_msc.c ****       if (MSC_Handle->current_lun < MSC_Handle->max_lun)
 338:Middlewares/ST/STM32_USB_Host_Library/Class/MSC/Src/usbh_msc.c ****       {
 339:Middlewares/ST/STM32_USB_Host_Library/Class/MSC/Src/usbh_msc.c ****         MSC_Handle->unit[MSC_Handle->current_lun].error = MSC_NOT_READY;
 340:Middlewares/ST/STM32_USB_Host_Library/Class/MSC/Src/usbh_msc.c **** 
 341:Middlewares/ST/STM32_USB_Host_Library/Class/MSC/Src/usbh_msc.c ****         /* Switch MSC REQ state machine */
 342:Middlewares/ST/STM32_USB_Host_Library/Class/MSC/Src/usbh_msc.c ****         switch (MSC_Handle->unit[MSC_Handle->current_lun].state)
 343:Middlewares/ST/STM32_USB_Host_Library/Class/MSC/Src/usbh_msc.c ****         {
 344:Middlewares/ST/STM32_USB_Host_Library/Class/MSC/Src/usbh_msc.c ****           case MSC_INIT:
 345:Middlewares/ST/STM32_USB_Host_Library/Class/MSC/Src/usbh_msc.c ****             USBH_UsrLog("LUN #%d: ", MSC_Handle->current_lun);
 346:Middlewares/ST/STM32_USB_Host_Library/Class/MSC/Src/usbh_msc.c ****             MSC_Handle->unit[MSC_Handle->current_lun].state = MSC_READ_INQUIRY;
 347:Middlewares/ST/STM32_USB_Host_Library/Class/MSC/Src/usbh_msc.c ****             MSC_Handle->timer = phost->Timer;
 348:Middlewares/ST/STM32_USB_Host_Library/Class/MSC/Src/usbh_msc.c ****             break;
 349:Middlewares/ST/STM32_USB_Host_Library/Class/MSC/Src/usbh_msc.c **** 
 350:Middlewares/ST/STM32_USB_Host_Library/Class/MSC/Src/usbh_msc.c ****           case MSC_READ_INQUIRY:
 351:Middlewares/ST/STM32_USB_Host_Library/Class/MSC/Src/usbh_msc.c ****             scsi_status = USBH_MSC_SCSI_Inquiry(phost, (uint8_t)MSC_Handle->current_lun, &MSC_Handl
 352:Middlewares/ST/STM32_USB_Host_Library/Class/MSC/Src/usbh_msc.c **** 
 353:Middlewares/ST/STM32_USB_Host_Library/Class/MSC/Src/usbh_msc.c ****             if (scsi_status == USBH_OK)
 354:Middlewares/ST/STM32_USB_Host_Library/Class/MSC/Src/usbh_msc.c ****             {
 355:Middlewares/ST/STM32_USB_Host_Library/Class/MSC/Src/usbh_msc.c ****               USBH_UsrLog("Inquiry Vendor  : %s", MSC_Handle->unit[MSC_Handle->current_lun].inquiry
 356:Middlewares/ST/STM32_USB_Host_Library/Class/MSC/Src/usbh_msc.c ****               USBH_UsrLog("Inquiry Product : %s", MSC_Handle->unit[MSC_Handle->current_lun].inquiry
 357:Middlewares/ST/STM32_USB_Host_Library/Class/MSC/Src/usbh_msc.c ****               USBH_UsrLog("Inquiry Version : %s", MSC_Handle->unit[MSC_Handle->current_lun].inquiry
 358:Middlewares/ST/STM32_USB_Host_Library/Class/MSC/Src/usbh_msc.c ****               MSC_Handle->unit[MSC_Handle->current_lun].state = MSC_TEST_UNIT_READY;
 359:Middlewares/ST/STM32_USB_Host_Library/Class/MSC/Src/usbh_msc.c ****             }
 360:Middlewares/ST/STM32_USB_Host_Library/Class/MSC/Src/usbh_msc.c ****             else if (scsi_status == USBH_FAIL)
 361:Middlewares/ST/STM32_USB_Host_Library/Class/MSC/Src/usbh_msc.c ****             {
 362:Middlewares/ST/STM32_USB_Host_Library/Class/MSC/Src/usbh_msc.c ****               MSC_Handle->unit[MSC_Handle->current_lun].state = MSC_REQUEST_SENSE;
 363:Middlewares/ST/STM32_USB_Host_Library/Class/MSC/Src/usbh_msc.c ****             }
 364:Middlewares/ST/STM32_USB_Host_Library/Class/MSC/Src/usbh_msc.c ****             else
 365:Middlewares/ST/STM32_USB_Host_Library/Class/MSC/Src/usbh_msc.c ****             {
 366:Middlewares/ST/STM32_USB_Host_Library/Class/MSC/Src/usbh_msc.c ****               if (scsi_status == USBH_UNRECOVERED_ERROR)
 367:Middlewares/ST/STM32_USB_Host_Library/Class/MSC/Src/usbh_msc.c ****               {
 368:Middlewares/ST/STM32_USB_Host_Library/Class/MSC/Src/usbh_msc.c ****                 MSC_Handle->unit[MSC_Handle->current_lun].state = MSC_UNRECOVERED_ERROR;
 369:Middlewares/ST/STM32_USB_Host_Library/Class/MSC/Src/usbh_msc.c ****                 MSC_Handle->unit[MSC_Handle->current_lun].error = MSC_ERROR;
 370:Middlewares/ST/STM32_USB_Host_Library/Class/MSC/Src/usbh_msc.c ****               }
 371:Middlewares/ST/STM32_USB_Host_Library/Class/MSC/Src/usbh_msc.c ****             }
 372:Middlewares/ST/STM32_USB_Host_Library/Class/MSC/Src/usbh_msc.c ****             break;
ARM GAS  C:\Users\benny\AppData\Local\Temp\ccktZh7f.s 			page 8


 373:Middlewares/ST/STM32_USB_Host_Library/Class/MSC/Src/usbh_msc.c **** 
 374:Middlewares/ST/STM32_USB_Host_Library/Class/MSC/Src/usbh_msc.c ****           case MSC_TEST_UNIT_READY:
 375:Middlewares/ST/STM32_USB_Host_Library/Class/MSC/Src/usbh_msc.c ****             ready_status = USBH_MSC_SCSI_TestUnitReady(phost, (uint8_t)MSC_Handle->current_lun);
 376:Middlewares/ST/STM32_USB_Host_Library/Class/MSC/Src/usbh_msc.c **** 
 377:Middlewares/ST/STM32_USB_Host_Library/Class/MSC/Src/usbh_msc.c ****             if (ready_status == USBH_OK)
 378:Middlewares/ST/STM32_USB_Host_Library/Class/MSC/Src/usbh_msc.c ****             {
 379:Middlewares/ST/STM32_USB_Host_Library/Class/MSC/Src/usbh_msc.c ****               if (MSC_Handle->unit[MSC_Handle->current_lun].prev_ready_state != USBH_OK)
 380:Middlewares/ST/STM32_USB_Host_Library/Class/MSC/Src/usbh_msc.c ****               {
 381:Middlewares/ST/STM32_USB_Host_Library/Class/MSC/Src/usbh_msc.c ****                 MSC_Handle->unit[MSC_Handle->current_lun].state_changed = 1U;
 382:Middlewares/ST/STM32_USB_Host_Library/Class/MSC/Src/usbh_msc.c ****                 USBH_UsrLog("MSC Device ready");
 383:Middlewares/ST/STM32_USB_Host_Library/Class/MSC/Src/usbh_msc.c ****               }
 384:Middlewares/ST/STM32_USB_Host_Library/Class/MSC/Src/usbh_msc.c ****               else
 385:Middlewares/ST/STM32_USB_Host_Library/Class/MSC/Src/usbh_msc.c ****               {
 386:Middlewares/ST/STM32_USB_Host_Library/Class/MSC/Src/usbh_msc.c ****                 MSC_Handle->unit[MSC_Handle->current_lun].state_changed = 0U;
 387:Middlewares/ST/STM32_USB_Host_Library/Class/MSC/Src/usbh_msc.c ****               }
 388:Middlewares/ST/STM32_USB_Host_Library/Class/MSC/Src/usbh_msc.c ****               MSC_Handle->unit[MSC_Handle->current_lun].state = MSC_READ_CAPACITY10;
 389:Middlewares/ST/STM32_USB_Host_Library/Class/MSC/Src/usbh_msc.c ****               MSC_Handle->unit[MSC_Handle->current_lun].error = MSC_OK;
 390:Middlewares/ST/STM32_USB_Host_Library/Class/MSC/Src/usbh_msc.c ****               MSC_Handle->unit[MSC_Handle->current_lun].prev_ready_state = USBH_OK;
 391:Middlewares/ST/STM32_USB_Host_Library/Class/MSC/Src/usbh_msc.c ****             }
 392:Middlewares/ST/STM32_USB_Host_Library/Class/MSC/Src/usbh_msc.c ****             else if (ready_status == USBH_FAIL)
 393:Middlewares/ST/STM32_USB_Host_Library/Class/MSC/Src/usbh_msc.c ****             {
 394:Middlewares/ST/STM32_USB_Host_Library/Class/MSC/Src/usbh_msc.c ****               /* Media not ready, so try to check again during 10s */
 395:Middlewares/ST/STM32_USB_Host_Library/Class/MSC/Src/usbh_msc.c ****               if (MSC_Handle->unit[MSC_Handle->current_lun].prev_ready_state != USBH_FAIL)
 396:Middlewares/ST/STM32_USB_Host_Library/Class/MSC/Src/usbh_msc.c ****               {
 397:Middlewares/ST/STM32_USB_Host_Library/Class/MSC/Src/usbh_msc.c ****                 MSC_Handle->unit[MSC_Handle->current_lun].state_changed = 1U;
 398:Middlewares/ST/STM32_USB_Host_Library/Class/MSC/Src/usbh_msc.c ****                 USBH_UsrLog("MSC Device NOT ready");
 399:Middlewares/ST/STM32_USB_Host_Library/Class/MSC/Src/usbh_msc.c ****               }
 400:Middlewares/ST/STM32_USB_Host_Library/Class/MSC/Src/usbh_msc.c ****               else
 401:Middlewares/ST/STM32_USB_Host_Library/Class/MSC/Src/usbh_msc.c ****               {
 402:Middlewares/ST/STM32_USB_Host_Library/Class/MSC/Src/usbh_msc.c ****                 MSC_Handle->unit[MSC_Handle->current_lun].state_changed = 0U;
 403:Middlewares/ST/STM32_USB_Host_Library/Class/MSC/Src/usbh_msc.c ****               }
 404:Middlewares/ST/STM32_USB_Host_Library/Class/MSC/Src/usbh_msc.c ****               MSC_Handle->unit[MSC_Handle->current_lun].state = MSC_REQUEST_SENSE;
 405:Middlewares/ST/STM32_USB_Host_Library/Class/MSC/Src/usbh_msc.c ****               MSC_Handle->unit[MSC_Handle->current_lun].error = MSC_NOT_READY;
 406:Middlewares/ST/STM32_USB_Host_Library/Class/MSC/Src/usbh_msc.c ****               MSC_Handle->unit[MSC_Handle->current_lun].prev_ready_state = USBH_FAIL;
 407:Middlewares/ST/STM32_USB_Host_Library/Class/MSC/Src/usbh_msc.c ****             }
 408:Middlewares/ST/STM32_USB_Host_Library/Class/MSC/Src/usbh_msc.c ****             else
 409:Middlewares/ST/STM32_USB_Host_Library/Class/MSC/Src/usbh_msc.c ****             {
 410:Middlewares/ST/STM32_USB_Host_Library/Class/MSC/Src/usbh_msc.c ****               if (ready_status == USBH_UNRECOVERED_ERROR)
 411:Middlewares/ST/STM32_USB_Host_Library/Class/MSC/Src/usbh_msc.c ****               {
 412:Middlewares/ST/STM32_USB_Host_Library/Class/MSC/Src/usbh_msc.c ****                 MSC_Handle->unit[MSC_Handle->current_lun].state = MSC_UNRECOVERED_ERROR;
 413:Middlewares/ST/STM32_USB_Host_Library/Class/MSC/Src/usbh_msc.c ****                 MSC_Handle->unit[MSC_Handle->current_lun].error = MSC_ERROR;
 414:Middlewares/ST/STM32_USB_Host_Library/Class/MSC/Src/usbh_msc.c ****               }
 415:Middlewares/ST/STM32_USB_Host_Library/Class/MSC/Src/usbh_msc.c ****             }
 416:Middlewares/ST/STM32_USB_Host_Library/Class/MSC/Src/usbh_msc.c ****             break;
 417:Middlewares/ST/STM32_USB_Host_Library/Class/MSC/Src/usbh_msc.c **** 
 418:Middlewares/ST/STM32_USB_Host_Library/Class/MSC/Src/usbh_msc.c ****           case MSC_READ_CAPACITY10:
 419:Middlewares/ST/STM32_USB_Host_Library/Class/MSC/Src/usbh_msc.c ****             scsi_status = USBH_MSC_SCSI_ReadCapacity(phost, (uint8_t)MSC_Handle->current_lun, &MSC_
 420:Middlewares/ST/STM32_USB_Host_Library/Class/MSC/Src/usbh_msc.c **** 
 421:Middlewares/ST/STM32_USB_Host_Library/Class/MSC/Src/usbh_msc.c ****             if (scsi_status == USBH_OK)
 422:Middlewares/ST/STM32_USB_Host_Library/Class/MSC/Src/usbh_msc.c ****             {
 423:Middlewares/ST/STM32_USB_Host_Library/Class/MSC/Src/usbh_msc.c ****               if (MSC_Handle->unit[MSC_Handle->current_lun].state_changed == 1U)
 424:Middlewares/ST/STM32_USB_Host_Library/Class/MSC/Src/usbh_msc.c ****               {
 425:Middlewares/ST/STM32_USB_Host_Library/Class/MSC/Src/usbh_msc.c ****                 USBH_UsrLog("MSC Device capacity : %u Bytes", \
 426:Middlewares/ST/STM32_USB_Host_Library/Class/MSC/Src/usbh_msc.c ****                             (unsigned int)(MSC_Handle->unit[MSC_Handle->current_lun].capacity.block
 427:Middlewares/ST/STM32_USB_Host_Library/Class/MSC/Src/usbh_msc.c ****                              MSC_Handle->unit[MSC_Handle->current_lun].capacity.block_size));
 428:Middlewares/ST/STM32_USB_Host_Library/Class/MSC/Src/usbh_msc.c ****                 USBH_UsrLog("Block number : %u", (unsigned int)(MSC_Handle->unit[MSC_Handle->curren
 429:Middlewares/ST/STM32_USB_Host_Library/Class/MSC/Src/usbh_msc.c ****                 USBH_UsrLog("Block Size   : %u", (unsigned int)(MSC_Handle->unit[MSC_Handle->curren
ARM GAS  C:\Users\benny\AppData\Local\Temp\ccktZh7f.s 			page 9


 430:Middlewares/ST/STM32_USB_Host_Library/Class/MSC/Src/usbh_msc.c ****               }
 431:Middlewares/ST/STM32_USB_Host_Library/Class/MSC/Src/usbh_msc.c ****               MSC_Handle->unit[MSC_Handle->current_lun].state = MSC_IDLE;
 432:Middlewares/ST/STM32_USB_Host_Library/Class/MSC/Src/usbh_msc.c ****               MSC_Handle->unit[MSC_Handle->current_lun].error = MSC_OK;
 433:Middlewares/ST/STM32_USB_Host_Library/Class/MSC/Src/usbh_msc.c ****               MSC_Handle->current_lun++;
 434:Middlewares/ST/STM32_USB_Host_Library/Class/MSC/Src/usbh_msc.c ****             }
 435:Middlewares/ST/STM32_USB_Host_Library/Class/MSC/Src/usbh_msc.c ****             else if (scsi_status == USBH_FAIL)
 436:Middlewares/ST/STM32_USB_Host_Library/Class/MSC/Src/usbh_msc.c ****             {
 437:Middlewares/ST/STM32_USB_Host_Library/Class/MSC/Src/usbh_msc.c ****               MSC_Handle->unit[MSC_Handle->current_lun].state = MSC_REQUEST_SENSE;
 438:Middlewares/ST/STM32_USB_Host_Library/Class/MSC/Src/usbh_msc.c ****             }
 439:Middlewares/ST/STM32_USB_Host_Library/Class/MSC/Src/usbh_msc.c ****             else
 440:Middlewares/ST/STM32_USB_Host_Library/Class/MSC/Src/usbh_msc.c ****             {
 441:Middlewares/ST/STM32_USB_Host_Library/Class/MSC/Src/usbh_msc.c ****               if (scsi_status == USBH_UNRECOVERED_ERROR)
 442:Middlewares/ST/STM32_USB_Host_Library/Class/MSC/Src/usbh_msc.c ****               {
 443:Middlewares/ST/STM32_USB_Host_Library/Class/MSC/Src/usbh_msc.c ****                 MSC_Handle->unit[MSC_Handle->current_lun].state = MSC_UNRECOVERED_ERROR;
 444:Middlewares/ST/STM32_USB_Host_Library/Class/MSC/Src/usbh_msc.c ****                 MSC_Handle->unit[MSC_Handle->current_lun].error = MSC_ERROR;
 445:Middlewares/ST/STM32_USB_Host_Library/Class/MSC/Src/usbh_msc.c ****               }
 446:Middlewares/ST/STM32_USB_Host_Library/Class/MSC/Src/usbh_msc.c ****             }
 447:Middlewares/ST/STM32_USB_Host_Library/Class/MSC/Src/usbh_msc.c ****             break;
 448:Middlewares/ST/STM32_USB_Host_Library/Class/MSC/Src/usbh_msc.c **** 
 449:Middlewares/ST/STM32_USB_Host_Library/Class/MSC/Src/usbh_msc.c ****           case MSC_REQUEST_SENSE:
 450:Middlewares/ST/STM32_USB_Host_Library/Class/MSC/Src/usbh_msc.c ****             scsi_status = USBH_MSC_SCSI_RequestSense(phost, (uint8_t)MSC_Handle->current_lun, &MSC_
 451:Middlewares/ST/STM32_USB_Host_Library/Class/MSC/Src/usbh_msc.c **** 
 452:Middlewares/ST/STM32_USB_Host_Library/Class/MSC/Src/usbh_msc.c ****             if (scsi_status == USBH_OK)
 453:Middlewares/ST/STM32_USB_Host_Library/Class/MSC/Src/usbh_msc.c ****             {
 454:Middlewares/ST/STM32_USB_Host_Library/Class/MSC/Src/usbh_msc.c ****               if ((MSC_Handle->unit[MSC_Handle->current_lun].sense.key == SCSI_SENSE_KEY_UNIT_ATTEN
 455:Middlewares/ST/STM32_USB_Host_Library/Class/MSC/Src/usbh_msc.c ****                   (MSC_Handle->unit[MSC_Handle->current_lun].sense.key == SCSI_SENSE_KEY_NOT_READY)
 456:Middlewares/ST/STM32_USB_Host_Library/Class/MSC/Src/usbh_msc.c ****               {
 457:Middlewares/ST/STM32_USB_Host_Library/Class/MSC/Src/usbh_msc.c **** 
 458:Middlewares/ST/STM32_USB_Host_Library/Class/MSC/Src/usbh_msc.c ****                 if ((phost->Timer - MSC_Handle->timer) < 10000U)
 459:Middlewares/ST/STM32_USB_Host_Library/Class/MSC/Src/usbh_msc.c ****                 {
 460:Middlewares/ST/STM32_USB_Host_Library/Class/MSC/Src/usbh_msc.c ****                   MSC_Handle->unit[MSC_Handle->current_lun].state = MSC_TEST_UNIT_READY;
 461:Middlewares/ST/STM32_USB_Host_Library/Class/MSC/Src/usbh_msc.c ****                   break;
 462:Middlewares/ST/STM32_USB_Host_Library/Class/MSC/Src/usbh_msc.c ****                 }
 463:Middlewares/ST/STM32_USB_Host_Library/Class/MSC/Src/usbh_msc.c ****               }
 464:Middlewares/ST/STM32_USB_Host_Library/Class/MSC/Src/usbh_msc.c **** 
 465:Middlewares/ST/STM32_USB_Host_Library/Class/MSC/Src/usbh_msc.c ****               USBH_UsrLog("Sense Key  : %x", MSC_Handle->unit[MSC_Handle->current_lun].sense.key);
 466:Middlewares/ST/STM32_USB_Host_Library/Class/MSC/Src/usbh_msc.c ****               USBH_UsrLog("Additional Sense Code : %x", MSC_Handle->unit[MSC_Handle->current_lun].s
 467:Middlewares/ST/STM32_USB_Host_Library/Class/MSC/Src/usbh_msc.c ****               USBH_UsrLog("Additional Sense Code Qualifier: %x", MSC_Handle->unit[MSC_Handle->curre
 468:Middlewares/ST/STM32_USB_Host_Library/Class/MSC/Src/usbh_msc.c ****               MSC_Handle->unit[MSC_Handle->current_lun].state = MSC_IDLE;
 469:Middlewares/ST/STM32_USB_Host_Library/Class/MSC/Src/usbh_msc.c ****               MSC_Handle->current_lun++;
 470:Middlewares/ST/STM32_USB_Host_Library/Class/MSC/Src/usbh_msc.c ****             }
 471:Middlewares/ST/STM32_USB_Host_Library/Class/MSC/Src/usbh_msc.c ****             else if (scsi_status == USBH_FAIL)
 472:Middlewares/ST/STM32_USB_Host_Library/Class/MSC/Src/usbh_msc.c ****             {
 473:Middlewares/ST/STM32_USB_Host_Library/Class/MSC/Src/usbh_msc.c ****               USBH_UsrLog("MSC Device NOT ready");
 474:Middlewares/ST/STM32_USB_Host_Library/Class/MSC/Src/usbh_msc.c ****               MSC_Handle->unit[MSC_Handle->current_lun].state = MSC_UNRECOVERED_ERROR;
 475:Middlewares/ST/STM32_USB_Host_Library/Class/MSC/Src/usbh_msc.c ****               MSC_Handle->unit[MSC_Handle->current_lun].error = MSC_ERROR;
 476:Middlewares/ST/STM32_USB_Host_Library/Class/MSC/Src/usbh_msc.c ****             }
 477:Middlewares/ST/STM32_USB_Host_Library/Class/MSC/Src/usbh_msc.c ****             else
 478:Middlewares/ST/STM32_USB_Host_Library/Class/MSC/Src/usbh_msc.c ****             {
 479:Middlewares/ST/STM32_USB_Host_Library/Class/MSC/Src/usbh_msc.c ****               if (scsi_status == USBH_UNRECOVERED_ERROR)
 480:Middlewares/ST/STM32_USB_Host_Library/Class/MSC/Src/usbh_msc.c ****               {
 481:Middlewares/ST/STM32_USB_Host_Library/Class/MSC/Src/usbh_msc.c ****                 MSC_Handle->unit[MSC_Handle->current_lun].state = MSC_UNRECOVERED_ERROR;
 482:Middlewares/ST/STM32_USB_Host_Library/Class/MSC/Src/usbh_msc.c ****                 MSC_Handle->unit[MSC_Handle->current_lun].error = MSC_ERROR;
 483:Middlewares/ST/STM32_USB_Host_Library/Class/MSC/Src/usbh_msc.c ****               }
 484:Middlewares/ST/STM32_USB_Host_Library/Class/MSC/Src/usbh_msc.c ****             }
 485:Middlewares/ST/STM32_USB_Host_Library/Class/MSC/Src/usbh_msc.c ****             break;
 486:Middlewares/ST/STM32_USB_Host_Library/Class/MSC/Src/usbh_msc.c **** 
ARM GAS  C:\Users\benny\AppData\Local\Temp\ccktZh7f.s 			page 10


 487:Middlewares/ST/STM32_USB_Host_Library/Class/MSC/Src/usbh_msc.c ****           case MSC_UNRECOVERED_ERROR:
 488:Middlewares/ST/STM32_USB_Host_Library/Class/MSC/Src/usbh_msc.c ****             MSC_Handle->current_lun++;
 489:Middlewares/ST/STM32_USB_Host_Library/Class/MSC/Src/usbh_msc.c ****             break;
 490:Middlewares/ST/STM32_USB_Host_Library/Class/MSC/Src/usbh_msc.c **** 
 491:Middlewares/ST/STM32_USB_Host_Library/Class/MSC/Src/usbh_msc.c ****           default:
 492:Middlewares/ST/STM32_USB_Host_Library/Class/MSC/Src/usbh_msc.c ****             break;
 493:Middlewares/ST/STM32_USB_Host_Library/Class/MSC/Src/usbh_msc.c ****         }
 494:Middlewares/ST/STM32_USB_Host_Library/Class/MSC/Src/usbh_msc.c **** 
 495:Middlewares/ST/STM32_USB_Host_Library/Class/MSC/Src/usbh_msc.c **** #if (USBH_USE_OS == 1U)
 496:Middlewares/ST/STM32_USB_Host_Library/Class/MSC/Src/usbh_msc.c ****         phost->os_msg = (uint32_t)USBH_CLASS_EVENT;
 497:Middlewares/ST/STM32_USB_Host_Library/Class/MSC/Src/usbh_msc.c **** #if (osCMSIS < 0x20000U)
 498:Middlewares/ST/STM32_USB_Host_Library/Class/MSC/Src/usbh_msc.c ****         (void)osMessagePut(phost->os_event, phost->os_msg, 0U);
 499:Middlewares/ST/STM32_USB_Host_Library/Class/MSC/Src/usbh_msc.c **** #else
 500:Middlewares/ST/STM32_USB_Host_Library/Class/MSC/Src/usbh_msc.c ****         (void)osMessageQueuePut(phost->os_event, &phost->os_msg, 0U, 0U);
 501:Middlewares/ST/STM32_USB_Host_Library/Class/MSC/Src/usbh_msc.c **** #endif
 502:Middlewares/ST/STM32_USB_Host_Library/Class/MSC/Src/usbh_msc.c **** #endif
 503:Middlewares/ST/STM32_USB_Host_Library/Class/MSC/Src/usbh_msc.c ****       }
 504:Middlewares/ST/STM32_USB_Host_Library/Class/MSC/Src/usbh_msc.c ****       else
 505:Middlewares/ST/STM32_USB_Host_Library/Class/MSC/Src/usbh_msc.c ****       {
 506:Middlewares/ST/STM32_USB_Host_Library/Class/MSC/Src/usbh_msc.c ****         MSC_Handle->current_lun = 0U;
 507:Middlewares/ST/STM32_USB_Host_Library/Class/MSC/Src/usbh_msc.c ****         MSC_Handle->state = MSC_USER_NOTIFY;
 508:Middlewares/ST/STM32_USB_Host_Library/Class/MSC/Src/usbh_msc.c **** 
 509:Middlewares/ST/STM32_USB_Host_Library/Class/MSC/Src/usbh_msc.c **** #if (USBH_USE_OS == 1U)
 510:Middlewares/ST/STM32_USB_Host_Library/Class/MSC/Src/usbh_msc.c ****         phost->os_msg = (uint32_t)USBH_CLASS_EVENT;
 511:Middlewares/ST/STM32_USB_Host_Library/Class/MSC/Src/usbh_msc.c **** #if (osCMSIS < 0x20000U)
 512:Middlewares/ST/STM32_USB_Host_Library/Class/MSC/Src/usbh_msc.c ****         (void)osMessagePut(phost->os_event, phost->os_msg, 0U);
 513:Middlewares/ST/STM32_USB_Host_Library/Class/MSC/Src/usbh_msc.c **** #else
 514:Middlewares/ST/STM32_USB_Host_Library/Class/MSC/Src/usbh_msc.c ****         (void)osMessageQueuePut(phost->os_event, &phost->os_msg, 0U, 0U);
 515:Middlewares/ST/STM32_USB_Host_Library/Class/MSC/Src/usbh_msc.c **** #endif
 516:Middlewares/ST/STM32_USB_Host_Library/Class/MSC/Src/usbh_msc.c **** #endif
 517:Middlewares/ST/STM32_USB_Host_Library/Class/MSC/Src/usbh_msc.c ****       }
 518:Middlewares/ST/STM32_USB_Host_Library/Class/MSC/Src/usbh_msc.c ****       break;
 519:Middlewares/ST/STM32_USB_Host_Library/Class/MSC/Src/usbh_msc.c **** 
 520:Middlewares/ST/STM32_USB_Host_Library/Class/MSC/Src/usbh_msc.c ****     case MSC_USER_NOTIFY:
 521:Middlewares/ST/STM32_USB_Host_Library/Class/MSC/Src/usbh_msc.c ****       if (MSC_Handle->lun < MSC_Handle->max_lun)
 522:Middlewares/ST/STM32_USB_Host_Library/Class/MSC/Src/usbh_msc.c ****       {
 523:Middlewares/ST/STM32_USB_Host_Library/Class/MSC/Src/usbh_msc.c ****         MSC_Handle->current_lun = MSC_Handle->lun;
 524:Middlewares/ST/STM32_USB_Host_Library/Class/MSC/Src/usbh_msc.c ****         if (MSC_Handle->unit[MSC_Handle->current_lun].error == MSC_OK)
 525:Middlewares/ST/STM32_USB_Host_Library/Class/MSC/Src/usbh_msc.c ****         {
 526:Middlewares/ST/STM32_USB_Host_Library/Class/MSC/Src/usbh_msc.c ****           phost->pUser(phost, HOST_USER_CLASS_ACTIVE);
 527:Middlewares/ST/STM32_USB_Host_Library/Class/MSC/Src/usbh_msc.c ****         }
 528:Middlewares/ST/STM32_USB_Host_Library/Class/MSC/Src/usbh_msc.c ****         else
 529:Middlewares/ST/STM32_USB_Host_Library/Class/MSC/Src/usbh_msc.c ****         {
 530:Middlewares/ST/STM32_USB_Host_Library/Class/MSC/Src/usbh_msc.c ****           phost->pUser(phost, HOST_USER_UNRECOVERED_ERROR);
 531:Middlewares/ST/STM32_USB_Host_Library/Class/MSC/Src/usbh_msc.c ****         }
 532:Middlewares/ST/STM32_USB_Host_Library/Class/MSC/Src/usbh_msc.c **** 
 533:Middlewares/ST/STM32_USB_Host_Library/Class/MSC/Src/usbh_msc.c ****         MSC_Handle->lun++;
 534:Middlewares/ST/STM32_USB_Host_Library/Class/MSC/Src/usbh_msc.c ****       }
 535:Middlewares/ST/STM32_USB_Host_Library/Class/MSC/Src/usbh_msc.c ****       else
 536:Middlewares/ST/STM32_USB_Host_Library/Class/MSC/Src/usbh_msc.c ****       {
 537:Middlewares/ST/STM32_USB_Host_Library/Class/MSC/Src/usbh_msc.c ****         MSC_Handle->lun = 0U;
 538:Middlewares/ST/STM32_USB_Host_Library/Class/MSC/Src/usbh_msc.c ****         MSC_Handle->state = MSC_IDLE;
 539:Middlewares/ST/STM32_USB_Host_Library/Class/MSC/Src/usbh_msc.c ****       }
 540:Middlewares/ST/STM32_USB_Host_Library/Class/MSC/Src/usbh_msc.c **** 
 541:Middlewares/ST/STM32_USB_Host_Library/Class/MSC/Src/usbh_msc.c **** #if (USBH_USE_OS == 1U)
 542:Middlewares/ST/STM32_USB_Host_Library/Class/MSC/Src/usbh_msc.c ****         phost->os_msg = (uint32_t)USBH_CLASS_EVENT;
 543:Middlewares/ST/STM32_USB_Host_Library/Class/MSC/Src/usbh_msc.c **** #if (osCMSIS < 0x20000U)
ARM GAS  C:\Users\benny\AppData\Local\Temp\ccktZh7f.s 			page 11


 544:Middlewares/ST/STM32_USB_Host_Library/Class/MSC/Src/usbh_msc.c ****         (void)osMessagePut(phost->os_event, phost->os_msg, 0U);
 545:Middlewares/ST/STM32_USB_Host_Library/Class/MSC/Src/usbh_msc.c **** #else
 546:Middlewares/ST/STM32_USB_Host_Library/Class/MSC/Src/usbh_msc.c ****         (void)osMessageQueuePut(phost->os_event, &phost->os_msg, 0U, 0U);
 547:Middlewares/ST/STM32_USB_Host_Library/Class/MSC/Src/usbh_msc.c **** #endif
 548:Middlewares/ST/STM32_USB_Host_Library/Class/MSC/Src/usbh_msc.c **** #endif
 549:Middlewares/ST/STM32_USB_Host_Library/Class/MSC/Src/usbh_msc.c ****       break;
 550:Middlewares/ST/STM32_USB_Host_Library/Class/MSC/Src/usbh_msc.c **** 
 551:Middlewares/ST/STM32_USB_Host_Library/Class/MSC/Src/usbh_msc.c ****     case MSC_IDLE:
 552:Middlewares/ST/STM32_USB_Host_Library/Class/MSC/Src/usbh_msc.c ****       error = USBH_OK;
 553:Middlewares/ST/STM32_USB_Host_Library/Class/MSC/Src/usbh_msc.c ****       break;
 554:Middlewares/ST/STM32_USB_Host_Library/Class/MSC/Src/usbh_msc.c **** 
 555:Middlewares/ST/STM32_USB_Host_Library/Class/MSC/Src/usbh_msc.c ****     default:
 556:Middlewares/ST/STM32_USB_Host_Library/Class/MSC/Src/usbh_msc.c ****       break;
 557:Middlewares/ST/STM32_USB_Host_Library/Class/MSC/Src/usbh_msc.c ****   }
 558:Middlewares/ST/STM32_USB_Host_Library/Class/MSC/Src/usbh_msc.c ****   return error;
 559:Middlewares/ST/STM32_USB_Host_Library/Class/MSC/Src/usbh_msc.c **** }
 560:Middlewares/ST/STM32_USB_Host_Library/Class/MSC/Src/usbh_msc.c **** 
 561:Middlewares/ST/STM32_USB_Host_Library/Class/MSC/Src/usbh_msc.c **** 
 562:Middlewares/ST/STM32_USB_Host_Library/Class/MSC/Src/usbh_msc.c **** /**
 563:Middlewares/ST/STM32_USB_Host_Library/Class/MSC/Src/usbh_msc.c ****   * @brief  USBH_MSC_SOFProcess
 564:Middlewares/ST/STM32_USB_Host_Library/Class/MSC/Src/usbh_msc.c ****   *         The function is for SOF state
 565:Middlewares/ST/STM32_USB_Host_Library/Class/MSC/Src/usbh_msc.c ****   * @param  phost: Host handle
 566:Middlewares/ST/STM32_USB_Host_Library/Class/MSC/Src/usbh_msc.c ****   * @retval USBH Status
 567:Middlewares/ST/STM32_USB_Host_Library/Class/MSC/Src/usbh_msc.c ****   */
 568:Middlewares/ST/STM32_USB_Host_Library/Class/MSC/Src/usbh_msc.c **** static USBH_StatusTypeDef USBH_MSC_SOFProcess(USBH_HandleTypeDef *phost)
 569:Middlewares/ST/STM32_USB_Host_Library/Class/MSC/Src/usbh_msc.c **** {
  29              		.loc 1 569 1 view -0
  30              		.cfi_startproc
  31              		@ args = 0, pretend = 0, frame = 0
  32              		@ frame_needed = 0, uses_anonymous_args = 0
  33              		@ link register save eliminated.
 570:Middlewares/ST/STM32_USB_Host_Library/Class/MSC/Src/usbh_msc.c ****   /* Prevent unused argument(s) compilation warning */
 571:Middlewares/ST/STM32_USB_Host_Library/Class/MSC/Src/usbh_msc.c ****   UNUSED(phost);
  34              		.loc 1 571 3 view .LVU1
 572:Middlewares/ST/STM32_USB_Host_Library/Class/MSC/Src/usbh_msc.c **** 
 573:Middlewares/ST/STM32_USB_Host_Library/Class/MSC/Src/usbh_msc.c ****   return USBH_OK;
  35              		.loc 1 573 3 view .LVU2
 574:Middlewares/ST/STM32_USB_Host_Library/Class/MSC/Src/usbh_msc.c **** }
  36              		.loc 1 574 1 is_stmt 0 view .LVU3
  37 0000 0020     		movs	r0, #0
  38              	.LVL1:
  39              		.loc 1 574 1 view .LVU4
  40 0002 7047     		bx	lr
  41              		.cfi_endproc
  42              	.LFE148:
  44              		.section	.text.USBH_MSC_Process,"ax",%progbits
  45              		.align	1
  46              		.syntax unified
  47              		.thumb
  48              		.thumb_func
  50              	USBH_MSC_Process:
  51              	.LVL2:
  52              	.LFB147:
 327:Middlewares/ST/STM32_USB_Host_Library/Class/MSC/Src/usbh_msc.c ****   MSC_HandleTypeDef *MSC_Handle = (MSC_HandleTypeDef *) phost->pActiveClass->pData;
  53              		.loc 1 327 1 is_stmt 1 view -0
  54              		.cfi_startproc
  55              		@ args = 0, pretend = 0, frame = 0
ARM GAS  C:\Users\benny\AppData\Local\Temp\ccktZh7f.s 			page 12


  56              		@ frame_needed = 0, uses_anonymous_args = 0
 327:Middlewares/ST/STM32_USB_Host_Library/Class/MSC/Src/usbh_msc.c ****   MSC_HandleTypeDef *MSC_Handle = (MSC_HandleTypeDef *) phost->pActiveClass->pData;
  57              		.loc 1 327 1 is_stmt 0 view .LVU6
  58 0000 38B5     		push	{r3, r4, r5, lr}
  59              	.LCFI0:
  60              		.cfi_def_cfa_offset 16
  61              		.cfi_offset 3, -16
  62              		.cfi_offset 4, -12
  63              		.cfi_offset 5, -8
  64              		.cfi_offset 14, -4
 328:Middlewares/ST/STM32_USB_Host_Library/Class/MSC/Src/usbh_msc.c ****   USBH_StatusTypeDef error = USBH_BUSY;
  65              		.loc 1 328 3 is_stmt 1 view .LVU7
 328:Middlewares/ST/STM32_USB_Host_Library/Class/MSC/Src/usbh_msc.c ****   USBH_StatusTypeDef error = USBH_BUSY;
  66              		.loc 1 328 62 is_stmt 0 view .LVU8
  67 0002 D0F84C34 		ldr	r3, [r0, #1100]
 328:Middlewares/ST/STM32_USB_Host_Library/Class/MSC/Src/usbh_msc.c ****   USBH_StatusTypeDef error = USBH_BUSY;
  68              		.loc 1 328 22 view .LVU9
  69 0006 DC69     		ldr	r4, [r3, #28]
  70              	.LVL3:
 329:Middlewares/ST/STM32_USB_Host_Library/Class/MSC/Src/usbh_msc.c ****   USBH_StatusTypeDef scsi_status = USBH_BUSY;
  71              		.loc 1 329 3 is_stmt 1 view .LVU10
 330:Middlewares/ST/STM32_USB_Host_Library/Class/MSC/Src/usbh_msc.c ****   USBH_StatusTypeDef ready_status = USBH_BUSY;
  72              		.loc 1 330 3 view .LVU11
 331:Middlewares/ST/STM32_USB_Host_Library/Class/MSC/Src/usbh_msc.c **** 
  73              		.loc 1 331 3 view .LVU12
 333:Middlewares/ST/STM32_USB_Host_Library/Class/MSC/Src/usbh_msc.c ****   {
  74              		.loc 1 333 3 view .LVU13
 333:Middlewares/ST/STM32_USB_Host_Library/Class/MSC/Src/usbh_msc.c ****   {
  75              		.loc 1 333 21 is_stmt 0 view .LVU14
  76 0008 237B     		ldrb	r3, [r4, #12]	@ zero_extendqisi2
 333:Middlewares/ST/STM32_USB_Host_Library/Class/MSC/Src/usbh_msc.c ****   {
  77              		.loc 1 333 3 view .LVU15
  78 000a 012B     		cmp	r3, #1
  79 000c 00F07181 		beq	.L29
  80 0010 0546     		mov	r5, r0
  81 0012 0A2B     		cmp	r3, #10
  82 0014 00F04A81 		beq	.L4
  83 0018 0BB1     		cbz	r3, .L37
  84 001a 0120     		movs	r0, #1
  85              	.LVL4:
  86              	.L3:
 558:Middlewares/ST/STM32_USB_Host_Library/Class/MSC/Src/usbh_msc.c **** }
  87              		.loc 1 558 3 is_stmt 1 view .LVU16
 559:Middlewares/ST/STM32_USB_Host_Library/Class/MSC/Src/usbh_msc.c **** 
  88              		.loc 1 559 1 is_stmt 0 view .LVU17
  89 001c 38BD     		pop	{r3, r4, r5, pc}
  90              	.LVL5:
  91              	.L37:
 337:Middlewares/ST/STM32_USB_Host_Library/Class/MSC/Src/usbh_msc.c ****       {
  92              		.loc 1 337 7 is_stmt 1 view .LVU18
 337:Middlewares/ST/STM32_USB_Host_Library/Class/MSC/Src/usbh_msc.c ****       {
  93              		.loc 1 337 21 is_stmt 0 view .LVU19
  94 001e B4F8F810 		ldrh	r1, [r4, #248]
 337:Middlewares/ST/STM32_USB_Host_Library/Class/MSC/Src/usbh_msc.c ****       {
  95              		.loc 1 337 47 view .LVU20
  96 0022 2378     		ldrb	r3, [r4]	@ zero_extendqisi2
 337:Middlewares/ST/STM32_USB_Host_Library/Class/MSC/Src/usbh_msc.c ****       {
ARM GAS  C:\Users\benny\AppData\Local\Temp\ccktZh7f.s 			page 13


  97              		.loc 1 337 10 view .LVU21
  98 0024 9942     		cmp	r1, r3
  99 0026 80F03A81 		bcs	.L5
 339:Middlewares/ST/STM32_USB_Host_Library/Class/MSC/Src/usbh_msc.c **** 
 100              		.loc 1 339 9 is_stmt 1 view .LVU22
 339:Middlewares/ST/STM32_USB_Host_Library/Class/MSC/Src/usbh_msc.c **** 
 101              		.loc 1 339 57 is_stmt 0 view .LVU23
 102 002a 3423     		movs	r3, #52
 103 002c 03FB0143 		mla	r3, r3, r1, r4
 104 0030 0122     		movs	r2, #1
 105 0032 83F89120 		strb	r2, [r3, #145]
 342:Middlewares/ST/STM32_USB_Host_Library/Class/MSC/Src/usbh_msc.c ****         {
 106              		.loc 1 342 9 is_stmt 1 view .LVU24
 342:Middlewares/ST/STM32_USB_Host_Library/Class/MSC/Src/usbh_msc.c ****         {
 107              		.loc 1 342 58 is_stmt 0 view .LVU25
 108 0036 93F89030 		ldrb	r3, [r3, #144]	@ zero_extendqisi2
 109 003a 082B     		cmp	r3, #8
 110 003c 00F25B81 		bhi	.L31
 111 0040 DFE813F0 		tbh	[pc, r3, lsl #1]
 112              	.L7:
 113 0044 0900     		.2byte	(.L12-.L7)/2
 114 0046 5901     		.2byte	(.L31-.L7)/2
 115 0048 4600     		.2byte	(.L11-.L7)/2
 116 004a A200     		.2byte	(.L10-.L7)/2
 117 004c 1500     		.2byte	(.L9-.L7)/2
 118 004e D800     		.2byte	(.L8-.L7)/2
 119 0050 5901     		.2byte	(.L31-.L7)/2
 120 0052 5901     		.2byte	(.L31-.L7)/2
 121 0054 2801     		.2byte	(.L6-.L7)/2
 122              		.p2align 1
 123              	.L12:
 345:Middlewares/ST/STM32_USB_Host_Library/Class/MSC/Src/usbh_msc.c ****             MSC_Handle->unit[MSC_Handle->current_lun].state = MSC_READ_INQUIRY;
 124              		.loc 1 345 13 is_stmt 1 view .LVU26
 345:Middlewares/ST/STM32_USB_Host_Library/Class/MSC/Src/usbh_msc.c ****             MSC_Handle->unit[MSC_Handle->current_lun].state = MSC_READ_INQUIRY;
 125              		.loc 1 345 13 view .LVU27
 345:Middlewares/ST/STM32_USB_Host_Library/Class/MSC/Src/usbh_msc.c ****             MSC_Handle->unit[MSC_Handle->current_lun].state = MSC_READ_INQUIRY;
 126              		.loc 1 345 13 view .LVU28
 346:Middlewares/ST/STM32_USB_Host_Library/Class/MSC/Src/usbh_msc.c ****             MSC_Handle->timer = phost->Timer;
 127              		.loc 1 346 13 view .LVU29
 346:Middlewares/ST/STM32_USB_Host_Library/Class/MSC/Src/usbh_msc.c ****             MSC_Handle->timer = phost->Timer;
 128              		.loc 1 346 61 is_stmt 0 view .LVU30
 129 0056 3423     		movs	r3, #52
 130 0058 03FB0143 		mla	r3, r3, r1, r4
 131 005c 0422     		movs	r2, #4
 132 005e 83F89020 		strb	r2, [r3, #144]
 347:Middlewares/ST/STM32_USB_Host_Library/Class/MSC/Src/usbh_msc.c ****             break;
 133              		.loc 1 347 13 is_stmt 1 view .LVU31
 347:Middlewares/ST/STM32_USB_Host_Library/Class/MSC/Src/usbh_msc.c ****             break;
 134              		.loc 1 347 38 is_stmt 0 view .LVU32
 135 0062 D0F89434 		ldr	r3, [r0, #1172]
 347:Middlewares/ST/STM32_USB_Host_Library/Class/MSC/Src/usbh_msc.c ****             break;
 136              		.loc 1 347 31 view .LVU33
 137 0066 C4F80031 		str	r3, [r4, #256]
 348:Middlewares/ST/STM32_USB_Host_Library/Class/MSC/Src/usbh_msc.c **** 
 138              		.loc 1 348 13 is_stmt 1 view .LVU34
 329:Middlewares/ST/STM32_USB_Host_Library/Class/MSC/Src/usbh_msc.c ****   USBH_StatusTypeDef scsi_status = USBH_BUSY;
 139              		.loc 1 329 22 is_stmt 0 view .LVU35
ARM GAS  C:\Users\benny\AppData\Local\Temp\ccktZh7f.s 			page 14


 140 006a 0120     		movs	r0, #1
 141              	.LVL6:
 348:Middlewares/ST/STM32_USB_Host_Library/Class/MSC/Src/usbh_msc.c **** 
 142              		.loc 1 348 13 view .LVU36
 143 006c D6E7     		b	.L3
 144              	.LVL7:
 145              	.L9:
 351:Middlewares/ST/STM32_USB_Host_Library/Class/MSC/Src/usbh_msc.c **** 
 146              		.loc 1 351 13 is_stmt 1 view .LVU37
 351:Middlewares/ST/STM32_USB_Host_Library/Class/MSC/Src/usbh_msc.c **** 
 147              		.loc 1 351 27 is_stmt 0 view .LVU38
 148 006e 3422     		movs	r2, #52
 149 0070 01FB02F2 		mul	r2, r1, r2
 150 0074 9832     		adds	r2, r2, #152
 151 0076 2244     		add	r2, r2, r4
 152 0078 0732     		adds	r2, r2, #7
 153 007a C9B2     		uxtb	r1, r1
 154 007c FFF7FEFF 		bl	USBH_MSC_SCSI_Inquiry
 155              	.LVL8:
 353:Middlewares/ST/STM32_USB_Host_Library/Class/MSC/Src/usbh_msc.c ****             {
 156              		.loc 1 353 13 is_stmt 1 view .LVU39
 353:Middlewares/ST/STM32_USB_Host_Library/Class/MSC/Src/usbh_msc.c ****             {
 157              		.loc 1 353 16 is_stmt 0 view .LVU40
 158 0080 48B9     		cbnz	r0, .L13
 355:Middlewares/ST/STM32_USB_Host_Library/Class/MSC/Src/usbh_msc.c ****               USBH_UsrLog("Inquiry Product : %s", MSC_Handle->unit[MSC_Handle->current_lun].inquiry
 159              		.loc 1 355 15 is_stmt 1 view .LVU41
 355:Middlewares/ST/STM32_USB_Host_Library/Class/MSC/Src/usbh_msc.c ****               USBH_UsrLog("Inquiry Product : %s", MSC_Handle->unit[MSC_Handle->current_lun].inquiry
 160              		.loc 1 355 15 view .LVU42
 355:Middlewares/ST/STM32_USB_Host_Library/Class/MSC/Src/usbh_msc.c ****               USBH_UsrLog("Inquiry Product : %s", MSC_Handle->unit[MSC_Handle->current_lun].inquiry
 161              		.loc 1 355 15 view .LVU43
 356:Middlewares/ST/STM32_USB_Host_Library/Class/MSC/Src/usbh_msc.c ****               USBH_UsrLog("Inquiry Version : %s", MSC_Handle->unit[MSC_Handle->current_lun].inquiry
 162              		.loc 1 356 15 view .LVU44
 356:Middlewares/ST/STM32_USB_Host_Library/Class/MSC/Src/usbh_msc.c ****               USBH_UsrLog("Inquiry Version : %s", MSC_Handle->unit[MSC_Handle->current_lun].inquiry
 163              		.loc 1 356 15 view .LVU45
 356:Middlewares/ST/STM32_USB_Host_Library/Class/MSC/Src/usbh_msc.c ****               USBH_UsrLog("Inquiry Version : %s", MSC_Handle->unit[MSC_Handle->current_lun].inquiry
 164              		.loc 1 356 15 view .LVU46
 357:Middlewares/ST/STM32_USB_Host_Library/Class/MSC/Src/usbh_msc.c ****               MSC_Handle->unit[MSC_Handle->current_lun].state = MSC_TEST_UNIT_READY;
 165              		.loc 1 357 15 view .LVU47
 357:Middlewares/ST/STM32_USB_Host_Library/Class/MSC/Src/usbh_msc.c ****               MSC_Handle->unit[MSC_Handle->current_lun].state = MSC_TEST_UNIT_READY;
 166              		.loc 1 357 15 view .LVU48
 357:Middlewares/ST/STM32_USB_Host_Library/Class/MSC/Src/usbh_msc.c ****               MSC_Handle->unit[MSC_Handle->current_lun].state = MSC_TEST_UNIT_READY;
 167              		.loc 1 357 15 view .LVU49
 358:Middlewares/ST/STM32_USB_Host_Library/Class/MSC/Src/usbh_msc.c ****             }
 168              		.loc 1 358 15 view .LVU50
 358:Middlewares/ST/STM32_USB_Host_Library/Class/MSC/Src/usbh_msc.c ****             }
 169              		.loc 1 358 42 is_stmt 0 view .LVU51
 170 0082 B4F8F830 		ldrh	r3, [r4, #248]
 358:Middlewares/ST/STM32_USB_Host_Library/Class/MSC/Src/usbh_msc.c ****             }
 171              		.loc 1 358 63 view .LVU52
 172 0086 3422     		movs	r2, #52
 173 0088 02FB0343 		mla	r3, r2, r3, r4
 174 008c 0222     		movs	r2, #2
 175 008e 83F89020 		strb	r2, [r3, #144]
 329:Middlewares/ST/STM32_USB_Host_Library/Class/MSC/Src/usbh_msc.c ****   USBH_StatusTypeDef scsi_status = USBH_BUSY;
 176              		.loc 1 329 22 view .LVU53
 177 0092 0120     		movs	r0, #1
 178              	.LVL9:
ARM GAS  C:\Users\benny\AppData\Local\Temp\ccktZh7f.s 			page 15


 329:Middlewares/ST/STM32_USB_Host_Library/Class/MSC/Src/usbh_msc.c ****   USBH_StatusTypeDef scsi_status = USBH_BUSY;
 179              		.loc 1 329 22 view .LVU54
 180 0094 C2E7     		b	.L3
 181              	.LVL10:
 182              	.L13:
 360:Middlewares/ST/STM32_USB_Host_Library/Class/MSC/Src/usbh_msc.c ****             {
 183              		.loc 1 360 18 is_stmt 1 view .LVU55
 360:Middlewares/ST/STM32_USB_Host_Library/Class/MSC/Src/usbh_msc.c ****             {
 184              		.loc 1 360 21 is_stmt 0 view .LVU56
 185 0096 0228     		cmp	r0, #2
 186 0098 03D0     		beq	.L38
 366:Middlewares/ST/STM32_USB_Host_Library/Class/MSC/Src/usbh_msc.c ****               {
 187              		.loc 1 366 15 is_stmt 1 view .LVU57
 366:Middlewares/ST/STM32_USB_Host_Library/Class/MSC/Src/usbh_msc.c ****               {
 188              		.loc 1 366 18 is_stmt 0 view .LVU58
 189 009a 0428     		cmp	r0, #4
 190 009c 0BD0     		beq	.L39
 329:Middlewares/ST/STM32_USB_Host_Library/Class/MSC/Src/usbh_msc.c ****   USBH_StatusTypeDef scsi_status = USBH_BUSY;
 191              		.loc 1 329 22 view .LVU59
 192 009e 0120     		movs	r0, #1
 193              	.LVL11:
 329:Middlewares/ST/STM32_USB_Host_Library/Class/MSC/Src/usbh_msc.c ****   USBH_StatusTypeDef scsi_status = USBH_BUSY;
 194              		.loc 1 329 22 view .LVU60
 195 00a0 BCE7     		b	.L3
 196              	.LVL12:
 197              	.L38:
 362:Middlewares/ST/STM32_USB_Host_Library/Class/MSC/Src/usbh_msc.c ****             }
 198              		.loc 1 362 15 is_stmt 1 view .LVU61
 362:Middlewares/ST/STM32_USB_Host_Library/Class/MSC/Src/usbh_msc.c ****             }
 199              		.loc 1 362 42 is_stmt 0 view .LVU62
 200 00a2 B4F8F830 		ldrh	r3, [r4, #248]
 362:Middlewares/ST/STM32_USB_Host_Library/Class/MSC/Src/usbh_msc.c ****             }
 201              		.loc 1 362 63 view .LVU63
 202 00a6 3422     		movs	r2, #52
 203 00a8 02FB0343 		mla	r3, r2, r3, r4
 204 00ac 0522     		movs	r2, #5
 205 00ae 83F89020 		strb	r2, [r3, #144]
 329:Middlewares/ST/STM32_USB_Host_Library/Class/MSC/Src/usbh_msc.c ****   USBH_StatusTypeDef scsi_status = USBH_BUSY;
 206              		.loc 1 329 22 view .LVU64
 207 00b2 0120     		movs	r0, #1
 208              	.LVL13:
 329:Middlewares/ST/STM32_USB_Host_Library/Class/MSC/Src/usbh_msc.c ****   USBH_StatusTypeDef scsi_status = USBH_BUSY;
 209              		.loc 1 329 22 view .LVU65
 210 00b4 B2E7     		b	.L3
 211              	.LVL14:
 212              	.L39:
 368:Middlewares/ST/STM32_USB_Host_Library/Class/MSC/Src/usbh_msc.c ****                 MSC_Handle->unit[MSC_Handle->current_lun].error = MSC_ERROR;
 213              		.loc 1 368 17 is_stmt 1 view .LVU66
 368:Middlewares/ST/STM32_USB_Host_Library/Class/MSC/Src/usbh_msc.c ****                 MSC_Handle->unit[MSC_Handle->current_lun].error = MSC_ERROR;
 214              		.loc 1 368 44 is_stmt 0 view .LVU67
 215 00b6 B4F8F830 		ldrh	r3, [r4, #248]
 368:Middlewares/ST/STM32_USB_Host_Library/Class/MSC/Src/usbh_msc.c ****                 MSC_Handle->unit[MSC_Handle->current_lun].error = MSC_ERROR;
 216              		.loc 1 368 65 view .LVU68
 217 00ba 3422     		movs	r2, #52
 218 00bc 02FB0343 		mla	r3, r2, r3, r4
 219 00c0 0822     		movs	r2, #8
 220 00c2 83F89020 		strb	r2, [r3, #144]
ARM GAS  C:\Users\benny\AppData\Local\Temp\ccktZh7f.s 			page 16


 369:Middlewares/ST/STM32_USB_Host_Library/Class/MSC/Src/usbh_msc.c ****               }
 221              		.loc 1 369 17 is_stmt 1 view .LVU69
 369:Middlewares/ST/STM32_USB_Host_Library/Class/MSC/Src/usbh_msc.c ****               }
 222              		.loc 1 369 65 is_stmt 0 view .LVU70
 223 00c6 0222     		movs	r2, #2
 224 00c8 83F89120 		strb	r2, [r3, #145]
 329:Middlewares/ST/STM32_USB_Host_Library/Class/MSC/Src/usbh_msc.c ****   USBH_StatusTypeDef scsi_status = USBH_BUSY;
 225              		.loc 1 329 22 view .LVU71
 226 00cc 0120     		movs	r0, #1
 227              	.LVL15:
 329:Middlewares/ST/STM32_USB_Host_Library/Class/MSC/Src/usbh_msc.c ****   USBH_StatusTypeDef scsi_status = USBH_BUSY;
 228              		.loc 1 329 22 view .LVU72
 229 00ce A5E7     		b	.L3
 230              	.LVL16:
 231              	.L11:
 375:Middlewares/ST/STM32_USB_Host_Library/Class/MSC/Src/usbh_msc.c **** 
 232              		.loc 1 375 13 is_stmt 1 view .LVU73
 375:Middlewares/ST/STM32_USB_Host_Library/Class/MSC/Src/usbh_msc.c **** 
 233              		.loc 1 375 28 is_stmt 0 view .LVU74
 234 00d0 C9B2     		uxtb	r1, r1
 235 00d2 FFF7FEFF 		bl	USBH_MSC_SCSI_TestUnitReady
 236              	.LVL17:
 377:Middlewares/ST/STM32_USB_Host_Library/Class/MSC/Src/usbh_msc.c ****             {
 237              		.loc 1 377 13 is_stmt 1 view .LVU75
 377:Middlewares/ST/STM32_USB_Host_Library/Class/MSC/Src/usbh_msc.c ****             {
 238              		.loc 1 377 16 is_stmt 0 view .LVU76
 239 00d6 08BB     		cbnz	r0, .L15
 379:Middlewares/ST/STM32_USB_Host_Library/Class/MSC/Src/usbh_msc.c ****               {
 240              		.loc 1 379 15 is_stmt 1 view .LVU77
 379:Middlewares/ST/STM32_USB_Host_Library/Class/MSC/Src/usbh_msc.c ****               {
 241              		.loc 1 379 46 is_stmt 0 view .LVU78
 242 00d8 B4F8F830 		ldrh	r3, [r4, #248]
 379:Middlewares/ST/STM32_USB_Host_Library/Class/MSC/Src/usbh_msc.c ****               {
 243              		.loc 1 379 60 view .LVU79
 244 00dc 3422     		movs	r2, #52
 245 00de 02FB0342 		mla	r2, r2, r3, r4
 246 00e2 92F89220 		ldrb	r2, [r2, #146]	@ zero_extendqisi2
 379:Middlewares/ST/STM32_USB_Host_Library/Class/MSC/Src/usbh_msc.c ****               {
 247              		.loc 1 379 18 view .LVU80
 248 00e6 92B1     		cbz	r2, .L16
 381:Middlewares/ST/STM32_USB_Host_Library/Class/MSC/Src/usbh_msc.c ****                 USBH_UsrLog("MSC Device ready");
 249              		.loc 1 381 17 is_stmt 1 view .LVU81
 381:Middlewares/ST/STM32_USB_Host_Library/Class/MSC/Src/usbh_msc.c ****                 USBH_UsrLog("MSC Device ready");
 250              		.loc 1 381 73 is_stmt 0 view .LVU82
 251 00e8 3422     		movs	r2, #52
 252 00ea 02FB0342 		mla	r2, r2, r3, r4
 253 00ee 0121     		movs	r1, #1
 254 00f0 82F8C110 		strb	r1, [r2, #193]
 382:Middlewares/ST/STM32_USB_Host_Library/Class/MSC/Src/usbh_msc.c ****               }
 255              		.loc 1 382 17 is_stmt 1 view .LVU83
 382:Middlewares/ST/STM32_USB_Host_Library/Class/MSC/Src/usbh_msc.c ****               }
 256              		.loc 1 382 17 view .LVU84
 382:Middlewares/ST/STM32_USB_Host_Library/Class/MSC/Src/usbh_msc.c ****               }
 257              		.loc 1 382 17 view .LVU85
 258              	.L17:
 388:Middlewares/ST/STM32_USB_Host_Library/Class/MSC/Src/usbh_msc.c ****               MSC_Handle->unit[MSC_Handle->current_lun].error = MSC_OK;
 259              		.loc 1 388 15 view .LVU86
ARM GAS  C:\Users\benny\AppData\Local\Temp\ccktZh7f.s 			page 17


 388:Middlewares/ST/STM32_USB_Host_Library/Class/MSC/Src/usbh_msc.c ****               MSC_Handle->unit[MSC_Handle->current_lun].error = MSC_OK;
 260              		.loc 1 388 63 is_stmt 0 view .LVU87
 261 00f4 3422     		movs	r2, #52
 262 00f6 02FB0343 		mla	r3, r2, r3, r4
 263 00fa 0322     		movs	r2, #3
 264 00fc 83F89020 		strb	r2, [r3, #144]
 389:Middlewares/ST/STM32_USB_Host_Library/Class/MSC/Src/usbh_msc.c ****               MSC_Handle->unit[MSC_Handle->current_lun].prev_ready_state = USBH_OK;
 265              		.loc 1 389 15 is_stmt 1 view .LVU88
 389:Middlewares/ST/STM32_USB_Host_Library/Class/MSC/Src/usbh_msc.c ****               MSC_Handle->unit[MSC_Handle->current_lun].prev_ready_state = USBH_OK;
 266              		.loc 1 389 63 is_stmt 0 view .LVU89
 267 0100 0022     		movs	r2, #0
 268 0102 83F89120 		strb	r2, [r3, #145]
 390:Middlewares/ST/STM32_USB_Host_Library/Class/MSC/Src/usbh_msc.c ****             }
 269              		.loc 1 390 15 is_stmt 1 view .LVU90
 390:Middlewares/ST/STM32_USB_Host_Library/Class/MSC/Src/usbh_msc.c ****             }
 270              		.loc 1 390 74 is_stmt 0 view .LVU91
 271 0106 83F89220 		strb	r2, [r3, #146]
 329:Middlewares/ST/STM32_USB_Host_Library/Class/MSC/Src/usbh_msc.c ****   USBH_StatusTypeDef scsi_status = USBH_BUSY;
 272              		.loc 1 329 22 view .LVU92
 273 010a 0120     		movs	r0, #1
 274              	.LVL18:
 329:Middlewares/ST/STM32_USB_Host_Library/Class/MSC/Src/usbh_msc.c ****   USBH_StatusTypeDef scsi_status = USBH_BUSY;
 275              		.loc 1 329 22 view .LVU93
 276 010c 86E7     		b	.L3
 277              	.LVL19:
 278              	.L16:
 386:Middlewares/ST/STM32_USB_Host_Library/Class/MSC/Src/usbh_msc.c ****               }
 279              		.loc 1 386 17 is_stmt 1 view .LVU94
 386:Middlewares/ST/STM32_USB_Host_Library/Class/MSC/Src/usbh_msc.c ****               }
 280              		.loc 1 386 73 is_stmt 0 view .LVU95
 281 010e 3422     		movs	r2, #52
 282 0110 02FB0342 		mla	r2, r2, r3, r4
 283 0114 0021     		movs	r1, #0
 284 0116 82F8C110 		strb	r1, [r2, #193]
 285 011a EBE7     		b	.L17
 286              	.L15:
 392:Middlewares/ST/STM32_USB_Host_Library/Class/MSC/Src/usbh_msc.c ****             {
 287              		.loc 1 392 18 is_stmt 1 view .LVU96
 392:Middlewares/ST/STM32_USB_Host_Library/Class/MSC/Src/usbh_msc.c ****             {
 288              		.loc 1 392 21 is_stmt 0 view .LVU97
 289 011c 0228     		cmp	r0, #2
 290 011e 03D0     		beq	.L40
 410:Middlewares/ST/STM32_USB_Host_Library/Class/MSC/Src/usbh_msc.c ****               {
 291              		.loc 1 410 15 is_stmt 1 view .LVU98
 410:Middlewares/ST/STM32_USB_Host_Library/Class/MSC/Src/usbh_msc.c ****               {
 292              		.loc 1 410 18 is_stmt 0 view .LVU99
 293 0120 0428     		cmp	r0, #4
 294 0122 24D0     		beq	.L41
 329:Middlewares/ST/STM32_USB_Host_Library/Class/MSC/Src/usbh_msc.c ****   USBH_StatusTypeDef scsi_status = USBH_BUSY;
 295              		.loc 1 329 22 view .LVU100
 296 0124 0120     		movs	r0, #1
 297              	.LVL20:
 329:Middlewares/ST/STM32_USB_Host_Library/Class/MSC/Src/usbh_msc.c ****   USBH_StatusTypeDef scsi_status = USBH_BUSY;
 298              		.loc 1 329 22 view .LVU101
 299 0126 79E7     		b	.L3
 300              	.LVL21:
 301              	.L40:
ARM GAS  C:\Users\benny\AppData\Local\Temp\ccktZh7f.s 			page 18


 395:Middlewares/ST/STM32_USB_Host_Library/Class/MSC/Src/usbh_msc.c ****               {
 302              		.loc 1 395 15 is_stmt 1 view .LVU102
 395:Middlewares/ST/STM32_USB_Host_Library/Class/MSC/Src/usbh_msc.c ****               {
 303              		.loc 1 395 46 is_stmt 0 view .LVU103
 304 0128 B4F8F830 		ldrh	r3, [r4, #248]
 395:Middlewares/ST/STM32_USB_Host_Library/Class/MSC/Src/usbh_msc.c ****               {
 305              		.loc 1 395 60 view .LVU104
 306 012c 3422     		movs	r2, #52
 307 012e 02FB0342 		mla	r2, r2, r3, r4
 308 0132 92F89220 		ldrb	r2, [r2, #146]	@ zero_extendqisi2
 395:Middlewares/ST/STM32_USB_Host_Library/Class/MSC/Src/usbh_msc.c ****               {
 309              		.loc 1 395 18 view .LVU105
 310 0136 022A     		cmp	r2, #2
 311 0138 12D0     		beq	.L19
 397:Middlewares/ST/STM32_USB_Host_Library/Class/MSC/Src/usbh_msc.c ****                 USBH_UsrLog("MSC Device NOT ready");
 312              		.loc 1 397 17 is_stmt 1 view .LVU106
 397:Middlewares/ST/STM32_USB_Host_Library/Class/MSC/Src/usbh_msc.c ****                 USBH_UsrLog("MSC Device NOT ready");
 313              		.loc 1 397 73 is_stmt 0 view .LVU107
 314 013a 3422     		movs	r2, #52
 315 013c 02FB0342 		mla	r2, r2, r3, r4
 316 0140 0121     		movs	r1, #1
 317 0142 82F8C110 		strb	r1, [r2, #193]
 398:Middlewares/ST/STM32_USB_Host_Library/Class/MSC/Src/usbh_msc.c ****               }
 318              		.loc 1 398 17 is_stmt 1 view .LVU108
 398:Middlewares/ST/STM32_USB_Host_Library/Class/MSC/Src/usbh_msc.c ****               }
 319              		.loc 1 398 17 view .LVU109
 398:Middlewares/ST/STM32_USB_Host_Library/Class/MSC/Src/usbh_msc.c ****               }
 320              		.loc 1 398 17 view .LVU110
 321              	.L20:
 404:Middlewares/ST/STM32_USB_Host_Library/Class/MSC/Src/usbh_msc.c ****               MSC_Handle->unit[MSC_Handle->current_lun].error = MSC_NOT_READY;
 322              		.loc 1 404 15 view .LVU111
 404:Middlewares/ST/STM32_USB_Host_Library/Class/MSC/Src/usbh_msc.c ****               MSC_Handle->unit[MSC_Handle->current_lun].error = MSC_NOT_READY;
 323              		.loc 1 404 63 is_stmt 0 view .LVU112
 324 0146 3422     		movs	r2, #52
 325 0148 02FB0343 		mla	r3, r2, r3, r4
 326 014c 0522     		movs	r2, #5
 327 014e 83F89020 		strb	r2, [r3, #144]
 405:Middlewares/ST/STM32_USB_Host_Library/Class/MSC/Src/usbh_msc.c ****               MSC_Handle->unit[MSC_Handle->current_lun].prev_ready_state = USBH_FAIL;
 328              		.loc 1 405 15 is_stmt 1 view .LVU113
 405:Middlewares/ST/STM32_USB_Host_Library/Class/MSC/Src/usbh_msc.c ****               MSC_Handle->unit[MSC_Handle->current_lun].prev_ready_state = USBH_FAIL;
 329              		.loc 1 405 63 is_stmt 0 view .LVU114
 330 0152 0120     		movs	r0, #1
 331              	.LVL22:
 405:Middlewares/ST/STM32_USB_Host_Library/Class/MSC/Src/usbh_msc.c ****               MSC_Handle->unit[MSC_Handle->current_lun].prev_ready_state = USBH_FAIL;
 332              		.loc 1 405 63 view .LVU115
 333 0154 83F89100 		strb	r0, [r3, #145]
 406:Middlewares/ST/STM32_USB_Host_Library/Class/MSC/Src/usbh_msc.c ****             }
 334              		.loc 1 406 15 is_stmt 1 view .LVU116
 406:Middlewares/ST/STM32_USB_Host_Library/Class/MSC/Src/usbh_msc.c ****             }
 335              		.loc 1 406 74 is_stmt 0 view .LVU117
 336 0158 0222     		movs	r2, #2
 337 015a 83F89220 		strb	r2, [r3, #146]
 338 015e 5DE7     		b	.L3
 339              	.LVL23:
 340              	.L19:
 402:Middlewares/ST/STM32_USB_Host_Library/Class/MSC/Src/usbh_msc.c ****               }
 341              		.loc 1 402 17 is_stmt 1 view .LVU118
ARM GAS  C:\Users\benny\AppData\Local\Temp\ccktZh7f.s 			page 19


 402:Middlewares/ST/STM32_USB_Host_Library/Class/MSC/Src/usbh_msc.c ****               }
 342              		.loc 1 402 73 is_stmt 0 view .LVU119
 343 0160 3422     		movs	r2, #52
 344 0162 02FB0342 		mla	r2, r2, r3, r4
 345 0166 0021     		movs	r1, #0
 346 0168 82F8C110 		strb	r1, [r2, #193]
 347 016c EBE7     		b	.L20
 348              	.L41:
 412:Middlewares/ST/STM32_USB_Host_Library/Class/MSC/Src/usbh_msc.c ****                 MSC_Handle->unit[MSC_Handle->current_lun].error = MSC_ERROR;
 349              		.loc 1 412 17 is_stmt 1 view .LVU120
 412:Middlewares/ST/STM32_USB_Host_Library/Class/MSC/Src/usbh_msc.c ****                 MSC_Handle->unit[MSC_Handle->current_lun].error = MSC_ERROR;
 350              		.loc 1 412 44 is_stmt 0 view .LVU121
 351 016e B4F8F830 		ldrh	r3, [r4, #248]
 412:Middlewares/ST/STM32_USB_Host_Library/Class/MSC/Src/usbh_msc.c ****                 MSC_Handle->unit[MSC_Handle->current_lun].error = MSC_ERROR;
 352              		.loc 1 412 65 view .LVU122
 353 0172 3422     		movs	r2, #52
 354 0174 02FB0343 		mla	r3, r2, r3, r4
 355 0178 0822     		movs	r2, #8
 356 017a 83F89020 		strb	r2, [r3, #144]
 413:Middlewares/ST/STM32_USB_Host_Library/Class/MSC/Src/usbh_msc.c ****               }
 357              		.loc 1 413 17 is_stmt 1 view .LVU123
 413:Middlewares/ST/STM32_USB_Host_Library/Class/MSC/Src/usbh_msc.c ****               }
 358              		.loc 1 413 65 is_stmt 0 view .LVU124
 359 017e 0222     		movs	r2, #2
 360 0180 83F89120 		strb	r2, [r3, #145]
 329:Middlewares/ST/STM32_USB_Host_Library/Class/MSC/Src/usbh_msc.c ****   USBH_StatusTypeDef scsi_status = USBH_BUSY;
 361              		.loc 1 329 22 view .LVU125
 362 0184 0120     		movs	r0, #1
 363              	.LVL24:
 329:Middlewares/ST/STM32_USB_Host_Library/Class/MSC/Src/usbh_msc.c ****   USBH_StatusTypeDef scsi_status = USBH_BUSY;
 364              		.loc 1 329 22 view .LVU126
 365 0186 49E7     		b	.L3
 366              	.LVL25:
 367              	.L10:
 419:Middlewares/ST/STM32_USB_Host_Library/Class/MSC/Src/usbh_msc.c **** 
 368              		.loc 1 419 13 is_stmt 1 view .LVU127
 419:Middlewares/ST/STM32_USB_Host_Library/Class/MSC/Src/usbh_msc.c **** 
 369              		.loc 1 419 27 is_stmt 0 view .LVU128
 370 0188 3422     		movs	r2, #52
 371 018a 01FB02F2 		mul	r2, r1, r2
 372 018e 9032     		adds	r2, r2, #144
 373 0190 2244     		add	r2, r2, r4
 374 0192 0432     		adds	r2, r2, #4
 375 0194 C9B2     		uxtb	r1, r1
 376 0196 FFF7FEFF 		bl	USBH_MSC_SCSI_ReadCapacity
 377              	.LVL26:
 421:Middlewares/ST/STM32_USB_Host_Library/Class/MSC/Src/usbh_msc.c ****             {
 378              		.loc 1 421 13 is_stmt 1 view .LVU129
 421:Middlewares/ST/STM32_USB_Host_Library/Class/MSC/Src/usbh_msc.c ****             {
 379              		.loc 1 421 16 is_stmt 0 view .LVU130
 380 019a 70B9     		cbnz	r0, .L21
 423:Middlewares/ST/STM32_USB_Host_Library/Class/MSC/Src/usbh_msc.c ****               {
 381              		.loc 1 423 15 is_stmt 1 view .LVU131
 423:Middlewares/ST/STM32_USB_Host_Library/Class/MSC/Src/usbh_msc.c ****               {
 382              		.loc 1 423 46 is_stmt 0 view .LVU132
 383 019c B4F8F830 		ldrh	r3, [r4, #248]
 425:Middlewares/ST/STM32_USB_Host_Library/Class/MSC/Src/usbh_msc.c ****                             (unsigned int)(MSC_Handle->unit[MSC_Handle->current_lun].capacity.block
ARM GAS  C:\Users\benny\AppData\Local\Temp\ccktZh7f.s 			page 20


 384              		.loc 1 425 17 is_stmt 1 view .LVU133
 425:Middlewares/ST/STM32_USB_Host_Library/Class/MSC/Src/usbh_msc.c ****                             (unsigned int)(MSC_Handle->unit[MSC_Handle->current_lun].capacity.block
 385              		.loc 1 425 17 view .LVU134
 425:Middlewares/ST/STM32_USB_Host_Library/Class/MSC/Src/usbh_msc.c ****                             (unsigned int)(MSC_Handle->unit[MSC_Handle->current_lun].capacity.block
 386              		.loc 1 425 17 view .LVU135
 428:Middlewares/ST/STM32_USB_Host_Library/Class/MSC/Src/usbh_msc.c ****                 USBH_UsrLog("Block Size   : %u", (unsigned int)(MSC_Handle->unit[MSC_Handle->curren
 387              		.loc 1 428 17 view .LVU136
 428:Middlewares/ST/STM32_USB_Host_Library/Class/MSC/Src/usbh_msc.c ****                 USBH_UsrLog("Block Size   : %u", (unsigned int)(MSC_Handle->unit[MSC_Handle->curren
 388              		.loc 1 428 17 view .LVU137
 428:Middlewares/ST/STM32_USB_Host_Library/Class/MSC/Src/usbh_msc.c ****                 USBH_UsrLog("Block Size   : %u", (unsigned int)(MSC_Handle->unit[MSC_Handle->curren
 389              		.loc 1 428 17 view .LVU138
 429:Middlewares/ST/STM32_USB_Host_Library/Class/MSC/Src/usbh_msc.c ****               }
 390              		.loc 1 429 17 view .LVU139
 429:Middlewares/ST/STM32_USB_Host_Library/Class/MSC/Src/usbh_msc.c ****               }
 391              		.loc 1 429 17 view .LVU140
 429:Middlewares/ST/STM32_USB_Host_Library/Class/MSC/Src/usbh_msc.c ****               }
 392              		.loc 1 429 17 view .LVU141
 431:Middlewares/ST/STM32_USB_Host_Library/Class/MSC/Src/usbh_msc.c ****               MSC_Handle->unit[MSC_Handle->current_lun].error = MSC_OK;
 393              		.loc 1 431 15 view .LVU142
 431:Middlewares/ST/STM32_USB_Host_Library/Class/MSC/Src/usbh_msc.c ****               MSC_Handle->unit[MSC_Handle->current_lun].error = MSC_OK;
 394              		.loc 1 431 63 is_stmt 0 view .LVU143
 395 01a0 3422     		movs	r2, #52
 396 01a2 02FB0342 		mla	r2, r2, r3, r4
 397 01a6 0120     		movs	r0, #1
 398              	.LVL27:
 431:Middlewares/ST/STM32_USB_Host_Library/Class/MSC/Src/usbh_msc.c ****               MSC_Handle->unit[MSC_Handle->current_lun].error = MSC_OK;
 399              		.loc 1 431 63 view .LVU144
 400 01a8 82F89000 		strb	r0, [r2, #144]
 432:Middlewares/ST/STM32_USB_Host_Library/Class/MSC/Src/usbh_msc.c ****               MSC_Handle->current_lun++;
 401              		.loc 1 432 15 is_stmt 1 view .LVU145
 432:Middlewares/ST/STM32_USB_Host_Library/Class/MSC/Src/usbh_msc.c ****               MSC_Handle->current_lun++;
 402              		.loc 1 432 63 is_stmt 0 view .LVU146
 403 01ac 0021     		movs	r1, #0
 404 01ae 82F89110 		strb	r1, [r2, #145]
 433:Middlewares/ST/STM32_USB_Host_Library/Class/MSC/Src/usbh_msc.c ****             }
 405              		.loc 1 433 15 is_stmt 1 view .LVU147
 433:Middlewares/ST/STM32_USB_Host_Library/Class/MSC/Src/usbh_msc.c ****             }
 406              		.loc 1 433 38 is_stmt 0 view .LVU148
 407 01b2 0344     		add	r3, r3, r0
 408 01b4 A4F8F830 		strh	r3, [r4, #248]	@ movhi
 409 01b8 30E7     		b	.L3
 410              	.LVL28:
 411              	.L21:
 435:Middlewares/ST/STM32_USB_Host_Library/Class/MSC/Src/usbh_msc.c ****             {
 412              		.loc 1 435 18 is_stmt 1 view .LVU149
 435:Middlewares/ST/STM32_USB_Host_Library/Class/MSC/Src/usbh_msc.c ****             {
 413              		.loc 1 435 21 is_stmt 0 view .LVU150
 414 01ba 0228     		cmp	r0, #2
 415 01bc 03D0     		beq	.L42
 441:Middlewares/ST/STM32_USB_Host_Library/Class/MSC/Src/usbh_msc.c ****               {
 416              		.loc 1 441 15 is_stmt 1 view .LVU151
 441:Middlewares/ST/STM32_USB_Host_Library/Class/MSC/Src/usbh_msc.c ****               {
 417              		.loc 1 441 18 is_stmt 0 view .LVU152
 418 01be 0428     		cmp	r0, #4
 419 01c0 0BD0     		beq	.L43
 329:Middlewares/ST/STM32_USB_Host_Library/Class/MSC/Src/usbh_msc.c ****   USBH_StatusTypeDef scsi_status = USBH_BUSY;
 420              		.loc 1 329 22 view .LVU153
ARM GAS  C:\Users\benny\AppData\Local\Temp\ccktZh7f.s 			page 21


 421 01c2 0120     		movs	r0, #1
 422              	.LVL29:
 329:Middlewares/ST/STM32_USB_Host_Library/Class/MSC/Src/usbh_msc.c ****   USBH_StatusTypeDef scsi_status = USBH_BUSY;
 423              		.loc 1 329 22 view .LVU154
 424 01c4 2AE7     		b	.L3
 425              	.LVL30:
 426              	.L42:
 437:Middlewares/ST/STM32_USB_Host_Library/Class/MSC/Src/usbh_msc.c ****             }
 427              		.loc 1 437 15 is_stmt 1 view .LVU155
 437:Middlewares/ST/STM32_USB_Host_Library/Class/MSC/Src/usbh_msc.c ****             }
 428              		.loc 1 437 42 is_stmt 0 view .LVU156
 429 01c6 B4F8F830 		ldrh	r3, [r4, #248]
 437:Middlewares/ST/STM32_USB_Host_Library/Class/MSC/Src/usbh_msc.c ****             }
 430              		.loc 1 437 63 view .LVU157
 431 01ca 3422     		movs	r2, #52
 432 01cc 02FB0343 		mla	r3, r2, r3, r4
 433 01d0 0522     		movs	r2, #5
 434 01d2 83F89020 		strb	r2, [r3, #144]
 329:Middlewares/ST/STM32_USB_Host_Library/Class/MSC/Src/usbh_msc.c ****   USBH_StatusTypeDef scsi_status = USBH_BUSY;
 435              		.loc 1 329 22 view .LVU158
 436 01d6 0120     		movs	r0, #1
 437              	.LVL31:
 329:Middlewares/ST/STM32_USB_Host_Library/Class/MSC/Src/usbh_msc.c ****   USBH_StatusTypeDef scsi_status = USBH_BUSY;
 438              		.loc 1 329 22 view .LVU159
 439 01d8 20E7     		b	.L3
 440              	.LVL32:
 441              	.L43:
 443:Middlewares/ST/STM32_USB_Host_Library/Class/MSC/Src/usbh_msc.c ****                 MSC_Handle->unit[MSC_Handle->current_lun].error = MSC_ERROR;
 442              		.loc 1 443 17 is_stmt 1 view .LVU160
 443:Middlewares/ST/STM32_USB_Host_Library/Class/MSC/Src/usbh_msc.c ****                 MSC_Handle->unit[MSC_Handle->current_lun].error = MSC_ERROR;
 443              		.loc 1 443 44 is_stmt 0 view .LVU161
 444 01da B4F8F830 		ldrh	r3, [r4, #248]
 443:Middlewares/ST/STM32_USB_Host_Library/Class/MSC/Src/usbh_msc.c ****                 MSC_Handle->unit[MSC_Handle->current_lun].error = MSC_ERROR;
 445              		.loc 1 443 65 view .LVU162
 446 01de 3422     		movs	r2, #52
 447 01e0 02FB0343 		mla	r3, r2, r3, r4
 448 01e4 0822     		movs	r2, #8
 449 01e6 83F89020 		strb	r2, [r3, #144]
 444:Middlewares/ST/STM32_USB_Host_Library/Class/MSC/Src/usbh_msc.c ****               }
 450              		.loc 1 444 17 is_stmt 1 view .LVU163
 444:Middlewares/ST/STM32_USB_Host_Library/Class/MSC/Src/usbh_msc.c ****               }
 451              		.loc 1 444 65 is_stmt 0 view .LVU164
 452 01ea 0222     		movs	r2, #2
 453 01ec 83F89120 		strb	r2, [r3, #145]
 329:Middlewares/ST/STM32_USB_Host_Library/Class/MSC/Src/usbh_msc.c ****   USBH_StatusTypeDef scsi_status = USBH_BUSY;
 454              		.loc 1 329 22 view .LVU165
 455 01f0 0120     		movs	r0, #1
 456              	.LVL33:
 329:Middlewares/ST/STM32_USB_Host_Library/Class/MSC/Src/usbh_msc.c ****   USBH_StatusTypeDef scsi_status = USBH_BUSY;
 457              		.loc 1 329 22 view .LVU166
 458 01f2 13E7     		b	.L3
 459              	.LVL34:
 460              	.L8:
 450:Middlewares/ST/STM32_USB_Host_Library/Class/MSC/Src/usbh_msc.c **** 
 461              		.loc 1 450 13 is_stmt 1 view .LVU167
 450:Middlewares/ST/STM32_USB_Host_Library/Class/MSC/Src/usbh_msc.c **** 
 462              		.loc 1 450 27 is_stmt 0 view .LVU168
ARM GAS  C:\Users\benny\AppData\Local\Temp\ccktZh7f.s 			page 22


 463 01f4 3422     		movs	r2, #52
 464 01f6 01FB02F2 		mul	r2, r1, r2
 465 01fa 9832     		adds	r2, r2, #152
 466 01fc 2244     		add	r2, r2, r4
 467 01fe 0432     		adds	r2, r2, #4
 468 0200 C9B2     		uxtb	r1, r1
 469 0202 FFF7FEFF 		bl	USBH_MSC_SCSI_RequestSense
 470              	.LVL35:
 452:Middlewares/ST/STM32_USB_Host_Library/Class/MSC/Src/usbh_msc.c ****             {
 471              		.loc 1 452 13 is_stmt 1 view .LVU169
 452:Middlewares/ST/STM32_USB_Host_Library/Class/MSC/Src/usbh_msc.c ****             {
 472              		.loc 1 452 16 is_stmt 0 view .LVU170
 473 0206 28BB     		cbnz	r0, .L23
 454:Middlewares/ST/STM32_USB_Host_Library/Class/MSC/Src/usbh_msc.c ****                   (MSC_Handle->unit[MSC_Handle->current_lun].sense.key == SCSI_SENSE_KEY_NOT_READY)
 474              		.loc 1 454 15 is_stmt 1 view .LVU171
 454:Middlewares/ST/STM32_USB_Host_Library/Class/MSC/Src/usbh_msc.c ****                   (MSC_Handle->unit[MSC_Handle->current_lun].sense.key == SCSI_SENSE_KEY_NOT_READY)
 475              		.loc 1 454 47 is_stmt 0 view .LVU172
 476 0208 B4F8F830 		ldrh	r3, [r4, #248]
 454:Middlewares/ST/STM32_USB_Host_Library/Class/MSC/Src/usbh_msc.c ****                   (MSC_Handle->unit[MSC_Handle->current_lun].sense.key == SCSI_SENSE_KEY_NOT_READY)
 477              		.loc 1 454 67 view .LVU173
 478 020c 3422     		movs	r2, #52
 479 020e 02FB0342 		mla	r2, r2, r3, r4
 480 0212 92F89C20 		ldrb	r2, [r2, #156]	@ zero_extendqisi2
 454:Middlewares/ST/STM32_USB_Host_Library/Class/MSC/Src/usbh_msc.c ****                   (MSC_Handle->unit[MSC_Handle->current_lun].sense.key == SCSI_SENSE_KEY_NOT_READY)
 481              		.loc 1 454 18 view .LVU174
 482 0216 022A     		cmp	r2, #2
 483 0218 18BF     		it	ne
 484 021a 062A     		cmpne	r2, #6
 485 021c 10D1     		bne	.L24
 458:Middlewares/ST/STM32_USB_Host_Library/Class/MSC/Src/usbh_msc.c ****                 {
 486              		.loc 1 458 17 is_stmt 1 view .LVU175
 458:Middlewares/ST/STM32_USB_Host_Library/Class/MSC/Src/usbh_msc.c ****                 {
 487              		.loc 1 458 27 is_stmt 0 view .LVU176
 488 021e D5F89424 		ldr	r2, [r5, #1172]
 458:Middlewares/ST/STM32_USB_Host_Library/Class/MSC/Src/usbh_msc.c ****                 {
 489              		.loc 1 458 47 view .LVU177
 490 0222 D4F80011 		ldr	r1, [r4, #256]
 458:Middlewares/ST/STM32_USB_Host_Library/Class/MSC/Src/usbh_msc.c ****                 {
 491              		.loc 1 458 35 view .LVU178
 492 0226 521A     		subs	r2, r2, r1
 458:Middlewares/ST/STM32_USB_Host_Library/Class/MSC/Src/usbh_msc.c ****                 {
 493              		.loc 1 458 20 view .LVU179
 494 0228 42F20F71 		movw	r1, #9999
 495 022c 8A42     		cmp	r2, r1
 496 022e 07D8     		bhi	.L24
 460:Middlewares/ST/STM32_USB_Host_Library/Class/MSC/Src/usbh_msc.c ****                   break;
 497              		.loc 1 460 19 is_stmt 1 view .LVU180
 460:Middlewares/ST/STM32_USB_Host_Library/Class/MSC/Src/usbh_msc.c ****                   break;
 498              		.loc 1 460 67 is_stmt 0 view .LVU181
 499 0230 3422     		movs	r2, #52
 500 0232 02FB0343 		mla	r3, r2, r3, r4
 501 0236 0222     		movs	r2, #2
 502 0238 83F89020 		strb	r2, [r3, #144]
 461:Middlewares/ST/STM32_USB_Host_Library/Class/MSC/Src/usbh_msc.c ****                 }
 503              		.loc 1 461 19 is_stmt 1 view .LVU182
 329:Middlewares/ST/STM32_USB_Host_Library/Class/MSC/Src/usbh_msc.c ****   USBH_StatusTypeDef scsi_status = USBH_BUSY;
 504              		.loc 1 329 22 is_stmt 0 view .LVU183
ARM GAS  C:\Users\benny\AppData\Local\Temp\ccktZh7f.s 			page 23


 505 023c 0120     		movs	r0, #1
 506              	.LVL36:
 461:Middlewares/ST/STM32_USB_Host_Library/Class/MSC/Src/usbh_msc.c ****                 }
 507              		.loc 1 461 19 view .LVU184
 508 023e EDE6     		b	.L3
 509              	.LVL37:
 510              	.L24:
 465:Middlewares/ST/STM32_USB_Host_Library/Class/MSC/Src/usbh_msc.c ****               USBH_UsrLog("Additional Sense Code : %x", MSC_Handle->unit[MSC_Handle->current_lun].s
 511              		.loc 1 465 15 is_stmt 1 view .LVU185
 465:Middlewares/ST/STM32_USB_Host_Library/Class/MSC/Src/usbh_msc.c ****               USBH_UsrLog("Additional Sense Code : %x", MSC_Handle->unit[MSC_Handle->current_lun].s
 512              		.loc 1 465 15 view .LVU186
 465:Middlewares/ST/STM32_USB_Host_Library/Class/MSC/Src/usbh_msc.c ****               USBH_UsrLog("Additional Sense Code : %x", MSC_Handle->unit[MSC_Handle->current_lun].s
 513              		.loc 1 465 15 view .LVU187
 466:Middlewares/ST/STM32_USB_Host_Library/Class/MSC/Src/usbh_msc.c ****               USBH_UsrLog("Additional Sense Code Qualifier: %x", MSC_Handle->unit[MSC_Handle->curre
 514              		.loc 1 466 15 view .LVU188
 466:Middlewares/ST/STM32_USB_Host_Library/Class/MSC/Src/usbh_msc.c ****               USBH_UsrLog("Additional Sense Code Qualifier: %x", MSC_Handle->unit[MSC_Handle->curre
 515              		.loc 1 466 15 view .LVU189
 466:Middlewares/ST/STM32_USB_Host_Library/Class/MSC/Src/usbh_msc.c ****               USBH_UsrLog("Additional Sense Code Qualifier: %x", MSC_Handle->unit[MSC_Handle->curre
 516              		.loc 1 466 15 view .LVU190
 467:Middlewares/ST/STM32_USB_Host_Library/Class/MSC/Src/usbh_msc.c ****               MSC_Handle->unit[MSC_Handle->current_lun].state = MSC_IDLE;
 517              		.loc 1 467 15 view .LVU191
 467:Middlewares/ST/STM32_USB_Host_Library/Class/MSC/Src/usbh_msc.c ****               MSC_Handle->unit[MSC_Handle->current_lun].state = MSC_IDLE;
 518              		.loc 1 467 15 view .LVU192
 467:Middlewares/ST/STM32_USB_Host_Library/Class/MSC/Src/usbh_msc.c ****               MSC_Handle->unit[MSC_Handle->current_lun].state = MSC_IDLE;
 519              		.loc 1 467 15 view .LVU193
 468:Middlewares/ST/STM32_USB_Host_Library/Class/MSC/Src/usbh_msc.c ****               MSC_Handle->current_lun++;
 520              		.loc 1 468 15 view .LVU194
 468:Middlewares/ST/STM32_USB_Host_Library/Class/MSC/Src/usbh_msc.c ****               MSC_Handle->current_lun++;
 521              		.loc 1 468 63 is_stmt 0 view .LVU195
 522 0240 3422     		movs	r2, #52
 523 0242 02FB0342 		mla	r2, r2, r3, r4
 524 0246 0120     		movs	r0, #1
 525              	.LVL38:
 468:Middlewares/ST/STM32_USB_Host_Library/Class/MSC/Src/usbh_msc.c ****               MSC_Handle->current_lun++;
 526              		.loc 1 468 63 view .LVU196
 527 0248 82F89000 		strb	r0, [r2, #144]
 469:Middlewares/ST/STM32_USB_Host_Library/Class/MSC/Src/usbh_msc.c ****             }
 528              		.loc 1 469 15 is_stmt 1 view .LVU197
 469:Middlewares/ST/STM32_USB_Host_Library/Class/MSC/Src/usbh_msc.c ****             }
 529              		.loc 1 469 38 is_stmt 0 view .LVU198
 530 024c 0344     		add	r3, r3, r0
 531 024e A4F8F830 		strh	r3, [r4, #248]	@ movhi
 532 0252 E3E6     		b	.L3
 533              	.LVL39:
 534              	.L23:
 471:Middlewares/ST/STM32_USB_Host_Library/Class/MSC/Src/usbh_msc.c ****             {
 535              		.loc 1 471 18 is_stmt 1 view .LVU199
 471:Middlewares/ST/STM32_USB_Host_Library/Class/MSC/Src/usbh_msc.c ****             {
 536              		.loc 1 471 21 is_stmt 0 view .LVU200
 537 0254 0228     		cmp	r0, #2
 538 0256 03D0     		beq	.L44
 479:Middlewares/ST/STM32_USB_Host_Library/Class/MSC/Src/usbh_msc.c ****               {
 539              		.loc 1 479 15 is_stmt 1 view .LVU201
 479:Middlewares/ST/STM32_USB_Host_Library/Class/MSC/Src/usbh_msc.c ****               {
 540              		.loc 1 479 18 is_stmt 0 view .LVU202
 541 0258 0428     		cmp	r0, #4
 542 025a 0ED0     		beq	.L45
ARM GAS  C:\Users\benny\AppData\Local\Temp\ccktZh7f.s 			page 24


 329:Middlewares/ST/STM32_USB_Host_Library/Class/MSC/Src/usbh_msc.c ****   USBH_StatusTypeDef scsi_status = USBH_BUSY;
 543              		.loc 1 329 22 view .LVU203
 544 025c 0120     		movs	r0, #1
 545              	.LVL40:
 329:Middlewares/ST/STM32_USB_Host_Library/Class/MSC/Src/usbh_msc.c ****   USBH_StatusTypeDef scsi_status = USBH_BUSY;
 546              		.loc 1 329 22 view .LVU204
 547 025e DDE6     		b	.L3
 548              	.LVL41:
 549              	.L44:
 473:Middlewares/ST/STM32_USB_Host_Library/Class/MSC/Src/usbh_msc.c ****               MSC_Handle->unit[MSC_Handle->current_lun].state = MSC_UNRECOVERED_ERROR;
 550              		.loc 1 473 15 is_stmt 1 view .LVU205
 473:Middlewares/ST/STM32_USB_Host_Library/Class/MSC/Src/usbh_msc.c ****               MSC_Handle->unit[MSC_Handle->current_lun].state = MSC_UNRECOVERED_ERROR;
 551              		.loc 1 473 15 view .LVU206
 473:Middlewares/ST/STM32_USB_Host_Library/Class/MSC/Src/usbh_msc.c ****               MSC_Handle->unit[MSC_Handle->current_lun].state = MSC_UNRECOVERED_ERROR;
 552              		.loc 1 473 15 view .LVU207
 474:Middlewares/ST/STM32_USB_Host_Library/Class/MSC/Src/usbh_msc.c ****               MSC_Handle->unit[MSC_Handle->current_lun].error = MSC_ERROR;
 553              		.loc 1 474 15 view .LVU208
 474:Middlewares/ST/STM32_USB_Host_Library/Class/MSC/Src/usbh_msc.c ****               MSC_Handle->unit[MSC_Handle->current_lun].error = MSC_ERROR;
 554              		.loc 1 474 42 is_stmt 0 view .LVU209
 555 0260 B4F8F830 		ldrh	r3, [r4, #248]
 474:Middlewares/ST/STM32_USB_Host_Library/Class/MSC/Src/usbh_msc.c ****               MSC_Handle->unit[MSC_Handle->current_lun].error = MSC_ERROR;
 556              		.loc 1 474 63 view .LVU210
 557 0264 3422     		movs	r2, #52
 558 0266 02FB0343 		mla	r3, r2, r3, r4
 559 026a 0822     		movs	r2, #8
 560 026c 83F89020 		strb	r2, [r3, #144]
 475:Middlewares/ST/STM32_USB_Host_Library/Class/MSC/Src/usbh_msc.c ****             }
 561              		.loc 1 475 15 is_stmt 1 view .LVU211
 475:Middlewares/ST/STM32_USB_Host_Library/Class/MSC/Src/usbh_msc.c ****             }
 562              		.loc 1 475 63 is_stmt 0 view .LVU212
 563 0270 0222     		movs	r2, #2
 564 0272 83F89120 		strb	r2, [r3, #145]
 329:Middlewares/ST/STM32_USB_Host_Library/Class/MSC/Src/usbh_msc.c ****   USBH_StatusTypeDef scsi_status = USBH_BUSY;
 565              		.loc 1 329 22 view .LVU213
 566 0276 0120     		movs	r0, #1
 567              	.LVL42:
 329:Middlewares/ST/STM32_USB_Host_Library/Class/MSC/Src/usbh_msc.c ****   USBH_StatusTypeDef scsi_status = USBH_BUSY;
 568              		.loc 1 329 22 view .LVU214
 569 0278 D0E6     		b	.L3
 570              	.LVL43:
 571              	.L45:
 481:Middlewares/ST/STM32_USB_Host_Library/Class/MSC/Src/usbh_msc.c ****                 MSC_Handle->unit[MSC_Handle->current_lun].error = MSC_ERROR;
 572              		.loc 1 481 17 is_stmt 1 view .LVU215
 481:Middlewares/ST/STM32_USB_Host_Library/Class/MSC/Src/usbh_msc.c ****                 MSC_Handle->unit[MSC_Handle->current_lun].error = MSC_ERROR;
 573              		.loc 1 481 44 is_stmt 0 view .LVU216
 574 027a B4F8F830 		ldrh	r3, [r4, #248]
 481:Middlewares/ST/STM32_USB_Host_Library/Class/MSC/Src/usbh_msc.c ****                 MSC_Handle->unit[MSC_Handle->current_lun].error = MSC_ERROR;
 575              		.loc 1 481 65 view .LVU217
 576 027e 3422     		movs	r2, #52
 577 0280 02FB0343 		mla	r3, r2, r3, r4
 578 0284 0822     		movs	r2, #8
 579 0286 83F89020 		strb	r2, [r3, #144]
 482:Middlewares/ST/STM32_USB_Host_Library/Class/MSC/Src/usbh_msc.c ****               }
 580              		.loc 1 482 17 is_stmt 1 view .LVU218
 482:Middlewares/ST/STM32_USB_Host_Library/Class/MSC/Src/usbh_msc.c ****               }
 581              		.loc 1 482 65 is_stmt 0 view .LVU219
 582 028a 0222     		movs	r2, #2
ARM GAS  C:\Users\benny\AppData\Local\Temp\ccktZh7f.s 			page 25


 583 028c 83F89120 		strb	r2, [r3, #145]
 329:Middlewares/ST/STM32_USB_Host_Library/Class/MSC/Src/usbh_msc.c ****   USBH_StatusTypeDef scsi_status = USBH_BUSY;
 584              		.loc 1 329 22 view .LVU220
 585 0290 0120     		movs	r0, #1
 586              	.LVL44:
 329:Middlewares/ST/STM32_USB_Host_Library/Class/MSC/Src/usbh_msc.c ****   USBH_StatusTypeDef scsi_status = USBH_BUSY;
 587              		.loc 1 329 22 view .LVU221
 588 0292 C3E6     		b	.L3
 589              	.LVL45:
 590              	.L6:
 488:Middlewares/ST/STM32_USB_Host_Library/Class/MSC/Src/usbh_msc.c ****             break;
 591              		.loc 1 488 13 is_stmt 1 view .LVU222
 488:Middlewares/ST/STM32_USB_Host_Library/Class/MSC/Src/usbh_msc.c ****             break;
 592              		.loc 1 488 36 is_stmt 0 view .LVU223
 593 0294 0131     		adds	r1, r1, #1
 594 0296 A4F8F810 		strh	r1, [r4, #248]	@ movhi
 489:Middlewares/ST/STM32_USB_Host_Library/Class/MSC/Src/usbh_msc.c **** 
 595              		.loc 1 489 13 is_stmt 1 view .LVU224
 329:Middlewares/ST/STM32_USB_Host_Library/Class/MSC/Src/usbh_msc.c ****   USBH_StatusTypeDef scsi_status = USBH_BUSY;
 596              		.loc 1 329 22 is_stmt 0 view .LVU225
 597 029a 0120     		movs	r0, #1
 598              	.LVL46:
 489:Middlewares/ST/STM32_USB_Host_Library/Class/MSC/Src/usbh_msc.c **** 
 599              		.loc 1 489 13 view .LVU226
 600 029c BEE6     		b	.L3
 601              	.LVL47:
 602              	.L5:
 506:Middlewares/ST/STM32_USB_Host_Library/Class/MSC/Src/usbh_msc.c ****         MSC_Handle->state = MSC_USER_NOTIFY;
 603              		.loc 1 506 9 is_stmt 1 view .LVU227
 506:Middlewares/ST/STM32_USB_Host_Library/Class/MSC/Src/usbh_msc.c ****         MSC_Handle->state = MSC_USER_NOTIFY;
 604              		.loc 1 506 33 is_stmt 0 view .LVU228
 605 029e 0023     		movs	r3, #0
 606 02a0 A4F8F830 		strh	r3, [r4, #248]	@ movhi
 507:Middlewares/ST/STM32_USB_Host_Library/Class/MSC/Src/usbh_msc.c **** 
 607              		.loc 1 507 9 is_stmt 1 view .LVU229
 507:Middlewares/ST/STM32_USB_Host_Library/Class/MSC/Src/usbh_msc.c **** 
 608              		.loc 1 507 27 is_stmt 0 view .LVU230
 609 02a4 0A23     		movs	r3, #10
 610 02a6 2373     		strb	r3, [r4, #12]
 329:Middlewares/ST/STM32_USB_Host_Library/Class/MSC/Src/usbh_msc.c ****   USBH_StatusTypeDef scsi_status = USBH_BUSY;
 611              		.loc 1 329 22 view .LVU231
 612 02a8 0120     		movs	r0, #1
 613              	.LVL48:
 329:Middlewares/ST/STM32_USB_Host_Library/Class/MSC/Src/usbh_msc.c ****   USBH_StatusTypeDef scsi_status = USBH_BUSY;
 614              		.loc 1 329 22 view .LVU232
 615 02aa B7E6     		b	.L3
 616              	.LVL49:
 617              	.L4:
 521:Middlewares/ST/STM32_USB_Host_Library/Class/MSC/Src/usbh_msc.c ****       {
 618              		.loc 1 521 7 is_stmt 1 view .LVU233
 521:Middlewares/ST/STM32_USB_Host_Library/Class/MSC/Src/usbh_msc.c ****       {
 619              		.loc 1 521 21 is_stmt 0 view .LVU234
 620 02ac B4F8FA30 		ldrh	r3, [r4, #250]
 521:Middlewares/ST/STM32_USB_Host_Library/Class/MSC/Src/usbh_msc.c ****       {
 621              		.loc 1 521 39 view .LVU235
 622 02b0 2278     		ldrb	r2, [r4]	@ zero_extendqisi2
 521:Middlewares/ST/STM32_USB_Host_Library/Class/MSC/Src/usbh_msc.c ****       {
ARM GAS  C:\Users\benny\AppData\Local\Temp\ccktZh7f.s 			page 26


 623              		.loc 1 521 10 view .LVU236
 624 02b2 9342     		cmp	r3, r2
 625 02b4 17D2     		bcs	.L26
 523:Middlewares/ST/STM32_USB_Host_Library/Class/MSC/Src/usbh_msc.c ****         if (MSC_Handle->unit[MSC_Handle->current_lun].error == MSC_OK)
 626              		.loc 1 523 9 is_stmt 1 view .LVU237
 523:Middlewares/ST/STM32_USB_Host_Library/Class/MSC/Src/usbh_msc.c ****         if (MSC_Handle->unit[MSC_Handle->current_lun].error == MSC_OK)
 627              		.loc 1 523 33 is_stmt 0 view .LVU238
 628 02b6 A4F8F830 		strh	r3, [r4, #248]	@ movhi
 524:Middlewares/ST/STM32_USB_Host_Library/Class/MSC/Src/usbh_msc.c ****         {
 629              		.loc 1 524 9 is_stmt 1 view .LVU239
 524:Middlewares/ST/STM32_USB_Host_Library/Class/MSC/Src/usbh_msc.c ****         {
 630              		.loc 1 524 54 is_stmt 0 view .LVU240
 631 02ba 3422     		movs	r2, #52
 632 02bc 02FB0343 		mla	r3, r2, r3, r4
 633 02c0 93F89130 		ldrb	r3, [r3, #145]	@ zero_extendqisi2
 524:Middlewares/ST/STM32_USB_Host_Library/Class/MSC/Src/usbh_msc.c ****         {
 634              		.loc 1 524 12 view .LVU241
 635 02c4 53B9     		cbnz	r3, .L27
 526:Middlewares/ST/STM32_USB_Host_Library/Class/MSC/Src/usbh_msc.c ****         }
 636              		.loc 1 526 11 is_stmt 1 view .LVU242
 526:Middlewares/ST/STM32_USB_Host_Library/Class/MSC/Src/usbh_msc.c ****         }
 637              		.loc 1 526 16 is_stmt 0 view .LVU243
 638 02c6 D0F8A434 		ldr	r3, [r0, #1188]
 526:Middlewares/ST/STM32_USB_Host_Library/Class/MSC/Src/usbh_msc.c ****         }
 639              		.loc 1 526 11 view .LVU244
 640 02ca 0221     		movs	r1, #2
 641 02cc 9847     		blx	r3
 642              	.LVL50:
 643              	.L28:
 533:Middlewares/ST/STM32_USB_Host_Library/Class/MSC/Src/usbh_msc.c ****       }
 644              		.loc 1 533 9 is_stmt 1 view .LVU245
 533:Middlewares/ST/STM32_USB_Host_Library/Class/MSC/Src/usbh_msc.c ****       }
 645              		.loc 1 533 19 is_stmt 0 view .LVU246
 646 02ce B4F8FA30 		ldrh	r3, [r4, #250]
 533:Middlewares/ST/STM32_USB_Host_Library/Class/MSC/Src/usbh_msc.c ****       }
 647              		.loc 1 533 24 view .LVU247
 648 02d2 0133     		adds	r3, r3, #1
 649 02d4 A4F8FA30 		strh	r3, [r4, #250]	@ movhi
 329:Middlewares/ST/STM32_USB_Host_Library/Class/MSC/Src/usbh_msc.c ****   USBH_StatusTypeDef scsi_status = USBH_BUSY;
 650              		.loc 1 329 22 view .LVU248
 651 02d8 0120     		movs	r0, #1
 652 02da 9FE6     		b	.L3
 653              	.LVL51:
 654              	.L27:
 530:Middlewares/ST/STM32_USB_Host_Library/Class/MSC/Src/usbh_msc.c ****         }
 655              		.loc 1 530 11 is_stmt 1 view .LVU249
 530:Middlewares/ST/STM32_USB_Host_Library/Class/MSC/Src/usbh_msc.c ****         }
 656              		.loc 1 530 16 is_stmt 0 view .LVU250
 657 02dc D0F8A434 		ldr	r3, [r0, #1188]
 530:Middlewares/ST/STM32_USB_Host_Library/Class/MSC/Src/usbh_msc.c ****         }
 658              		.loc 1 530 11 view .LVU251
 659 02e0 0621     		movs	r1, #6
 660 02e2 9847     		blx	r3
 661              	.LVL52:
 530:Middlewares/ST/STM32_USB_Host_Library/Class/MSC/Src/usbh_msc.c ****         }
 662              		.loc 1 530 11 view .LVU252
 663 02e4 F3E7     		b	.L28
ARM GAS  C:\Users\benny\AppData\Local\Temp\ccktZh7f.s 			page 27


 664              	.LVL53:
 665              	.L26:
 537:Middlewares/ST/STM32_USB_Host_Library/Class/MSC/Src/usbh_msc.c ****         MSC_Handle->state = MSC_IDLE;
 666              		.loc 1 537 9 is_stmt 1 view .LVU253
 537:Middlewares/ST/STM32_USB_Host_Library/Class/MSC/Src/usbh_msc.c ****         MSC_Handle->state = MSC_IDLE;
 667              		.loc 1 537 25 is_stmt 0 view .LVU254
 668 02e6 0023     		movs	r3, #0
 669 02e8 A4F8FA30 		strh	r3, [r4, #250]	@ movhi
 538:Middlewares/ST/STM32_USB_Host_Library/Class/MSC/Src/usbh_msc.c ****       }
 670              		.loc 1 538 9 is_stmt 1 view .LVU255
 538:Middlewares/ST/STM32_USB_Host_Library/Class/MSC/Src/usbh_msc.c ****       }
 671              		.loc 1 538 27 is_stmt 0 view .LVU256
 672 02ec 0120     		movs	r0, #1
 673              	.LVL54:
 538:Middlewares/ST/STM32_USB_Host_Library/Class/MSC/Src/usbh_msc.c ****       }
 674              		.loc 1 538 27 view .LVU257
 675 02ee 2073     		strb	r0, [r4, #12]
 676 02f0 94E6     		b	.L3
 677              	.LVL55:
 678              	.L29:
 552:Middlewares/ST/STM32_USB_Host_Library/Class/MSC/Src/usbh_msc.c ****       break;
 679              		.loc 1 552 13 view .LVU258
 680 02f2 0020     		movs	r0, #0
 681              	.LVL56:
 552:Middlewares/ST/STM32_USB_Host_Library/Class/MSC/Src/usbh_msc.c ****       break;
 682              		.loc 1 552 13 view .LVU259
 683 02f4 92E6     		b	.L3
 684              	.LVL57:
 685              	.L31:
 552:Middlewares/ST/STM32_USB_Host_Library/Class/MSC/Src/usbh_msc.c ****       break;
 686              		.loc 1 552 13 view .LVU260
 687 02f6 0120     		movs	r0, #1
 688              	.LVL58:
 552:Middlewares/ST/STM32_USB_Host_Library/Class/MSC/Src/usbh_msc.c ****       break;
 689              		.loc 1 552 13 view .LVU261
 690 02f8 90E6     		b	.L3
 691              		.cfi_endproc
 692              	.LFE147:
 694              		.section	.text.USBH_MSC_ClassRequest,"ax",%progbits
 695              		.align	1
 696              		.syntax unified
 697              		.thumb
 698              		.thumb_func
 700              	USBH_MSC_ClassRequest:
 701              	.LVL59:
 702              	.LFB146:
 270:Middlewares/ST/STM32_USB_Host_Library/Class/MSC/Src/usbh_msc.c ****   MSC_HandleTypeDef *MSC_Handle = (MSC_HandleTypeDef *) phost->pActiveClass->pData;
 703              		.loc 1 270 1 is_stmt 1 view -0
 704              		.cfi_startproc
 705              		@ args = 0, pretend = 0, frame = 0
 706              		@ frame_needed = 0, uses_anonymous_args = 0
 270:Middlewares/ST/STM32_USB_Host_Library/Class/MSC/Src/usbh_msc.c ****   MSC_HandleTypeDef *MSC_Handle = (MSC_HandleTypeDef *) phost->pActiveClass->pData;
 707              		.loc 1 270 1 is_stmt 0 view .LVU263
 708 0000 10B5     		push	{r4, lr}
 709              	.LCFI1:
 710              		.cfi_def_cfa_offset 8
 711              		.cfi_offset 4, -8
ARM GAS  C:\Users\benny\AppData\Local\Temp\ccktZh7f.s 			page 28


 712              		.cfi_offset 14, -4
 271:Middlewares/ST/STM32_USB_Host_Library/Class/MSC/Src/usbh_msc.c ****   USBH_StatusTypeDef status = USBH_BUSY;
 713              		.loc 1 271 3 is_stmt 1 view .LVU264
 271:Middlewares/ST/STM32_USB_Host_Library/Class/MSC/Src/usbh_msc.c ****   USBH_StatusTypeDef status = USBH_BUSY;
 714              		.loc 1 271 62 is_stmt 0 view .LVU265
 715 0002 D0F84C34 		ldr	r3, [r0, #1100]
 271:Middlewares/ST/STM32_USB_Host_Library/Class/MSC/Src/usbh_msc.c ****   USBH_StatusTypeDef status = USBH_BUSY;
 716              		.loc 1 271 22 view .LVU266
 717 0006 DC69     		ldr	r4, [r3, #28]
 718              	.LVL60:
 272:Middlewares/ST/STM32_USB_Host_Library/Class/MSC/Src/usbh_msc.c ****   uint8_t lun_idx;
 719              		.loc 1 272 3 is_stmt 1 view .LVU267
 273:Middlewares/ST/STM32_USB_Host_Library/Class/MSC/Src/usbh_msc.c **** 
 720              		.loc 1 273 3 view .LVU268
 276:Middlewares/ST/STM32_USB_Host_Library/Class/MSC/Src/usbh_msc.c ****   {
 721              		.loc 1 276 3 view .LVU269
 276:Middlewares/ST/STM32_USB_Host_Library/Class/MSC/Src/usbh_msc.c ****   {
 722              		.loc 1 276 21 is_stmt 0 view .LVU270
 723 0008 A37B     		ldrb	r3, [r4, #14]	@ zero_extendqisi2
 276:Middlewares/ST/STM32_USB_Host_Library/Class/MSC/Src/usbh_msc.c ****   {
 724              		.loc 1 276 3 view .LVU271
 725 000a 022B     		cmp	r3, #2
 726 000c 04D0     		beq	.L47
 727 000e 032B     		cmp	r3, #3
 728 0010 25D0     		beq	.L48
 729 0012 0BB1     		cbz	r3, .L47
 730 0014 0120     		movs	r0, #1
 731              	.LVL61:
 732              	.L49:
 317:Middlewares/ST/STM32_USB_Host_Library/Class/MSC/Src/usbh_msc.c **** }
 733              		.loc 1 317 3 is_stmt 1 view .LVU272
 318:Middlewares/ST/STM32_USB_Host_Library/Class/MSC/Src/usbh_msc.c **** 
 734              		.loc 1 318 1 is_stmt 0 view .LVU273
 735 0016 10BD     		pop	{r4, pc}
 736              	.LVL62:
 737              	.L47:
 282:Middlewares/ST/STM32_USB_Host_Library/Class/MSC/Src/usbh_msc.c **** 
 738              		.loc 1 282 7 is_stmt 1 view .LVU274
 282:Middlewares/ST/STM32_USB_Host_Library/Class/MSC/Src/usbh_msc.c **** 
 739              		.loc 1 282 16 is_stmt 0 view .LVU275
 740 0018 2146     		mov	r1, r4
 741 001a FFF7FEFF 		bl	USBH_MSC_BOT_REQ_GetMaxLUN
 742              	.LVL63:
 286:Middlewares/ST/STM32_USB_Host_Library/Class/MSC/Src/usbh_msc.c ****       {
 743              		.loc 1 286 7 is_stmt 1 view .LVU276
 286:Middlewares/ST/STM32_USB_Host_Library/Class/MSC/Src/usbh_msc.c ****       {
 744              		.loc 1 286 10 is_stmt 0 view .LVU277
 745 001e 0328     		cmp	r0, #3
 746 0020 02D0     		beq	.L59
 292:Middlewares/ST/STM32_USB_Host_Library/Class/MSC/Src/usbh_msc.c ****       {
 747              		.loc 1 292 7 is_stmt 1 view .LVU278
 292:Middlewares/ST/STM32_USB_Host_Library/Class/MSC/Src/usbh_msc.c ****       {
 748              		.loc 1 292 10 is_stmt 0 view .LVU279
 749 0022 0028     		cmp	r0, #0
 750 0024 F7D1     		bne	.L49
 751 0026 01E0     		b	.L51
 752              	.L59:
ARM GAS  C:\Users\benny\AppData\Local\Temp\ccktZh7f.s 			page 29


 288:Middlewares/ST/STM32_USB_Host_Library/Class/MSC/Src/usbh_msc.c ****         status = USBH_OK;
 753              		.loc 1 288 9 is_stmt 1 view .LVU280
 288:Middlewares/ST/STM32_USB_Host_Library/Class/MSC/Src/usbh_msc.c ****         status = USBH_OK;
 754              		.loc 1 288 29 is_stmt 0 view .LVU281
 755 0028 0020     		movs	r0, #0
 756              	.LVL64:
 288:Middlewares/ST/STM32_USB_Host_Library/Class/MSC/Src/usbh_msc.c ****         status = USBH_OK;
 757              		.loc 1 288 29 view .LVU282
 758 002a 2070     		strb	r0, [r4]
 289:Middlewares/ST/STM32_USB_Host_Library/Class/MSC/Src/usbh_msc.c ****       }
 759              		.loc 1 289 9 is_stmt 1 view .LVU283
 760              	.LVL65:
 292:Middlewares/ST/STM32_USB_Host_Library/Class/MSC/Src/usbh_msc.c ****       {
 761              		.loc 1 292 7 view .LVU284
 762              	.L51:
 294:Middlewares/ST/STM32_USB_Host_Library/Class/MSC/Src/usbh_msc.c ****         USBH_UsrLog("Number of supported LUN: %d", MSC_Handle->max_lun);
 763              		.loc 1 294 9 view .LVU285
 294:Middlewares/ST/STM32_USB_Host_Library/Class/MSC/Src/usbh_msc.c ****         USBH_UsrLog("Number of supported LUN: %d", MSC_Handle->max_lun);
 764              		.loc 1 294 42 is_stmt 0 view .LVU286
 765 002c 2178     		ldrb	r1, [r4]	@ zero_extendqisi2
 294:Middlewares/ST/STM32_USB_Host_Library/Class/MSC/Src/usbh_msc.c ****         USBH_UsrLog("Number of supported LUN: %d", MSC_Handle->max_lun);
 766              		.loc 1 294 29 view .LVU287
 767 002e 0229     		cmp	r1, #2
 768 0030 13D8     		bhi	.L56
 294:Middlewares/ST/STM32_USB_Host_Library/Class/MSC/Src/usbh_msc.c ****         USBH_UsrLog("Number of supported LUN: %d", MSC_Handle->max_lun);
 769              		.loc 1 294 29 discriminator 1 view .LVU288
 770 0032 0131     		adds	r1, r1, #1
 771 0034 C9B2     		uxtb	r1, r1
 772              	.L52:
 294:Middlewares/ST/STM32_USB_Host_Library/Class/MSC/Src/usbh_msc.c ****         USBH_UsrLog("Number of supported LUN: %d", MSC_Handle->max_lun);
 773              		.loc 1 294 29 discriminator 4 view .LVU289
 774 0036 2170     		strb	r1, [r4]
 295:Middlewares/ST/STM32_USB_Host_Library/Class/MSC/Src/usbh_msc.c **** 
 775              		.loc 1 295 9 is_stmt 1 discriminator 4 view .LVU290
 295:Middlewares/ST/STM32_USB_Host_Library/Class/MSC/Src/usbh_msc.c **** 
 776              		.loc 1 295 9 discriminator 4 view .LVU291
 295:Middlewares/ST/STM32_USB_Host_Library/Class/MSC/Src/usbh_msc.c **** 
 777              		.loc 1 295 9 discriminator 4 view .LVU292
 297:Middlewares/ST/STM32_USB_Host_Library/Class/MSC/Src/usbh_msc.c ****         {
 778              		.loc 1 297 9 discriminator 4 view .LVU293
 779              	.LVL66:
 297:Middlewares/ST/STM32_USB_Host_Library/Class/MSC/Src/usbh_msc.c ****         {
 780              		.loc 1 297 22 is_stmt 0 discriminator 4 view .LVU294
 781 0038 0023     		movs	r3, #0
 782              	.LVL67:
 783              	.L53:
 297:Middlewares/ST/STM32_USB_Host_Library/Class/MSC/Src/usbh_msc.c ****         {
 784              		.loc 1 297 36 is_stmt 1 discriminator 1 view .LVU295
 785 003a 8B42     		cmp	r3, r1
 786 003c EBD2     		bcs	.L49
 299:Middlewares/ST/STM32_USB_Host_Library/Class/MSC/Src/usbh_msc.c ****           MSC_Handle->unit[lun_idx].state_changed = 0U;
 787              		.loc 1 299 11 discriminator 3 view .LVU296
 299:Middlewares/ST/STM32_USB_Host_Library/Class/MSC/Src/usbh_msc.c ****           MSC_Handle->unit[lun_idx].state_changed = 0U;
 788              		.loc 1 299 54 is_stmt 0 discriminator 3 view .LVU297
 789 003e 3422     		movs	r2, #52
 790 0040 02FB0342 		mla	r2, r2, r3, r4
 791 0044 4FF0020C 		mov	ip, #2
ARM GAS  C:\Users\benny\AppData\Local\Temp\ccktZh7f.s 			page 30


 792 0048 82F892C0 		strb	ip, [r2, #146]
 300:Middlewares/ST/STM32_USB_Host_Library/Class/MSC/Src/usbh_msc.c ****         }
 793              		.loc 1 300 11 is_stmt 1 discriminator 3 view .LVU298
 300:Middlewares/ST/STM32_USB_Host_Library/Class/MSC/Src/usbh_msc.c ****         }
 794              		.loc 1 300 51 is_stmt 0 discriminator 3 view .LVU299
 795 004c 4FF0000C 		mov	ip, #0
 796 0050 82F8C1C0 		strb	ip, [r2, #193]
 297:Middlewares/ST/STM32_USB_Host_Library/Class/MSC/Src/usbh_msc.c ****         {
 797              		.loc 1 297 66 is_stmt 1 discriminator 3 view .LVU300
 798 0054 0133     		adds	r3, r3, #1
 799              	.LVL68:
 297:Middlewares/ST/STM32_USB_Host_Library/Class/MSC/Src/usbh_msc.c ****         {
 800              		.loc 1 297 66 is_stmt 0 discriminator 3 view .LVU301
 801 0056 DBB2     		uxtb	r3, r3
 802              	.LVL69:
 297:Middlewares/ST/STM32_USB_Host_Library/Class/MSC/Src/usbh_msc.c ****         {
 803              		.loc 1 297 66 discriminator 3 view .LVU302
 804 0058 EFE7     		b	.L53
 805              	.LVL70:
 806              	.L56:
 294:Middlewares/ST/STM32_USB_Host_Library/Class/MSC/Src/usbh_msc.c ****         USBH_UsrLog("Number of supported LUN: %d", MSC_Handle->max_lun);
 807              		.loc 1 294 29 view .LVU303
 808 005a 0221     		movs	r1, #2
 809 005c EBE7     		b	.L52
 810              	.LVL71:
 811              	.L48:
 307:Middlewares/ST/STM32_USB_Host_Library/Class/MSC/Src/usbh_msc.c ****       {
 812              		.loc 1 307 7 is_stmt 1 view .LVU304
 307:Middlewares/ST/STM32_USB_Host_Library/Class/MSC/Src/usbh_msc.c ****       {
 813              		.loc 1 307 11 is_stmt 0 view .LVU305
 814 005e 0021     		movs	r1, #0
 815 0060 FFF7FEFF 		bl	USBH_ClrFeature
 816              	.LVL72:
 307:Middlewares/ST/STM32_USB_Host_Library/Class/MSC/Src/usbh_msc.c ****       {
 817              		.loc 1 307 10 view .LVU306
 818 0064 18B9     		cbnz	r0, .L57
 309:Middlewares/ST/STM32_USB_Host_Library/Class/MSC/Src/usbh_msc.c ****       }
 819              		.loc 1 309 9 is_stmt 1 view .LVU307
 309:Middlewares/ST/STM32_USB_Host_Library/Class/MSC/Src/usbh_msc.c ****       }
 820              		.loc 1 309 43 is_stmt 0 view .LVU308
 821 0066 E37B     		ldrb	r3, [r4, #15]	@ zero_extendqisi2
 309:Middlewares/ST/STM32_USB_Host_Library/Class/MSC/Src/usbh_msc.c ****       }
 822              		.loc 1 309 31 view .LVU309
 823 0068 A373     		strb	r3, [r4, #14]
 272:Middlewares/ST/STM32_USB_Host_Library/Class/MSC/Src/usbh_msc.c ****   uint8_t lun_idx;
 824              		.loc 1 272 22 view .LVU310
 825 006a 0120     		movs	r0, #1
 826 006c D3E7     		b	.L49
 827              	.L57:
 272:Middlewares/ST/STM32_USB_Host_Library/Class/MSC/Src/usbh_msc.c ****   uint8_t lun_idx;
 828              		.loc 1 272 22 view .LVU311
 829 006e 0120     		movs	r0, #1
 830 0070 D1E7     		b	.L49
 831              		.cfi_endproc
 832              	.LFE146:
 834              		.section	.text.USBH_MSC_InterfaceDeInit,"ax",%progbits
 835              		.align	1
ARM GAS  C:\Users\benny\AppData\Local\Temp\ccktZh7f.s 			page 31


 836              		.syntax unified
 837              		.thumb
 838              		.thumb_func
 840              	USBH_MSC_InterfaceDeInit:
 841              	.LVL73:
 842              	.LFB145:
 236:Middlewares/ST/STM32_USB_Host_Library/Class/MSC/Src/usbh_msc.c ****   MSC_HandleTypeDef *MSC_Handle = (MSC_HandleTypeDef *) phost->pActiveClass->pData;
 843              		.loc 1 236 1 is_stmt 1 view -0
 844              		.cfi_startproc
 845              		@ args = 0, pretend = 0, frame = 0
 846              		@ frame_needed = 0, uses_anonymous_args = 0
 236:Middlewares/ST/STM32_USB_Host_Library/Class/MSC/Src/usbh_msc.c ****   MSC_HandleTypeDef *MSC_Handle = (MSC_HandleTypeDef *) phost->pActiveClass->pData;
 847              		.loc 1 236 1 is_stmt 0 view .LVU313
 848 0000 38B5     		push	{r3, r4, r5, lr}
 849              	.LCFI2:
 850              		.cfi_def_cfa_offset 16
 851              		.cfi_offset 3, -16
 852              		.cfi_offset 4, -12
 853              		.cfi_offset 5, -8
 854              		.cfi_offset 14, -4
 855 0002 0446     		mov	r4, r0
 237:Middlewares/ST/STM32_USB_Host_Library/Class/MSC/Src/usbh_msc.c **** 
 856              		.loc 1 237 3 is_stmt 1 view .LVU314
 237:Middlewares/ST/STM32_USB_Host_Library/Class/MSC/Src/usbh_msc.c **** 
 857              		.loc 1 237 62 is_stmt 0 view .LVU315
 858 0004 D0F84C34 		ldr	r3, [r0, #1100]
 237:Middlewares/ST/STM32_USB_Host_Library/Class/MSC/Src/usbh_msc.c **** 
 859              		.loc 1 237 22 view .LVU316
 860 0008 DD69     		ldr	r5, [r3, #28]
 861              	.LVL74:
 239:Middlewares/ST/STM32_USB_Host_Library/Class/MSC/Src/usbh_msc.c ****   {
 862              		.loc 1 239 3 is_stmt 1 view .LVU317
 239:Middlewares/ST/STM32_USB_Host_Library/Class/MSC/Src/usbh_msc.c ****   {
 863              		.loc 1 239 18 is_stmt 0 view .LVU318
 864 000a 6979     		ldrb	r1, [r5, #5]	@ zero_extendqisi2
 239:Middlewares/ST/STM32_USB_Host_Library/Class/MSC/Src/usbh_msc.c ****   {
 865              		.loc 1 239 6 view .LVU319
 866 000c 69B9     		cbnz	r1, .L65
 867              	.LVL75:
 868              	.L61:
 246:Middlewares/ST/STM32_USB_Host_Library/Class/MSC/Src/usbh_msc.c ****   {
 869              		.loc 1 246 3 is_stmt 1 view .LVU320
 246:Middlewares/ST/STM32_USB_Host_Library/Class/MSC/Src/usbh_msc.c ****   {
 870              		.loc 1 246 18 is_stmt 0 view .LVU321
 871 000e 2979     		ldrb	r1, [r5, #4]	@ zero_extendqisi2
 246:Middlewares/ST/STM32_USB_Host_Library/Class/MSC/Src/usbh_msc.c ****   {
 872              		.loc 1 246 6 view .LVU322
 873 0010 A1B9     		cbnz	r1, .L66
 874              	.L62:
 253:Middlewares/ST/STM32_USB_Host_Library/Class/MSC/Src/usbh_msc.c ****   {
 875              		.loc 1 253 3 is_stmt 1 view .LVU323
 253:Middlewares/ST/STM32_USB_Host_Library/Class/MSC/Src/usbh_msc.c ****   {
 876              		.loc 1 253 13 is_stmt 0 view .LVU324
 877 0012 D4F84C34 		ldr	r3, [r4, #1100]
 253:Middlewares/ST/STM32_USB_Host_Library/Class/MSC/Src/usbh_msc.c ****   {
 878              		.loc 1 253 27 view .LVU325
 879 0016 D869     		ldr	r0, [r3, #28]
ARM GAS  C:\Users\benny\AppData\Local\Temp\ccktZh7f.s 			page 32


 253:Middlewares/ST/STM32_USB_Host_Library/Class/MSC/Src/usbh_msc.c ****   {
 880              		.loc 1 253 6 view .LVU326
 881 0018 28B1     		cbz	r0, .L63
 255:Middlewares/ST/STM32_USB_Host_Library/Class/MSC/Src/usbh_msc.c ****     phost->pActiveClass->pData = 0U;
 882              		.loc 1 255 5 is_stmt 1 view .LVU327
 883 001a FFF7FEFF 		bl	free
 884              	.LVL76:
 256:Middlewares/ST/STM32_USB_Host_Library/Class/MSC/Src/usbh_msc.c ****   }
 885              		.loc 1 256 5 view .LVU328
 256:Middlewares/ST/STM32_USB_Host_Library/Class/MSC/Src/usbh_msc.c ****   }
 886              		.loc 1 256 10 is_stmt 0 view .LVU329
 887 001e D4F84C34 		ldr	r3, [r4, #1100]
 256:Middlewares/ST/STM32_USB_Host_Library/Class/MSC/Src/usbh_msc.c ****   }
 888              		.loc 1 256 32 view .LVU330
 889 0022 0022     		movs	r2, #0
 890 0024 DA61     		str	r2, [r3, #28]
 891              	.L63:
 259:Middlewares/ST/STM32_USB_Host_Library/Class/MSC/Src/usbh_msc.c **** }
 892              		.loc 1 259 3 is_stmt 1 view .LVU331
 260:Middlewares/ST/STM32_USB_Host_Library/Class/MSC/Src/usbh_msc.c **** 
 893              		.loc 1 260 1 is_stmt 0 view .LVU332
 894 0026 0020     		movs	r0, #0
 895 0028 38BD     		pop	{r3, r4, r5, pc}
 896              	.LVL77:
 897              	.L65:
 241:Middlewares/ST/STM32_USB_Host_Library/Class/MSC/Src/usbh_msc.c ****     (void)USBH_FreePipe(phost, MSC_Handle->OutPipe);
 898              		.loc 1 241 5 is_stmt 1 view .LVU333
 241:Middlewares/ST/STM32_USB_Host_Library/Class/MSC/Src/usbh_msc.c ****     (void)USBH_FreePipe(phost, MSC_Handle->OutPipe);
 899              		.loc 1 241 11 is_stmt 0 view .LVU334
 900 002a FFF7FEFF 		bl	USBH_ClosePipe
 901              	.LVL78:
 242:Middlewares/ST/STM32_USB_Host_Library/Class/MSC/Src/usbh_msc.c ****     MSC_Handle->OutPipe = 0U;     /* Reset the Channel as Free */
 902              		.loc 1 242 5 is_stmt 1 view .LVU335
 242:Middlewares/ST/STM32_USB_Host_Library/Class/MSC/Src/usbh_msc.c ****     MSC_Handle->OutPipe = 0U;     /* Reset the Channel as Free */
 903              		.loc 1 242 11 is_stmt 0 view .LVU336
 904 002e 6979     		ldrb	r1, [r5, #5]	@ zero_extendqisi2
 905 0030 2046     		mov	r0, r4
 906 0032 FFF7FEFF 		bl	USBH_FreePipe
 907              	.LVL79:
 243:Middlewares/ST/STM32_USB_Host_Library/Class/MSC/Src/usbh_msc.c ****   }
 908              		.loc 1 243 5 is_stmt 1 view .LVU337
 243:Middlewares/ST/STM32_USB_Host_Library/Class/MSC/Src/usbh_msc.c ****   }
 909              		.loc 1 243 25 is_stmt 0 view .LVU338
 910 0036 0023     		movs	r3, #0
 911 0038 6B71     		strb	r3, [r5, #5]
 912 003a E8E7     		b	.L61
 913              	.L66:
 248:Middlewares/ST/STM32_USB_Host_Library/Class/MSC/Src/usbh_msc.c ****     (void)USBH_FreePipe(phost, MSC_Handle->InPipe);
 914              		.loc 1 248 5 is_stmt 1 view .LVU339
 248:Middlewares/ST/STM32_USB_Host_Library/Class/MSC/Src/usbh_msc.c ****     (void)USBH_FreePipe(phost, MSC_Handle->InPipe);
 915              		.loc 1 248 11 is_stmt 0 view .LVU340
 916 003c 2046     		mov	r0, r4
 917 003e FFF7FEFF 		bl	USBH_ClosePipe
 918              	.LVL80:
 249:Middlewares/ST/STM32_USB_Host_Library/Class/MSC/Src/usbh_msc.c ****     MSC_Handle->InPipe = 0U;     /* Reset the Channel as Free */
 919              		.loc 1 249 5 is_stmt 1 view .LVU341
 249:Middlewares/ST/STM32_USB_Host_Library/Class/MSC/Src/usbh_msc.c ****     MSC_Handle->InPipe = 0U;     /* Reset the Channel as Free */
ARM GAS  C:\Users\benny\AppData\Local\Temp\ccktZh7f.s 			page 33


 920              		.loc 1 249 11 is_stmt 0 view .LVU342
 921 0042 2979     		ldrb	r1, [r5, #4]	@ zero_extendqisi2
 922 0044 2046     		mov	r0, r4
 923 0046 FFF7FEFF 		bl	USBH_FreePipe
 924              	.LVL81:
 250:Middlewares/ST/STM32_USB_Host_Library/Class/MSC/Src/usbh_msc.c ****   }
 925              		.loc 1 250 5 is_stmt 1 view .LVU343
 250:Middlewares/ST/STM32_USB_Host_Library/Class/MSC/Src/usbh_msc.c ****   }
 926              		.loc 1 250 24 is_stmt 0 view .LVU344
 927 004a 0023     		movs	r3, #0
 928 004c 2B71     		strb	r3, [r5, #4]
 929 004e E0E7     		b	.L62
 930              		.cfi_endproc
 931              	.LFE145:
 933              		.section	.text.USBH_MSC_InterfaceInit,"ax",%progbits
 934              		.align	1
 935              		.syntax unified
 936              		.thumb
 937              		.thumb_func
 939              	USBH_MSC_InterfaceInit:
 940              	.LVL82:
 941              	.LFB144:
 138:Middlewares/ST/STM32_USB_Host_Library/Class/MSC/Src/usbh_msc.c ****   USBH_StatusTypeDef status;
 942              		.loc 1 138 1 is_stmt 1 view -0
 943              		.cfi_startproc
 944              		@ args = 0, pretend = 0, frame = 0
 945              		@ frame_needed = 0, uses_anonymous_args = 0
 138:Middlewares/ST/STM32_USB_Host_Library/Class/MSC/Src/usbh_msc.c ****   USBH_StatusTypeDef status;
 946              		.loc 1 138 1 is_stmt 0 view .LVU346
 947 0000 F0B5     		push	{r4, r5, r6, r7, lr}
 948              	.LCFI3:
 949              		.cfi_def_cfa_offset 20
 950              		.cfi_offset 4, -20
 951              		.cfi_offset 5, -16
 952              		.cfi_offset 6, -12
 953              		.cfi_offset 7, -8
 954              		.cfi_offset 14, -4
 955 0002 85B0     		sub	sp, sp, #20
 956              	.LCFI4:
 957              		.cfi_def_cfa_offset 40
 958 0004 0446     		mov	r4, r0
 139:Middlewares/ST/STM32_USB_Host_Library/Class/MSC/Src/usbh_msc.c ****   uint8_t interface;
 959              		.loc 1 139 3 is_stmt 1 view .LVU347
 140:Middlewares/ST/STM32_USB_Host_Library/Class/MSC/Src/usbh_msc.c ****   MSC_HandleTypeDef *MSC_Handle;
 960              		.loc 1 140 3 view .LVU348
 141:Middlewares/ST/STM32_USB_Host_Library/Class/MSC/Src/usbh_msc.c **** 
 961              		.loc 1 141 3 view .LVU349
 143:Middlewares/ST/STM32_USB_Host_Library/Class/MSC/Src/usbh_msc.c **** 
 962              		.loc 1 143 3 view .LVU350
 143:Middlewares/ST/STM32_USB_Host_Library/Class/MSC/Src/usbh_msc.c **** 
 963              		.loc 1 143 46 is_stmt 0 view .LVU351
 964 0006 D0F84C14 		ldr	r1, [r0, #1100]
 143:Middlewares/ST/STM32_USB_Host_Library/Class/MSC/Src/usbh_msc.c **** 
 965              		.loc 1 143 15 view .LVU352
 966 000a 5023     		movs	r3, #80
 967 000c 0622     		movs	r2, #6
 968 000e 0979     		ldrb	r1, [r1, #4]	@ zero_extendqisi2
ARM GAS  C:\Users\benny\AppData\Local\Temp\ccktZh7f.s 			page 34


 969 0010 FFF7FEFF 		bl	USBH_FindInterface
 970              	.LVL83:
 145:Middlewares/ST/STM32_USB_Host_Library/Class/MSC/Src/usbh_msc.c ****   {
 971              		.loc 1 145 3 is_stmt 1 view .LVU353
 145:Middlewares/ST/STM32_USB_Host_Library/Class/MSC/Src/usbh_msc.c ****   {
 972              		.loc 1 145 6 is_stmt 0 view .LVU354
 973 0014 0928     		cmp	r0, #9
 974 0016 00F28480 		bhi	.L73
 975 001a 0546     		mov	r5, r0
 151:Middlewares/ST/STM32_USB_Host_Library/Class/MSC/Src/usbh_msc.c **** 
 976              		.loc 1 151 3 is_stmt 1 view .LVU355
 151:Middlewares/ST/STM32_USB_Host_Library/Class/MSC/Src/usbh_msc.c **** 
 977              		.loc 1 151 12 is_stmt 0 view .LVU356
 978 001c 0146     		mov	r1, r0
 979 001e 2046     		mov	r0, r4
 980              	.LVL84:
 151:Middlewares/ST/STM32_USB_Host_Library/Class/MSC/Src/usbh_msc.c **** 
 981              		.loc 1 151 12 view .LVU357
 982 0020 FFF7FEFF 		bl	USBH_SelectInterface
 983              	.LVL85:
 153:Middlewares/ST/STM32_USB_Host_Library/Class/MSC/Src/usbh_msc.c ****   {
 984              		.loc 1 153 3 is_stmt 1 view .LVU358
 153:Middlewares/ST/STM32_USB_Host_Library/Class/MSC/Src/usbh_msc.c ****   {
 985              		.loc 1 153 6 is_stmt 0 view .LVU359
 986 0024 0746     		mov	r7, r0
 987 0026 0028     		cmp	r0, #0
 988 0028 7FD1     		bne	.L74
 158:Middlewares/ST/STM32_USB_Host_Library/Class/MSC/Src/usbh_msc.c ****   MSC_Handle = (MSC_HandleTypeDef *) phost->pActiveClass->pData;
 989              		.loc 1 158 3 is_stmt 1 view .LVU360
 158:Middlewares/ST/STM32_USB_Host_Library/Class/MSC/Src/usbh_msc.c ****   MSC_Handle = (MSC_HandleTypeDef *) phost->pActiveClass->pData;
 990              		.loc 1 158 8 is_stmt 0 view .LVU361
 991 002a D4F84C64 		ldr	r6, [r4, #1100]
 158:Middlewares/ST/STM32_USB_Host_Library/Class/MSC/Src/usbh_msc.c ****   MSC_Handle = (MSC_HandleTypeDef *) phost->pActiveClass->pData;
 992              		.loc 1 158 53 view .LVU362
 993 002e 4FF48270 		mov	r0, #260
 994              	.LVL86:
 158:Middlewares/ST/STM32_USB_Host_Library/Class/MSC/Src/usbh_msc.c ****   MSC_Handle = (MSC_HandleTypeDef *) phost->pActiveClass->pData;
 995              		.loc 1 158 53 view .LVU363
 996 0032 FFF7FEFF 		bl	malloc
 997              	.LVL87:
 158:Middlewares/ST/STM32_USB_Host_Library/Class/MSC/Src/usbh_msc.c ****   MSC_Handle = (MSC_HandleTypeDef *) phost->pActiveClass->pData;
 998              		.loc 1 158 30 view .LVU364
 999 0036 F061     		str	r0, [r6, #28]
 159:Middlewares/ST/STM32_USB_Host_Library/Class/MSC/Src/usbh_msc.c **** 
 1000              		.loc 1 159 3 is_stmt 1 view .LVU365
 159:Middlewares/ST/STM32_USB_Host_Library/Class/MSC/Src/usbh_msc.c **** 
 1001              		.loc 1 159 43 is_stmt 0 view .LVU366
 1002 0038 D4F84C34 		ldr	r3, [r4, #1100]
 159:Middlewares/ST/STM32_USB_Host_Library/Class/MSC/Src/usbh_msc.c **** 
 1003              		.loc 1 159 14 view .LVU367
 1004 003c DE69     		ldr	r6, [r3, #28]
 1005              	.LVL88:
 161:Middlewares/ST/STM32_USB_Host_Library/Class/MSC/Src/usbh_msc.c ****   {
 1006              		.loc 1 161 3 is_stmt 1 view .LVU368
 161:Middlewares/ST/STM32_USB_Host_Library/Class/MSC/Src/usbh_msc.c ****   {
 1007              		.loc 1 161 6 is_stmt 0 view .LVU369
 1008 003e 002E     		cmp	r6, #0
ARM GAS  C:\Users\benny\AppData\Local\Temp\ccktZh7f.s 			page 35


 1009 0040 75D0     		beq	.L75
 168:Middlewares/ST/STM32_USB_Host_Library/Class/MSC/Src/usbh_msc.c **** 
 1010              		.loc 1 168 3 is_stmt 1 view .LVU370
 168:Middlewares/ST/STM32_USB_Host_Library/Class/MSC/Src/usbh_msc.c **** 
 1011              		.loc 1 168 9 is_stmt 0 view .LVU371
 1012 0042 4FF48272 		mov	r2, #260
 1013 0046 0021     		movs	r1, #0
 1014 0048 3046     		mov	r0, r6
 1015 004a FFF7FEFF 		bl	memset
 1016              	.LVL89:
 170:Middlewares/ST/STM32_USB_Host_Library/Class/MSC/Src/usbh_msc.c ****   {
 1017              		.loc 1 170 3 is_stmt 1 view .LVU372
 170:Middlewares/ST/STM32_USB_Host_Library/Class/MSC/Src/usbh_msc.c ****   {
 1018              		.loc 1 170 60 is_stmt 0 view .LVU373
 1019 004e 1A23     		movs	r3, #26
 1020 0050 03FB0543 		mla	r3, r3, r5, r4
 1021 0054 93F84E23 		ldrb	r2, [r3, #846]	@ zero_extendqisi2
 170:Middlewares/ST/STM32_USB_Host_Library/Class/MSC/Src/usbh_msc.c ****   {
 1022              		.loc 1 170 87 view .LVU374
 1023 0058 93F94E33 		ldrsb	r3, [r3, #846]
 170:Middlewares/ST/STM32_USB_Host_Library/Class/MSC/Src/usbh_msc.c ****   {
 1024              		.loc 1 170 6 view .LVU375
 1025 005c 002B     		cmp	r3, #0
 1026 005e 50DB     		blt	.L81
 177:Middlewares/ST/STM32_USB_Host_Library/Class/MSC/Src/usbh_msc.c ****     MSC_Handle->OutEpSize = phost->device.CfgDesc.Itf_Desc[interface].Ep_Desc[0].wMaxPacketSize;
 1027              		.loc 1 177 5 is_stmt 1 view .LVU376
 177:Middlewares/ST/STM32_USB_Host_Library/Class/MSC/Src/usbh_msc.c ****     MSC_Handle->OutEpSize = phost->device.CfgDesc.Itf_Desc[interface].Ep_Desc[0].wMaxPacketSize;
 1028              		.loc 1 177 23 is_stmt 0 view .LVU377
 1029 0060 B271     		strb	r2, [r6, #6]
 178:Middlewares/ST/STM32_USB_Host_Library/Class/MSC/Src/usbh_msc.c ****   }
 1030              		.loc 1 178 5 is_stmt 1 view .LVU378
 178:Middlewares/ST/STM32_USB_Host_Library/Class/MSC/Src/usbh_msc.c ****   }
 1031              		.loc 1 178 81 is_stmt 0 view .LVU379
 1032 0062 1A23     		movs	r3, #26
 1033 0064 03FB0543 		mla	r3, r3, r5, r4
 1034 0068 B3F85033 		ldrh	r3, [r3, #848]
 178:Middlewares/ST/STM32_USB_Host_Library/Class/MSC/Src/usbh_msc.c ****   }
 1035              		.loc 1 178 27 view .LVU380
 1036 006c 3381     		strh	r3, [r6, #8]	@ movhi
 1037              	.L70:
 181:Middlewares/ST/STM32_USB_Host_Library/Class/MSC/Src/usbh_msc.c ****   {
 1038              		.loc 1 181 3 is_stmt 1 view .LVU381
 181:Middlewares/ST/STM32_USB_Host_Library/Class/MSC/Src/usbh_msc.c ****   {
 1039              		.loc 1 181 60 is_stmt 0 view .LVU382
 1040 006e 1A23     		movs	r3, #26
 1041 0070 03FB0543 		mla	r3, r3, r5, r4
 1042 0074 93F85623 		ldrb	r2, [r3, #854]	@ zero_extendqisi2
 181:Middlewares/ST/STM32_USB_Host_Library/Class/MSC/Src/usbh_msc.c ****   {
 1043              		.loc 1 181 87 view .LVU383
 1044 0078 93F95633 		ldrsb	r3, [r3, #854]
 181:Middlewares/ST/STM32_USB_Host_Library/Class/MSC/Src/usbh_msc.c ****   {
 1045              		.loc 1 181 6 view .LVU384
 1046 007c 002B     		cmp	r3, #0
 1047 007e 48DB     		blt	.L82
 188:Middlewares/ST/STM32_USB_Host_Library/Class/MSC/Src/usbh_msc.c ****     MSC_Handle->OutEpSize = phost->device.CfgDesc.Itf_Desc[interface].Ep_Desc[1].wMaxPacketSize;
 1048              		.loc 1 188 5 is_stmt 1 view .LVU385
 188:Middlewares/ST/STM32_USB_Host_Library/Class/MSC/Src/usbh_msc.c ****     MSC_Handle->OutEpSize = phost->device.CfgDesc.Itf_Desc[interface].Ep_Desc[1].wMaxPacketSize;
ARM GAS  C:\Users\benny\AppData\Local\Temp\ccktZh7f.s 			page 36


 1049              		.loc 1 188 23 is_stmt 0 view .LVU386
 1050 0080 B271     		strb	r2, [r6, #6]
 189:Middlewares/ST/STM32_USB_Host_Library/Class/MSC/Src/usbh_msc.c ****   }
 1051              		.loc 1 189 5 is_stmt 1 view .LVU387
 189:Middlewares/ST/STM32_USB_Host_Library/Class/MSC/Src/usbh_msc.c ****   }
 1052              		.loc 1 189 81 is_stmt 0 view .LVU388
 1053 0082 1A23     		movs	r3, #26
 1054 0084 03FB0545 		mla	r5, r3, r5, r4
 1055 0088 B5F85833 		ldrh	r3, [r5, #856]
 189:Middlewares/ST/STM32_USB_Host_Library/Class/MSC/Src/usbh_msc.c ****   }
 1056              		.loc 1 189 27 view .LVU389
 1057 008c 3381     		strh	r3, [r6, #8]	@ movhi
 1058              	.L72:
 192:Middlewares/ST/STM32_USB_Host_Library/Class/MSC/Src/usbh_msc.c ****   MSC_Handle->error = MSC_OK;
 1059              		.loc 1 192 3 is_stmt 1 view .LVU390
 193:Middlewares/ST/STM32_USB_Host_Library/Class/MSC/Src/usbh_msc.c ****   MSC_Handle->req_state = MSC_REQ_IDLE;
 1060              		.loc 1 193 3 view .LVU391
 194:Middlewares/ST/STM32_USB_Host_Library/Class/MSC/Src/usbh_msc.c ****   MSC_Handle->OutPipe = USBH_AllocPipe(phost, MSC_Handle->OutEp);
 1061              		.loc 1 194 3 view .LVU392
 195:Middlewares/ST/STM32_USB_Host_Library/Class/MSC/Src/usbh_msc.c ****   MSC_Handle->InPipe = USBH_AllocPipe(phost, MSC_Handle->InEp);
 1062              		.loc 1 195 3 view .LVU393
 195:Middlewares/ST/STM32_USB_Host_Library/Class/MSC/Src/usbh_msc.c ****   MSC_Handle->InPipe = USBH_AllocPipe(phost, MSC_Handle->InEp);
 1063              		.loc 1 195 25 is_stmt 0 view .LVU394
 1064 008e B179     		ldrb	r1, [r6, #6]	@ zero_extendqisi2
 1065 0090 2046     		mov	r0, r4
 1066 0092 FFF7FEFF 		bl	USBH_AllocPipe
 1067              	.LVL90:
 195:Middlewares/ST/STM32_USB_Host_Library/Class/MSC/Src/usbh_msc.c ****   MSC_Handle->InPipe = USBH_AllocPipe(phost, MSC_Handle->InEp);
 1068              		.loc 1 195 23 view .LVU395
 1069 0096 7071     		strb	r0, [r6, #5]
 196:Middlewares/ST/STM32_USB_Host_Library/Class/MSC/Src/usbh_msc.c **** 
 1070              		.loc 1 196 3 is_stmt 1 view .LVU396
 196:Middlewares/ST/STM32_USB_Host_Library/Class/MSC/Src/usbh_msc.c **** 
 1071              		.loc 1 196 24 is_stmt 0 view .LVU397
 1072 0098 F179     		ldrb	r1, [r6, #7]	@ zero_extendqisi2
 1073 009a 2046     		mov	r0, r4
 1074 009c FFF7FEFF 		bl	USBH_AllocPipe
 1075              	.LVL91:
 196:Middlewares/ST/STM32_USB_Host_Library/Class/MSC/Src/usbh_msc.c **** 
 1076              		.loc 1 196 22 view .LVU398
 1077 00a0 3071     		strb	r0, [r6, #4]
 198:Middlewares/ST/STM32_USB_Host_Library/Class/MSC/Src/usbh_msc.c **** 
 1078              		.loc 1 198 3 is_stmt 1 view .LVU399
 198:Middlewares/ST/STM32_USB_Host_Library/Class/MSC/Src/usbh_msc.c **** 
 1079              		.loc 1 198 9 is_stmt 0 view .LVU400
 1080 00a2 2046     		mov	r0, r4
 1081 00a4 FFF7FEFF 		bl	USBH_MSC_BOT_Init
 1082              	.LVL92:
 201:Middlewares/ST/STM32_USB_Host_Library/Class/MSC/Src/usbh_msc.c ****   {
 1083              		.loc 1 201 3 is_stmt 1 view .LVU401
 201:Middlewares/ST/STM32_USB_Host_Library/Class/MSC/Src/usbh_msc.c ****   {
 1084              		.loc 1 201 18 is_stmt 0 view .LVU402
 1085 00a8 B279     		ldrb	r2, [r6, #6]	@ zero_extendqisi2
 201:Middlewares/ST/STM32_USB_Host_Library/Class/MSC/Src/usbh_msc.c ****   {
 1086              		.loc 1 201 6 view .LVU403
 1087 00aa 002A     		cmp	r2, #0
 1088 00ac 41D0     		beq	.L76
ARM GAS  C:\Users\benny\AppData\Local\Temp\ccktZh7f.s 			page 37


 201:Middlewares/ST/STM32_USB_Host_Library/Class/MSC/Src/usbh_msc.c ****   {
 1089              		.loc 1 201 47 discriminator 1 view .LVU404
 1090 00ae 3389     		ldrh	r3, [r6, #8]
 201:Middlewares/ST/STM32_USB_Host_Library/Class/MSC/Src/usbh_msc.c ****   {
 1091              		.loc 1 201 33 discriminator 1 view .LVU405
 1092 00b0 002B     		cmp	r3, #0
 1093 00b2 40D0     		beq	.L77
 203:Middlewares/ST/STM32_USB_Host_Library/Class/MSC/Src/usbh_msc.c ****                         phost->device.address, phost->device.speed,
 1094              		.loc 1 203 5 is_stmt 1 view .LVU406
 203:Middlewares/ST/STM32_USB_Host_Library/Class/MSC/Src/usbh_msc.c ****                         phost->device.address, phost->device.speed,
 1095              		.loc 1 203 11 is_stmt 0 view .LVU407
 1096 00b4 7179     		ldrb	r1, [r6, #5]	@ zero_extendqisi2
 1097 00b6 0293     		str	r3, [sp, #8]
 1098 00b8 0223     		movs	r3, #2
 1099 00ba 0193     		str	r3, [sp, #4]
 1100 00bc 94F81D33 		ldrb	r3, [r4, #797]	@ zero_extendqisi2
 1101 00c0 0093     		str	r3, [sp]
 1102 00c2 94F81C33 		ldrb	r3, [r4, #796]	@ zero_extendqisi2
 1103 00c6 2046     		mov	r0, r4
 1104 00c8 FFF7FEFF 		bl	USBH_OpenPipe
 1105              	.LVL93:
 212:Middlewares/ST/STM32_USB_Host_Library/Class/MSC/Src/usbh_msc.c ****   {
 1106              		.loc 1 212 3 is_stmt 1 view .LVU408
 212:Middlewares/ST/STM32_USB_Host_Library/Class/MSC/Src/usbh_msc.c ****   {
 1107              		.loc 1 212 18 is_stmt 0 view .LVU409
 1108 00cc F279     		ldrb	r2, [r6, #7]	@ zero_extendqisi2
 212:Middlewares/ST/STM32_USB_Host_Library/Class/MSC/Src/usbh_msc.c ****   {
 1109              		.loc 1 212 6 view .LVU410
 1110 00ce A2B3     		cbz	r2, .L78
 212:Middlewares/ST/STM32_USB_Host_Library/Class/MSC/Src/usbh_msc.c ****   {
 1111              		.loc 1 212 46 discriminator 1 view .LVU411
 1112 00d0 7389     		ldrh	r3, [r6, #10]
 212:Middlewares/ST/STM32_USB_Host_Library/Class/MSC/Src/usbh_msc.c ****   {
 1113              		.loc 1 212 32 discriminator 1 view .LVU412
 1114 00d2 A3B3     		cbz	r3, .L79
 214:Middlewares/ST/STM32_USB_Host_Library/Class/MSC/Src/usbh_msc.c ****                         phost->device.address, phost->device.speed, USB_EP_TYPE_BULK,
 1115              		.loc 1 214 5 is_stmt 1 view .LVU413
 214:Middlewares/ST/STM32_USB_Host_Library/Class/MSC/Src/usbh_msc.c ****                         phost->device.address, phost->device.speed, USB_EP_TYPE_BULK,
 1116              		.loc 1 214 11 is_stmt 0 view .LVU414
 1117 00d4 3179     		ldrb	r1, [r6, #4]	@ zero_extendqisi2
 1118 00d6 0293     		str	r3, [sp, #8]
 1119 00d8 0223     		movs	r3, #2
 1120 00da 0193     		str	r3, [sp, #4]
 1121 00dc 94F81D33 		ldrb	r3, [r4, #797]	@ zero_extendqisi2
 1122 00e0 0093     		str	r3, [sp]
 1123 00e2 94F81C33 		ldrb	r3, [r4, #796]	@ zero_extendqisi2
 1124 00e6 2046     		mov	r0, r4
 1125 00e8 FFF7FEFF 		bl	USBH_OpenPipe
 1126              	.LVL94:
 223:Middlewares/ST/STM32_USB_Host_Library/Class/MSC/Src/usbh_msc.c ****   (void)USBH_LL_SetToggle(phost, MSC_Handle->OutPipe, 0U);
 1127              		.loc 1 223 3 is_stmt 1 view .LVU415
 223:Middlewares/ST/STM32_USB_Host_Library/Class/MSC/Src/usbh_msc.c ****   (void)USBH_LL_SetToggle(phost, MSC_Handle->OutPipe, 0U);
 1128              		.loc 1 223 9 is_stmt 0 view .LVU416
 1129 00ec 0022     		movs	r2, #0
 1130 00ee 3179     		ldrb	r1, [r6, #4]	@ zero_extendqisi2
 1131 00f0 2046     		mov	r0, r4
 1132 00f2 FFF7FEFF 		bl	USBH_LL_SetToggle
ARM GAS  C:\Users\benny\AppData\Local\Temp\ccktZh7f.s 			page 38


 1133              	.LVL95:
 224:Middlewares/ST/STM32_USB_Host_Library/Class/MSC/Src/usbh_msc.c **** 
 1134              		.loc 1 224 3 is_stmt 1 view .LVU417
 224:Middlewares/ST/STM32_USB_Host_Library/Class/MSC/Src/usbh_msc.c **** 
 1135              		.loc 1 224 9 is_stmt 0 view .LVU418
 1136 00f6 0022     		movs	r2, #0
 1137 00f8 7179     		ldrb	r1, [r6, #5]	@ zero_extendqisi2
 1138 00fa 2046     		mov	r0, r4
 1139 00fc FFF7FEFF 		bl	USBH_LL_SetToggle
 1140              	.LVL96:
 226:Middlewares/ST/STM32_USB_Host_Library/Class/MSC/Src/usbh_msc.c **** }
 1141              		.loc 1 226 3 is_stmt 1 view .LVU419
 226:Middlewares/ST/STM32_USB_Host_Library/Class/MSC/Src/usbh_msc.c **** }
 1142              		.loc 1 226 10 is_stmt 0 view .LVU420
 1143 0100 10E0     		b	.L68
 1144              	.L81:
 172:Middlewares/ST/STM32_USB_Host_Library/Class/MSC/Src/usbh_msc.c ****     MSC_Handle->InEpSize = phost->device.CfgDesc.Itf_Desc[interface].Ep_Desc[0].wMaxPacketSize;
 1145              		.loc 1 172 5 is_stmt 1 view .LVU421
 172:Middlewares/ST/STM32_USB_Host_Library/Class/MSC/Src/usbh_msc.c ****     MSC_Handle->InEpSize = phost->device.CfgDesc.Itf_Desc[interface].Ep_Desc[0].wMaxPacketSize;
 1146              		.loc 1 172 22 is_stmt 0 view .LVU422
 1147 0102 F271     		strb	r2, [r6, #7]
 173:Middlewares/ST/STM32_USB_Host_Library/Class/MSC/Src/usbh_msc.c ****   }
 1148              		.loc 1 173 5 is_stmt 1 view .LVU423
 173:Middlewares/ST/STM32_USB_Host_Library/Class/MSC/Src/usbh_msc.c ****   }
 1149              		.loc 1 173 80 is_stmt 0 view .LVU424
 1150 0104 1A23     		movs	r3, #26
 1151 0106 03FB0543 		mla	r3, r3, r5, r4
 1152 010a B3F85033 		ldrh	r3, [r3, #848]
 173:Middlewares/ST/STM32_USB_Host_Library/Class/MSC/Src/usbh_msc.c ****   }
 1153              		.loc 1 173 26 view .LVU425
 1154 010e 7381     		strh	r3, [r6, #10]	@ movhi
 1155 0110 ADE7     		b	.L70
 1156              	.L82:
 183:Middlewares/ST/STM32_USB_Host_Library/Class/MSC/Src/usbh_msc.c ****     MSC_Handle->InEpSize = phost->device.CfgDesc.Itf_Desc[interface].Ep_Desc[1].wMaxPacketSize;
 1157              		.loc 1 183 5 is_stmt 1 view .LVU426
 183:Middlewares/ST/STM32_USB_Host_Library/Class/MSC/Src/usbh_msc.c ****     MSC_Handle->InEpSize = phost->device.CfgDesc.Itf_Desc[interface].Ep_Desc[1].wMaxPacketSize;
 1158              		.loc 1 183 22 is_stmt 0 view .LVU427
 1159 0112 F271     		strb	r2, [r6, #7]
 184:Middlewares/ST/STM32_USB_Host_Library/Class/MSC/Src/usbh_msc.c ****   }
 1160              		.loc 1 184 5 is_stmt 1 view .LVU428
 184:Middlewares/ST/STM32_USB_Host_Library/Class/MSC/Src/usbh_msc.c ****   }
 1161              		.loc 1 184 80 is_stmt 0 view .LVU429
 1162 0114 1A23     		movs	r3, #26
 1163 0116 03FB0543 		mla	r3, r3, r5, r4
 1164 011a B3F85833 		ldrh	r3, [r3, #856]
 184:Middlewares/ST/STM32_USB_Host_Library/Class/MSC/Src/usbh_msc.c ****   }
 1165              		.loc 1 184 26 view .LVU430
 1166 011e 7381     		strh	r3, [r6, #10]	@ movhi
 1167 0120 B5E7     		b	.L72
 1168              	.LVL97:
 1169              	.L73:
 148:Middlewares/ST/STM32_USB_Host_Library/Class/MSC/Src/usbh_msc.c ****   }
 1170              		.loc 1 148 12 view .LVU431
 1171 0122 0227     		movs	r7, #2
 1172              	.LVL98:
 1173              	.L68:
 227:Middlewares/ST/STM32_USB_Host_Library/Class/MSC/Src/usbh_msc.c **** 
ARM GAS  C:\Users\benny\AppData\Local\Temp\ccktZh7f.s 			page 39


 1174              		.loc 1 227 1 view .LVU432
 1175 0124 3846     		mov	r0, r7
 1176 0126 05B0     		add	sp, sp, #20
 1177              	.LCFI5:
 1178              		.cfi_remember_state
 1179              		.cfi_def_cfa_offset 20
 1180              		@ sp needed
 1181 0128 F0BD     		pop	{r4, r5, r6, r7, pc}
 1182              	.LVL99:
 1183              	.L74:
 1184              	.LCFI6:
 1185              		.cfi_restore_state
 155:Middlewares/ST/STM32_USB_Host_Library/Class/MSC/Src/usbh_msc.c ****   }
 1186              		.loc 1 155 12 view .LVU433
 1187 012a 0227     		movs	r7, #2
 1188 012c FAE7     		b	.L68
 1189              	.LVL100:
 1190              	.L75:
 164:Middlewares/ST/STM32_USB_Host_Library/Class/MSC/Src/usbh_msc.c ****   }
 1191              		.loc 1 164 12 view .LVU434
 1192 012e 0227     		movs	r7, #2
 1193 0130 F8E7     		b	.L68
 1194              	.L76:
 209:Middlewares/ST/STM32_USB_Host_Library/Class/MSC/Src/usbh_msc.c ****   }
 1195              		.loc 1 209 12 view .LVU435
 1196 0132 0327     		movs	r7, #3
 1197 0134 F6E7     		b	.L68
 1198              	.L77:
 1199 0136 0327     		movs	r7, #3
 1200 0138 F4E7     		b	.L68
 1201              	.L78:
 220:Middlewares/ST/STM32_USB_Host_Library/Class/MSC/Src/usbh_msc.c ****   }
 1202              		.loc 1 220 12 view .LVU436
 1203 013a 0327     		movs	r7, #3
 1204 013c F2E7     		b	.L68
 1205              	.L79:
 1206 013e 0327     		movs	r7, #3
 1207 0140 F0E7     		b	.L68
 1208              		.cfi_endproc
 1209              	.LFE144:
 1211              		.section	.text.USBH_MSC_RdWrProcess,"ax",%progbits
 1212              		.align	1
 1213              		.syntax unified
 1214              		.thumb
 1215              		.thumb_func
 1217              	USBH_MSC_RdWrProcess:
 1218              	.LVL101:
 1219              	.LFB149:
 575:Middlewares/ST/STM32_USB_Host_Library/Class/MSC/Src/usbh_msc.c **** /**
 576:Middlewares/ST/STM32_USB_Host_Library/Class/MSC/Src/usbh_msc.c ****   * @brief  USBH_MSC_RdWrProcess
 577:Middlewares/ST/STM32_USB_Host_Library/Class/MSC/Src/usbh_msc.c ****   *         The function is for managing state machine for MSC I/O Process
 578:Middlewares/ST/STM32_USB_Host_Library/Class/MSC/Src/usbh_msc.c ****   * @param  phost: Host handle
 579:Middlewares/ST/STM32_USB_Host_Library/Class/MSC/Src/usbh_msc.c ****   * @param  lun: logical Unit Number
 580:Middlewares/ST/STM32_USB_Host_Library/Class/MSC/Src/usbh_msc.c ****   * @retval USBH Status
 581:Middlewares/ST/STM32_USB_Host_Library/Class/MSC/Src/usbh_msc.c ****   */
 582:Middlewares/ST/STM32_USB_Host_Library/Class/MSC/Src/usbh_msc.c **** static USBH_StatusTypeDef USBH_MSC_RdWrProcess(USBH_HandleTypeDef *phost, uint8_t lun)
 583:Middlewares/ST/STM32_USB_Host_Library/Class/MSC/Src/usbh_msc.c **** {
ARM GAS  C:\Users\benny\AppData\Local\Temp\ccktZh7f.s 			page 40


 1220              		.loc 1 583 1 is_stmt 1 view -0
 1221              		.cfi_startproc
 1222              		@ args = 0, pretend = 0, frame = 0
 1223              		@ frame_needed = 0, uses_anonymous_args = 0
 1224              		.loc 1 583 1 is_stmt 0 view .LVU438
 1225 0000 30B5     		push	{r4, r5, lr}
 1226              	.LCFI7:
 1227              		.cfi_def_cfa_offset 12
 1228              		.cfi_offset 4, -12
 1229              		.cfi_offset 5, -8
 1230              		.cfi_offset 14, -4
 1231 0002 83B0     		sub	sp, sp, #12
 1232              	.LCFI8:
 1233              		.cfi_def_cfa_offset 24
 1234 0004 0C46     		mov	r4, r1
 584:Middlewares/ST/STM32_USB_Host_Library/Class/MSC/Src/usbh_msc.c ****   MSC_HandleTypeDef *MSC_Handle = (MSC_HandleTypeDef *) phost->pActiveClass->pData;
 1235              		.loc 1 584 3 is_stmt 1 view .LVU439
 1236              		.loc 1 584 62 is_stmt 0 view .LVU440
 1237 0006 D0F84C34 		ldr	r3, [r0, #1100]
 1238              		.loc 1 584 22 view .LVU441
 1239 000a DD69     		ldr	r5, [r3, #28]
 1240              	.LVL102:
 585:Middlewares/ST/STM32_USB_Host_Library/Class/MSC/Src/usbh_msc.c ****   USBH_StatusTypeDef error = USBH_BUSY;
 1241              		.loc 1 585 3 is_stmt 1 view .LVU442
 586:Middlewares/ST/STM32_USB_Host_Library/Class/MSC/Src/usbh_msc.c ****   USBH_StatusTypeDef scsi_status = USBH_BUSY;
 1242              		.loc 1 586 3 view .LVU443
 587:Middlewares/ST/STM32_USB_Host_Library/Class/MSC/Src/usbh_msc.c **** 
 588:Middlewares/ST/STM32_USB_Host_Library/Class/MSC/Src/usbh_msc.c ****   /* Switch MSC REQ state machine */
 589:Middlewares/ST/STM32_USB_Host_Library/Class/MSC/Src/usbh_msc.c ****   switch (MSC_Handle->unit[lun].state)
 1243              		.loc 1 589 3 view .LVU444
 1244              		.loc 1 589 32 is_stmt 0 view .LVU445
 1245 000c 3423     		movs	r3, #52
 1246 000e 03FB0153 		mla	r3, r3, r1, r5
 1247 0012 93F89030 		ldrb	r3, [r3, #144]	@ zero_extendqisi2
 1248              		.loc 1 589 3 view .LVU446
 1249 0016 062B     		cmp	r3, #6
 1250 0018 06D0     		beq	.L84
 1251 001a 072B     		cmp	r3, #7
 1252 001c 27D0     		beq	.L85
 1253 001e 052B     		cmp	r3, #5
 1254 0020 48D0     		beq	.L86
 1255 0022 0120     		movs	r0, #1
 1256              	.LVL103:
 1257              	.L87:
 590:Middlewares/ST/STM32_USB_Host_Library/Class/MSC/Src/usbh_msc.c ****   {
 591:Middlewares/ST/STM32_USB_Host_Library/Class/MSC/Src/usbh_msc.c ****     case MSC_READ:
 592:Middlewares/ST/STM32_USB_Host_Library/Class/MSC/Src/usbh_msc.c ****       scsi_status = USBH_MSC_SCSI_Read(phost, lun, 0U, NULL, 0U);
 593:Middlewares/ST/STM32_USB_Host_Library/Class/MSC/Src/usbh_msc.c **** 
 594:Middlewares/ST/STM32_USB_Host_Library/Class/MSC/Src/usbh_msc.c ****       if (scsi_status == USBH_OK)
 595:Middlewares/ST/STM32_USB_Host_Library/Class/MSC/Src/usbh_msc.c ****       {
 596:Middlewares/ST/STM32_USB_Host_Library/Class/MSC/Src/usbh_msc.c ****         MSC_Handle->unit[lun].state = MSC_IDLE;
 597:Middlewares/ST/STM32_USB_Host_Library/Class/MSC/Src/usbh_msc.c ****         error = USBH_OK;
 598:Middlewares/ST/STM32_USB_Host_Library/Class/MSC/Src/usbh_msc.c ****       }
 599:Middlewares/ST/STM32_USB_Host_Library/Class/MSC/Src/usbh_msc.c ****       else if (scsi_status == USBH_FAIL)
 600:Middlewares/ST/STM32_USB_Host_Library/Class/MSC/Src/usbh_msc.c ****       {
 601:Middlewares/ST/STM32_USB_Host_Library/Class/MSC/Src/usbh_msc.c ****         MSC_Handle->unit[lun].state = MSC_REQUEST_SENSE;
 602:Middlewares/ST/STM32_USB_Host_Library/Class/MSC/Src/usbh_msc.c ****       }
ARM GAS  C:\Users\benny\AppData\Local\Temp\ccktZh7f.s 			page 41


 603:Middlewares/ST/STM32_USB_Host_Library/Class/MSC/Src/usbh_msc.c ****       else
 604:Middlewares/ST/STM32_USB_Host_Library/Class/MSC/Src/usbh_msc.c ****       {
 605:Middlewares/ST/STM32_USB_Host_Library/Class/MSC/Src/usbh_msc.c ****         if (scsi_status == USBH_UNRECOVERED_ERROR)
 606:Middlewares/ST/STM32_USB_Host_Library/Class/MSC/Src/usbh_msc.c ****         {
 607:Middlewares/ST/STM32_USB_Host_Library/Class/MSC/Src/usbh_msc.c ****           MSC_Handle->unit[lun].state = MSC_UNRECOVERED_ERROR;
 608:Middlewares/ST/STM32_USB_Host_Library/Class/MSC/Src/usbh_msc.c ****           error = USBH_FAIL;
 609:Middlewares/ST/STM32_USB_Host_Library/Class/MSC/Src/usbh_msc.c ****         }
 610:Middlewares/ST/STM32_USB_Host_Library/Class/MSC/Src/usbh_msc.c ****       }
 611:Middlewares/ST/STM32_USB_Host_Library/Class/MSC/Src/usbh_msc.c **** 
 612:Middlewares/ST/STM32_USB_Host_Library/Class/MSC/Src/usbh_msc.c **** #if (USBH_USE_OS == 1U)
 613:Middlewares/ST/STM32_USB_Host_Library/Class/MSC/Src/usbh_msc.c ****       phost->os_msg = (uint32_t)USBH_CLASS_EVENT;
 614:Middlewares/ST/STM32_USB_Host_Library/Class/MSC/Src/usbh_msc.c **** #if (osCMSIS < 0x20000U)
 615:Middlewares/ST/STM32_USB_Host_Library/Class/MSC/Src/usbh_msc.c ****       (void)osMessagePut(phost->os_event, phost->os_msg, 0U);
 616:Middlewares/ST/STM32_USB_Host_Library/Class/MSC/Src/usbh_msc.c **** #else
 617:Middlewares/ST/STM32_USB_Host_Library/Class/MSC/Src/usbh_msc.c ****       (void)osMessageQueuePut(phost->os_event, &phost->os_msg, 0U, 0U);
 618:Middlewares/ST/STM32_USB_Host_Library/Class/MSC/Src/usbh_msc.c **** #endif
 619:Middlewares/ST/STM32_USB_Host_Library/Class/MSC/Src/usbh_msc.c **** #endif
 620:Middlewares/ST/STM32_USB_Host_Library/Class/MSC/Src/usbh_msc.c ****       break;
 621:Middlewares/ST/STM32_USB_Host_Library/Class/MSC/Src/usbh_msc.c **** 
 622:Middlewares/ST/STM32_USB_Host_Library/Class/MSC/Src/usbh_msc.c ****     case MSC_WRITE:
 623:Middlewares/ST/STM32_USB_Host_Library/Class/MSC/Src/usbh_msc.c ****       scsi_status = USBH_MSC_SCSI_Write(phost, lun, 0U, NULL, 0U);
 624:Middlewares/ST/STM32_USB_Host_Library/Class/MSC/Src/usbh_msc.c **** 
 625:Middlewares/ST/STM32_USB_Host_Library/Class/MSC/Src/usbh_msc.c ****       if (scsi_status == USBH_OK)
 626:Middlewares/ST/STM32_USB_Host_Library/Class/MSC/Src/usbh_msc.c ****       {
 627:Middlewares/ST/STM32_USB_Host_Library/Class/MSC/Src/usbh_msc.c ****         MSC_Handle->unit[lun].state = MSC_IDLE;
 628:Middlewares/ST/STM32_USB_Host_Library/Class/MSC/Src/usbh_msc.c ****         error = USBH_OK;
 629:Middlewares/ST/STM32_USB_Host_Library/Class/MSC/Src/usbh_msc.c ****       }
 630:Middlewares/ST/STM32_USB_Host_Library/Class/MSC/Src/usbh_msc.c ****       else if (scsi_status == USBH_FAIL)
 631:Middlewares/ST/STM32_USB_Host_Library/Class/MSC/Src/usbh_msc.c ****       {
 632:Middlewares/ST/STM32_USB_Host_Library/Class/MSC/Src/usbh_msc.c ****         MSC_Handle->unit[lun].state = MSC_REQUEST_SENSE;
 633:Middlewares/ST/STM32_USB_Host_Library/Class/MSC/Src/usbh_msc.c ****       }
 634:Middlewares/ST/STM32_USB_Host_Library/Class/MSC/Src/usbh_msc.c ****       else
 635:Middlewares/ST/STM32_USB_Host_Library/Class/MSC/Src/usbh_msc.c ****       {
 636:Middlewares/ST/STM32_USB_Host_Library/Class/MSC/Src/usbh_msc.c ****         if (scsi_status == USBH_UNRECOVERED_ERROR)
 637:Middlewares/ST/STM32_USB_Host_Library/Class/MSC/Src/usbh_msc.c ****         {
 638:Middlewares/ST/STM32_USB_Host_Library/Class/MSC/Src/usbh_msc.c ****           MSC_Handle->unit[lun].state = MSC_UNRECOVERED_ERROR;
 639:Middlewares/ST/STM32_USB_Host_Library/Class/MSC/Src/usbh_msc.c ****           error = USBH_FAIL;
 640:Middlewares/ST/STM32_USB_Host_Library/Class/MSC/Src/usbh_msc.c ****         }
 641:Middlewares/ST/STM32_USB_Host_Library/Class/MSC/Src/usbh_msc.c ****       }
 642:Middlewares/ST/STM32_USB_Host_Library/Class/MSC/Src/usbh_msc.c **** 
 643:Middlewares/ST/STM32_USB_Host_Library/Class/MSC/Src/usbh_msc.c **** #if (USBH_USE_OS == 1U)
 644:Middlewares/ST/STM32_USB_Host_Library/Class/MSC/Src/usbh_msc.c ****       phost->os_msg = (uint32_t)USBH_CLASS_EVENT;
 645:Middlewares/ST/STM32_USB_Host_Library/Class/MSC/Src/usbh_msc.c **** #if (osCMSIS < 0x20000U)
 646:Middlewares/ST/STM32_USB_Host_Library/Class/MSC/Src/usbh_msc.c ****       (void)osMessagePut(phost->os_event, phost->os_msg, 0U);
 647:Middlewares/ST/STM32_USB_Host_Library/Class/MSC/Src/usbh_msc.c **** #else
 648:Middlewares/ST/STM32_USB_Host_Library/Class/MSC/Src/usbh_msc.c ****       (void)osMessageQueuePut(phost->os_event, &phost->os_msg, 0U, 0U);
 649:Middlewares/ST/STM32_USB_Host_Library/Class/MSC/Src/usbh_msc.c **** #endif
 650:Middlewares/ST/STM32_USB_Host_Library/Class/MSC/Src/usbh_msc.c **** #endif
 651:Middlewares/ST/STM32_USB_Host_Library/Class/MSC/Src/usbh_msc.c ****       break;
 652:Middlewares/ST/STM32_USB_Host_Library/Class/MSC/Src/usbh_msc.c **** 
 653:Middlewares/ST/STM32_USB_Host_Library/Class/MSC/Src/usbh_msc.c ****     case MSC_REQUEST_SENSE:
 654:Middlewares/ST/STM32_USB_Host_Library/Class/MSC/Src/usbh_msc.c ****       scsi_status = USBH_MSC_SCSI_RequestSense(phost, lun, &MSC_Handle->unit[lun].sense);
 655:Middlewares/ST/STM32_USB_Host_Library/Class/MSC/Src/usbh_msc.c **** 
 656:Middlewares/ST/STM32_USB_Host_Library/Class/MSC/Src/usbh_msc.c ****       if (scsi_status == USBH_OK)
 657:Middlewares/ST/STM32_USB_Host_Library/Class/MSC/Src/usbh_msc.c ****       {
 658:Middlewares/ST/STM32_USB_Host_Library/Class/MSC/Src/usbh_msc.c ****         USBH_UsrLog("Sense Key  : %x", MSC_Handle->unit[lun].sense.key);
 659:Middlewares/ST/STM32_USB_Host_Library/Class/MSC/Src/usbh_msc.c ****         USBH_UsrLog("Additional Sense Code : %x", MSC_Handle->unit[lun].sense.asc);
ARM GAS  C:\Users\benny\AppData\Local\Temp\ccktZh7f.s 			page 42


 660:Middlewares/ST/STM32_USB_Host_Library/Class/MSC/Src/usbh_msc.c ****         USBH_UsrLog("Additional Sense Code Qualifier: %x", MSC_Handle->unit[lun].sense.ascq);
 661:Middlewares/ST/STM32_USB_Host_Library/Class/MSC/Src/usbh_msc.c ****         MSC_Handle->unit[lun].state = MSC_IDLE;
 662:Middlewares/ST/STM32_USB_Host_Library/Class/MSC/Src/usbh_msc.c ****         MSC_Handle->unit[lun].error = MSC_ERROR;
 663:Middlewares/ST/STM32_USB_Host_Library/Class/MSC/Src/usbh_msc.c **** 
 664:Middlewares/ST/STM32_USB_Host_Library/Class/MSC/Src/usbh_msc.c ****         error = USBH_FAIL;
 665:Middlewares/ST/STM32_USB_Host_Library/Class/MSC/Src/usbh_msc.c ****       }
 666:Middlewares/ST/STM32_USB_Host_Library/Class/MSC/Src/usbh_msc.c ****       else if (scsi_status == USBH_FAIL)
 667:Middlewares/ST/STM32_USB_Host_Library/Class/MSC/Src/usbh_msc.c ****       {
 668:Middlewares/ST/STM32_USB_Host_Library/Class/MSC/Src/usbh_msc.c ****         USBH_UsrLog("MSC Device NOT ready");
 669:Middlewares/ST/STM32_USB_Host_Library/Class/MSC/Src/usbh_msc.c ****       }
 670:Middlewares/ST/STM32_USB_Host_Library/Class/MSC/Src/usbh_msc.c ****       else
 671:Middlewares/ST/STM32_USB_Host_Library/Class/MSC/Src/usbh_msc.c ****       {
 672:Middlewares/ST/STM32_USB_Host_Library/Class/MSC/Src/usbh_msc.c ****         if (scsi_status == USBH_UNRECOVERED_ERROR)
 673:Middlewares/ST/STM32_USB_Host_Library/Class/MSC/Src/usbh_msc.c ****         {
 674:Middlewares/ST/STM32_USB_Host_Library/Class/MSC/Src/usbh_msc.c ****           MSC_Handle->unit[lun].state = MSC_UNRECOVERED_ERROR;
 675:Middlewares/ST/STM32_USB_Host_Library/Class/MSC/Src/usbh_msc.c ****           error = USBH_FAIL;
 676:Middlewares/ST/STM32_USB_Host_Library/Class/MSC/Src/usbh_msc.c ****         }
 677:Middlewares/ST/STM32_USB_Host_Library/Class/MSC/Src/usbh_msc.c ****       }
 678:Middlewares/ST/STM32_USB_Host_Library/Class/MSC/Src/usbh_msc.c **** 
 679:Middlewares/ST/STM32_USB_Host_Library/Class/MSC/Src/usbh_msc.c **** #if (USBH_USE_OS == 1U)
 680:Middlewares/ST/STM32_USB_Host_Library/Class/MSC/Src/usbh_msc.c ****       phost->os_msg = (uint32_t)USBH_CLASS_EVENT;
 681:Middlewares/ST/STM32_USB_Host_Library/Class/MSC/Src/usbh_msc.c **** #if (osCMSIS < 0x20000U)
 682:Middlewares/ST/STM32_USB_Host_Library/Class/MSC/Src/usbh_msc.c ****       (void)osMessagePut(phost->os_event, phost->os_msg, 0U);
 683:Middlewares/ST/STM32_USB_Host_Library/Class/MSC/Src/usbh_msc.c **** #else
 684:Middlewares/ST/STM32_USB_Host_Library/Class/MSC/Src/usbh_msc.c ****       (void)osMessageQueuePut(phost->os_event, &phost->os_msg, 0U, 0U);
 685:Middlewares/ST/STM32_USB_Host_Library/Class/MSC/Src/usbh_msc.c **** #endif
 686:Middlewares/ST/STM32_USB_Host_Library/Class/MSC/Src/usbh_msc.c **** #endif
 687:Middlewares/ST/STM32_USB_Host_Library/Class/MSC/Src/usbh_msc.c ****       break;
 688:Middlewares/ST/STM32_USB_Host_Library/Class/MSC/Src/usbh_msc.c **** 
 689:Middlewares/ST/STM32_USB_Host_Library/Class/MSC/Src/usbh_msc.c ****     default:
 690:Middlewares/ST/STM32_USB_Host_Library/Class/MSC/Src/usbh_msc.c ****       break;
 691:Middlewares/ST/STM32_USB_Host_Library/Class/MSC/Src/usbh_msc.c **** 
 692:Middlewares/ST/STM32_USB_Host_Library/Class/MSC/Src/usbh_msc.c ****   }
 693:Middlewares/ST/STM32_USB_Host_Library/Class/MSC/Src/usbh_msc.c ****   return error;
 1258              		.loc 1 693 3 is_stmt 1 view .LVU447
 694:Middlewares/ST/STM32_USB_Host_Library/Class/MSC/Src/usbh_msc.c **** }
 1259              		.loc 1 694 1 is_stmt 0 view .LVU448
 1260 0024 03B0     		add	sp, sp, #12
 1261              	.LCFI9:
 1262              		.cfi_remember_state
 1263              		.cfi_def_cfa_offset 12
 1264              		@ sp needed
 1265 0026 30BD     		pop	{r4, r5, pc}
 1266              	.LVL104:
 1267              	.L84:
 1268              	.LCFI10:
 1269              		.cfi_restore_state
 592:Middlewares/ST/STM32_USB_Host_Library/Class/MSC/Src/usbh_msc.c **** 
 1270              		.loc 1 592 7 is_stmt 1 view .LVU449
 592:Middlewares/ST/STM32_USB_Host_Library/Class/MSC/Src/usbh_msc.c **** 
 1271              		.loc 1 592 21 is_stmt 0 view .LVU450
 1272 0028 0022     		movs	r2, #0
 1273 002a 0092     		str	r2, [sp]
 1274 002c 1346     		mov	r3, r2
 1275 002e FFF7FEFF 		bl	USBH_MSC_SCSI_Read
 1276              	.LVL105:
 594:Middlewares/ST/STM32_USB_Host_Library/Class/MSC/Src/usbh_msc.c ****       {
ARM GAS  C:\Users\benny\AppData\Local\Temp\ccktZh7f.s 			page 43


 1277              		.loc 1 594 7 is_stmt 1 view .LVU451
 594:Middlewares/ST/STM32_USB_Host_Library/Class/MSC/Src/usbh_msc.c ****       {
 1278              		.loc 1 594 10 is_stmt 0 view .LVU452
 1279 0032 30B9     		cbnz	r0, .L88
 596:Middlewares/ST/STM32_USB_Host_Library/Class/MSC/Src/usbh_msc.c ****         error = USBH_OK;
 1280              		.loc 1 596 9 is_stmt 1 view .LVU453
 596:Middlewares/ST/STM32_USB_Host_Library/Class/MSC/Src/usbh_msc.c ****         error = USBH_OK;
 1281              		.loc 1 596 37 is_stmt 0 view .LVU454
 1282 0034 3423     		movs	r3, #52
 1283 0036 03FB0453 		mla	r3, r3, r4, r5
 1284 003a 0122     		movs	r2, #1
 1285 003c 83F89020 		strb	r2, [r3, #144]
 597:Middlewares/ST/STM32_USB_Host_Library/Class/MSC/Src/usbh_msc.c ****       }
 1286              		.loc 1 597 9 is_stmt 1 view .LVU455
 1287              	.LVL106:
 597:Middlewares/ST/STM32_USB_Host_Library/Class/MSC/Src/usbh_msc.c ****       }
 1288              		.loc 1 597 9 is_stmt 0 view .LVU456
 1289 0040 F0E7     		b	.L87
 1290              	.LVL107:
 1291              	.L88:
 599:Middlewares/ST/STM32_USB_Host_Library/Class/MSC/Src/usbh_msc.c ****       {
 1292              		.loc 1 599 12 is_stmt 1 view .LVU457
 599:Middlewares/ST/STM32_USB_Host_Library/Class/MSC/Src/usbh_msc.c ****       {
 1293              		.loc 1 599 15 is_stmt 0 view .LVU458
 1294 0042 0228     		cmp	r0, #2
 1295 0044 03D0     		beq	.L98
 605:Middlewares/ST/STM32_USB_Host_Library/Class/MSC/Src/usbh_msc.c ****         {
 1296              		.loc 1 605 9 is_stmt 1 view .LVU459
 605:Middlewares/ST/STM32_USB_Host_Library/Class/MSC/Src/usbh_msc.c ****         {
 1297              		.loc 1 605 12 is_stmt 0 view .LVU460
 1298 0046 0428     		cmp	r0, #4
 1299 0048 09D0     		beq	.L99
 585:Middlewares/ST/STM32_USB_Host_Library/Class/MSC/Src/usbh_msc.c ****   USBH_StatusTypeDef scsi_status = USBH_BUSY;
 1300              		.loc 1 585 22 view .LVU461
 1301 004a 0120     		movs	r0, #1
 1302              	.LVL108:
 585:Middlewares/ST/STM32_USB_Host_Library/Class/MSC/Src/usbh_msc.c ****   USBH_StatusTypeDef scsi_status = USBH_BUSY;
 1303              		.loc 1 585 22 view .LVU462
 1304 004c EAE7     		b	.L87
 1305              	.LVL109:
 1306              	.L98:
 601:Middlewares/ST/STM32_USB_Host_Library/Class/MSC/Src/usbh_msc.c ****       }
 1307              		.loc 1 601 9 is_stmt 1 view .LVU463
 601:Middlewares/ST/STM32_USB_Host_Library/Class/MSC/Src/usbh_msc.c ****       }
 1308              		.loc 1 601 37 is_stmt 0 view .LVU464
 1309 004e 3423     		movs	r3, #52
 1310 0050 03FB0453 		mla	r3, r3, r4, r5
 1311 0054 0522     		movs	r2, #5
 1312 0056 83F89020 		strb	r2, [r3, #144]
 585:Middlewares/ST/STM32_USB_Host_Library/Class/MSC/Src/usbh_msc.c ****   USBH_StatusTypeDef scsi_status = USBH_BUSY;
 1313              		.loc 1 585 22 view .LVU465
 1314 005a 0120     		movs	r0, #1
 1315              	.LVL110:
 585:Middlewares/ST/STM32_USB_Host_Library/Class/MSC/Src/usbh_msc.c ****   USBH_StatusTypeDef scsi_status = USBH_BUSY;
 1316              		.loc 1 585 22 view .LVU466
 1317 005c E2E7     		b	.L87
 1318              	.LVL111:
ARM GAS  C:\Users\benny\AppData\Local\Temp\ccktZh7f.s 			page 44


 1319              	.L99:
 607:Middlewares/ST/STM32_USB_Host_Library/Class/MSC/Src/usbh_msc.c ****           error = USBH_FAIL;
 1320              		.loc 1 607 11 is_stmt 1 view .LVU467
 607:Middlewares/ST/STM32_USB_Host_Library/Class/MSC/Src/usbh_msc.c ****           error = USBH_FAIL;
 1321              		.loc 1 607 39 is_stmt 0 view .LVU468
 1322 005e 3423     		movs	r3, #52
 1323 0060 03FB0453 		mla	r3, r3, r4, r5
 1324 0064 0822     		movs	r2, #8
 1325 0066 83F89020 		strb	r2, [r3, #144]
 608:Middlewares/ST/STM32_USB_Host_Library/Class/MSC/Src/usbh_msc.c ****         }
 1326              		.loc 1 608 11 is_stmt 1 view .LVU469
 1327              	.LVL112:
 608:Middlewares/ST/STM32_USB_Host_Library/Class/MSC/Src/usbh_msc.c ****         }
 1328              		.loc 1 608 17 is_stmt 0 view .LVU470
 1329 006a 0220     		movs	r0, #2
 1330              	.LVL113:
 608:Middlewares/ST/STM32_USB_Host_Library/Class/MSC/Src/usbh_msc.c ****         }
 1331              		.loc 1 608 17 view .LVU471
 1332 006c DAE7     		b	.L87
 1333              	.LVL114:
 1334              	.L85:
 623:Middlewares/ST/STM32_USB_Host_Library/Class/MSC/Src/usbh_msc.c **** 
 1335              		.loc 1 623 7 is_stmt 1 view .LVU472
 623:Middlewares/ST/STM32_USB_Host_Library/Class/MSC/Src/usbh_msc.c **** 
 1336              		.loc 1 623 21 is_stmt 0 view .LVU473
 1337 006e 0022     		movs	r2, #0
 1338 0070 0092     		str	r2, [sp]
 1339 0072 1346     		mov	r3, r2
 1340 0074 FFF7FEFF 		bl	USBH_MSC_SCSI_Write
 1341              	.LVL115:
 625:Middlewares/ST/STM32_USB_Host_Library/Class/MSC/Src/usbh_msc.c ****       {
 1342              		.loc 1 625 7 is_stmt 1 view .LVU474
 625:Middlewares/ST/STM32_USB_Host_Library/Class/MSC/Src/usbh_msc.c ****       {
 1343              		.loc 1 625 10 is_stmt 0 view .LVU475
 1344 0078 30B9     		cbnz	r0, .L90
 627:Middlewares/ST/STM32_USB_Host_Library/Class/MSC/Src/usbh_msc.c ****         error = USBH_OK;
 1345              		.loc 1 627 9 is_stmt 1 view .LVU476
 627:Middlewares/ST/STM32_USB_Host_Library/Class/MSC/Src/usbh_msc.c ****         error = USBH_OK;
 1346              		.loc 1 627 37 is_stmt 0 view .LVU477
 1347 007a 3423     		movs	r3, #52
 1348 007c 03FB0453 		mla	r3, r3, r4, r5
 1349 0080 0122     		movs	r2, #1
 1350 0082 83F89020 		strb	r2, [r3, #144]
 628:Middlewares/ST/STM32_USB_Host_Library/Class/MSC/Src/usbh_msc.c ****       }
 1351              		.loc 1 628 9 is_stmt 1 view .LVU478
 1352              	.LVL116:
 628:Middlewares/ST/STM32_USB_Host_Library/Class/MSC/Src/usbh_msc.c ****       }
 1353              		.loc 1 628 9 is_stmt 0 view .LVU479
 1354 0086 CDE7     		b	.L87
 1355              	.LVL117:
 1356              	.L90:
 630:Middlewares/ST/STM32_USB_Host_Library/Class/MSC/Src/usbh_msc.c ****       {
 1357              		.loc 1 630 12 is_stmt 1 view .LVU480
 630:Middlewares/ST/STM32_USB_Host_Library/Class/MSC/Src/usbh_msc.c ****       {
 1358              		.loc 1 630 15 is_stmt 0 view .LVU481
 1359 0088 0228     		cmp	r0, #2
 1360 008a 03D0     		beq	.L100
ARM GAS  C:\Users\benny\AppData\Local\Temp\ccktZh7f.s 			page 45


 636:Middlewares/ST/STM32_USB_Host_Library/Class/MSC/Src/usbh_msc.c ****         {
 1361              		.loc 1 636 9 is_stmt 1 view .LVU482
 636:Middlewares/ST/STM32_USB_Host_Library/Class/MSC/Src/usbh_msc.c ****         {
 1362              		.loc 1 636 12 is_stmt 0 view .LVU483
 1363 008c 0428     		cmp	r0, #4
 1364 008e 09D0     		beq	.L101
 585:Middlewares/ST/STM32_USB_Host_Library/Class/MSC/Src/usbh_msc.c ****   USBH_StatusTypeDef scsi_status = USBH_BUSY;
 1365              		.loc 1 585 22 view .LVU484
 1366 0090 0120     		movs	r0, #1
 1367              	.LVL118:
 585:Middlewares/ST/STM32_USB_Host_Library/Class/MSC/Src/usbh_msc.c ****   USBH_StatusTypeDef scsi_status = USBH_BUSY;
 1368              		.loc 1 585 22 view .LVU485
 1369 0092 C7E7     		b	.L87
 1370              	.LVL119:
 1371              	.L100:
 632:Middlewares/ST/STM32_USB_Host_Library/Class/MSC/Src/usbh_msc.c ****       }
 1372              		.loc 1 632 9 is_stmt 1 view .LVU486
 632:Middlewares/ST/STM32_USB_Host_Library/Class/MSC/Src/usbh_msc.c ****       }
 1373              		.loc 1 632 37 is_stmt 0 view .LVU487
 1374 0094 3423     		movs	r3, #52
 1375 0096 03FB0453 		mla	r3, r3, r4, r5
 1376 009a 0522     		movs	r2, #5
 1377 009c 83F89020 		strb	r2, [r3, #144]
 585:Middlewares/ST/STM32_USB_Host_Library/Class/MSC/Src/usbh_msc.c ****   USBH_StatusTypeDef scsi_status = USBH_BUSY;
 1378              		.loc 1 585 22 view .LVU488
 1379 00a0 0120     		movs	r0, #1
 1380              	.LVL120:
 585:Middlewares/ST/STM32_USB_Host_Library/Class/MSC/Src/usbh_msc.c ****   USBH_StatusTypeDef scsi_status = USBH_BUSY;
 1381              		.loc 1 585 22 view .LVU489
 1382 00a2 BFE7     		b	.L87
 1383              	.LVL121:
 1384              	.L101:
 638:Middlewares/ST/STM32_USB_Host_Library/Class/MSC/Src/usbh_msc.c ****           error = USBH_FAIL;
 1385              		.loc 1 638 11 is_stmt 1 view .LVU490
 638:Middlewares/ST/STM32_USB_Host_Library/Class/MSC/Src/usbh_msc.c ****           error = USBH_FAIL;
 1386              		.loc 1 638 39 is_stmt 0 view .LVU491
 1387 00a4 3423     		movs	r3, #52
 1388 00a6 03FB0453 		mla	r3, r3, r4, r5
 1389 00aa 0822     		movs	r2, #8
 1390 00ac 83F89020 		strb	r2, [r3, #144]
 639:Middlewares/ST/STM32_USB_Host_Library/Class/MSC/Src/usbh_msc.c ****         }
 1391              		.loc 1 639 11 is_stmt 1 view .LVU492
 1392              	.LVL122:
 639:Middlewares/ST/STM32_USB_Host_Library/Class/MSC/Src/usbh_msc.c ****         }
 1393              		.loc 1 639 17 is_stmt 0 view .LVU493
 1394 00b0 0220     		movs	r0, #2
 1395              	.LVL123:
 639:Middlewares/ST/STM32_USB_Host_Library/Class/MSC/Src/usbh_msc.c ****         }
 1396              		.loc 1 639 17 view .LVU494
 1397 00b2 B7E7     		b	.L87
 1398              	.LVL124:
 1399              	.L86:
 654:Middlewares/ST/STM32_USB_Host_Library/Class/MSC/Src/usbh_msc.c **** 
 1400              		.loc 1 654 7 is_stmt 1 view .LVU495
 654:Middlewares/ST/STM32_USB_Host_Library/Class/MSC/Src/usbh_msc.c **** 
 1401              		.loc 1 654 21 is_stmt 0 view .LVU496
 1402 00b4 3422     		movs	r2, #52
ARM GAS  C:\Users\benny\AppData\Local\Temp\ccktZh7f.s 			page 46


 1403 00b6 01FB02F2 		mul	r2, r1, r2
 1404 00ba 9832     		adds	r2, r2, #152
 1405 00bc 2A44     		add	r2, r2, r5
 1406 00be 0432     		adds	r2, r2, #4
 1407 00c0 FFF7FEFF 		bl	USBH_MSC_SCSI_RequestSense
 1408              	.LVL125:
 656:Middlewares/ST/STM32_USB_Host_Library/Class/MSC/Src/usbh_msc.c ****       {
 1409              		.loc 1 656 7 is_stmt 1 view .LVU497
 656:Middlewares/ST/STM32_USB_Host_Library/Class/MSC/Src/usbh_msc.c ****       {
 1410              		.loc 1 656 10 is_stmt 0 view .LVU498
 1411 00c4 28B1     		cbz	r0, .L102
 666:Middlewares/ST/STM32_USB_Host_Library/Class/MSC/Src/usbh_msc.c ****       {
 1412              		.loc 1 666 12 is_stmt 1 view .LVU499
 666:Middlewares/ST/STM32_USB_Host_Library/Class/MSC/Src/usbh_msc.c ****       {
 1413              		.loc 1 666 15 is_stmt 0 view .LVU500
 1414 00c6 0228     		cmp	r0, #2
 1415 00c8 15D0     		beq	.L95
 672:Middlewares/ST/STM32_USB_Host_Library/Class/MSC/Src/usbh_msc.c ****         {
 1416              		.loc 1 672 9 is_stmt 1 view .LVU501
 672:Middlewares/ST/STM32_USB_Host_Library/Class/MSC/Src/usbh_msc.c ****         {
 1417              		.loc 1 672 12 is_stmt 0 view .LVU502
 1418 00ca 0428     		cmp	r0, #4
 1419 00cc 0BD0     		beq	.L103
 585:Middlewares/ST/STM32_USB_Host_Library/Class/MSC/Src/usbh_msc.c ****   USBH_StatusTypeDef scsi_status = USBH_BUSY;
 1420              		.loc 1 585 22 view .LVU503
 1421 00ce 0120     		movs	r0, #1
 1422              	.LVL126:
 585:Middlewares/ST/STM32_USB_Host_Library/Class/MSC/Src/usbh_msc.c ****   USBH_StatusTypeDef scsi_status = USBH_BUSY;
 1423              		.loc 1 585 22 view .LVU504
 1424 00d0 A8E7     		b	.L87
 1425              	.LVL127:
 1426              	.L102:
 658:Middlewares/ST/STM32_USB_Host_Library/Class/MSC/Src/usbh_msc.c ****         USBH_UsrLog("Additional Sense Code : %x", MSC_Handle->unit[lun].sense.asc);
 1427              		.loc 1 658 9 is_stmt 1 view .LVU505
 658:Middlewares/ST/STM32_USB_Host_Library/Class/MSC/Src/usbh_msc.c ****         USBH_UsrLog("Additional Sense Code : %x", MSC_Handle->unit[lun].sense.asc);
 1428              		.loc 1 658 9 view .LVU506
 658:Middlewares/ST/STM32_USB_Host_Library/Class/MSC/Src/usbh_msc.c ****         USBH_UsrLog("Additional Sense Code : %x", MSC_Handle->unit[lun].sense.asc);
 1429              		.loc 1 658 9 view .LVU507
 659:Middlewares/ST/STM32_USB_Host_Library/Class/MSC/Src/usbh_msc.c ****         USBH_UsrLog("Additional Sense Code Qualifier: %x", MSC_Handle->unit[lun].sense.ascq);
 1430              		.loc 1 659 9 view .LVU508
 659:Middlewares/ST/STM32_USB_Host_Library/Class/MSC/Src/usbh_msc.c ****         USBH_UsrLog("Additional Sense Code Qualifier: %x", MSC_Handle->unit[lun].sense.ascq);
 1431              		.loc 1 659 9 view .LVU509
 659:Middlewares/ST/STM32_USB_Host_Library/Class/MSC/Src/usbh_msc.c ****         USBH_UsrLog("Additional Sense Code Qualifier: %x", MSC_Handle->unit[lun].sense.ascq);
 1432              		.loc 1 659 9 view .LVU510
 660:Middlewares/ST/STM32_USB_Host_Library/Class/MSC/Src/usbh_msc.c ****         MSC_Handle->unit[lun].state = MSC_IDLE;
 1433              		.loc 1 660 9 view .LVU511
 660:Middlewares/ST/STM32_USB_Host_Library/Class/MSC/Src/usbh_msc.c ****         MSC_Handle->unit[lun].state = MSC_IDLE;
 1434              		.loc 1 660 9 view .LVU512
 660:Middlewares/ST/STM32_USB_Host_Library/Class/MSC/Src/usbh_msc.c ****         MSC_Handle->unit[lun].state = MSC_IDLE;
 1435              		.loc 1 660 9 view .LVU513
 661:Middlewares/ST/STM32_USB_Host_Library/Class/MSC/Src/usbh_msc.c ****         MSC_Handle->unit[lun].error = MSC_ERROR;
 1436              		.loc 1 661 9 view .LVU514
 661:Middlewares/ST/STM32_USB_Host_Library/Class/MSC/Src/usbh_msc.c ****         MSC_Handle->unit[lun].error = MSC_ERROR;
 1437              		.loc 1 661 37 is_stmt 0 view .LVU515
 1438 00d2 3423     		movs	r3, #52
 1439 00d4 03FB0453 		mla	r3, r3, r4, r5
 1440 00d8 0122     		movs	r2, #1
ARM GAS  C:\Users\benny\AppData\Local\Temp\ccktZh7f.s 			page 47


 1441 00da 83F89020 		strb	r2, [r3, #144]
 662:Middlewares/ST/STM32_USB_Host_Library/Class/MSC/Src/usbh_msc.c **** 
 1442              		.loc 1 662 9 is_stmt 1 view .LVU516
 662:Middlewares/ST/STM32_USB_Host_Library/Class/MSC/Src/usbh_msc.c **** 
 1443              		.loc 1 662 37 is_stmt 0 view .LVU517
 1444 00de 0220     		movs	r0, #2
 1445              	.LVL128:
 662:Middlewares/ST/STM32_USB_Host_Library/Class/MSC/Src/usbh_msc.c **** 
 1446              		.loc 1 662 37 view .LVU518
 1447 00e0 83F89100 		strb	r0, [r3, #145]
 664:Middlewares/ST/STM32_USB_Host_Library/Class/MSC/Src/usbh_msc.c ****       }
 1448              		.loc 1 664 9 is_stmt 1 view .LVU519
 1449              	.LVL129:
 664:Middlewares/ST/STM32_USB_Host_Library/Class/MSC/Src/usbh_msc.c ****       }
 1450              		.loc 1 664 9 is_stmt 0 view .LVU520
 1451 00e4 9EE7     		b	.L87
 1452              	.LVL130:
 1453              	.L103:
 674:Middlewares/ST/STM32_USB_Host_Library/Class/MSC/Src/usbh_msc.c ****           error = USBH_FAIL;
 1454              		.loc 1 674 11 is_stmt 1 view .LVU521
 674:Middlewares/ST/STM32_USB_Host_Library/Class/MSC/Src/usbh_msc.c ****           error = USBH_FAIL;
 1455              		.loc 1 674 39 is_stmt 0 view .LVU522
 1456 00e6 3423     		movs	r3, #52
 1457 00e8 03FB0455 		mla	r5, r3, r4, r5
 1458              	.LVL131:
 674:Middlewares/ST/STM32_USB_Host_Library/Class/MSC/Src/usbh_msc.c ****           error = USBH_FAIL;
 1459              		.loc 1 674 39 view .LVU523
 1460 00ec 0823     		movs	r3, #8
 1461 00ee 85F89030 		strb	r3, [r5, #144]
 675:Middlewares/ST/STM32_USB_Host_Library/Class/MSC/Src/usbh_msc.c ****         }
 1462              		.loc 1 675 11 is_stmt 1 view .LVU524
 1463              	.LVL132:
 675:Middlewares/ST/STM32_USB_Host_Library/Class/MSC/Src/usbh_msc.c ****         }
 1464              		.loc 1 675 17 is_stmt 0 view .LVU525
 1465 00f2 0220     		movs	r0, #2
 1466              	.LVL133:
 675:Middlewares/ST/STM32_USB_Host_Library/Class/MSC/Src/usbh_msc.c ****         }
 1467              		.loc 1 675 17 view .LVU526
 1468 00f4 96E7     		b	.L87
 1469              	.LVL134:
 1470              	.L95:
 585:Middlewares/ST/STM32_USB_Host_Library/Class/MSC/Src/usbh_msc.c ****   USBH_StatusTypeDef scsi_status = USBH_BUSY;
 1471              		.loc 1 585 22 view .LVU527
 1472 00f6 0120     		movs	r0, #1
 1473              	.LVL135:
 585:Middlewares/ST/STM32_USB_Host_Library/Class/MSC/Src/usbh_msc.c ****   USBH_StatusTypeDef scsi_status = USBH_BUSY;
 1474              		.loc 1 585 22 view .LVU528
 1475 00f8 94E7     		b	.L87
 1476              		.cfi_endproc
 1477              	.LFE149:
 1479              		.section	.text.USBH_MSC_IsReady,"ax",%progbits
 1480              		.align	1
 1481              		.global	USBH_MSC_IsReady
 1482              		.syntax unified
 1483              		.thumb
 1484              		.thumb_func
 1486              	USBH_MSC_IsReady:
ARM GAS  C:\Users\benny\AppData\Local\Temp\ccktZh7f.s 			page 48


 1487              	.LVL136:
 1488              	.LFB150:
 695:Middlewares/ST/STM32_USB_Host_Library/Class/MSC/Src/usbh_msc.c **** 
 696:Middlewares/ST/STM32_USB_Host_Library/Class/MSC/Src/usbh_msc.c **** /**
 697:Middlewares/ST/STM32_USB_Host_Library/Class/MSC/Src/usbh_msc.c ****   * @brief  USBH_MSC_IsReady
 698:Middlewares/ST/STM32_USB_Host_Library/Class/MSC/Src/usbh_msc.c ****   *         The function check if the MSC function is ready
 699:Middlewares/ST/STM32_USB_Host_Library/Class/MSC/Src/usbh_msc.c ****   * @param  phost: Host handle
 700:Middlewares/ST/STM32_USB_Host_Library/Class/MSC/Src/usbh_msc.c ****   * @retval USBH Status
 701:Middlewares/ST/STM32_USB_Host_Library/Class/MSC/Src/usbh_msc.c ****   */
 702:Middlewares/ST/STM32_USB_Host_Library/Class/MSC/Src/usbh_msc.c **** uint8_t USBH_MSC_IsReady(USBH_HandleTypeDef *phost)
 703:Middlewares/ST/STM32_USB_Host_Library/Class/MSC/Src/usbh_msc.c **** {
 1489              		.loc 1 703 1 is_stmt 1 view -0
 1490              		.cfi_startproc
 1491              		@ args = 0, pretend = 0, frame = 0
 1492              		@ frame_needed = 0, uses_anonymous_args = 0
 1493              		@ link register save eliminated.
 704:Middlewares/ST/STM32_USB_Host_Library/Class/MSC/Src/usbh_msc.c ****   MSC_HandleTypeDef *MSC_Handle = (MSC_HandleTypeDef *) phost->pActiveClass->pData;
 1494              		.loc 1 704 3 view .LVU530
 1495              		.loc 1 704 62 is_stmt 0 view .LVU531
 1496 0000 D0F84C34 		ldr	r3, [r0, #1100]
 1497              		.loc 1 704 22 view .LVU532
 1498 0004 DA69     		ldr	r2, [r3, #28]
 1499              	.LVL137:
 705:Middlewares/ST/STM32_USB_Host_Library/Class/MSC/Src/usbh_msc.c ****   uint8_t res;
 1500              		.loc 1 705 3 is_stmt 1 view .LVU533
 706:Middlewares/ST/STM32_USB_Host_Library/Class/MSC/Src/usbh_msc.c **** 
 707:Middlewares/ST/STM32_USB_Host_Library/Class/MSC/Src/usbh_msc.c ****   if ((phost->gState == HOST_CLASS) && (MSC_Handle->state == MSC_IDLE))
 1501              		.loc 1 707 3 view .LVU534
 1502              		.loc 1 707 13 is_stmt 0 view .LVU535
 1503 0006 0378     		ldrb	r3, [r0]	@ zero_extendqisi2
 1504 0008 DBB2     		uxtb	r3, r3
 1505              		.loc 1 707 6 view .LVU536
 1506 000a 0B2B     		cmp	r3, #11
 1507 000c 01D0     		beq	.L107
 708:Middlewares/ST/STM32_USB_Host_Library/Class/MSC/Src/usbh_msc.c ****   {
 709:Middlewares/ST/STM32_USB_Host_Library/Class/MSC/Src/usbh_msc.c ****     res = 1U;
 710:Middlewares/ST/STM32_USB_Host_Library/Class/MSC/Src/usbh_msc.c ****   }
 711:Middlewares/ST/STM32_USB_Host_Library/Class/MSC/Src/usbh_msc.c ****   else
 712:Middlewares/ST/STM32_USB_Host_Library/Class/MSC/Src/usbh_msc.c ****   {
 713:Middlewares/ST/STM32_USB_Host_Library/Class/MSC/Src/usbh_msc.c ****     res = 0U;
 1508              		.loc 1 713 9 view .LVU537
 1509 000e 0020     		movs	r0, #0
 1510              	.LVL138:
 1511              	.L105:
 714:Middlewares/ST/STM32_USB_Host_Library/Class/MSC/Src/usbh_msc.c ****   }
 715:Middlewares/ST/STM32_USB_Host_Library/Class/MSC/Src/usbh_msc.c **** 
 716:Middlewares/ST/STM32_USB_Host_Library/Class/MSC/Src/usbh_msc.c ****   return res;
 1512              		.loc 1 716 3 is_stmt 1 view .LVU538
 717:Middlewares/ST/STM32_USB_Host_Library/Class/MSC/Src/usbh_msc.c **** }
 1513              		.loc 1 717 1 is_stmt 0 view .LVU539
 1514 0010 7047     		bx	lr
 1515              	.LVL139:
 1516              	.L107:
 707:Middlewares/ST/STM32_USB_Host_Library/Class/MSC/Src/usbh_msc.c ****   {
 1517              		.loc 1 707 51 discriminator 1 view .LVU540
 1518 0012 107B     		ldrb	r0, [r2, #12]	@ zero_extendqisi2
 1519              	.LVL140:
ARM GAS  C:\Users\benny\AppData\Local\Temp\ccktZh7f.s 			page 49


 707:Middlewares/ST/STM32_USB_Host_Library/Class/MSC/Src/usbh_msc.c ****   {
 1520              		.loc 1 707 37 discriminator 1 view .LVU541
 1521 0014 0128     		cmp	r0, #1
 1522 0016 FBD0     		beq	.L105
 713:Middlewares/ST/STM32_USB_Host_Library/Class/MSC/Src/usbh_msc.c ****   }
 1523              		.loc 1 713 9 view .LVU542
 1524 0018 0020     		movs	r0, #0
 1525 001a 7047     		bx	lr
 1526              		.cfi_endproc
 1527              	.LFE150:
 1529              		.section	.text.USBH_MSC_GetMaxLUN,"ax",%progbits
 1530              		.align	1
 1531              		.global	USBH_MSC_GetMaxLUN
 1532              		.syntax unified
 1533              		.thumb
 1534              		.thumb_func
 1536              	USBH_MSC_GetMaxLUN:
 1537              	.LVL141:
 1538              	.LFB151:
 718:Middlewares/ST/STM32_USB_Host_Library/Class/MSC/Src/usbh_msc.c **** 
 719:Middlewares/ST/STM32_USB_Host_Library/Class/MSC/Src/usbh_msc.c **** /**
 720:Middlewares/ST/STM32_USB_Host_Library/Class/MSC/Src/usbh_msc.c ****   * @brief  USBH_MSC_GetMaxLUN
 721:Middlewares/ST/STM32_USB_Host_Library/Class/MSC/Src/usbh_msc.c ****   *         The function return the Max LUN supported
 722:Middlewares/ST/STM32_USB_Host_Library/Class/MSC/Src/usbh_msc.c ****   * @param  phost: Host handle
 723:Middlewares/ST/STM32_USB_Host_Library/Class/MSC/Src/usbh_msc.c ****   * @retval logical Unit Number supported
 724:Middlewares/ST/STM32_USB_Host_Library/Class/MSC/Src/usbh_msc.c ****   */
 725:Middlewares/ST/STM32_USB_Host_Library/Class/MSC/Src/usbh_msc.c **** uint8_t USBH_MSC_GetMaxLUN(USBH_HandleTypeDef *phost)
 726:Middlewares/ST/STM32_USB_Host_Library/Class/MSC/Src/usbh_msc.c **** {
 1539              		.loc 1 726 1 is_stmt 1 view -0
 1540              		.cfi_startproc
 1541              		@ args = 0, pretend = 0, frame = 0
 1542              		@ frame_needed = 0, uses_anonymous_args = 0
 1543              		@ link register save eliminated.
 727:Middlewares/ST/STM32_USB_Host_Library/Class/MSC/Src/usbh_msc.c ****   MSC_HandleTypeDef *MSC_Handle = (MSC_HandleTypeDef *) phost->pActiveClass->pData;
 1544              		.loc 1 727 3 view .LVU544
 1545              		.loc 1 727 62 is_stmt 0 view .LVU545
 1546 0000 D0F84C34 		ldr	r3, [r0, #1100]
 1547              		.loc 1 727 22 view .LVU546
 1548 0004 DA69     		ldr	r2, [r3, #28]
 1549              	.LVL142:
 728:Middlewares/ST/STM32_USB_Host_Library/Class/MSC/Src/usbh_msc.c **** 
 729:Middlewares/ST/STM32_USB_Host_Library/Class/MSC/Src/usbh_msc.c ****   if ((phost->gState == HOST_CLASS) && (MSC_Handle->state == MSC_IDLE))
 1550              		.loc 1 729 3 is_stmt 1 view .LVU547
 1551              		.loc 1 729 13 is_stmt 0 view .LVU548
 1552 0006 0378     		ldrb	r3, [r0]	@ zero_extendqisi2
 1553 0008 DBB2     		uxtb	r3, r3
 1554              		.loc 1 729 6 view .LVU549
 1555 000a 0B2B     		cmp	r3, #11
 1556 000c 01D0     		beq	.L112
 730:Middlewares/ST/STM32_USB_Host_Library/Class/MSC/Src/usbh_msc.c ****   {
 731:Middlewares/ST/STM32_USB_Host_Library/Class/MSC/Src/usbh_msc.c ****     return (uint8_t)MSC_Handle->max_lun;
 732:Middlewares/ST/STM32_USB_Host_Library/Class/MSC/Src/usbh_msc.c ****   }
 733:Middlewares/ST/STM32_USB_Host_Library/Class/MSC/Src/usbh_msc.c **** 
 734:Middlewares/ST/STM32_USB_Host_Library/Class/MSC/Src/usbh_msc.c ****   return 0xFFU;
 1557              		.loc 1 734 10 view .LVU550
 1558 000e FF20     		movs	r0, #255
 1559              	.LVL143:
ARM GAS  C:\Users\benny\AppData\Local\Temp\ccktZh7f.s 			page 50


 1560              		.loc 1 734 10 view .LVU551
 1561 0010 7047     		bx	lr
 1562              	.LVL144:
 1563              	.L112:
 729:Middlewares/ST/STM32_USB_Host_Library/Class/MSC/Src/usbh_msc.c ****   {
 1564              		.loc 1 729 51 discriminator 1 view .LVU552
 1565 0012 137B     		ldrb	r3, [r2, #12]	@ zero_extendqisi2
 729:Middlewares/ST/STM32_USB_Host_Library/Class/MSC/Src/usbh_msc.c ****   {
 1566              		.loc 1 729 37 discriminator 1 view .LVU553
 1567 0014 012B     		cmp	r3, #1
 1568 0016 01D0     		beq	.L113
 1569              		.loc 1 734 10 view .LVU554
 1570 0018 FF20     		movs	r0, #255
 1571              	.LVL145:
 735:Middlewares/ST/STM32_USB_Host_Library/Class/MSC/Src/usbh_msc.c **** }
 1572              		.loc 1 735 1 view .LVU555
 1573 001a 7047     		bx	lr
 1574              	.LVL146:
 1575              	.L113:
 731:Middlewares/ST/STM32_USB_Host_Library/Class/MSC/Src/usbh_msc.c ****   }
 1576              		.loc 1 731 5 is_stmt 1 view .LVU556
 731:Middlewares/ST/STM32_USB_Host_Library/Class/MSC/Src/usbh_msc.c ****   }
 1577              		.loc 1 731 12 is_stmt 0 view .LVU557
 1578 001c 1078     		ldrb	r0, [r2]	@ zero_extendqisi2
 1579              	.LVL147:
 731:Middlewares/ST/STM32_USB_Host_Library/Class/MSC/Src/usbh_msc.c ****   }
 1580              		.loc 1 731 12 view .LVU558
 1581 001e 7047     		bx	lr
 1582              		.cfi_endproc
 1583              	.LFE151:
 1585              		.section	.text.USBH_MSC_UnitIsReady,"ax",%progbits
 1586              		.align	1
 1587              		.global	USBH_MSC_UnitIsReady
 1588              		.syntax unified
 1589              		.thumb
 1590              		.thumb_func
 1592              	USBH_MSC_UnitIsReady:
 1593              	.LVL148:
 1594              	.LFB152:
 736:Middlewares/ST/STM32_USB_Host_Library/Class/MSC/Src/usbh_msc.c **** 
 737:Middlewares/ST/STM32_USB_Host_Library/Class/MSC/Src/usbh_msc.c **** /**
 738:Middlewares/ST/STM32_USB_Host_Library/Class/MSC/Src/usbh_msc.c ****   * @brief  USBH_MSC_UnitIsReady
 739:Middlewares/ST/STM32_USB_Host_Library/Class/MSC/Src/usbh_msc.c ****   *         The function check whether a LUN is ready
 740:Middlewares/ST/STM32_USB_Host_Library/Class/MSC/Src/usbh_msc.c ****   * @param  phost: Host handle
 741:Middlewares/ST/STM32_USB_Host_Library/Class/MSC/Src/usbh_msc.c ****   * @param  lun: logical Unit Number
 742:Middlewares/ST/STM32_USB_Host_Library/Class/MSC/Src/usbh_msc.c ****   * @retval Lun status (0: not ready / 1: ready)
 743:Middlewares/ST/STM32_USB_Host_Library/Class/MSC/Src/usbh_msc.c ****   */
 744:Middlewares/ST/STM32_USB_Host_Library/Class/MSC/Src/usbh_msc.c **** uint8_t USBH_MSC_UnitIsReady(USBH_HandleTypeDef *phost, uint8_t lun)
 745:Middlewares/ST/STM32_USB_Host_Library/Class/MSC/Src/usbh_msc.c **** {
 1595              		.loc 1 745 1 is_stmt 1 view -0
 1596              		.cfi_startproc
 1597              		@ args = 0, pretend = 0, frame = 0
 1598              		@ frame_needed = 0, uses_anonymous_args = 0
 1599              		@ link register save eliminated.
 746:Middlewares/ST/STM32_USB_Host_Library/Class/MSC/Src/usbh_msc.c ****   MSC_HandleTypeDef *MSC_Handle = (MSC_HandleTypeDef *) phost->pActiveClass->pData;
 1600              		.loc 1 746 3 view .LVU560
 1601              		.loc 1 746 62 is_stmt 0 view .LVU561
ARM GAS  C:\Users\benny\AppData\Local\Temp\ccktZh7f.s 			page 51


 1602 0000 D0F84C34 		ldr	r3, [r0, #1100]
 1603              		.loc 1 746 22 view .LVU562
 1604 0004 DA69     		ldr	r2, [r3, #28]
 1605              	.LVL149:
 747:Middlewares/ST/STM32_USB_Host_Library/Class/MSC/Src/usbh_msc.c ****   uint8_t res;
 1606              		.loc 1 747 3 is_stmt 1 view .LVU563
 748:Middlewares/ST/STM32_USB_Host_Library/Class/MSC/Src/usbh_msc.c **** 
 749:Middlewares/ST/STM32_USB_Host_Library/Class/MSC/Src/usbh_msc.c ****   /* Store the current lun */
 750:Middlewares/ST/STM32_USB_Host_Library/Class/MSC/Src/usbh_msc.c ****   MSC_Handle->current_lun = lun;
 1607              		.loc 1 750 3 view .LVU564
 1608              		.loc 1 750 27 is_stmt 0 view .LVU565
 1609 0006 A2F8F810 		strh	r1, [r2, #248]	@ movhi
 751:Middlewares/ST/STM32_USB_Host_Library/Class/MSC/Src/usbh_msc.c **** 
 752:Middlewares/ST/STM32_USB_Host_Library/Class/MSC/Src/usbh_msc.c ****   if ((phost->gState == HOST_CLASS) && (MSC_Handle->unit[lun].error == MSC_OK))
 1610              		.loc 1 752 3 is_stmt 1 view .LVU566
 1611              		.loc 1 752 13 is_stmt 0 view .LVU567
 1612 000a 0378     		ldrb	r3, [r0]	@ zero_extendqisi2
 1613 000c DBB2     		uxtb	r3, r3
 1614              		.loc 1 752 6 view .LVU568
 1615 000e 0B2B     		cmp	r3, #11
 1616 0010 01D0     		beq	.L118
 753:Middlewares/ST/STM32_USB_Host_Library/Class/MSC/Src/usbh_msc.c ****   {
 754:Middlewares/ST/STM32_USB_Host_Library/Class/MSC/Src/usbh_msc.c ****     res = 1U;
 755:Middlewares/ST/STM32_USB_Host_Library/Class/MSC/Src/usbh_msc.c ****   }
 756:Middlewares/ST/STM32_USB_Host_Library/Class/MSC/Src/usbh_msc.c ****   else
 757:Middlewares/ST/STM32_USB_Host_Library/Class/MSC/Src/usbh_msc.c ****   {
 758:Middlewares/ST/STM32_USB_Host_Library/Class/MSC/Src/usbh_msc.c ****     res = 0U;
 1617              		.loc 1 758 9 view .LVU569
 1618 0012 0020     		movs	r0, #0
 1619              	.LVL150:
 1620              		.loc 1 758 9 view .LVU570
 1621 0014 7047     		bx	lr
 1622              	.LVL151:
 1623              	.L118:
 752:Middlewares/ST/STM32_USB_Host_Library/Class/MSC/Src/usbh_msc.c ****   {
 1624              		.loc 1 752 62 discriminator 1 view .LVU571
 1625 0016 3423     		movs	r3, #52
 1626 0018 03FB0122 		mla	r2, r3, r1, r2
 1627              	.LVL152:
 752:Middlewares/ST/STM32_USB_Host_Library/Class/MSC/Src/usbh_msc.c ****   {
 1628              		.loc 1 752 62 discriminator 1 view .LVU572
 1629 001c 92F89130 		ldrb	r3, [r2, #145]	@ zero_extendqisi2
 752:Middlewares/ST/STM32_USB_Host_Library/Class/MSC/Src/usbh_msc.c ****   {
 1630              		.loc 1 752 37 discriminator 1 view .LVU573
 1631 0020 0BB1     		cbz	r3, .L117
 1632              		.loc 1 758 9 view .LVU574
 1633 0022 0020     		movs	r0, #0
 1634              	.LVL153:
 1635              		.loc 1 758 9 view .LVU575
 1636 0024 7047     		bx	lr
 1637              	.LVL154:
 1638              	.L117:
 754:Middlewares/ST/STM32_USB_Host_Library/Class/MSC/Src/usbh_msc.c ****   }
 1639              		.loc 1 754 9 view .LVU576
 1640 0026 0120     		movs	r0, #1
 1641              	.LVL155:
 759:Middlewares/ST/STM32_USB_Host_Library/Class/MSC/Src/usbh_msc.c ****   }
ARM GAS  C:\Users\benny\AppData\Local\Temp\ccktZh7f.s 			page 52


 760:Middlewares/ST/STM32_USB_Host_Library/Class/MSC/Src/usbh_msc.c **** 
 761:Middlewares/ST/STM32_USB_Host_Library/Class/MSC/Src/usbh_msc.c ****   return res;
 1642              		.loc 1 761 3 is_stmt 1 view .LVU577
 762:Middlewares/ST/STM32_USB_Host_Library/Class/MSC/Src/usbh_msc.c **** }
 1643              		.loc 1 762 1 is_stmt 0 view .LVU578
 1644 0028 7047     		bx	lr
 1645              		.cfi_endproc
 1646              	.LFE152:
 1648              		.section	.text.USBH_MSC_GetLUNInfo,"ax",%progbits
 1649              		.align	1
 1650              		.global	USBH_MSC_GetLUNInfo
 1651              		.syntax unified
 1652              		.thumb
 1653              		.thumb_func
 1655              	USBH_MSC_GetLUNInfo:
 1656              	.LVL156:
 1657              	.LFB153:
 763:Middlewares/ST/STM32_USB_Host_Library/Class/MSC/Src/usbh_msc.c **** 
 764:Middlewares/ST/STM32_USB_Host_Library/Class/MSC/Src/usbh_msc.c **** /**
 765:Middlewares/ST/STM32_USB_Host_Library/Class/MSC/Src/usbh_msc.c ****   * @brief  USBH_MSC_GetLUNInfo
 766:Middlewares/ST/STM32_USB_Host_Library/Class/MSC/Src/usbh_msc.c ****   *         The function return a LUN information
 767:Middlewares/ST/STM32_USB_Host_Library/Class/MSC/Src/usbh_msc.c ****   * @param  phost: Host handle
 768:Middlewares/ST/STM32_USB_Host_Library/Class/MSC/Src/usbh_msc.c ****   * @param  lun: logical Unit Number
 769:Middlewares/ST/STM32_USB_Host_Library/Class/MSC/Src/usbh_msc.c ****   * @retval USBH Status
 770:Middlewares/ST/STM32_USB_Host_Library/Class/MSC/Src/usbh_msc.c ****   */
 771:Middlewares/ST/STM32_USB_Host_Library/Class/MSC/Src/usbh_msc.c **** USBH_StatusTypeDef USBH_MSC_GetLUNInfo(USBH_HandleTypeDef *phost, uint8_t lun, MSC_LUNTypeDef *info
 772:Middlewares/ST/STM32_USB_Host_Library/Class/MSC/Src/usbh_msc.c **** {
 1658              		.loc 1 772 1 is_stmt 1 view -0
 1659              		.cfi_startproc
 1660              		@ args = 0, pretend = 0, frame = 0
 1661              		@ frame_needed = 0, uses_anonymous_args = 0
 773:Middlewares/ST/STM32_USB_Host_Library/Class/MSC/Src/usbh_msc.c ****   MSC_HandleTypeDef *MSC_Handle = (MSC_HandleTypeDef *) phost->pActiveClass->pData;
 1662              		.loc 1 773 3 view .LVU580
 1663              		.loc 1 773 62 is_stmt 0 view .LVU581
 1664 0000 D0F84C34 		ldr	r3, [r0, #1100]
 1665              		.loc 1 773 22 view .LVU582
 1666 0004 DB69     		ldr	r3, [r3, #28]
 1667              	.LVL157:
 774:Middlewares/ST/STM32_USB_Host_Library/Class/MSC/Src/usbh_msc.c **** 
 775:Middlewares/ST/STM32_USB_Host_Library/Class/MSC/Src/usbh_msc.c ****   /* Store the current lun */
 776:Middlewares/ST/STM32_USB_Host_Library/Class/MSC/Src/usbh_msc.c ****   MSC_Handle->current_lun = lun;
 1668              		.loc 1 776 3 is_stmt 1 view .LVU583
 1669              		.loc 1 776 27 is_stmt 0 view .LVU584
 1670 0006 A3F8F810 		strh	r1, [r3, #248]	@ movhi
 777:Middlewares/ST/STM32_USB_Host_Library/Class/MSC/Src/usbh_msc.c **** 
 778:Middlewares/ST/STM32_USB_Host_Library/Class/MSC/Src/usbh_msc.c ****   if (phost->gState == HOST_CLASS)
 1671              		.loc 1 778 3 is_stmt 1 view .LVU585
 1672              		.loc 1 778 12 is_stmt 0 view .LVU586
 1673 000a 0078     		ldrb	r0, [r0]	@ zero_extendqisi2
 1674              	.LVL158:
 1675              		.loc 1 778 12 view .LVU587
 1676 000c C0B2     		uxtb	r0, r0
 1677              		.loc 1 778 6 view .LVU588
 1678 000e 0B28     		cmp	r0, #11
 1679 0010 01D0     		beq	.L127
 779:Middlewares/ST/STM32_USB_Host_Library/Class/MSC/Src/usbh_msc.c ****   {
 780:Middlewares/ST/STM32_USB_Host_Library/Class/MSC/Src/usbh_msc.c ****     (void)USBH_memcpy(info, &MSC_Handle->unit[lun], sizeof(MSC_LUNTypeDef));
ARM GAS  C:\Users\benny\AppData\Local\Temp\ccktZh7f.s 			page 53


 781:Middlewares/ST/STM32_USB_Host_Library/Class/MSC/Src/usbh_msc.c ****     return USBH_OK;
 782:Middlewares/ST/STM32_USB_Host_Library/Class/MSC/Src/usbh_msc.c ****   }
 783:Middlewares/ST/STM32_USB_Host_Library/Class/MSC/Src/usbh_msc.c ****   else
 784:Middlewares/ST/STM32_USB_Host_Library/Class/MSC/Src/usbh_msc.c ****   {
 785:Middlewares/ST/STM32_USB_Host_Library/Class/MSC/Src/usbh_msc.c ****     return USBH_FAIL;
 1680              		.loc 1 785 12 view .LVU589
 1681 0012 0220     		movs	r0, #2
 786:Middlewares/ST/STM32_USB_Host_Library/Class/MSC/Src/usbh_msc.c ****   }
 787:Middlewares/ST/STM32_USB_Host_Library/Class/MSC/Src/usbh_msc.c **** }
 1682              		.loc 1 787 1 view .LVU590
 1683 0014 7047     		bx	lr
 1684              	.L127:
 772:Middlewares/ST/STM32_USB_Host_Library/Class/MSC/Src/usbh_msc.c ****   MSC_HandleTypeDef *MSC_Handle = (MSC_HandleTypeDef *) phost->pActiveClass->pData;
 1685              		.loc 1 772 1 view .LVU591
 1686 0016 10B5     		push	{r4, lr}
 1687              	.LCFI11:
 1688              		.cfi_def_cfa_offset 8
 1689              		.cfi_offset 4, -8
 1690              		.cfi_offset 14, -4
 780:Middlewares/ST/STM32_USB_Host_Library/Class/MSC/Src/usbh_msc.c ****     return USBH_OK;
 1691              		.loc 1 780 5 is_stmt 1 view .LVU592
 780:Middlewares/ST/STM32_USB_Host_Library/Class/MSC/Src/usbh_msc.c ****     return USBH_OK;
 1692              		.loc 1 780 29 is_stmt 0 view .LVU593
 1693 0018 3420     		movs	r0, #52
 1694 001a 00FB01F1 		mul	r1, r0, r1
 1695              	.LVL159:
 780:Middlewares/ST/STM32_USB_Host_Library/Class/MSC/Src/usbh_msc.c ****     return USBH_OK;
 1696              		.loc 1 780 29 view .LVU594
 1697 001e 9031     		adds	r1, r1, #144
 1698 0020 0B44     		add	r3, r3, r1
 1699              	.LVL160:
 780:Middlewares/ST/STM32_USB_Host_Library/Class/MSC/Src/usbh_msc.c ****     return USBH_OK;
 1700              		.loc 1 780 11 view .LVU595
 1701 0022 03F13004 		add	r4, r3, #48
 1702              	.LVL161:
 1703              	.L121:
 780:Middlewares/ST/STM32_USB_Host_Library/Class/MSC/Src/usbh_msc.c ****     return USBH_OK;
 1704              		.loc 1 780 11 view .LVU596
 1705 0026 D3F800E0 		ldr	lr, [r3]	@ unaligned
 1706 002a D3F804C0 		ldr	ip, [r3, #4]	@ unaligned
 1707 002e 9868     		ldr	r0, [r3, #8]	@ unaligned
 1708 0030 D968     		ldr	r1, [r3, #12]	@ unaligned
 1709 0032 C2F800E0 		str	lr, [r2]	@ unaligned
 1710 0036 C2F804C0 		str	ip, [r2, #4]	@ unaligned
 1711 003a 9060     		str	r0, [r2, #8]	@ unaligned
 1712 003c D160     		str	r1, [r2, #12]	@ unaligned
 1713 003e 1033     		adds	r3, r3, #16
 1714 0040 1032     		adds	r2, r2, #16
 1715 0042 A342     		cmp	r3, r4
 1716 0044 EFD1     		bne	.L121
 1717 0046 1B68     		ldr	r3, [r3]	@ unaligned
 1718 0048 1360     		str	r3, [r2]	@ unaligned
 781:Middlewares/ST/STM32_USB_Host_Library/Class/MSC/Src/usbh_msc.c ****   }
 1719              		.loc 1 781 5 is_stmt 1 view .LVU597
 781:Middlewares/ST/STM32_USB_Host_Library/Class/MSC/Src/usbh_msc.c ****   }
 1720              		.loc 1 781 12 is_stmt 0 view .LVU598
 1721 004a 0020     		movs	r0, #0
ARM GAS  C:\Users\benny\AppData\Local\Temp\ccktZh7f.s 			page 54


 1722              		.loc 1 787 1 view .LVU599
 1723 004c 10BD     		pop	{r4, pc}
 1724              		.cfi_endproc
 1725              	.LFE153:
 1727              		.section	.text.USBH_MSC_Read,"ax",%progbits
 1728              		.align	1
 1729              		.global	USBH_MSC_Read
 1730              		.syntax unified
 1731              		.thumb
 1732              		.thumb_func
 1734              	USBH_MSC_Read:
 1735              	.LVL162:
 1736              	.LFB154:
 788:Middlewares/ST/STM32_USB_Host_Library/Class/MSC/Src/usbh_msc.c **** 
 789:Middlewares/ST/STM32_USB_Host_Library/Class/MSC/Src/usbh_msc.c **** /**
 790:Middlewares/ST/STM32_USB_Host_Library/Class/MSC/Src/usbh_msc.c ****   * @brief  USBH_MSC_Read
 791:Middlewares/ST/STM32_USB_Host_Library/Class/MSC/Src/usbh_msc.c ****   *         The function performs a Read operation
 792:Middlewares/ST/STM32_USB_Host_Library/Class/MSC/Src/usbh_msc.c ****   * @param  phost: Host handle
 793:Middlewares/ST/STM32_USB_Host_Library/Class/MSC/Src/usbh_msc.c ****   * @param  lun: logical Unit Number
 794:Middlewares/ST/STM32_USB_Host_Library/Class/MSC/Src/usbh_msc.c ****   * @param  address: sector address
 795:Middlewares/ST/STM32_USB_Host_Library/Class/MSC/Src/usbh_msc.c ****   * @param  pbuf: pointer to data
 796:Middlewares/ST/STM32_USB_Host_Library/Class/MSC/Src/usbh_msc.c ****   * @param  length: number of sector to read
 797:Middlewares/ST/STM32_USB_Host_Library/Class/MSC/Src/usbh_msc.c ****   * @retval USBH Status
 798:Middlewares/ST/STM32_USB_Host_Library/Class/MSC/Src/usbh_msc.c ****   */
 799:Middlewares/ST/STM32_USB_Host_Library/Class/MSC/Src/usbh_msc.c **** USBH_StatusTypeDef USBH_MSC_Read(USBH_HandleTypeDef *phost,
 800:Middlewares/ST/STM32_USB_Host_Library/Class/MSC/Src/usbh_msc.c ****                                  uint8_t lun,
 801:Middlewares/ST/STM32_USB_Host_Library/Class/MSC/Src/usbh_msc.c ****                                  uint32_t address,
 802:Middlewares/ST/STM32_USB_Host_Library/Class/MSC/Src/usbh_msc.c ****                                  uint8_t *pbuf,
 803:Middlewares/ST/STM32_USB_Host_Library/Class/MSC/Src/usbh_msc.c ****                                  uint32_t length)
 804:Middlewares/ST/STM32_USB_Host_Library/Class/MSC/Src/usbh_msc.c **** {
 1737              		.loc 1 804 1 is_stmt 1 view -0
 1738              		.cfi_startproc
 1739              		@ args = 4, pretend = 0, frame = 0
 1740              		@ frame_needed = 0, uses_anonymous_args = 0
 1741              		.loc 1 804 1 is_stmt 0 view .LVU601
 1742 0000 F0B5     		push	{r4, r5, r6, r7, lr}
 1743              	.LCFI12:
 1744              		.cfi_def_cfa_offset 20
 1745              		.cfi_offset 4, -20
 1746              		.cfi_offset 5, -16
 1747              		.cfi_offset 6, -12
 1748              		.cfi_offset 7, -8
 1749              		.cfi_offset 14, -4
 1750 0002 83B0     		sub	sp, sp, #12
 1751              	.LCFI13:
 1752              		.cfi_def_cfa_offset 32
 1753 0004 0446     		mov	r4, r0
 1754 0006 0D46     		mov	r5, r1
 1755 0008 089E     		ldr	r6, [sp, #32]
 805:Middlewares/ST/STM32_USB_Host_Library/Class/MSC/Src/usbh_msc.c ****   uint32_t timeout;
 1756              		.loc 1 805 3 is_stmt 1 view .LVU602
 806:Middlewares/ST/STM32_USB_Host_Library/Class/MSC/Src/usbh_msc.c ****   MSC_HandleTypeDef *MSC_Handle = (MSC_HandleTypeDef *) phost->pActiveClass->pData;
 1757              		.loc 1 806 3 view .LVU603
 1758              		.loc 1 806 62 is_stmt 0 view .LVU604
 1759 000a D0F84C14 		ldr	r1, [r0, #1100]
 1760              	.LVL163:
 1761              		.loc 1 806 22 view .LVU605
ARM GAS  C:\Users\benny\AppData\Local\Temp\ccktZh7f.s 			page 55


 1762 000e C969     		ldr	r1, [r1, #28]
 1763              	.LVL164:
 807:Middlewares/ST/STM32_USB_Host_Library/Class/MSC/Src/usbh_msc.c **** 
 808:Middlewares/ST/STM32_USB_Host_Library/Class/MSC/Src/usbh_msc.c ****   /* Store the current lun */
 809:Middlewares/ST/STM32_USB_Host_Library/Class/MSC/Src/usbh_msc.c ****   MSC_Handle->current_lun = lun;
 1764              		.loc 1 809 3 is_stmt 1 view .LVU606
 1765              		.loc 1 809 27 is_stmt 0 view .LVU607
 1766 0010 A1F8F850 		strh	r5, [r1, #248]	@ movhi
 810:Middlewares/ST/STM32_USB_Host_Library/Class/MSC/Src/usbh_msc.c **** 
 811:Middlewares/ST/STM32_USB_Host_Library/Class/MSC/Src/usbh_msc.c ****   if ((phost->device.is_connected == 0U) ||
 1767              		.loc 1 811 3 is_stmt 1 view .LVU608
 1768              		.loc 1 811 21 is_stmt 0 view .LVU609
 1769 0014 90F82003 		ldrb	r0, [r0, #800]	@ zero_extendqisi2
 1770              	.LVL165:
 1771              		.loc 1 811 6 view .LVU610
 1772 0018 80B3     		cbz	r0, .L132
 812:Middlewares/ST/STM32_USB_Host_Library/Class/MSC/Src/usbh_msc.c ****       (phost->gState != HOST_CLASS) ||
 1773              		.loc 1 812 13 discriminator 1 view .LVU611
 1774 001a 2078     		ldrb	r0, [r4]	@ zero_extendqisi2
 1775 001c C0B2     		uxtb	r0, r0
 811:Middlewares/ST/STM32_USB_Host_Library/Class/MSC/Src/usbh_msc.c ****       (phost->gState != HOST_CLASS) ||
 1776              		.loc 1 811 42 discriminator 1 view .LVU612
 1777 001e 0B28     		cmp	r0, #11
 1778 0020 2ED1     		bne	.L133
 813:Middlewares/ST/STM32_USB_Host_Library/Class/MSC/Src/usbh_msc.c ****       (MSC_Handle->unit[lun].state != MSC_IDLE))
 1779              		.loc 1 813 29 view .LVU613
 1780 0022 3420     		movs	r0, #52
 1781 0024 00FB0510 		mla	r0, r0, r5, r1
 1782 0028 90F89000 		ldrb	r0, [r0, #144]	@ zero_extendqisi2
 812:Middlewares/ST/STM32_USB_Host_Library/Class/MSC/Src/usbh_msc.c ****       (phost->gState != HOST_CLASS) ||
 1783              		.loc 1 812 37 view .LVU614
 1784 002c 0128     		cmp	r0, #1
 1785 002e 01D0     		beq	.L138
 814:Middlewares/ST/STM32_USB_Host_Library/Class/MSC/Src/usbh_msc.c ****   {
 815:Middlewares/ST/STM32_USB_Host_Library/Class/MSC/Src/usbh_msc.c ****     return  USBH_FAIL;
 1786              		.loc 1 815 13 view .LVU615
 1787 0030 0220     		movs	r0, #2
 1788 0032 26E0     		b	.L129
 1789              	.L138:
 816:Middlewares/ST/STM32_USB_Host_Library/Class/MSC/Src/usbh_msc.c ****   }
 817:Middlewares/ST/STM32_USB_Host_Library/Class/MSC/Src/usbh_msc.c **** 
 818:Middlewares/ST/STM32_USB_Host_Library/Class/MSC/Src/usbh_msc.c ****   MSC_Handle->unit[lun].state = MSC_READ;
 1790              		.loc 1 818 3 is_stmt 1 view .LVU616
 1791              		.loc 1 818 31 is_stmt 0 view .LVU617
 1792 0034 3420     		movs	r0, #52
 1793 0036 00FB0511 		mla	r1, r0, r5, r1
 1794              	.LVL166:
 1795              		.loc 1 818 31 view .LVU618
 1796 003a 0620     		movs	r0, #6
 1797 003c 81F89000 		strb	r0, [r1, #144]
 819:Middlewares/ST/STM32_USB_Host_Library/Class/MSC/Src/usbh_msc.c **** 
 820:Middlewares/ST/STM32_USB_Host_Library/Class/MSC/Src/usbh_msc.c ****   (void)USBH_MSC_SCSI_Read(phost, lun, address, pbuf, length);
 1798              		.loc 1 820 3 is_stmt 1 view .LVU619
 1799              		.loc 1 820 9 is_stmt 0 view .LVU620
 1800 0040 0096     		str	r6, [sp]
 1801 0042 2946     		mov	r1, r5
 1802 0044 2046     		mov	r0, r4
ARM GAS  C:\Users\benny\AppData\Local\Temp\ccktZh7f.s 			page 56


 1803 0046 FFF7FEFF 		bl	USBH_MSC_SCSI_Read
 1804              	.LVL167:
 821:Middlewares/ST/STM32_USB_Host_Library/Class/MSC/Src/usbh_msc.c **** 
 822:Middlewares/ST/STM32_USB_Host_Library/Class/MSC/Src/usbh_msc.c ****   timeout = phost->Timer;
 1805              		.loc 1 822 3 is_stmt 1 view .LVU621
 1806              		.loc 1 822 11 is_stmt 0 view .LVU622
 1807 004a D4F89474 		ldr	r7, [r4, #1172]
 1808              	.LVL168:
 823:Middlewares/ST/STM32_USB_Host_Library/Class/MSC/Src/usbh_msc.c **** 
 824:Middlewares/ST/STM32_USB_Host_Library/Class/MSC/Src/usbh_msc.c ****   while (USBH_MSC_RdWrProcess(phost, lun) == USBH_BUSY)
 1809              		.loc 1 824 3 is_stmt 1 view .LVU623
 1810              	.L130:
 1811              		.loc 1 824 43 view .LVU624
 1812              		.loc 1 824 10 is_stmt 0 view .LVU625
 1813 004e 2946     		mov	r1, r5
 1814 0050 2046     		mov	r0, r4
 1815 0052 FFF7FEFF 		bl	USBH_MSC_RdWrProcess
 1816              	.LVL169:
 1817              		.loc 1 824 43 view .LVU626
 1818 0056 0128     		cmp	r0, #1
 1819 0058 0ED1     		bne	.L139
 825:Middlewares/ST/STM32_USB_Host_Library/Class/MSC/Src/usbh_msc.c ****   {
 826:Middlewares/ST/STM32_USB_Host_Library/Class/MSC/Src/usbh_msc.c ****     if (((phost->Timer - timeout) > (10000U * length)) || (phost->device.is_connected == 0U))
 1820              		.loc 1 826 5 is_stmt 1 view .LVU627
 1821              		.loc 1 826 16 is_stmt 0 view .LVU628
 1822 005a D4F89424 		ldr	r2, [r4, #1172]
 1823              		.loc 1 826 24 view .LVU629
 1824 005e D21B     		subs	r2, r2, r7
 1825              		.loc 1 826 45 view .LVU630
 1826 0060 42F21073 		movw	r3, #10000
 1827 0064 06FB03F3 		mul	r3, r6, r3
 1828              		.loc 1 826 8 view .LVU631
 1829 0068 9A42     		cmp	r2, r3
 1830 006a 0CD8     		bhi	.L135
 1831              		.loc 1 826 73 discriminator 1 view .LVU632
 1832 006c 94F82033 		ldrb	r3, [r4, #800]	@ zero_extendqisi2
 1833              		.loc 1 826 56 discriminator 1 view .LVU633
 1834 0070 002B     		cmp	r3, #0
 1835 0072 ECD1     		bne	.L130
 827:Middlewares/ST/STM32_USB_Host_Library/Class/MSC/Src/usbh_msc.c ****     {
 828:Middlewares/ST/STM32_USB_Host_Library/Class/MSC/Src/usbh_msc.c ****       return USBH_FAIL;
 1836              		.loc 1 828 14 view .LVU634
 1837 0074 0220     		movs	r0, #2
 1838 0076 04E0     		b	.L129
 1839              	.L139:
 829:Middlewares/ST/STM32_USB_Host_Library/Class/MSC/Src/usbh_msc.c ****     }
 830:Middlewares/ST/STM32_USB_Host_Library/Class/MSC/Src/usbh_msc.c ****   }
 831:Middlewares/ST/STM32_USB_Host_Library/Class/MSC/Src/usbh_msc.c **** 
 832:Middlewares/ST/STM32_USB_Host_Library/Class/MSC/Src/usbh_msc.c ****   return USBH_OK;
 1840              		.loc 1 832 10 view .LVU635
 1841 0078 0020     		movs	r0, #0
 1842 007a 02E0     		b	.L129
 1843              	.LVL170:
 1844              	.L132:
 815:Middlewares/ST/STM32_USB_Host_Library/Class/MSC/Src/usbh_msc.c ****   }
 1845              		.loc 1 815 13 view .LVU636
 1846 007c 0220     		movs	r0, #2
ARM GAS  C:\Users\benny\AppData\Local\Temp\ccktZh7f.s 			page 57


 1847 007e 00E0     		b	.L129
 1848              	.L133:
 1849 0080 0220     		movs	r0, #2
 1850              	.LVL171:
 1851              	.L129:
 833:Middlewares/ST/STM32_USB_Host_Library/Class/MSC/Src/usbh_msc.c **** }
 1852              		.loc 1 833 1 view .LVU637
 1853 0082 03B0     		add	sp, sp, #12
 1854              	.LCFI14:
 1855              		.cfi_remember_state
 1856              		.cfi_def_cfa_offset 20
 1857              		@ sp needed
 1858 0084 F0BD     		pop	{r4, r5, r6, r7, pc}
 1859              	.LVL172:
 1860              	.L135:
 1861              	.LCFI15:
 1862              		.cfi_restore_state
 828:Middlewares/ST/STM32_USB_Host_Library/Class/MSC/Src/usbh_msc.c ****     }
 1863              		.loc 1 828 14 view .LVU638
 1864 0086 0220     		movs	r0, #2
 1865 0088 FBE7     		b	.L129
 1866              		.cfi_endproc
 1867              	.LFE154:
 1869              		.section	.text.USBH_MSC_Write,"ax",%progbits
 1870              		.align	1
 1871              		.global	USBH_MSC_Write
 1872              		.syntax unified
 1873              		.thumb
 1874              		.thumb_func
 1876              	USBH_MSC_Write:
 1877              	.LVL173:
 1878              	.LFB155:
 834:Middlewares/ST/STM32_USB_Host_Library/Class/MSC/Src/usbh_msc.c **** 
 835:Middlewares/ST/STM32_USB_Host_Library/Class/MSC/Src/usbh_msc.c **** /**
 836:Middlewares/ST/STM32_USB_Host_Library/Class/MSC/Src/usbh_msc.c ****   * @brief  USBH_MSC_Write
 837:Middlewares/ST/STM32_USB_Host_Library/Class/MSC/Src/usbh_msc.c ****   *         The function performs a Write operation
 838:Middlewares/ST/STM32_USB_Host_Library/Class/MSC/Src/usbh_msc.c ****   * @param  phost: Host handle
 839:Middlewares/ST/STM32_USB_Host_Library/Class/MSC/Src/usbh_msc.c ****   * @param  lun: logical Unit Number
 840:Middlewares/ST/STM32_USB_Host_Library/Class/MSC/Src/usbh_msc.c ****   * @param  address: sector address
 841:Middlewares/ST/STM32_USB_Host_Library/Class/MSC/Src/usbh_msc.c ****   * @param  pbuf: pointer to data
 842:Middlewares/ST/STM32_USB_Host_Library/Class/MSC/Src/usbh_msc.c ****   * @param  length: number of sector to write
 843:Middlewares/ST/STM32_USB_Host_Library/Class/MSC/Src/usbh_msc.c ****   * @retval USBH Status
 844:Middlewares/ST/STM32_USB_Host_Library/Class/MSC/Src/usbh_msc.c ****   */
 845:Middlewares/ST/STM32_USB_Host_Library/Class/MSC/Src/usbh_msc.c **** USBH_StatusTypeDef USBH_MSC_Write(USBH_HandleTypeDef *phost,
 846:Middlewares/ST/STM32_USB_Host_Library/Class/MSC/Src/usbh_msc.c ****                                   uint8_t lun,
 847:Middlewares/ST/STM32_USB_Host_Library/Class/MSC/Src/usbh_msc.c ****                                   uint32_t address,
 848:Middlewares/ST/STM32_USB_Host_Library/Class/MSC/Src/usbh_msc.c ****                                   uint8_t *pbuf,
 849:Middlewares/ST/STM32_USB_Host_Library/Class/MSC/Src/usbh_msc.c ****                                   uint32_t length)
 850:Middlewares/ST/STM32_USB_Host_Library/Class/MSC/Src/usbh_msc.c **** {
 1879              		.loc 1 850 1 is_stmt 1 view -0
 1880              		.cfi_startproc
 1881              		@ args = 4, pretend = 0, frame = 0
 1882              		@ frame_needed = 0, uses_anonymous_args = 0
 1883              		.loc 1 850 1 is_stmt 0 view .LVU640
 1884 0000 F0B5     		push	{r4, r5, r6, r7, lr}
 1885              	.LCFI16:
 1886              		.cfi_def_cfa_offset 20
ARM GAS  C:\Users\benny\AppData\Local\Temp\ccktZh7f.s 			page 58


 1887              		.cfi_offset 4, -20
 1888              		.cfi_offset 5, -16
 1889              		.cfi_offset 6, -12
 1890              		.cfi_offset 7, -8
 1891              		.cfi_offset 14, -4
 1892 0002 83B0     		sub	sp, sp, #12
 1893              	.LCFI17:
 1894              		.cfi_def_cfa_offset 32
 1895 0004 0446     		mov	r4, r0
 1896 0006 0D46     		mov	r5, r1
 1897 0008 089E     		ldr	r6, [sp, #32]
 851:Middlewares/ST/STM32_USB_Host_Library/Class/MSC/Src/usbh_msc.c ****   uint32_t timeout;
 1898              		.loc 1 851 3 is_stmt 1 view .LVU641
 852:Middlewares/ST/STM32_USB_Host_Library/Class/MSC/Src/usbh_msc.c ****   MSC_HandleTypeDef *MSC_Handle = (MSC_HandleTypeDef *) phost->pActiveClass->pData;
 1899              		.loc 1 852 3 view .LVU642
 1900              		.loc 1 852 62 is_stmt 0 view .LVU643
 1901 000a D0F84C14 		ldr	r1, [r0, #1100]
 1902              	.LVL174:
 1903              		.loc 1 852 22 view .LVU644
 1904 000e C969     		ldr	r1, [r1, #28]
 1905              	.LVL175:
 853:Middlewares/ST/STM32_USB_Host_Library/Class/MSC/Src/usbh_msc.c **** 
 854:Middlewares/ST/STM32_USB_Host_Library/Class/MSC/Src/usbh_msc.c ****   /* Store the current lun */
 855:Middlewares/ST/STM32_USB_Host_Library/Class/MSC/Src/usbh_msc.c ****   MSC_Handle->current_lun = lun;
 1906              		.loc 1 855 3 is_stmt 1 view .LVU645
 1907              		.loc 1 855 27 is_stmt 0 view .LVU646
 1908 0010 A1F8F850 		strh	r5, [r1, #248]	@ movhi
 856:Middlewares/ST/STM32_USB_Host_Library/Class/MSC/Src/usbh_msc.c **** 
 857:Middlewares/ST/STM32_USB_Host_Library/Class/MSC/Src/usbh_msc.c ****   if ((phost->device.is_connected == 0U) ||
 1909              		.loc 1 857 3 is_stmt 1 view .LVU647
 1910              		.loc 1 857 21 is_stmt 0 view .LVU648
 1911 0014 90F82003 		ldrb	r0, [r0, #800]	@ zero_extendqisi2
 1912              	.LVL176:
 1913              		.loc 1 857 6 view .LVU649
 1914 0018 80B3     		cbz	r0, .L144
 858:Middlewares/ST/STM32_USB_Host_Library/Class/MSC/Src/usbh_msc.c ****       (phost->gState != HOST_CLASS) ||
 1915              		.loc 1 858 13 discriminator 1 view .LVU650
 1916 001a 2078     		ldrb	r0, [r4]	@ zero_extendqisi2
 1917 001c C0B2     		uxtb	r0, r0
 857:Middlewares/ST/STM32_USB_Host_Library/Class/MSC/Src/usbh_msc.c ****       (phost->gState != HOST_CLASS) ||
 1918              		.loc 1 857 42 discriminator 1 view .LVU651
 1919 001e 0B28     		cmp	r0, #11
 1920 0020 2ED1     		bne	.L145
 859:Middlewares/ST/STM32_USB_Host_Library/Class/MSC/Src/usbh_msc.c ****       (MSC_Handle->unit[lun].state != MSC_IDLE))
 1921              		.loc 1 859 29 view .LVU652
 1922 0022 3420     		movs	r0, #52
 1923 0024 00FB0510 		mla	r0, r0, r5, r1
 1924 0028 90F89000 		ldrb	r0, [r0, #144]	@ zero_extendqisi2
 858:Middlewares/ST/STM32_USB_Host_Library/Class/MSC/Src/usbh_msc.c ****       (phost->gState != HOST_CLASS) ||
 1925              		.loc 1 858 37 view .LVU653
 1926 002c 0128     		cmp	r0, #1
 1927 002e 01D0     		beq	.L150
 860:Middlewares/ST/STM32_USB_Host_Library/Class/MSC/Src/usbh_msc.c ****   {
 861:Middlewares/ST/STM32_USB_Host_Library/Class/MSC/Src/usbh_msc.c ****     return  USBH_FAIL;
 1928              		.loc 1 861 13 view .LVU654
 1929 0030 0220     		movs	r0, #2
 1930 0032 26E0     		b	.L141
ARM GAS  C:\Users\benny\AppData\Local\Temp\ccktZh7f.s 			page 59


 1931              	.L150:
 862:Middlewares/ST/STM32_USB_Host_Library/Class/MSC/Src/usbh_msc.c ****   }
 863:Middlewares/ST/STM32_USB_Host_Library/Class/MSC/Src/usbh_msc.c **** 
 864:Middlewares/ST/STM32_USB_Host_Library/Class/MSC/Src/usbh_msc.c ****   MSC_Handle->unit[lun].state = MSC_WRITE;
 1932              		.loc 1 864 3 is_stmt 1 view .LVU655
 1933              		.loc 1 864 31 is_stmt 0 view .LVU656
 1934 0034 3420     		movs	r0, #52
 1935 0036 00FB0511 		mla	r1, r0, r5, r1
 1936              	.LVL177:
 1937              		.loc 1 864 31 view .LVU657
 1938 003a 0720     		movs	r0, #7
 1939 003c 81F89000 		strb	r0, [r1, #144]
 865:Middlewares/ST/STM32_USB_Host_Library/Class/MSC/Src/usbh_msc.c **** 
 866:Middlewares/ST/STM32_USB_Host_Library/Class/MSC/Src/usbh_msc.c ****   (void)USBH_MSC_SCSI_Write(phost, lun, address, pbuf, length);
 1940              		.loc 1 866 3 is_stmt 1 view .LVU658
 1941              		.loc 1 866 9 is_stmt 0 view .LVU659
 1942 0040 0096     		str	r6, [sp]
 1943 0042 2946     		mov	r1, r5
 1944 0044 2046     		mov	r0, r4
 1945 0046 FFF7FEFF 		bl	USBH_MSC_SCSI_Write
 1946              	.LVL178:
 867:Middlewares/ST/STM32_USB_Host_Library/Class/MSC/Src/usbh_msc.c **** 
 868:Middlewares/ST/STM32_USB_Host_Library/Class/MSC/Src/usbh_msc.c ****   timeout = phost->Timer;
 1947              		.loc 1 868 3 is_stmt 1 view .LVU660
 1948              		.loc 1 868 11 is_stmt 0 view .LVU661
 1949 004a D4F89474 		ldr	r7, [r4, #1172]
 1950              	.LVL179:
 869:Middlewares/ST/STM32_USB_Host_Library/Class/MSC/Src/usbh_msc.c ****   while (USBH_MSC_RdWrProcess(phost, lun) == USBH_BUSY)
 1951              		.loc 1 869 3 is_stmt 1 view .LVU662
 1952              	.L142:
 1953              		.loc 1 869 43 view .LVU663
 1954              		.loc 1 869 10 is_stmt 0 view .LVU664
 1955 004e 2946     		mov	r1, r5
 1956 0050 2046     		mov	r0, r4
 1957 0052 FFF7FEFF 		bl	USBH_MSC_RdWrProcess
 1958              	.LVL180:
 1959              		.loc 1 869 43 view .LVU665
 1960 0056 0128     		cmp	r0, #1
 1961 0058 0ED1     		bne	.L151
 870:Middlewares/ST/STM32_USB_Host_Library/Class/MSC/Src/usbh_msc.c ****   {
 871:Middlewares/ST/STM32_USB_Host_Library/Class/MSC/Src/usbh_msc.c ****     if (((phost->Timer - timeout) > (10000U * length)) || (phost->device.is_connected == 0U))
 1962              		.loc 1 871 5 is_stmt 1 view .LVU666
 1963              		.loc 1 871 16 is_stmt 0 view .LVU667
 1964 005a D4F89424 		ldr	r2, [r4, #1172]
 1965              		.loc 1 871 24 view .LVU668
 1966 005e D21B     		subs	r2, r2, r7
 1967              		.loc 1 871 45 view .LVU669
 1968 0060 42F21073 		movw	r3, #10000
 1969 0064 06FB03F3 		mul	r3, r6, r3
 1970              		.loc 1 871 8 view .LVU670
 1971 0068 9A42     		cmp	r2, r3
 1972 006a 0CD8     		bhi	.L147
 1973              		.loc 1 871 73 discriminator 1 view .LVU671
 1974 006c 94F82033 		ldrb	r3, [r4, #800]	@ zero_extendqisi2
 1975              		.loc 1 871 56 discriminator 1 view .LVU672
 1976 0070 002B     		cmp	r3, #0
 1977 0072 ECD1     		bne	.L142
ARM GAS  C:\Users\benny\AppData\Local\Temp\ccktZh7f.s 			page 60


 872:Middlewares/ST/STM32_USB_Host_Library/Class/MSC/Src/usbh_msc.c ****     {
 873:Middlewares/ST/STM32_USB_Host_Library/Class/MSC/Src/usbh_msc.c ****       return USBH_FAIL;
 1978              		.loc 1 873 14 view .LVU673
 1979 0074 0220     		movs	r0, #2
 1980 0076 04E0     		b	.L141
 1981              	.L151:
 874:Middlewares/ST/STM32_USB_Host_Library/Class/MSC/Src/usbh_msc.c ****     }
 875:Middlewares/ST/STM32_USB_Host_Library/Class/MSC/Src/usbh_msc.c ****   }
 876:Middlewares/ST/STM32_USB_Host_Library/Class/MSC/Src/usbh_msc.c **** 
 877:Middlewares/ST/STM32_USB_Host_Library/Class/MSC/Src/usbh_msc.c ****   return USBH_OK;
 1982              		.loc 1 877 10 view .LVU674
 1983 0078 0020     		movs	r0, #0
 1984 007a 02E0     		b	.L141
 1985              	.LVL181:
 1986              	.L144:
 861:Middlewares/ST/STM32_USB_Host_Library/Class/MSC/Src/usbh_msc.c ****   }
 1987              		.loc 1 861 13 view .LVU675
 1988 007c 0220     		movs	r0, #2
 1989 007e 00E0     		b	.L141
 1990              	.L145:
 1991 0080 0220     		movs	r0, #2
 1992              	.LVL182:
 1993              	.L141:
 878:Middlewares/ST/STM32_USB_Host_Library/Class/MSC/Src/usbh_msc.c **** }
 1994              		.loc 1 878 1 view .LVU676
 1995 0082 03B0     		add	sp, sp, #12
 1996              	.LCFI18:
 1997              		.cfi_remember_state
 1998              		.cfi_def_cfa_offset 20
 1999              		@ sp needed
 2000 0084 F0BD     		pop	{r4, r5, r6, r7, pc}
 2001              	.LVL183:
 2002              	.L147:
 2003              	.LCFI19:
 2004              		.cfi_restore_state
 873:Middlewares/ST/STM32_USB_Host_Library/Class/MSC/Src/usbh_msc.c ****     }
 2005              		.loc 1 873 14 view .LVU677
 2006 0086 0220     		movs	r0, #2
 2007 0088 FBE7     		b	.L141
 2008              		.cfi_endproc
 2009              	.LFE155:
 2011              		.global	USBH_msc
 2012              		.section	.rodata.str1.4,"aMS",%progbits,1
 2013              		.align	2
 2014              	.LC0:
 2015 0000 4D534300 		.ascii	"MSC\000"
 2016              		.section	.data.USBH_msc,"aw"
 2017              		.align	2
 2020              	USBH_msc:
 2021 0000 00000000 		.word	.LC0
 2022 0004 08       		.byte	8
 2023 0005 000000   		.space	3
 2024 0008 00000000 		.word	USBH_MSC_InterfaceInit
 2025 000c 00000000 		.word	USBH_MSC_InterfaceDeInit
 2026 0010 00000000 		.word	USBH_MSC_ClassRequest
 2027 0014 00000000 		.word	USBH_MSC_Process
 2028 0018 00000000 		.word	USBH_MSC_SOFProcess
ARM GAS  C:\Users\benny\AppData\Local\Temp\ccktZh7f.s 			page 61


 2029 001c 00000000 		.word	0
 2030              		.text
 2031              	.Letext0:
 2032              		.file 2 "C:\\ST\\STM32CubeCLT_1.17.0\\GNU-tools-for-STM32\\bin/../lib/gcc/arm-none-eabi/12.3.1/../
 2033              		.file 3 "C:\\ST\\STM32CubeCLT_1.17.0\\GNU-tools-for-STM32\\bin/../lib/gcc/arm-none-eabi/12.3.1/inc
 2034              		.file 4 "C:\\ST\\STM32CubeCLT_1.17.0\\GNU-tools-for-STM32\\bin/../lib/gcc/arm-none-eabi/12.3.1/../
 2035              		.file 5 "Middlewares/ST/STM32_USB_Host_Library/Core/Inc/usbh_def.h"
 2036              		.file 6 "Middlewares/ST/STM32_USB_Host_Library/Class/MSC/Inc/usbh_msc_bot.h"
 2037              		.file 7 "Middlewares/ST/STM32_USB_Host_Library/Class/MSC/Inc/usbh_msc_scsi.h"
 2038              		.file 8 "Middlewares/ST/STM32_USB_Host_Library/Class/MSC/Inc/usbh_msc.h"
 2039              		.file 9 "C:\\ST\\STM32CubeCLT_1.17.0\\GNU-tools-for-STM32\\bin/../lib/gcc/arm-none-eabi/12.3.1/../
 2040              		.file 10 "Middlewares/ST/STM32_USB_Host_Library/Core/Inc/usbh_core.h"
 2041              		.file 11 "Middlewares/ST/STM32_USB_Host_Library/Core/Inc/usbh_pipes.h"
 2042              		.file 12 "C:\\ST\\STM32CubeCLT_1.17.0\\GNU-tools-for-STM32\\bin/../lib/gcc/arm-none-eabi/12.3.1/..
 2043              		.file 13 "Middlewares/ST/STM32_USB_Host_Library/Core/Inc/usbh_ctlreq.h"
 2044              		.file 14 "<built-in>"
ARM GAS  C:\Users\benny\AppData\Local\Temp\ccktZh7f.s 			page 62

