ARM GAS  C:\Users\benny\AppData\Local\Temp\ccucGPrV.s 			page 1


   1              		.cpu cortex-m7
   2              		.arch armv7e-m
   3              		.fpu fpv5-sp-d16
   4              		.eabi_attribute 27, 1
   5              		.eabi_attribute 28, 1
   6              		.eabi_attribute 20, 1
   7              		.eabi_attribute 21, 1
   8              		.eabi_attribute 23, 3
   9              		.eabi_attribute 24, 1
  10              		.eabi_attribute 25, 1
  11              		.eabi_attribute 26, 1
  12              		.eabi_attribute 30, 1
  13              		.eabi_attribute 34, 1
  14              		.eabi_attribute 18, 4
  15              		.file	"usbh_msc_scsi.c"
  16              		.text
  17              	.Ltext0:
  18              		.cfi_sections	.debug_frame
  19              		.file 1 "Middlewares/ST/STM32_USB_Host_Library/Class/MSC/Src/usbh_msc_scsi.c"
  20              		.section	.text.USBH_MSC_SCSI_TestUnitReady,"ax",%progbits
  21              		.align	1
  22              		.global	USBH_MSC_SCSI_TestUnitReady
  23              		.syntax unified
  24              		.thumb
  25              		.thumb_func
  27              	USBH_MSC_SCSI_TestUnitReady:
  28              	.LVL0:
  29              	.LFB144:
   1:Middlewares/ST/STM32_USB_Host_Library/Class/MSC/Src/usbh_msc_scsi.c **** /**
   2:Middlewares/ST/STM32_USB_Host_Library/Class/MSC/Src/usbh_msc_scsi.c ****   ******************************************************************************
   3:Middlewares/ST/STM32_USB_Host_Library/Class/MSC/Src/usbh_msc_scsi.c ****   * @file    usbh_msc_scsi.c
   4:Middlewares/ST/STM32_USB_Host_Library/Class/MSC/Src/usbh_msc_scsi.c ****   * @author  MCD Application Team
   5:Middlewares/ST/STM32_USB_Host_Library/Class/MSC/Src/usbh_msc_scsi.c ****   * @brief   This file implements the SCSI commands
   6:Middlewares/ST/STM32_USB_Host_Library/Class/MSC/Src/usbh_msc_scsi.c ****   ******************************************************************************
   7:Middlewares/ST/STM32_USB_Host_Library/Class/MSC/Src/usbh_msc_scsi.c ****   * @attention
   8:Middlewares/ST/STM32_USB_Host_Library/Class/MSC/Src/usbh_msc_scsi.c ****   *
   9:Middlewares/ST/STM32_USB_Host_Library/Class/MSC/Src/usbh_msc_scsi.c ****   * Copyright (c) 2015 STMicroelectronics.
  10:Middlewares/ST/STM32_USB_Host_Library/Class/MSC/Src/usbh_msc_scsi.c ****   * All rights reserved.
  11:Middlewares/ST/STM32_USB_Host_Library/Class/MSC/Src/usbh_msc_scsi.c ****   *
  12:Middlewares/ST/STM32_USB_Host_Library/Class/MSC/Src/usbh_msc_scsi.c ****   * This software is licensed under terms that can be found in the LICENSE file
  13:Middlewares/ST/STM32_USB_Host_Library/Class/MSC/Src/usbh_msc_scsi.c ****   * in the root directory of this software component.
  14:Middlewares/ST/STM32_USB_Host_Library/Class/MSC/Src/usbh_msc_scsi.c ****   * If no LICENSE file comes with this software, it is provided AS-IS.
  15:Middlewares/ST/STM32_USB_Host_Library/Class/MSC/Src/usbh_msc_scsi.c ****   *
  16:Middlewares/ST/STM32_USB_Host_Library/Class/MSC/Src/usbh_msc_scsi.c ****   ******************************************************************************
  17:Middlewares/ST/STM32_USB_Host_Library/Class/MSC/Src/usbh_msc_scsi.c ****   */
  18:Middlewares/ST/STM32_USB_Host_Library/Class/MSC/Src/usbh_msc_scsi.c **** 
  19:Middlewares/ST/STM32_USB_Host_Library/Class/MSC/Src/usbh_msc_scsi.c **** /* BSPDependencies
  20:Middlewares/ST/STM32_USB_Host_Library/Class/MSC/Src/usbh_msc_scsi.c **** - "stm32xxxxx_{eval}{discovery}{nucleo_144}.c"
  21:Middlewares/ST/STM32_USB_Host_Library/Class/MSC/Src/usbh_msc_scsi.c **** - "stm32xxxxx_{eval}{discovery}_io.c"
  22:Middlewares/ST/STM32_USB_Host_Library/Class/MSC/Src/usbh_msc_scsi.c **** - "stm32xxxxx_{eval}{discovery}{adafruit}_lcd.c"
  23:Middlewares/ST/STM32_USB_Host_Library/Class/MSC/Src/usbh_msc_scsi.c **** - "stm32xxxxx_{eval}{discovery}_sdram.c"
  24:Middlewares/ST/STM32_USB_Host_Library/Class/MSC/Src/usbh_msc_scsi.c **** EndBSPDependencies */
  25:Middlewares/ST/STM32_USB_Host_Library/Class/MSC/Src/usbh_msc_scsi.c **** 
  26:Middlewares/ST/STM32_USB_Host_Library/Class/MSC/Src/usbh_msc_scsi.c **** /* Includes ------------------------------------------------------------------*/
  27:Middlewares/ST/STM32_USB_Host_Library/Class/MSC/Src/usbh_msc_scsi.c **** #include "usbh_msc.h"
  28:Middlewares/ST/STM32_USB_Host_Library/Class/MSC/Src/usbh_msc_scsi.c **** #include "usbh_msc_scsi.h"
  29:Middlewares/ST/STM32_USB_Host_Library/Class/MSC/Src/usbh_msc_scsi.c **** #include "usbh_msc_bot.h"
ARM GAS  C:\Users\benny\AppData\Local\Temp\ccucGPrV.s 			page 2


  30:Middlewares/ST/STM32_USB_Host_Library/Class/MSC/Src/usbh_msc_scsi.c **** 
  31:Middlewares/ST/STM32_USB_Host_Library/Class/MSC/Src/usbh_msc_scsi.c **** 
  32:Middlewares/ST/STM32_USB_Host_Library/Class/MSC/Src/usbh_msc_scsi.c **** /** @addtogroup USBH_LIB
  33:Middlewares/ST/STM32_USB_Host_Library/Class/MSC/Src/usbh_msc_scsi.c ****   * @{
  34:Middlewares/ST/STM32_USB_Host_Library/Class/MSC/Src/usbh_msc_scsi.c ****   */
  35:Middlewares/ST/STM32_USB_Host_Library/Class/MSC/Src/usbh_msc_scsi.c **** 
  36:Middlewares/ST/STM32_USB_Host_Library/Class/MSC/Src/usbh_msc_scsi.c **** /** @addtogroup USBH_CLASS
  37:Middlewares/ST/STM32_USB_Host_Library/Class/MSC/Src/usbh_msc_scsi.c ****   * @{
  38:Middlewares/ST/STM32_USB_Host_Library/Class/MSC/Src/usbh_msc_scsi.c ****   */
  39:Middlewares/ST/STM32_USB_Host_Library/Class/MSC/Src/usbh_msc_scsi.c **** 
  40:Middlewares/ST/STM32_USB_Host_Library/Class/MSC/Src/usbh_msc_scsi.c **** /** @addtogroup USBH_MSC_CLASS
  41:Middlewares/ST/STM32_USB_Host_Library/Class/MSC/Src/usbh_msc_scsi.c ****   * @{
  42:Middlewares/ST/STM32_USB_Host_Library/Class/MSC/Src/usbh_msc_scsi.c ****   */
  43:Middlewares/ST/STM32_USB_Host_Library/Class/MSC/Src/usbh_msc_scsi.c **** 
  44:Middlewares/ST/STM32_USB_Host_Library/Class/MSC/Src/usbh_msc_scsi.c **** /** @defgroup USBH_MSC_SCSI
  45:Middlewares/ST/STM32_USB_Host_Library/Class/MSC/Src/usbh_msc_scsi.c ****   * @brief    This file includes the mass storage related functions
  46:Middlewares/ST/STM32_USB_Host_Library/Class/MSC/Src/usbh_msc_scsi.c ****   * @{
  47:Middlewares/ST/STM32_USB_Host_Library/Class/MSC/Src/usbh_msc_scsi.c ****   */
  48:Middlewares/ST/STM32_USB_Host_Library/Class/MSC/Src/usbh_msc_scsi.c **** 
  49:Middlewares/ST/STM32_USB_Host_Library/Class/MSC/Src/usbh_msc_scsi.c **** 
  50:Middlewares/ST/STM32_USB_Host_Library/Class/MSC/Src/usbh_msc_scsi.c **** /** @defgroup USBH_MSC_SCSI_Private_TypesDefinitions
  51:Middlewares/ST/STM32_USB_Host_Library/Class/MSC/Src/usbh_msc_scsi.c ****   * @{
  52:Middlewares/ST/STM32_USB_Host_Library/Class/MSC/Src/usbh_msc_scsi.c ****   */
  53:Middlewares/ST/STM32_USB_Host_Library/Class/MSC/Src/usbh_msc_scsi.c **** 
  54:Middlewares/ST/STM32_USB_Host_Library/Class/MSC/Src/usbh_msc_scsi.c **** /**
  55:Middlewares/ST/STM32_USB_Host_Library/Class/MSC/Src/usbh_msc_scsi.c ****   * @}
  56:Middlewares/ST/STM32_USB_Host_Library/Class/MSC/Src/usbh_msc_scsi.c ****   */
  57:Middlewares/ST/STM32_USB_Host_Library/Class/MSC/Src/usbh_msc_scsi.c **** 
  58:Middlewares/ST/STM32_USB_Host_Library/Class/MSC/Src/usbh_msc_scsi.c **** /** @defgroup USBH_MSC_SCSI_Private_Defines
  59:Middlewares/ST/STM32_USB_Host_Library/Class/MSC/Src/usbh_msc_scsi.c ****   * @{
  60:Middlewares/ST/STM32_USB_Host_Library/Class/MSC/Src/usbh_msc_scsi.c ****   */
  61:Middlewares/ST/STM32_USB_Host_Library/Class/MSC/Src/usbh_msc_scsi.c **** /**
  62:Middlewares/ST/STM32_USB_Host_Library/Class/MSC/Src/usbh_msc_scsi.c ****   * @}
  63:Middlewares/ST/STM32_USB_Host_Library/Class/MSC/Src/usbh_msc_scsi.c ****   */
  64:Middlewares/ST/STM32_USB_Host_Library/Class/MSC/Src/usbh_msc_scsi.c **** 
  65:Middlewares/ST/STM32_USB_Host_Library/Class/MSC/Src/usbh_msc_scsi.c **** /** @defgroup USBH_MSC_SCSI_Private_Macros
  66:Middlewares/ST/STM32_USB_Host_Library/Class/MSC/Src/usbh_msc_scsi.c ****   * @{
  67:Middlewares/ST/STM32_USB_Host_Library/Class/MSC/Src/usbh_msc_scsi.c ****   */
  68:Middlewares/ST/STM32_USB_Host_Library/Class/MSC/Src/usbh_msc_scsi.c **** /**
  69:Middlewares/ST/STM32_USB_Host_Library/Class/MSC/Src/usbh_msc_scsi.c ****   * @}
  70:Middlewares/ST/STM32_USB_Host_Library/Class/MSC/Src/usbh_msc_scsi.c ****   */
  71:Middlewares/ST/STM32_USB_Host_Library/Class/MSC/Src/usbh_msc_scsi.c **** 
  72:Middlewares/ST/STM32_USB_Host_Library/Class/MSC/Src/usbh_msc_scsi.c **** 
  73:Middlewares/ST/STM32_USB_Host_Library/Class/MSC/Src/usbh_msc_scsi.c **** /** @defgroup USBH_MSC_SCSI_Private_FunctionPrototypes
  74:Middlewares/ST/STM32_USB_Host_Library/Class/MSC/Src/usbh_msc_scsi.c ****   * @{
  75:Middlewares/ST/STM32_USB_Host_Library/Class/MSC/Src/usbh_msc_scsi.c ****   */
  76:Middlewares/ST/STM32_USB_Host_Library/Class/MSC/Src/usbh_msc_scsi.c **** /**
  77:Middlewares/ST/STM32_USB_Host_Library/Class/MSC/Src/usbh_msc_scsi.c ****   * @}
  78:Middlewares/ST/STM32_USB_Host_Library/Class/MSC/Src/usbh_msc_scsi.c ****   */
  79:Middlewares/ST/STM32_USB_Host_Library/Class/MSC/Src/usbh_msc_scsi.c **** 
  80:Middlewares/ST/STM32_USB_Host_Library/Class/MSC/Src/usbh_msc_scsi.c **** 
  81:Middlewares/ST/STM32_USB_Host_Library/Class/MSC/Src/usbh_msc_scsi.c **** /** @defgroup USBH_MSC_SCSI_Exported_Variables
  82:Middlewares/ST/STM32_USB_Host_Library/Class/MSC/Src/usbh_msc_scsi.c ****   * @{
  83:Middlewares/ST/STM32_USB_Host_Library/Class/MSC/Src/usbh_msc_scsi.c ****   */
  84:Middlewares/ST/STM32_USB_Host_Library/Class/MSC/Src/usbh_msc_scsi.c **** 
  85:Middlewares/ST/STM32_USB_Host_Library/Class/MSC/Src/usbh_msc_scsi.c **** /**
  86:Middlewares/ST/STM32_USB_Host_Library/Class/MSC/Src/usbh_msc_scsi.c ****   * @}
ARM GAS  C:\Users\benny\AppData\Local\Temp\ccucGPrV.s 			page 3


  87:Middlewares/ST/STM32_USB_Host_Library/Class/MSC/Src/usbh_msc_scsi.c ****   */
  88:Middlewares/ST/STM32_USB_Host_Library/Class/MSC/Src/usbh_msc_scsi.c **** 
  89:Middlewares/ST/STM32_USB_Host_Library/Class/MSC/Src/usbh_msc_scsi.c **** 
  90:Middlewares/ST/STM32_USB_Host_Library/Class/MSC/Src/usbh_msc_scsi.c **** /** @defgroup USBH_MSC_SCSI_Private_Functions
  91:Middlewares/ST/STM32_USB_Host_Library/Class/MSC/Src/usbh_msc_scsi.c ****   * @{
  92:Middlewares/ST/STM32_USB_Host_Library/Class/MSC/Src/usbh_msc_scsi.c ****   */
  93:Middlewares/ST/STM32_USB_Host_Library/Class/MSC/Src/usbh_msc_scsi.c **** 
  94:Middlewares/ST/STM32_USB_Host_Library/Class/MSC/Src/usbh_msc_scsi.c **** 
  95:Middlewares/ST/STM32_USB_Host_Library/Class/MSC/Src/usbh_msc_scsi.c **** /**
  96:Middlewares/ST/STM32_USB_Host_Library/Class/MSC/Src/usbh_msc_scsi.c ****   * @brief  USBH_MSC_SCSI_TestUnitReady
  97:Middlewares/ST/STM32_USB_Host_Library/Class/MSC/Src/usbh_msc_scsi.c ****   *         Issue TestUnitReady command.
  98:Middlewares/ST/STM32_USB_Host_Library/Class/MSC/Src/usbh_msc_scsi.c ****   * @param  phost: Host handle
  99:Middlewares/ST/STM32_USB_Host_Library/Class/MSC/Src/usbh_msc_scsi.c ****   * @param  lun: Logical Unit Number
 100:Middlewares/ST/STM32_USB_Host_Library/Class/MSC/Src/usbh_msc_scsi.c ****   * @retval USBH Status
 101:Middlewares/ST/STM32_USB_Host_Library/Class/MSC/Src/usbh_msc_scsi.c ****   */
 102:Middlewares/ST/STM32_USB_Host_Library/Class/MSC/Src/usbh_msc_scsi.c **** USBH_StatusTypeDef USBH_MSC_SCSI_TestUnitReady(USBH_HandleTypeDef *phost,
 103:Middlewares/ST/STM32_USB_Host_Library/Class/MSC/Src/usbh_msc_scsi.c ****                                                uint8_t lun)
 104:Middlewares/ST/STM32_USB_Host_Library/Class/MSC/Src/usbh_msc_scsi.c **** {
  30              		.loc 1 104 1 view -0
  31              		.cfi_startproc
  32              		@ args = 0, pretend = 0, frame = 0
  33              		@ frame_needed = 0, uses_anonymous_args = 0
  34              		.loc 1 104 1 is_stmt 0 view .LVU1
  35 0000 08B5     		push	{r3, lr}
  36              	.LCFI0:
  37              		.cfi_def_cfa_offset 8
  38              		.cfi_offset 3, -8
  39              		.cfi_offset 14, -4
  40 0002 0246     		mov	r2, r0
 105:Middlewares/ST/STM32_USB_Host_Library/Class/MSC/Src/usbh_msc_scsi.c ****   USBH_StatusTypeDef error = USBH_FAIL;
  41              		.loc 1 105 3 is_stmt 1 view .LVU2
  42              	.LVL1:
 106:Middlewares/ST/STM32_USB_Host_Library/Class/MSC/Src/usbh_msc_scsi.c ****   MSC_HandleTypeDef *MSC_Handle = (MSC_HandleTypeDef *) phost->pActiveClass->pData;
  43              		.loc 1 106 3 view .LVU3
  44              		.loc 1 106 62 is_stmt 0 view .LVU4
  45 0004 D0F84C34 		ldr	r3, [r0, #1100]
  46              		.loc 1 106 22 view .LVU5
  47 0008 DB69     		ldr	r3, [r3, #28]
  48              	.LVL2:
 107:Middlewares/ST/STM32_USB_Host_Library/Class/MSC/Src/usbh_msc_scsi.c **** 
 108:Middlewares/ST/STM32_USB_Host_Library/Class/MSC/Src/usbh_msc_scsi.c ****   switch (MSC_Handle->hbot.cmd_state)
  49              		.loc 1 108 3 is_stmt 1 view .LVU6
  50              		.loc 1 108 27 is_stmt 0 view .LVU7
  51 000a 93F85200 		ldrb	r0, [r3, #82]	@ zero_extendqisi2
  52              	.LVL3:
  53              		.loc 1 108 3 view .LVU8
  54 000e 0128     		cmp	r0, #1
  55 0010 03D0     		beq	.L2
  56 0012 0228     		cmp	r0, #2
  57 0014 17D0     		beq	.L3
  58 0016 0220     		movs	r0, #2
  59              	.LVL4:
  60              	.L4:
 109:Middlewares/ST/STM32_USB_Host_Library/Class/MSC/Src/usbh_msc_scsi.c ****   {
 110:Middlewares/ST/STM32_USB_Host_Library/Class/MSC/Src/usbh_msc_scsi.c ****     case BOT_CMD_SEND:
 111:Middlewares/ST/STM32_USB_Host_Library/Class/MSC/Src/usbh_msc_scsi.c **** 
 112:Middlewares/ST/STM32_USB_Host_Library/Class/MSC/Src/usbh_msc_scsi.c ****       /* Prepare the CBW and relevant field */
ARM GAS  C:\Users\benny\AppData\Local\Temp\ccucGPrV.s 			page 4


 113:Middlewares/ST/STM32_USB_Host_Library/Class/MSC/Src/usbh_msc_scsi.c ****       MSC_Handle->hbot.cbw.field.DataTransferLength = DATA_LEN_MODE_TEST_UNIT_READY;
 114:Middlewares/ST/STM32_USB_Host_Library/Class/MSC/Src/usbh_msc_scsi.c ****       MSC_Handle->hbot.cbw.field.Flags = USB_EP_DIR_OUT;
 115:Middlewares/ST/STM32_USB_Host_Library/Class/MSC/Src/usbh_msc_scsi.c ****       MSC_Handle->hbot.cbw.field.CBLength = CBW_LENGTH;
 116:Middlewares/ST/STM32_USB_Host_Library/Class/MSC/Src/usbh_msc_scsi.c **** 
 117:Middlewares/ST/STM32_USB_Host_Library/Class/MSC/Src/usbh_msc_scsi.c ****       (void)USBH_memset(MSC_Handle->hbot.cbw.field.CB, 0, CBW_CB_LENGTH);
 118:Middlewares/ST/STM32_USB_Host_Library/Class/MSC/Src/usbh_msc_scsi.c ****       MSC_Handle->hbot.cbw.field.CB[0] = OPCODE_TEST_UNIT_READY;
 119:Middlewares/ST/STM32_USB_Host_Library/Class/MSC/Src/usbh_msc_scsi.c **** 
 120:Middlewares/ST/STM32_USB_Host_Library/Class/MSC/Src/usbh_msc_scsi.c ****       MSC_Handle->hbot.state = BOT_SEND_CBW;
 121:Middlewares/ST/STM32_USB_Host_Library/Class/MSC/Src/usbh_msc_scsi.c ****       MSC_Handle->hbot.cmd_state = BOT_CMD_WAIT;
 122:Middlewares/ST/STM32_USB_Host_Library/Class/MSC/Src/usbh_msc_scsi.c ****       error = USBH_BUSY;
 123:Middlewares/ST/STM32_USB_Host_Library/Class/MSC/Src/usbh_msc_scsi.c ****       break;
 124:Middlewares/ST/STM32_USB_Host_Library/Class/MSC/Src/usbh_msc_scsi.c **** 
 125:Middlewares/ST/STM32_USB_Host_Library/Class/MSC/Src/usbh_msc_scsi.c ****     case BOT_CMD_WAIT:
 126:Middlewares/ST/STM32_USB_Host_Library/Class/MSC/Src/usbh_msc_scsi.c ****       error = USBH_MSC_BOT_Process(phost, lun);
 127:Middlewares/ST/STM32_USB_Host_Library/Class/MSC/Src/usbh_msc_scsi.c ****       break;
 128:Middlewares/ST/STM32_USB_Host_Library/Class/MSC/Src/usbh_msc_scsi.c **** 
 129:Middlewares/ST/STM32_USB_Host_Library/Class/MSC/Src/usbh_msc_scsi.c ****     default:
 130:Middlewares/ST/STM32_USB_Host_Library/Class/MSC/Src/usbh_msc_scsi.c ****       break;
 131:Middlewares/ST/STM32_USB_Host_Library/Class/MSC/Src/usbh_msc_scsi.c ****   }
 132:Middlewares/ST/STM32_USB_Host_Library/Class/MSC/Src/usbh_msc_scsi.c **** 
 133:Middlewares/ST/STM32_USB_Host_Library/Class/MSC/Src/usbh_msc_scsi.c ****   return error;
  61              		.loc 1 133 3 is_stmt 1 view .LVU9
 134:Middlewares/ST/STM32_USB_Host_Library/Class/MSC/Src/usbh_msc_scsi.c **** }
  62              		.loc 1 134 1 is_stmt 0 view .LVU10
  63 0018 08BD     		pop	{r3, pc}
  64              	.LVL5:
  65              	.L2:
 113:Middlewares/ST/STM32_USB_Host_Library/Class/MSC/Src/usbh_msc_scsi.c ****       MSC_Handle->hbot.cbw.field.Flags = USB_EP_DIR_OUT;
  66              		.loc 1 113 7 is_stmt 1 view .LVU11
 113:Middlewares/ST/STM32_USB_Host_Library/Class/MSC/Src/usbh_msc_scsi.c ****       MSC_Handle->hbot.cbw.field.Flags = USB_EP_DIR_OUT;
  67              		.loc 1 113 53 is_stmt 0 view .LVU12
  68 001a 0022     		movs	r2, #0
  69              	.LVL6:
 113:Middlewares/ST/STM32_USB_Host_Library/Class/MSC/Src/usbh_msc_scsi.c ****       MSC_Handle->hbot.cbw.field.Flags = USB_EP_DIR_OUT;
  70              		.loc 1 113 53 view .LVU13
  71 001c DA65     		str	r2, [r3, #92]
 114:Middlewares/ST/STM32_USB_Host_Library/Class/MSC/Src/usbh_msc_scsi.c ****       MSC_Handle->hbot.cbw.field.CBLength = CBW_LENGTH;
  72              		.loc 1 114 7 is_stmt 1 view .LVU14
 114:Middlewares/ST/STM32_USB_Host_Library/Class/MSC/Src/usbh_msc_scsi.c ****       MSC_Handle->hbot.cbw.field.CBLength = CBW_LENGTH;
  73              		.loc 1 114 40 is_stmt 0 view .LVU15
  74 001e 83F86020 		strb	r2, [r3, #96]
 115:Middlewares/ST/STM32_USB_Host_Library/Class/MSC/Src/usbh_msc_scsi.c **** 
  75              		.loc 1 115 7 is_stmt 1 view .LVU16
 115:Middlewares/ST/STM32_USB_Host_Library/Class/MSC/Src/usbh_msc_scsi.c **** 
  76              		.loc 1 115 43 is_stmt 0 view .LVU17
  77 0022 0A21     		movs	r1, #10
  78              	.LVL7:
 115:Middlewares/ST/STM32_USB_Host_Library/Class/MSC/Src/usbh_msc_scsi.c **** 
  79              		.loc 1 115 43 view .LVU18
  80 0024 83F86210 		strb	r1, [r3, #98]
 117:Middlewares/ST/STM32_USB_Host_Library/Class/MSC/Src/usbh_msc_scsi.c ****       MSC_Handle->hbot.cbw.field.CB[0] = OPCODE_TEST_UNIT_READY;
  81              		.loc 1 117 7 is_stmt 1 view .LVU19
 117:Middlewares/ST/STM32_USB_Host_Library/Class/MSC/Src/usbh_msc_scsi.c ****       MSC_Handle->hbot.cbw.field.CB[0] = OPCODE_TEST_UNIT_READY;
  82              		.loc 1 117 13 is_stmt 0 view .LVU20
  83 0028 C3F86320 		str	r2, [r3, #99]	@ unaligned
  84 002c C3F86720 		str	r2, [r3, #103]	@ unaligned
  85 0030 C3F86B20 		str	r2, [r3, #107]	@ unaligned
ARM GAS  C:\Users\benny\AppData\Local\Temp\ccucGPrV.s 			page 5


  86 0034 C3F86F20 		str	r2, [r3, #111]	@ unaligned
 118:Middlewares/ST/STM32_USB_Host_Library/Class/MSC/Src/usbh_msc_scsi.c **** 
  87              		.loc 1 118 7 is_stmt 1 view .LVU21
 120:Middlewares/ST/STM32_USB_Host_Library/Class/MSC/Src/usbh_msc_scsi.c ****       MSC_Handle->hbot.cmd_state = BOT_CMD_WAIT;
  88              		.loc 1 120 7 view .LVU22
 120:Middlewares/ST/STM32_USB_Host_Library/Class/MSC/Src/usbh_msc_scsi.c ****       MSC_Handle->hbot.cmd_state = BOT_CMD_WAIT;
  89              		.loc 1 120 30 is_stmt 0 view .LVU23
  90 0038 0122     		movs	r2, #1
  91 003a 83F85020 		strb	r2, [r3, #80]
 121:Middlewares/ST/STM32_USB_Host_Library/Class/MSC/Src/usbh_msc_scsi.c ****       error = USBH_BUSY;
  92              		.loc 1 121 7 is_stmt 1 view .LVU24
 121:Middlewares/ST/STM32_USB_Host_Library/Class/MSC/Src/usbh_msc_scsi.c ****       error = USBH_BUSY;
  93              		.loc 1 121 34 is_stmt 0 view .LVU25
  94 003e 0222     		movs	r2, #2
  95 0040 83F85220 		strb	r2, [r3, #82]
 122:Middlewares/ST/STM32_USB_Host_Library/Class/MSC/Src/usbh_msc_scsi.c ****       break;
  96              		.loc 1 122 7 is_stmt 1 view .LVU26
  97              	.LVL8:
 123:Middlewares/ST/STM32_USB_Host_Library/Class/MSC/Src/usbh_msc_scsi.c **** 
  98              		.loc 1 123 7 view .LVU27
  99 0044 E8E7     		b	.L4
 100              	.LVL9:
 101              	.L3:
 126:Middlewares/ST/STM32_USB_Host_Library/Class/MSC/Src/usbh_msc_scsi.c ****       break;
 102              		.loc 1 126 7 view .LVU28
 126:Middlewares/ST/STM32_USB_Host_Library/Class/MSC/Src/usbh_msc_scsi.c ****       break;
 103              		.loc 1 126 15 is_stmt 0 view .LVU29
 104 0046 1046     		mov	r0, r2
 105 0048 FFF7FEFF 		bl	USBH_MSC_BOT_Process
 106              	.LVL10:
 127:Middlewares/ST/STM32_USB_Host_Library/Class/MSC/Src/usbh_msc_scsi.c **** 
 107              		.loc 1 127 7 is_stmt 1 view .LVU30
 108 004c E4E7     		b	.L4
 109              		.cfi_endproc
 110              	.LFE144:
 112              		.section	.text.USBH_MSC_SCSI_ReadCapacity,"ax",%progbits
 113              		.align	1
 114              		.global	USBH_MSC_SCSI_ReadCapacity
 115              		.syntax unified
 116              		.thumb
 117              		.thumb_func
 119              	USBH_MSC_SCSI_ReadCapacity:
 120              	.LVL11:
 121              	.LFB145:
 135:Middlewares/ST/STM32_USB_Host_Library/Class/MSC/Src/usbh_msc_scsi.c **** 
 136:Middlewares/ST/STM32_USB_Host_Library/Class/MSC/Src/usbh_msc_scsi.c **** /**
 137:Middlewares/ST/STM32_USB_Host_Library/Class/MSC/Src/usbh_msc_scsi.c ****   * @brief  USBH_MSC_SCSI_ReadCapacity
 138:Middlewares/ST/STM32_USB_Host_Library/Class/MSC/Src/usbh_msc_scsi.c ****   *         Issue Read Capacity command.
 139:Middlewares/ST/STM32_USB_Host_Library/Class/MSC/Src/usbh_msc_scsi.c ****   * @param  phost: Host handle
 140:Middlewares/ST/STM32_USB_Host_Library/Class/MSC/Src/usbh_msc_scsi.c ****   * @param  lun: Logical Unit Number
 141:Middlewares/ST/STM32_USB_Host_Library/Class/MSC/Src/usbh_msc_scsi.c ****   * @param  capacity: pointer to the capacity structure
 142:Middlewares/ST/STM32_USB_Host_Library/Class/MSC/Src/usbh_msc_scsi.c ****   * @retval USBH Status
 143:Middlewares/ST/STM32_USB_Host_Library/Class/MSC/Src/usbh_msc_scsi.c ****   */
 144:Middlewares/ST/STM32_USB_Host_Library/Class/MSC/Src/usbh_msc_scsi.c **** USBH_StatusTypeDef USBH_MSC_SCSI_ReadCapacity(USBH_HandleTypeDef *phost,
 145:Middlewares/ST/STM32_USB_Host_Library/Class/MSC/Src/usbh_msc_scsi.c ****                                               uint8_t lun,
 146:Middlewares/ST/STM32_USB_Host_Library/Class/MSC/Src/usbh_msc_scsi.c ****                                               SCSI_CapacityTypeDef *capacity)
 147:Middlewares/ST/STM32_USB_Host_Library/Class/MSC/Src/usbh_msc_scsi.c **** {
ARM GAS  C:\Users\benny\AppData\Local\Temp\ccucGPrV.s 			page 6


 122              		.loc 1 147 1 view -0
 123              		.cfi_startproc
 124              		@ args = 0, pretend = 0, frame = 0
 125              		@ frame_needed = 0, uses_anonymous_args = 0
 126              		.loc 1 147 1 is_stmt 0 view .LVU32
 127 0000 38B5     		push	{r3, r4, r5, lr}
 128              	.LCFI1:
 129              		.cfi_def_cfa_offset 16
 130              		.cfi_offset 3, -16
 131              		.cfi_offset 4, -12
 132              		.cfi_offset 5, -8
 133              		.cfi_offset 14, -4
 134 0002 0346     		mov	r3, r0
 148:Middlewares/ST/STM32_USB_Host_Library/Class/MSC/Src/usbh_msc_scsi.c ****   USBH_StatusTypeDef error = USBH_BUSY;
 135              		.loc 1 148 3 is_stmt 1 view .LVU33
 136              	.LVL12:
 149:Middlewares/ST/STM32_USB_Host_Library/Class/MSC/Src/usbh_msc_scsi.c ****   MSC_HandleTypeDef *MSC_Handle = (MSC_HandleTypeDef *) phost->pActiveClass->pData;
 137              		.loc 1 149 3 view .LVU34
 138              		.loc 1 149 62 is_stmt 0 view .LVU35
 139 0004 D0F84C04 		ldr	r0, [r0, #1100]
 140              	.LVL13:
 141              		.loc 1 149 22 view .LVU36
 142 0008 C469     		ldr	r4, [r0, #28]
 143              	.LVL14:
 150:Middlewares/ST/STM32_USB_Host_Library/Class/MSC/Src/usbh_msc_scsi.c **** 
 151:Middlewares/ST/STM32_USB_Host_Library/Class/MSC/Src/usbh_msc_scsi.c ****   switch (MSC_Handle->hbot.cmd_state)
 144              		.loc 1 151 3 is_stmt 1 view .LVU37
 145              		.loc 1 151 27 is_stmt 0 view .LVU38
 146 000a 94F85200 		ldrb	r0, [r4, #82]	@ zero_extendqisi2
 147              		.loc 1 151 3 view .LVU39
 148 000e 0128     		cmp	r0, #1
 149 0010 04D0     		beq	.L7
 150 0012 1546     		mov	r5, r2
 151 0014 0228     		cmp	r0, #2
 152 0016 20D0     		beq	.L8
 153 0018 0120     		movs	r0, #1
 154              	.LVL15:
 155              	.L9:
 152:Middlewares/ST/STM32_USB_Host_Library/Class/MSC/Src/usbh_msc_scsi.c ****   {
 153:Middlewares/ST/STM32_USB_Host_Library/Class/MSC/Src/usbh_msc_scsi.c ****     case BOT_CMD_SEND:
 154:Middlewares/ST/STM32_USB_Host_Library/Class/MSC/Src/usbh_msc_scsi.c **** 
 155:Middlewares/ST/STM32_USB_Host_Library/Class/MSC/Src/usbh_msc_scsi.c ****       /* Prepare the CBW and relevant field */
 156:Middlewares/ST/STM32_USB_Host_Library/Class/MSC/Src/usbh_msc_scsi.c ****       MSC_Handle->hbot.cbw.field.DataTransferLength = DATA_LEN_READ_CAPACITY10;
 157:Middlewares/ST/STM32_USB_Host_Library/Class/MSC/Src/usbh_msc_scsi.c ****       MSC_Handle->hbot.cbw.field.Flags = USB_EP_DIR_IN;
 158:Middlewares/ST/STM32_USB_Host_Library/Class/MSC/Src/usbh_msc_scsi.c ****       MSC_Handle->hbot.cbw.field.CBLength = CBW_LENGTH;
 159:Middlewares/ST/STM32_USB_Host_Library/Class/MSC/Src/usbh_msc_scsi.c **** 
 160:Middlewares/ST/STM32_USB_Host_Library/Class/MSC/Src/usbh_msc_scsi.c ****       (void)USBH_memset(MSC_Handle->hbot.cbw.field.CB, 0, CBW_CB_LENGTH);
 161:Middlewares/ST/STM32_USB_Host_Library/Class/MSC/Src/usbh_msc_scsi.c ****       MSC_Handle->hbot.cbw.field.CB[0]  = OPCODE_READ_CAPACITY10;
 162:Middlewares/ST/STM32_USB_Host_Library/Class/MSC/Src/usbh_msc_scsi.c **** 
 163:Middlewares/ST/STM32_USB_Host_Library/Class/MSC/Src/usbh_msc_scsi.c ****       MSC_Handle->hbot.state = BOT_SEND_CBW;
 164:Middlewares/ST/STM32_USB_Host_Library/Class/MSC/Src/usbh_msc_scsi.c **** 
 165:Middlewares/ST/STM32_USB_Host_Library/Class/MSC/Src/usbh_msc_scsi.c ****       MSC_Handle->hbot.cmd_state = BOT_CMD_WAIT;
 166:Middlewares/ST/STM32_USB_Host_Library/Class/MSC/Src/usbh_msc_scsi.c ****       MSC_Handle->hbot.pbuf = (uint8_t *)(void *)MSC_Handle->hbot.data;
 167:Middlewares/ST/STM32_USB_Host_Library/Class/MSC/Src/usbh_msc_scsi.c ****       error = USBH_BUSY;
 168:Middlewares/ST/STM32_USB_Host_Library/Class/MSC/Src/usbh_msc_scsi.c ****       break;
 169:Middlewares/ST/STM32_USB_Host_Library/Class/MSC/Src/usbh_msc_scsi.c **** 
 170:Middlewares/ST/STM32_USB_Host_Library/Class/MSC/Src/usbh_msc_scsi.c ****     case BOT_CMD_WAIT:
ARM GAS  C:\Users\benny\AppData\Local\Temp\ccucGPrV.s 			page 7


 171:Middlewares/ST/STM32_USB_Host_Library/Class/MSC/Src/usbh_msc_scsi.c **** 
 172:Middlewares/ST/STM32_USB_Host_Library/Class/MSC/Src/usbh_msc_scsi.c ****       error = USBH_MSC_BOT_Process(phost, lun);
 173:Middlewares/ST/STM32_USB_Host_Library/Class/MSC/Src/usbh_msc_scsi.c **** 
 174:Middlewares/ST/STM32_USB_Host_Library/Class/MSC/Src/usbh_msc_scsi.c ****       if (error == USBH_OK)
 175:Middlewares/ST/STM32_USB_Host_Library/Class/MSC/Src/usbh_msc_scsi.c ****       {
 176:Middlewares/ST/STM32_USB_Host_Library/Class/MSC/Src/usbh_msc_scsi.c ****         /* Assign the capacity */
 177:Middlewares/ST/STM32_USB_Host_Library/Class/MSC/Src/usbh_msc_scsi.c ****         capacity->block_nbr = MSC_Handle->hbot.pbuf[3] | ((uint32_t)MSC_Handle->hbot.pbuf[2] << 8U)
 178:Middlewares/ST/STM32_USB_Host_Library/Class/MSC/Src/usbh_msc_scsi.c ****                               ((uint32_t)MSC_Handle->hbot.pbuf[1] << 16U) | ((uint32_t)MSC_Handle->
 179:Middlewares/ST/STM32_USB_Host_Library/Class/MSC/Src/usbh_msc_scsi.c **** 
 180:Middlewares/ST/STM32_USB_Host_Library/Class/MSC/Src/usbh_msc_scsi.c ****         /* Assign the page length */
 181:Middlewares/ST/STM32_USB_Host_Library/Class/MSC/Src/usbh_msc_scsi.c ****         capacity->block_size = (uint16_t)(MSC_Handle->hbot.pbuf[7] | ((uint32_t)MSC_Handle->hbot.pb
 182:Middlewares/ST/STM32_USB_Host_Library/Class/MSC/Src/usbh_msc_scsi.c ****       }
 183:Middlewares/ST/STM32_USB_Host_Library/Class/MSC/Src/usbh_msc_scsi.c ****       break;
 184:Middlewares/ST/STM32_USB_Host_Library/Class/MSC/Src/usbh_msc_scsi.c **** 
 185:Middlewares/ST/STM32_USB_Host_Library/Class/MSC/Src/usbh_msc_scsi.c ****     default:
 186:Middlewares/ST/STM32_USB_Host_Library/Class/MSC/Src/usbh_msc_scsi.c ****       break;
 187:Middlewares/ST/STM32_USB_Host_Library/Class/MSC/Src/usbh_msc_scsi.c ****   }
 188:Middlewares/ST/STM32_USB_Host_Library/Class/MSC/Src/usbh_msc_scsi.c **** 
 189:Middlewares/ST/STM32_USB_Host_Library/Class/MSC/Src/usbh_msc_scsi.c ****   return error;
 156              		.loc 1 189 3 is_stmt 1 view .LVU40
 190:Middlewares/ST/STM32_USB_Host_Library/Class/MSC/Src/usbh_msc_scsi.c **** }
 157              		.loc 1 190 1 is_stmt 0 view .LVU41
 158 001a 38BD     		pop	{r3, r4, r5, pc}
 159              	.LVL16:
 160              	.L7:
 156:Middlewares/ST/STM32_USB_Host_Library/Class/MSC/Src/usbh_msc_scsi.c ****       MSC_Handle->hbot.cbw.field.Flags = USB_EP_DIR_IN;
 161              		.loc 1 156 7 is_stmt 1 view .LVU42
 156:Middlewares/ST/STM32_USB_Host_Library/Class/MSC/Src/usbh_msc_scsi.c ****       MSC_Handle->hbot.cbw.field.Flags = USB_EP_DIR_IN;
 162              		.loc 1 156 53 is_stmt 0 view .LVU43
 163 001c 0823     		movs	r3, #8
 164              	.LVL17:
 156:Middlewares/ST/STM32_USB_Host_Library/Class/MSC/Src/usbh_msc_scsi.c ****       MSC_Handle->hbot.cbw.field.Flags = USB_EP_DIR_IN;
 165              		.loc 1 156 53 view .LVU44
 166 001e E365     		str	r3, [r4, #92]
 157:Middlewares/ST/STM32_USB_Host_Library/Class/MSC/Src/usbh_msc_scsi.c ****       MSC_Handle->hbot.cbw.field.CBLength = CBW_LENGTH;
 167              		.loc 1 157 7 is_stmt 1 view .LVU45
 157:Middlewares/ST/STM32_USB_Host_Library/Class/MSC/Src/usbh_msc_scsi.c ****       MSC_Handle->hbot.cbw.field.CBLength = CBW_LENGTH;
 168              		.loc 1 157 40 is_stmt 0 view .LVU46
 169 0020 8023     		movs	r3, #128
 170 0022 84F86030 		strb	r3, [r4, #96]
 158:Middlewares/ST/STM32_USB_Host_Library/Class/MSC/Src/usbh_msc_scsi.c **** 
 171              		.loc 1 158 7 is_stmt 1 view .LVU47
 158:Middlewares/ST/STM32_USB_Host_Library/Class/MSC/Src/usbh_msc_scsi.c **** 
 172              		.loc 1 158 43 is_stmt 0 view .LVU48
 173 0026 0A23     		movs	r3, #10
 174 0028 84F86230 		strb	r3, [r4, #98]
 160:Middlewares/ST/STM32_USB_Host_Library/Class/MSC/Src/usbh_msc_scsi.c ****       MSC_Handle->hbot.cbw.field.CB[0]  = OPCODE_READ_CAPACITY10;
 175              		.loc 1 160 7 is_stmt 1 view .LVU49
 160:Middlewares/ST/STM32_USB_Host_Library/Class/MSC/Src/usbh_msc_scsi.c ****       MSC_Handle->hbot.cbw.field.CB[0]  = OPCODE_READ_CAPACITY10;
 176              		.loc 1 160 13 is_stmt 0 view .LVU50
 177 002c 0023     		movs	r3, #0
 178 002e C4F86330 		str	r3, [r4, #99]	@ unaligned
 179 0032 C4F86730 		str	r3, [r4, #103]	@ unaligned
 180 0036 C4F86B30 		str	r3, [r4, #107]	@ unaligned
 181 003a C4F86F30 		str	r3, [r4, #111]	@ unaligned
 161:Middlewares/ST/STM32_USB_Host_Library/Class/MSC/Src/usbh_msc_scsi.c **** 
 182              		.loc 1 161 7 is_stmt 1 view .LVU51
ARM GAS  C:\Users\benny\AppData\Local\Temp\ccucGPrV.s 			page 8


 161:Middlewares/ST/STM32_USB_Host_Library/Class/MSC/Src/usbh_msc_scsi.c **** 
 183              		.loc 1 161 41 is_stmt 0 view .LVU52
 184 003e 2523     		movs	r3, #37
 185 0040 84F86330 		strb	r3, [r4, #99]
 163:Middlewares/ST/STM32_USB_Host_Library/Class/MSC/Src/usbh_msc_scsi.c **** 
 186              		.loc 1 163 7 is_stmt 1 view .LVU53
 163:Middlewares/ST/STM32_USB_Host_Library/Class/MSC/Src/usbh_msc_scsi.c **** 
 187              		.loc 1 163 30 is_stmt 0 view .LVU54
 188 0044 0123     		movs	r3, #1
 189 0046 84F85030 		strb	r3, [r4, #80]
 165:Middlewares/ST/STM32_USB_Host_Library/Class/MSC/Src/usbh_msc_scsi.c ****       MSC_Handle->hbot.pbuf = (uint8_t *)(void *)MSC_Handle->hbot.data;
 190              		.loc 1 165 7 is_stmt 1 view .LVU55
 165:Middlewares/ST/STM32_USB_Host_Library/Class/MSC/Src/usbh_msc_scsi.c ****       MSC_Handle->hbot.pbuf = (uint8_t *)(void *)MSC_Handle->hbot.data;
 191              		.loc 1 165 34 is_stmt 0 view .LVU56
 192 004a 0223     		movs	r3, #2
 193 004c 84F85230 		strb	r3, [r4, #82]
 166:Middlewares/ST/STM32_USB_Host_Library/Class/MSC/Src/usbh_msc_scsi.c ****       error = USBH_BUSY;
 194              		.loc 1 166 7 is_stmt 1 view .LVU57
 166:Middlewares/ST/STM32_USB_Host_Library/Class/MSC/Src/usbh_msc_scsi.c ****       error = USBH_BUSY;
 195              		.loc 1 166 50 is_stmt 0 view .LVU58
 196 0050 04F11003 		add	r3, r4, #16
 166:Middlewares/ST/STM32_USB_Host_Library/Class/MSC/Src/usbh_msc_scsi.c ****       error = USBH_BUSY;
 197              		.loc 1 166 29 view .LVU59
 198 0054 C4F88C30 		str	r3, [r4, #140]
 167:Middlewares/ST/STM32_USB_Host_Library/Class/MSC/Src/usbh_msc_scsi.c ****       break;
 199              		.loc 1 167 7 is_stmt 1 view .LVU60
 168:Middlewares/ST/STM32_USB_Host_Library/Class/MSC/Src/usbh_msc_scsi.c **** 
 200              		.loc 1 168 7 view .LVU61
 201 0058 DFE7     		b	.L9
 202              	.LVL18:
 203              	.L8:
 172:Middlewares/ST/STM32_USB_Host_Library/Class/MSC/Src/usbh_msc_scsi.c **** 
 204              		.loc 1 172 7 view .LVU62
 172:Middlewares/ST/STM32_USB_Host_Library/Class/MSC/Src/usbh_msc_scsi.c **** 
 205              		.loc 1 172 15 is_stmt 0 view .LVU63
 206 005a 1846     		mov	r0, r3
 207 005c FFF7FEFF 		bl	USBH_MSC_BOT_Process
 208              	.LVL19:
 174:Middlewares/ST/STM32_USB_Host_Library/Class/MSC/Src/usbh_msc_scsi.c ****       {
 209              		.loc 1 174 7 is_stmt 1 view .LVU64
 174:Middlewares/ST/STM32_USB_Host_Library/Class/MSC/Src/usbh_msc_scsi.c ****       {
 210              		.loc 1 174 10 is_stmt 0 view .LVU65
 211 0060 0028     		cmp	r0, #0
 212 0062 DAD1     		bne	.L9
 177:Middlewares/ST/STM32_USB_Host_Library/Class/MSC/Src/usbh_msc_scsi.c ****                               ((uint32_t)MSC_Handle->hbot.pbuf[1] << 16U) | ((uint32_t)MSC_Handle->
 213              		.loc 1 177 9 is_stmt 1 view .LVU66
 177:Middlewares/ST/STM32_USB_Host_Library/Class/MSC/Src/usbh_msc_scsi.c ****                               ((uint32_t)MSC_Handle->hbot.pbuf[1] << 16U) | ((uint32_t)MSC_Handle->
 214              		.loc 1 177 47 is_stmt 0 view .LVU67
 215 0064 D4F88C20 		ldr	r2, [r4, #140]
 177:Middlewares/ST/STM32_USB_Host_Library/Class/MSC/Src/usbh_msc_scsi.c ****                               ((uint32_t)MSC_Handle->hbot.pbuf[1] << 16U) | ((uint32_t)MSC_Handle->
 216              		.loc 1 177 52 view .LVU68
 217 0068 D378     		ldrb	r3, [r2, #3]	@ zero_extendqisi2
 177:Middlewares/ST/STM32_USB_Host_Library/Class/MSC/Src/usbh_msc_scsi.c ****                               ((uint32_t)MSC_Handle->hbot.pbuf[1] << 16U) | ((uint32_t)MSC_Handle->
 218              		.loc 1 177 90 view .LVU69
 219 006a 9178     		ldrb	r1, [r2, #2]	@ zero_extendqisi2
 177:Middlewares/ST/STM32_USB_Host_Library/Class/MSC/Src/usbh_msc_scsi.c ****                               ((uint32_t)MSC_Handle->hbot.pbuf[1] << 16U) | ((uint32_t)MSC_Handle->
 220              		.loc 1 177 56 view .LVU70
ARM GAS  C:\Users\benny\AppData\Local\Temp\ccucGPrV.s 			page 9


 221 006c 43EA0123 		orr	r3, r3, r1, lsl #8
 178:Middlewares/ST/STM32_USB_Host_Library/Class/MSC/Src/usbh_msc_scsi.c **** 
 222              		.loc 1 178 63 view .LVU71
 223 0070 5178     		ldrb	r1, [r2, #1]	@ zero_extendqisi2
 177:Middlewares/ST/STM32_USB_Host_Library/Class/MSC/Src/usbh_msc_scsi.c ****                               ((uint32_t)MSC_Handle->hbot.pbuf[1] << 16U) | ((uint32_t)MSC_Handle->
 224              		.loc 1 177 101 view .LVU72
 225 0072 43EA0143 		orr	r3, r3, r1, lsl #16
 178:Middlewares/ST/STM32_USB_Host_Library/Class/MSC/Src/usbh_msc_scsi.c **** 
 226              		.loc 1 178 109 view .LVU73
 227 0076 1278     		ldrb	r2, [r2]	@ zero_extendqisi2
 178:Middlewares/ST/STM32_USB_Host_Library/Class/MSC/Src/usbh_msc_scsi.c **** 
 228              		.loc 1 178 75 view .LVU74
 229 0078 43EA0263 		orr	r3, r3, r2, lsl #24
 177:Middlewares/ST/STM32_USB_Host_Library/Class/MSC/Src/usbh_msc_scsi.c ****                               ((uint32_t)MSC_Handle->hbot.pbuf[1] << 16U) | ((uint32_t)MSC_Handle->
 230              		.loc 1 177 29 view .LVU75
 231 007c 2B60     		str	r3, [r5]
 181:Middlewares/ST/STM32_USB_Host_Library/Class/MSC/Src/usbh_msc_scsi.c ****       }
 232              		.loc 1 181 9 is_stmt 1 view .LVU76
 181:Middlewares/ST/STM32_USB_Host_Library/Class/MSC/Src/usbh_msc_scsi.c ****       }
 233              		.loc 1 181 59 is_stmt 0 view .LVU77
 234 007e D4F88C20 		ldr	r2, [r4, #140]
 181:Middlewares/ST/STM32_USB_Host_Library/Class/MSC/Src/usbh_msc_scsi.c ****       }
 235              		.loc 1 181 64 view .LVU78
 236 0082 D379     		ldrb	r3, [r2, #7]	@ zero_extendqisi2
 181:Middlewares/ST/STM32_USB_Host_Library/Class/MSC/Src/usbh_msc_scsi.c ****       }
 237              		.loc 1 181 102 view .LVU79
 238 0084 9279     		ldrb	r2, [r2, #6]	@ zero_extendqisi2
 181:Middlewares/ST/STM32_USB_Host_Library/Class/MSC/Src/usbh_msc_scsi.c ****       }
 239              		.loc 1 181 32 view .LVU80
 240 0086 43EA0223 		orr	r3, r3, r2, lsl #8
 181:Middlewares/ST/STM32_USB_Host_Library/Class/MSC/Src/usbh_msc_scsi.c ****       }
 241              		.loc 1 181 30 view .LVU81
 242 008a AB80     		strh	r3, [r5, #4]	@ movhi
 243 008c C5E7     		b	.L9
 244              		.cfi_endproc
 245              	.LFE145:
 247              		.section	.text.USBH_MSC_SCSI_Inquiry,"ax",%progbits
 248              		.align	1
 249              		.global	USBH_MSC_SCSI_Inquiry
 250              		.syntax unified
 251              		.thumb
 252              		.thumb_func
 254              	USBH_MSC_SCSI_Inquiry:
 255              	.LVL20:
 256              	.LFB146:
 191:Middlewares/ST/STM32_USB_Host_Library/Class/MSC/Src/usbh_msc_scsi.c **** 
 192:Middlewares/ST/STM32_USB_Host_Library/Class/MSC/Src/usbh_msc_scsi.c **** /**
 193:Middlewares/ST/STM32_USB_Host_Library/Class/MSC/Src/usbh_msc_scsi.c ****   * @brief  USBH_MSC_SCSI_Inquiry
 194:Middlewares/ST/STM32_USB_Host_Library/Class/MSC/Src/usbh_msc_scsi.c ****   *         Issue Inquiry command.
 195:Middlewares/ST/STM32_USB_Host_Library/Class/MSC/Src/usbh_msc_scsi.c ****   * @param  phost: Host handle
 196:Middlewares/ST/STM32_USB_Host_Library/Class/MSC/Src/usbh_msc_scsi.c ****   * @param  lun: Logical Unit Number
 197:Middlewares/ST/STM32_USB_Host_Library/Class/MSC/Src/usbh_msc_scsi.c ****   * @param  capacity: pointer to the inquiry structure
 198:Middlewares/ST/STM32_USB_Host_Library/Class/MSC/Src/usbh_msc_scsi.c ****   * @retval USBH Status
 199:Middlewares/ST/STM32_USB_Host_Library/Class/MSC/Src/usbh_msc_scsi.c ****   */
 200:Middlewares/ST/STM32_USB_Host_Library/Class/MSC/Src/usbh_msc_scsi.c **** USBH_StatusTypeDef USBH_MSC_SCSI_Inquiry(USBH_HandleTypeDef *phost, uint8_t lun,
 201:Middlewares/ST/STM32_USB_Host_Library/Class/MSC/Src/usbh_msc_scsi.c ****                                          SCSI_StdInquiryDataTypeDef *inquiry)
 202:Middlewares/ST/STM32_USB_Host_Library/Class/MSC/Src/usbh_msc_scsi.c **** {
ARM GAS  C:\Users\benny\AppData\Local\Temp\ccucGPrV.s 			page 10


 257              		.loc 1 202 1 is_stmt 1 view -0
 258              		.cfi_startproc
 259              		@ args = 0, pretend = 0, frame = 0
 260              		@ frame_needed = 0, uses_anonymous_args = 0
 261              		.loc 1 202 1 is_stmt 0 view .LVU83
 262 0000 70B5     		push	{r4, r5, r6, lr}
 263              	.LCFI2:
 264              		.cfi_def_cfa_offset 16
 265              		.cfi_offset 4, -16
 266              		.cfi_offset 5, -12
 267              		.cfi_offset 6, -8
 268              		.cfi_offset 14, -4
 203:Middlewares/ST/STM32_USB_Host_Library/Class/MSC/Src/usbh_msc_scsi.c ****   USBH_StatusTypeDef error = USBH_FAIL;
 269              		.loc 1 203 3 is_stmt 1 view .LVU84
 270              	.LVL21:
 204:Middlewares/ST/STM32_USB_Host_Library/Class/MSC/Src/usbh_msc_scsi.c ****   MSC_HandleTypeDef *MSC_Handle = (MSC_HandleTypeDef *) phost->pActiveClass->pData;
 271              		.loc 1 204 3 view .LVU85
 272              		.loc 1 204 62 is_stmt 0 view .LVU86
 273 0002 D0F84C34 		ldr	r3, [r0, #1100]
 274              		.loc 1 204 22 view .LVU87
 275 0006 DC69     		ldr	r4, [r3, #28]
 276              	.LVL22:
 205:Middlewares/ST/STM32_USB_Host_Library/Class/MSC/Src/usbh_msc_scsi.c **** 
 206:Middlewares/ST/STM32_USB_Host_Library/Class/MSC/Src/usbh_msc_scsi.c ****   switch (MSC_Handle->hbot.cmd_state)
 277              		.loc 1 206 3 is_stmt 1 view .LVU88
 278              		.loc 1 206 27 is_stmt 0 view .LVU89
 279 0008 94F85250 		ldrb	r5, [r4, #82]	@ zero_extendqisi2
 280              		.loc 1 206 3 view .LVU90
 281 000c 012D     		cmp	r5, #1
 282 000e 05D0     		beq	.L12
 283 0010 1646     		mov	r6, r2
 284 0012 022D     		cmp	r5, #2
 285 0014 24D0     		beq	.L13
 286 0016 0225     		movs	r5, #2
 287              	.LVL23:
 288              	.L14:
 207:Middlewares/ST/STM32_USB_Host_Library/Class/MSC/Src/usbh_msc_scsi.c ****   {
 208:Middlewares/ST/STM32_USB_Host_Library/Class/MSC/Src/usbh_msc_scsi.c ****     case BOT_CMD_SEND:
 209:Middlewares/ST/STM32_USB_Host_Library/Class/MSC/Src/usbh_msc_scsi.c **** 
 210:Middlewares/ST/STM32_USB_Host_Library/Class/MSC/Src/usbh_msc_scsi.c ****       /* Prepare the CBW and relevant field */
 211:Middlewares/ST/STM32_USB_Host_Library/Class/MSC/Src/usbh_msc_scsi.c ****       MSC_Handle->hbot.cbw.field.DataTransferLength = DATA_LEN_INQUIRY;
 212:Middlewares/ST/STM32_USB_Host_Library/Class/MSC/Src/usbh_msc_scsi.c ****       MSC_Handle->hbot.cbw.field.Flags = USB_EP_DIR_IN;
 213:Middlewares/ST/STM32_USB_Host_Library/Class/MSC/Src/usbh_msc_scsi.c ****       MSC_Handle->hbot.cbw.field.CBLength = CBW_LENGTH;
 214:Middlewares/ST/STM32_USB_Host_Library/Class/MSC/Src/usbh_msc_scsi.c **** 
 215:Middlewares/ST/STM32_USB_Host_Library/Class/MSC/Src/usbh_msc_scsi.c ****       (void)USBH_memset(MSC_Handle->hbot.cbw.field.CB, 0, CBW_LENGTH);
 216:Middlewares/ST/STM32_USB_Host_Library/Class/MSC/Src/usbh_msc_scsi.c ****       MSC_Handle->hbot.cbw.field.CB[0] = OPCODE_INQUIRY;
 217:Middlewares/ST/STM32_USB_Host_Library/Class/MSC/Src/usbh_msc_scsi.c ****       MSC_Handle->hbot.cbw.field.CB[1] = (lun << 5);
 218:Middlewares/ST/STM32_USB_Host_Library/Class/MSC/Src/usbh_msc_scsi.c ****       MSC_Handle->hbot.cbw.field.CB[2] = 0U;
 219:Middlewares/ST/STM32_USB_Host_Library/Class/MSC/Src/usbh_msc_scsi.c ****       MSC_Handle->hbot.cbw.field.CB[3] = 0U;
 220:Middlewares/ST/STM32_USB_Host_Library/Class/MSC/Src/usbh_msc_scsi.c ****       MSC_Handle->hbot.cbw.field.CB[4] = 0x24U;
 221:Middlewares/ST/STM32_USB_Host_Library/Class/MSC/Src/usbh_msc_scsi.c ****       MSC_Handle->hbot.cbw.field.CB[5] = 0U;
 222:Middlewares/ST/STM32_USB_Host_Library/Class/MSC/Src/usbh_msc_scsi.c **** 
 223:Middlewares/ST/STM32_USB_Host_Library/Class/MSC/Src/usbh_msc_scsi.c ****       MSC_Handle->hbot.state = BOT_SEND_CBW;
 224:Middlewares/ST/STM32_USB_Host_Library/Class/MSC/Src/usbh_msc_scsi.c **** 
 225:Middlewares/ST/STM32_USB_Host_Library/Class/MSC/Src/usbh_msc_scsi.c ****       MSC_Handle->hbot.cmd_state = BOT_CMD_WAIT;
 226:Middlewares/ST/STM32_USB_Host_Library/Class/MSC/Src/usbh_msc_scsi.c ****       MSC_Handle->hbot.pbuf = (uint8_t *)(void *)MSC_Handle->hbot.data;
 227:Middlewares/ST/STM32_USB_Host_Library/Class/MSC/Src/usbh_msc_scsi.c ****       error = USBH_BUSY;
ARM GAS  C:\Users\benny\AppData\Local\Temp\ccucGPrV.s 			page 11


 228:Middlewares/ST/STM32_USB_Host_Library/Class/MSC/Src/usbh_msc_scsi.c ****       break;
 229:Middlewares/ST/STM32_USB_Host_Library/Class/MSC/Src/usbh_msc_scsi.c **** 
 230:Middlewares/ST/STM32_USB_Host_Library/Class/MSC/Src/usbh_msc_scsi.c ****     case BOT_CMD_WAIT:
 231:Middlewares/ST/STM32_USB_Host_Library/Class/MSC/Src/usbh_msc_scsi.c **** 
 232:Middlewares/ST/STM32_USB_Host_Library/Class/MSC/Src/usbh_msc_scsi.c ****       error = USBH_MSC_BOT_Process(phost, lun);
 233:Middlewares/ST/STM32_USB_Host_Library/Class/MSC/Src/usbh_msc_scsi.c **** 
 234:Middlewares/ST/STM32_USB_Host_Library/Class/MSC/Src/usbh_msc_scsi.c ****       if (error == USBH_OK)
 235:Middlewares/ST/STM32_USB_Host_Library/Class/MSC/Src/usbh_msc_scsi.c ****       {
 236:Middlewares/ST/STM32_USB_Host_Library/Class/MSC/Src/usbh_msc_scsi.c ****         (void)USBH_memset(inquiry, 0, sizeof(SCSI_StdInquiryDataTypeDef));
 237:Middlewares/ST/STM32_USB_Host_Library/Class/MSC/Src/usbh_msc_scsi.c ****         /* Assign Inquiry Data */
 238:Middlewares/ST/STM32_USB_Host_Library/Class/MSC/Src/usbh_msc_scsi.c ****         inquiry->DeviceType = MSC_Handle->hbot.pbuf[0] & 0x1FU;
 239:Middlewares/ST/STM32_USB_Host_Library/Class/MSC/Src/usbh_msc_scsi.c ****         inquiry->PeripheralQualifier = MSC_Handle->hbot.pbuf[0] >> 5U;
 240:Middlewares/ST/STM32_USB_Host_Library/Class/MSC/Src/usbh_msc_scsi.c **** 
 241:Middlewares/ST/STM32_USB_Host_Library/Class/MSC/Src/usbh_msc_scsi.c ****         if (((uint32_t)MSC_Handle->hbot.pbuf[1] & 0x80U) == 0x80U)
 242:Middlewares/ST/STM32_USB_Host_Library/Class/MSC/Src/usbh_msc_scsi.c ****         {
 243:Middlewares/ST/STM32_USB_Host_Library/Class/MSC/Src/usbh_msc_scsi.c ****           inquiry->RemovableMedia = 1U;
 244:Middlewares/ST/STM32_USB_Host_Library/Class/MSC/Src/usbh_msc_scsi.c ****         }
 245:Middlewares/ST/STM32_USB_Host_Library/Class/MSC/Src/usbh_msc_scsi.c ****         else
 246:Middlewares/ST/STM32_USB_Host_Library/Class/MSC/Src/usbh_msc_scsi.c ****         {
 247:Middlewares/ST/STM32_USB_Host_Library/Class/MSC/Src/usbh_msc_scsi.c ****           inquiry->RemovableMedia = 0U;
 248:Middlewares/ST/STM32_USB_Host_Library/Class/MSC/Src/usbh_msc_scsi.c ****         }
 249:Middlewares/ST/STM32_USB_Host_Library/Class/MSC/Src/usbh_msc_scsi.c **** 
 250:Middlewares/ST/STM32_USB_Host_Library/Class/MSC/Src/usbh_msc_scsi.c ****         (void)USBH_memcpy(inquiry->vendor_id, &MSC_Handle->hbot.pbuf[8], 8U);
 251:Middlewares/ST/STM32_USB_Host_Library/Class/MSC/Src/usbh_msc_scsi.c ****         (void)USBH_memcpy(inquiry->product_id, &MSC_Handle->hbot.pbuf[16], 16U);
 252:Middlewares/ST/STM32_USB_Host_Library/Class/MSC/Src/usbh_msc_scsi.c ****         (void)USBH_memcpy(inquiry->revision_id, &MSC_Handle->hbot.pbuf[32], 4U);
 253:Middlewares/ST/STM32_USB_Host_Library/Class/MSC/Src/usbh_msc_scsi.c ****       }
 254:Middlewares/ST/STM32_USB_Host_Library/Class/MSC/Src/usbh_msc_scsi.c ****       break;
 255:Middlewares/ST/STM32_USB_Host_Library/Class/MSC/Src/usbh_msc_scsi.c **** 
 256:Middlewares/ST/STM32_USB_Host_Library/Class/MSC/Src/usbh_msc_scsi.c ****     default:
 257:Middlewares/ST/STM32_USB_Host_Library/Class/MSC/Src/usbh_msc_scsi.c ****       break;
 258:Middlewares/ST/STM32_USB_Host_Library/Class/MSC/Src/usbh_msc_scsi.c ****   }
 259:Middlewares/ST/STM32_USB_Host_Library/Class/MSC/Src/usbh_msc_scsi.c **** 
 260:Middlewares/ST/STM32_USB_Host_Library/Class/MSC/Src/usbh_msc_scsi.c ****   return error;
 289              		.loc 1 260 3 is_stmt 1 view .LVU91
 261:Middlewares/ST/STM32_USB_Host_Library/Class/MSC/Src/usbh_msc_scsi.c **** }
 290              		.loc 1 261 1 is_stmt 0 view .LVU92
 291 0018 2846     		mov	r0, r5
 292 001a 70BD     		pop	{r4, r5, r6, pc}
 293              	.LVL24:
 294              	.L12:
 211:Middlewares/ST/STM32_USB_Host_Library/Class/MSC/Src/usbh_msc_scsi.c ****       MSC_Handle->hbot.cbw.field.Flags = USB_EP_DIR_IN;
 295              		.loc 1 211 7 is_stmt 1 view .LVU93
 211:Middlewares/ST/STM32_USB_Host_Library/Class/MSC/Src/usbh_msc_scsi.c ****       MSC_Handle->hbot.cbw.field.Flags = USB_EP_DIR_IN;
 296              		.loc 1 211 53 is_stmt 0 view .LVU94
 297 001c 2422     		movs	r2, #36
 298              	.LVL25:
 211:Middlewares/ST/STM32_USB_Host_Library/Class/MSC/Src/usbh_msc_scsi.c ****       MSC_Handle->hbot.cbw.field.Flags = USB_EP_DIR_IN;
 299              		.loc 1 211 53 view .LVU95
 300 001e E265     		str	r2, [r4, #92]
 212:Middlewares/ST/STM32_USB_Host_Library/Class/MSC/Src/usbh_msc_scsi.c ****       MSC_Handle->hbot.cbw.field.CBLength = CBW_LENGTH;
 301              		.loc 1 212 7 is_stmt 1 view .LVU96
 212:Middlewares/ST/STM32_USB_Host_Library/Class/MSC/Src/usbh_msc_scsi.c ****       MSC_Handle->hbot.cbw.field.CBLength = CBW_LENGTH;
 302              		.loc 1 212 40 is_stmt 0 view .LVU97
 303 0020 8023     		movs	r3, #128
 304 0022 84F86030 		strb	r3, [r4, #96]
 213:Middlewares/ST/STM32_USB_Host_Library/Class/MSC/Src/usbh_msc_scsi.c **** 
 305              		.loc 1 213 7 is_stmt 1 view .LVU98
ARM GAS  C:\Users\benny\AppData\Local\Temp\ccucGPrV.s 			page 12


 213:Middlewares/ST/STM32_USB_Host_Library/Class/MSC/Src/usbh_msc_scsi.c **** 
 306              		.loc 1 213 43 is_stmt 0 view .LVU99
 307 0026 0A23     		movs	r3, #10
 308 0028 84F86230 		strb	r3, [r4, #98]
 215:Middlewares/ST/STM32_USB_Host_Library/Class/MSC/Src/usbh_msc_scsi.c ****       MSC_Handle->hbot.cbw.field.CB[0] = OPCODE_INQUIRY;
 309              		.loc 1 215 7 is_stmt 1 view .LVU100
 215:Middlewares/ST/STM32_USB_Host_Library/Class/MSC/Src/usbh_msc_scsi.c ****       MSC_Handle->hbot.cbw.field.CB[0] = OPCODE_INQUIRY;
 310              		.loc 1 215 13 is_stmt 0 view .LVU101
 311 002c 0023     		movs	r3, #0
 312 002e C4F86330 		str	r3, [r4, #99]	@ unaligned
 313 0032 C4F86730 		str	r3, [r4, #103]	@ unaligned
 314 0036 A4F86B30 		strh	r3, [r4, #107]	@ unaligned
 216:Middlewares/ST/STM32_USB_Host_Library/Class/MSC/Src/usbh_msc_scsi.c ****       MSC_Handle->hbot.cbw.field.CB[1] = (lun << 5);
 315              		.loc 1 216 7 is_stmt 1 view .LVU102
 216:Middlewares/ST/STM32_USB_Host_Library/Class/MSC/Src/usbh_msc_scsi.c ****       MSC_Handle->hbot.cbw.field.CB[1] = (lun << 5);
 316              		.loc 1 216 40 is_stmt 0 view .LVU103
 317 003a 1223     		movs	r3, #18
 318 003c 84F86330 		strb	r3, [r4, #99]
 217:Middlewares/ST/STM32_USB_Host_Library/Class/MSC/Src/usbh_msc_scsi.c ****       MSC_Handle->hbot.cbw.field.CB[2] = 0U;
 319              		.loc 1 217 7 is_stmt 1 view .LVU104
 217:Middlewares/ST/STM32_USB_Host_Library/Class/MSC/Src/usbh_msc_scsi.c ****       MSC_Handle->hbot.cbw.field.CB[2] = 0U;
 320              		.loc 1 217 47 is_stmt 0 view .LVU105
 321 0040 4901     		lsls	r1, r1, #5
 322              	.LVL26:
 217:Middlewares/ST/STM32_USB_Host_Library/Class/MSC/Src/usbh_msc_scsi.c ****       MSC_Handle->hbot.cbw.field.CB[2] = 0U;
 323              		.loc 1 217 40 view .LVU106
 324 0042 84F86410 		strb	r1, [r4, #100]
 218:Middlewares/ST/STM32_USB_Host_Library/Class/MSC/Src/usbh_msc_scsi.c ****       MSC_Handle->hbot.cbw.field.CB[3] = 0U;
 325              		.loc 1 218 7 is_stmt 1 view .LVU107
 219:Middlewares/ST/STM32_USB_Host_Library/Class/MSC/Src/usbh_msc_scsi.c ****       MSC_Handle->hbot.cbw.field.CB[4] = 0x24U;
 326              		.loc 1 219 7 view .LVU108
 220:Middlewares/ST/STM32_USB_Host_Library/Class/MSC/Src/usbh_msc_scsi.c ****       MSC_Handle->hbot.cbw.field.CB[5] = 0U;
 327              		.loc 1 220 7 view .LVU109
 220:Middlewares/ST/STM32_USB_Host_Library/Class/MSC/Src/usbh_msc_scsi.c ****       MSC_Handle->hbot.cbw.field.CB[5] = 0U;
 328              		.loc 1 220 40 is_stmt 0 view .LVU110
 329 0046 84F86720 		strb	r2, [r4, #103]
 221:Middlewares/ST/STM32_USB_Host_Library/Class/MSC/Src/usbh_msc_scsi.c **** 
 330              		.loc 1 221 7 is_stmt 1 view .LVU111
 223:Middlewares/ST/STM32_USB_Host_Library/Class/MSC/Src/usbh_msc_scsi.c **** 
 331              		.loc 1 223 7 view .LVU112
 223:Middlewares/ST/STM32_USB_Host_Library/Class/MSC/Src/usbh_msc_scsi.c **** 
 332              		.loc 1 223 30 is_stmt 0 view .LVU113
 333 004a 0123     		movs	r3, #1
 334 004c 84F85030 		strb	r3, [r4, #80]
 225:Middlewares/ST/STM32_USB_Host_Library/Class/MSC/Src/usbh_msc_scsi.c ****       MSC_Handle->hbot.pbuf = (uint8_t *)(void *)MSC_Handle->hbot.data;
 335              		.loc 1 225 7 is_stmt 1 view .LVU114
 225:Middlewares/ST/STM32_USB_Host_Library/Class/MSC/Src/usbh_msc_scsi.c ****       MSC_Handle->hbot.pbuf = (uint8_t *)(void *)MSC_Handle->hbot.data;
 336              		.loc 1 225 34 is_stmt 0 view .LVU115
 337 0050 0223     		movs	r3, #2
 338 0052 84F85230 		strb	r3, [r4, #82]
 226:Middlewares/ST/STM32_USB_Host_Library/Class/MSC/Src/usbh_msc_scsi.c ****       error = USBH_BUSY;
 339              		.loc 1 226 7 is_stmt 1 view .LVU116
 226:Middlewares/ST/STM32_USB_Host_Library/Class/MSC/Src/usbh_msc_scsi.c ****       error = USBH_BUSY;
 340              		.loc 1 226 50 is_stmt 0 view .LVU117
 341 0056 04F11003 		add	r3, r4, #16
 226:Middlewares/ST/STM32_USB_Host_Library/Class/MSC/Src/usbh_msc_scsi.c ****       error = USBH_BUSY;
 342              		.loc 1 226 29 view .LVU118
ARM GAS  C:\Users\benny\AppData\Local\Temp\ccucGPrV.s 			page 13


 343 005a C4F88C30 		str	r3, [r4, #140]
 227:Middlewares/ST/STM32_USB_Host_Library/Class/MSC/Src/usbh_msc_scsi.c ****       break;
 344              		.loc 1 227 7 is_stmt 1 view .LVU119
 345              	.LVL27:
 228:Middlewares/ST/STM32_USB_Host_Library/Class/MSC/Src/usbh_msc_scsi.c **** 
 346              		.loc 1 228 7 view .LVU120
 347 005e DBE7     		b	.L14
 348              	.LVL28:
 349              	.L13:
 232:Middlewares/ST/STM32_USB_Host_Library/Class/MSC/Src/usbh_msc_scsi.c **** 
 350              		.loc 1 232 7 view .LVU121
 232:Middlewares/ST/STM32_USB_Host_Library/Class/MSC/Src/usbh_msc_scsi.c **** 
 351              		.loc 1 232 15 is_stmt 0 view .LVU122
 352 0060 FFF7FEFF 		bl	USBH_MSC_BOT_Process
 353              	.LVL29:
 234:Middlewares/ST/STM32_USB_Host_Library/Class/MSC/Src/usbh_msc_scsi.c ****       {
 354              		.loc 1 234 7 is_stmt 1 view .LVU123
 234:Middlewares/ST/STM32_USB_Host_Library/Class/MSC/Src/usbh_msc_scsi.c ****       {
 355              		.loc 1 234 10 is_stmt 0 view .LVU124
 356 0064 0546     		mov	r5, r0
 357 0066 0028     		cmp	r0, #0
 358 0068 D6D1     		bne	.L14
 236:Middlewares/ST/STM32_USB_Host_Library/Class/MSC/Src/usbh_msc_scsi.c ****         /* Assign Inquiry Data */
 359              		.loc 1 236 9 is_stmt 1 view .LVU125
 236:Middlewares/ST/STM32_USB_Host_Library/Class/MSC/Src/usbh_msc_scsi.c ****         /* Assign Inquiry Data */
 360              		.loc 1 236 15 is_stmt 0 view .LVU126
 361 006a 2222     		movs	r2, #34
 362 006c 0021     		movs	r1, #0
 363 006e 3046     		mov	r0, r6
 364              	.LVL30:
 236:Middlewares/ST/STM32_USB_Host_Library/Class/MSC/Src/usbh_msc_scsi.c ****         /* Assign Inquiry Data */
 365              		.loc 1 236 15 view .LVU127
 366 0070 FFF7FEFF 		bl	memset
 367              	.LVL31:
 238:Middlewares/ST/STM32_USB_Host_Library/Class/MSC/Src/usbh_msc_scsi.c ****         inquiry->PeripheralQualifier = MSC_Handle->hbot.pbuf[0] >> 5U;
 368              		.loc 1 238 9 is_stmt 1 view .LVU128
 238:Middlewares/ST/STM32_USB_Host_Library/Class/MSC/Src/usbh_msc_scsi.c ****         inquiry->PeripheralQualifier = MSC_Handle->hbot.pbuf[0] >> 5U;
 369              		.loc 1 238 47 is_stmt 0 view .LVU129
 370 0074 D4F88C30 		ldr	r3, [r4, #140]
 238:Middlewares/ST/STM32_USB_Host_Library/Class/MSC/Src/usbh_msc_scsi.c ****         inquiry->PeripheralQualifier = MSC_Handle->hbot.pbuf[0] >> 5U;
 371              		.loc 1 238 52 view .LVU130
 372 0078 1B78     		ldrb	r3, [r3]	@ zero_extendqisi2
 238:Middlewares/ST/STM32_USB_Host_Library/Class/MSC/Src/usbh_msc_scsi.c ****         inquiry->PeripheralQualifier = MSC_Handle->hbot.pbuf[0] >> 5U;
 373              		.loc 1 238 56 view .LVU131
 374 007a 03F01F03 		and	r3, r3, #31
 238:Middlewares/ST/STM32_USB_Host_Library/Class/MSC/Src/usbh_msc_scsi.c ****         inquiry->PeripheralQualifier = MSC_Handle->hbot.pbuf[0] >> 5U;
 375              		.loc 1 238 29 view .LVU132
 376 007e 7370     		strb	r3, [r6, #1]
 239:Middlewares/ST/STM32_USB_Host_Library/Class/MSC/Src/usbh_msc_scsi.c **** 
 377              		.loc 1 239 9 is_stmt 1 view .LVU133
 239:Middlewares/ST/STM32_USB_Host_Library/Class/MSC/Src/usbh_msc_scsi.c **** 
 378              		.loc 1 239 56 is_stmt 0 view .LVU134
 379 0080 D4F88C30 		ldr	r3, [r4, #140]
 239:Middlewares/ST/STM32_USB_Host_Library/Class/MSC/Src/usbh_msc_scsi.c **** 
 380              		.loc 1 239 61 view .LVU135
 381 0084 1B78     		ldrb	r3, [r3]	@ zero_extendqisi2
 239:Middlewares/ST/STM32_USB_Host_Library/Class/MSC/Src/usbh_msc_scsi.c **** 
ARM GAS  C:\Users\benny\AppData\Local\Temp\ccucGPrV.s 			page 14


 382              		.loc 1 239 38 view .LVU136
 383 0086 5B09     		lsrs	r3, r3, #5
 384 0088 3370     		strb	r3, [r6]
 241:Middlewares/ST/STM32_USB_Host_Library/Class/MSC/Src/usbh_msc_scsi.c ****         {
 385              		.loc 1 241 9 is_stmt 1 view .LVU137
 241:Middlewares/ST/STM32_USB_Host_Library/Class/MSC/Src/usbh_msc_scsi.c ****         {
 386              		.loc 1 241 40 is_stmt 0 view .LVU138
 387 008a D4F88C30 		ldr	r3, [r4, #140]
 241:Middlewares/ST/STM32_USB_Host_Library/Class/MSC/Src/usbh_msc_scsi.c ****         {
 388              		.loc 1 241 58 view .LVU139
 389 008e 93F90130 		ldrsb	r3, [r3, #1]
 241:Middlewares/ST/STM32_USB_Host_Library/Class/MSC/Src/usbh_msc_scsi.c ****         {
 390              		.loc 1 241 12 view .LVU140
 391 0092 002B     		cmp	r3, #0
 392 0094 17DB     		blt	.L17
 393              	.L15:
 250:Middlewares/ST/STM32_USB_Host_Library/Class/MSC/Src/usbh_msc_scsi.c ****         (void)USBH_memcpy(inquiry->product_id, &MSC_Handle->hbot.pbuf[16], 16U);
 394              		.loc 1 250 9 is_stmt 1 view .LVU141
 250:Middlewares/ST/STM32_USB_Host_Library/Class/MSC/Src/usbh_msc_scsi.c ****         (void)USBH_memcpy(inquiry->product_id, &MSC_Handle->hbot.pbuf[16], 16U);
 395              		.loc 1 250 64 is_stmt 0 view .LVU142
 396 0096 D4F88C30 		ldr	r3, [r4, #140]
 250:Middlewares/ST/STM32_USB_Host_Library/Class/MSC/Src/usbh_msc_scsi.c ****         (void)USBH_memcpy(inquiry->product_id, &MSC_Handle->hbot.pbuf[16], 16U);
 397              		.loc 1 250 15 view .LVU143
 398 009a 9A68     		ldr	r2, [r3, #8]	@ unaligned
 399 009c DB68     		ldr	r3, [r3, #12]	@ unaligned
 400 009e C6F80320 		str	r2, [r6, #3]	@ unaligned
 401 00a2 C6F80730 		str	r3, [r6, #7]	@ unaligned
 251:Middlewares/ST/STM32_USB_Host_Library/Class/MSC/Src/usbh_msc_scsi.c ****         (void)USBH_memcpy(inquiry->revision_id, &MSC_Handle->hbot.pbuf[32], 4U);
 402              		.loc 1 251 9 is_stmt 1 view .LVU144
 251:Middlewares/ST/STM32_USB_Host_Library/Class/MSC/Src/usbh_msc_scsi.c ****         (void)USBH_memcpy(inquiry->revision_id, &MSC_Handle->hbot.pbuf[32], 4U);
 403              		.loc 1 251 65 is_stmt 0 view .LVU145
 404 00a6 D4F88C30 		ldr	r3, [r4, #140]
 251:Middlewares/ST/STM32_USB_Host_Library/Class/MSC/Src/usbh_msc_scsi.c ****         (void)USBH_memcpy(inquiry->revision_id, &MSC_Handle->hbot.pbuf[32], 4U);
 405              		.loc 1 251 15 view .LVU146
 406 00aa 1869     		ldr	r0, [r3, #16]	@ unaligned
 407 00ac 5969     		ldr	r1, [r3, #20]	@ unaligned
 408 00ae 9A69     		ldr	r2, [r3, #24]	@ unaligned
 409 00b0 DB69     		ldr	r3, [r3, #28]	@ unaligned
 410 00b2 F060     		str	r0, [r6, #12]	@ unaligned
 411 00b4 3161     		str	r1, [r6, #16]	@ unaligned
 412 00b6 7261     		str	r2, [r6, #20]	@ unaligned
 413 00b8 B361     		str	r3, [r6, #24]	@ unaligned
 252:Middlewares/ST/STM32_USB_Host_Library/Class/MSC/Src/usbh_msc_scsi.c ****       }
 414              		.loc 1 252 9 is_stmt 1 view .LVU147
 252:Middlewares/ST/STM32_USB_Host_Library/Class/MSC/Src/usbh_msc_scsi.c ****       }
 415              		.loc 1 252 66 is_stmt 0 view .LVU148
 416 00ba D4F88C30 		ldr	r3, [r4, #140]
 252:Middlewares/ST/STM32_USB_Host_Library/Class/MSC/Src/usbh_msc_scsi.c ****       }
 417              		.loc 1 252 15 view .LVU149
 418 00be 1B6A     		ldr	r3, [r3, #32]	@ unaligned
 419 00c0 C6F81D30 		str	r3, [r6, #29]	@ unaligned
 420 00c4 A8E7     		b	.L14
 421              	.L17:
 243:Middlewares/ST/STM32_USB_Host_Library/Class/MSC/Src/usbh_msc_scsi.c ****         }
 422              		.loc 1 243 11 is_stmt 1 view .LVU150
 243:Middlewares/ST/STM32_USB_Host_Library/Class/MSC/Src/usbh_msc_scsi.c ****         }
 423              		.loc 1 243 35 is_stmt 0 view .LVU151
ARM GAS  C:\Users\benny\AppData\Local\Temp\ccucGPrV.s 			page 15


 424 00c6 0123     		movs	r3, #1
 425 00c8 B370     		strb	r3, [r6, #2]
 426 00ca E4E7     		b	.L15
 427              		.cfi_endproc
 428              	.LFE146:
 430              		.section	.text.USBH_MSC_SCSI_RequestSense,"ax",%progbits
 431              		.align	1
 432              		.global	USBH_MSC_SCSI_RequestSense
 433              		.syntax unified
 434              		.thumb
 435              		.thumb_func
 437              	USBH_MSC_SCSI_RequestSense:
 438              	.LVL32:
 439              	.LFB147:
 262:Middlewares/ST/STM32_USB_Host_Library/Class/MSC/Src/usbh_msc_scsi.c **** 
 263:Middlewares/ST/STM32_USB_Host_Library/Class/MSC/Src/usbh_msc_scsi.c **** /**
 264:Middlewares/ST/STM32_USB_Host_Library/Class/MSC/Src/usbh_msc_scsi.c ****   * @brief  USBH_MSC_SCSI_RequestSense
 265:Middlewares/ST/STM32_USB_Host_Library/Class/MSC/Src/usbh_msc_scsi.c ****   *         Issue RequestSense command.
 266:Middlewares/ST/STM32_USB_Host_Library/Class/MSC/Src/usbh_msc_scsi.c ****   * @param  phost: Host handle
 267:Middlewares/ST/STM32_USB_Host_Library/Class/MSC/Src/usbh_msc_scsi.c ****   * @param  lun: Logical Unit Number
 268:Middlewares/ST/STM32_USB_Host_Library/Class/MSC/Src/usbh_msc_scsi.c ****   * @param  capacity: pointer to the sense data structure
 269:Middlewares/ST/STM32_USB_Host_Library/Class/MSC/Src/usbh_msc_scsi.c ****   * @retval USBH Status
 270:Middlewares/ST/STM32_USB_Host_Library/Class/MSC/Src/usbh_msc_scsi.c ****   */
 271:Middlewares/ST/STM32_USB_Host_Library/Class/MSC/Src/usbh_msc_scsi.c **** USBH_StatusTypeDef USBH_MSC_SCSI_RequestSense(USBH_HandleTypeDef *phost,
 272:Middlewares/ST/STM32_USB_Host_Library/Class/MSC/Src/usbh_msc_scsi.c ****                                               uint8_t lun,
 273:Middlewares/ST/STM32_USB_Host_Library/Class/MSC/Src/usbh_msc_scsi.c ****                                               SCSI_SenseTypeDef *sense_data)
 274:Middlewares/ST/STM32_USB_Host_Library/Class/MSC/Src/usbh_msc_scsi.c **** {
 440              		.loc 1 274 1 is_stmt 1 view -0
 441              		.cfi_startproc
 442              		@ args = 0, pretend = 0, frame = 0
 443              		@ frame_needed = 0, uses_anonymous_args = 0
 444              		.loc 1 274 1 is_stmt 0 view .LVU153
 445 0000 38B5     		push	{r3, r4, r5, lr}
 446              	.LCFI3:
 447              		.cfi_def_cfa_offset 16
 448              		.cfi_offset 3, -16
 449              		.cfi_offset 4, -12
 450              		.cfi_offset 5, -8
 451              		.cfi_offset 14, -4
 452 0002 0346     		mov	r3, r0
 275:Middlewares/ST/STM32_USB_Host_Library/Class/MSC/Src/usbh_msc_scsi.c ****   USBH_StatusTypeDef error = USBH_FAIL;
 453              		.loc 1 275 3 is_stmt 1 view .LVU154
 454              	.LVL33:
 276:Middlewares/ST/STM32_USB_Host_Library/Class/MSC/Src/usbh_msc_scsi.c ****   MSC_HandleTypeDef *MSC_Handle = (MSC_HandleTypeDef *) phost->pActiveClass->pData;
 455              		.loc 1 276 3 view .LVU155
 456              		.loc 1 276 62 is_stmt 0 view .LVU156
 457 0004 D0F84C04 		ldr	r0, [r0, #1100]
 458              	.LVL34:
 459              		.loc 1 276 22 view .LVU157
 460 0008 C469     		ldr	r4, [r0, #28]
 461              	.LVL35:
 277:Middlewares/ST/STM32_USB_Host_Library/Class/MSC/Src/usbh_msc_scsi.c **** 
 278:Middlewares/ST/STM32_USB_Host_Library/Class/MSC/Src/usbh_msc_scsi.c ****   switch (MSC_Handle->hbot.cmd_state)
 462              		.loc 1 278 3 is_stmt 1 view .LVU158
 463              		.loc 1 278 27 is_stmt 0 view .LVU159
 464 000a 94F85200 		ldrb	r0, [r4, #82]	@ zero_extendqisi2
 465              		.loc 1 278 3 view .LVU160
ARM GAS  C:\Users\benny\AppData\Local\Temp\ccucGPrV.s 			page 16


 466 000e 0128     		cmp	r0, #1
 467 0010 04D0     		beq	.L19
 468 0012 1546     		mov	r5, r2
 469 0014 0228     		cmp	r0, #2
 470 0016 25D0     		beq	.L20
 471 0018 0220     		movs	r0, #2
 472              	.LVL36:
 473              	.L21:
 279:Middlewares/ST/STM32_USB_Host_Library/Class/MSC/Src/usbh_msc_scsi.c ****   {
 280:Middlewares/ST/STM32_USB_Host_Library/Class/MSC/Src/usbh_msc_scsi.c ****     case BOT_CMD_SEND:
 281:Middlewares/ST/STM32_USB_Host_Library/Class/MSC/Src/usbh_msc_scsi.c **** 
 282:Middlewares/ST/STM32_USB_Host_Library/Class/MSC/Src/usbh_msc_scsi.c ****       /* Prepare the CBW and relevant field */
 283:Middlewares/ST/STM32_USB_Host_Library/Class/MSC/Src/usbh_msc_scsi.c ****       MSC_Handle->hbot.cbw.field.DataTransferLength = DATA_LEN_REQUEST_SENSE;
 284:Middlewares/ST/STM32_USB_Host_Library/Class/MSC/Src/usbh_msc_scsi.c ****       MSC_Handle->hbot.cbw.field.Flags = USB_EP_DIR_IN;
 285:Middlewares/ST/STM32_USB_Host_Library/Class/MSC/Src/usbh_msc_scsi.c ****       MSC_Handle->hbot.cbw.field.CBLength = CBW_LENGTH;
 286:Middlewares/ST/STM32_USB_Host_Library/Class/MSC/Src/usbh_msc_scsi.c **** 
 287:Middlewares/ST/STM32_USB_Host_Library/Class/MSC/Src/usbh_msc_scsi.c ****       (void)USBH_memset(MSC_Handle->hbot.cbw.field.CB, 0, CBW_CB_LENGTH);
 288:Middlewares/ST/STM32_USB_Host_Library/Class/MSC/Src/usbh_msc_scsi.c ****       MSC_Handle->hbot.cbw.field.CB[0] = OPCODE_REQUEST_SENSE;
 289:Middlewares/ST/STM32_USB_Host_Library/Class/MSC/Src/usbh_msc_scsi.c ****       MSC_Handle->hbot.cbw.field.CB[1] = (lun << 5);
 290:Middlewares/ST/STM32_USB_Host_Library/Class/MSC/Src/usbh_msc_scsi.c ****       MSC_Handle->hbot.cbw.field.CB[2] = 0U;
 291:Middlewares/ST/STM32_USB_Host_Library/Class/MSC/Src/usbh_msc_scsi.c ****       MSC_Handle->hbot.cbw.field.CB[3] = 0U;
 292:Middlewares/ST/STM32_USB_Host_Library/Class/MSC/Src/usbh_msc_scsi.c ****       MSC_Handle->hbot.cbw.field.CB[4] = DATA_LEN_REQUEST_SENSE;
 293:Middlewares/ST/STM32_USB_Host_Library/Class/MSC/Src/usbh_msc_scsi.c ****       MSC_Handle->hbot.cbw.field.CB[5] = 0U;
 294:Middlewares/ST/STM32_USB_Host_Library/Class/MSC/Src/usbh_msc_scsi.c **** 
 295:Middlewares/ST/STM32_USB_Host_Library/Class/MSC/Src/usbh_msc_scsi.c ****       MSC_Handle->hbot.state = BOT_SEND_CBW;
 296:Middlewares/ST/STM32_USB_Host_Library/Class/MSC/Src/usbh_msc_scsi.c ****       MSC_Handle->hbot.cmd_state = BOT_CMD_WAIT;
 297:Middlewares/ST/STM32_USB_Host_Library/Class/MSC/Src/usbh_msc_scsi.c ****       MSC_Handle->hbot.pbuf = (uint8_t *)(void *)MSC_Handle->hbot.data;
 298:Middlewares/ST/STM32_USB_Host_Library/Class/MSC/Src/usbh_msc_scsi.c ****       error = USBH_BUSY;
 299:Middlewares/ST/STM32_USB_Host_Library/Class/MSC/Src/usbh_msc_scsi.c ****       break;
 300:Middlewares/ST/STM32_USB_Host_Library/Class/MSC/Src/usbh_msc_scsi.c **** 
 301:Middlewares/ST/STM32_USB_Host_Library/Class/MSC/Src/usbh_msc_scsi.c ****     case BOT_CMD_WAIT:
 302:Middlewares/ST/STM32_USB_Host_Library/Class/MSC/Src/usbh_msc_scsi.c **** 
 303:Middlewares/ST/STM32_USB_Host_Library/Class/MSC/Src/usbh_msc_scsi.c ****       error = USBH_MSC_BOT_Process(phost, lun);
 304:Middlewares/ST/STM32_USB_Host_Library/Class/MSC/Src/usbh_msc_scsi.c **** 
 305:Middlewares/ST/STM32_USB_Host_Library/Class/MSC/Src/usbh_msc_scsi.c ****       if (error == USBH_OK)
 306:Middlewares/ST/STM32_USB_Host_Library/Class/MSC/Src/usbh_msc_scsi.c ****       {
 307:Middlewares/ST/STM32_USB_Host_Library/Class/MSC/Src/usbh_msc_scsi.c ****         sense_data->key  = MSC_Handle->hbot.pbuf[2] & 0x0FU;
 308:Middlewares/ST/STM32_USB_Host_Library/Class/MSC/Src/usbh_msc_scsi.c ****         sense_data->asc  = MSC_Handle->hbot.pbuf[12];
 309:Middlewares/ST/STM32_USB_Host_Library/Class/MSC/Src/usbh_msc_scsi.c ****         sense_data->ascq = MSC_Handle->hbot.pbuf[13];
 310:Middlewares/ST/STM32_USB_Host_Library/Class/MSC/Src/usbh_msc_scsi.c **** 
 311:Middlewares/ST/STM32_USB_Host_Library/Class/MSC/Src/usbh_msc_scsi.c ****         if (sense_data->asc == SCSI_ASC_MEDIUM_NOT_PRESENT)
 312:Middlewares/ST/STM32_USB_Host_Library/Class/MSC/Src/usbh_msc_scsi.c ****         {
 313:Middlewares/ST/STM32_USB_Host_Library/Class/MSC/Src/usbh_msc_scsi.c ****           USBH_UsrLog("MSC Device MEDIUM not present");
 314:Middlewares/ST/STM32_USB_Host_Library/Class/MSC/Src/usbh_msc_scsi.c ****           error = USBH_UNRECOVERED_ERROR;
 315:Middlewares/ST/STM32_USB_Host_Library/Class/MSC/Src/usbh_msc_scsi.c ****         }
 316:Middlewares/ST/STM32_USB_Host_Library/Class/MSC/Src/usbh_msc_scsi.c **** 
 317:Middlewares/ST/STM32_USB_Host_Library/Class/MSC/Src/usbh_msc_scsi.c ****       }
 318:Middlewares/ST/STM32_USB_Host_Library/Class/MSC/Src/usbh_msc_scsi.c ****       break;
 319:Middlewares/ST/STM32_USB_Host_Library/Class/MSC/Src/usbh_msc_scsi.c **** 
 320:Middlewares/ST/STM32_USB_Host_Library/Class/MSC/Src/usbh_msc_scsi.c ****     default:
 321:Middlewares/ST/STM32_USB_Host_Library/Class/MSC/Src/usbh_msc_scsi.c ****       break;
 322:Middlewares/ST/STM32_USB_Host_Library/Class/MSC/Src/usbh_msc_scsi.c ****   }
 323:Middlewares/ST/STM32_USB_Host_Library/Class/MSC/Src/usbh_msc_scsi.c **** 
 324:Middlewares/ST/STM32_USB_Host_Library/Class/MSC/Src/usbh_msc_scsi.c ****   return error;
 474              		.loc 1 324 3 is_stmt 1 view .LVU161
 325:Middlewares/ST/STM32_USB_Host_Library/Class/MSC/Src/usbh_msc_scsi.c **** }
 475              		.loc 1 325 1 is_stmt 0 view .LVU162
ARM GAS  C:\Users\benny\AppData\Local\Temp\ccucGPrV.s 			page 17


 476 001a 38BD     		pop	{r3, r4, r5, pc}
 477              	.LVL37:
 478              	.L19:
 283:Middlewares/ST/STM32_USB_Host_Library/Class/MSC/Src/usbh_msc_scsi.c ****       MSC_Handle->hbot.cbw.field.Flags = USB_EP_DIR_IN;
 479              		.loc 1 283 7 is_stmt 1 view .LVU163
 283:Middlewares/ST/STM32_USB_Host_Library/Class/MSC/Src/usbh_msc_scsi.c ****       MSC_Handle->hbot.cbw.field.Flags = USB_EP_DIR_IN;
 480              		.loc 1 283 53 is_stmt 0 view .LVU164
 481 001c 0E22     		movs	r2, #14
 482              	.LVL38:
 283:Middlewares/ST/STM32_USB_Host_Library/Class/MSC/Src/usbh_msc_scsi.c ****       MSC_Handle->hbot.cbw.field.Flags = USB_EP_DIR_IN;
 483              		.loc 1 283 53 view .LVU165
 484 001e E265     		str	r2, [r4, #92]
 284:Middlewares/ST/STM32_USB_Host_Library/Class/MSC/Src/usbh_msc_scsi.c ****       MSC_Handle->hbot.cbw.field.CBLength = CBW_LENGTH;
 485              		.loc 1 284 7 is_stmt 1 view .LVU166
 284:Middlewares/ST/STM32_USB_Host_Library/Class/MSC/Src/usbh_msc_scsi.c ****       MSC_Handle->hbot.cbw.field.CBLength = CBW_LENGTH;
 486              		.loc 1 284 40 is_stmt 0 view .LVU167
 487 0020 8023     		movs	r3, #128
 488              	.LVL39:
 284:Middlewares/ST/STM32_USB_Host_Library/Class/MSC/Src/usbh_msc_scsi.c ****       MSC_Handle->hbot.cbw.field.CBLength = CBW_LENGTH;
 489              		.loc 1 284 40 view .LVU168
 490 0022 84F86030 		strb	r3, [r4, #96]
 285:Middlewares/ST/STM32_USB_Host_Library/Class/MSC/Src/usbh_msc_scsi.c **** 
 491              		.loc 1 285 7 is_stmt 1 view .LVU169
 285:Middlewares/ST/STM32_USB_Host_Library/Class/MSC/Src/usbh_msc_scsi.c **** 
 492              		.loc 1 285 43 is_stmt 0 view .LVU170
 493 0026 0A23     		movs	r3, #10
 494 0028 84F86230 		strb	r3, [r4, #98]
 287:Middlewares/ST/STM32_USB_Host_Library/Class/MSC/Src/usbh_msc_scsi.c ****       MSC_Handle->hbot.cbw.field.CB[0] = OPCODE_REQUEST_SENSE;
 495              		.loc 1 287 7 is_stmt 1 view .LVU171
 287:Middlewares/ST/STM32_USB_Host_Library/Class/MSC/Src/usbh_msc_scsi.c ****       MSC_Handle->hbot.cbw.field.CB[0] = OPCODE_REQUEST_SENSE;
 496              		.loc 1 287 13 is_stmt 0 view .LVU172
 497 002c 0023     		movs	r3, #0
 498 002e C4F86330 		str	r3, [r4, #99]	@ unaligned
 499 0032 C4F86730 		str	r3, [r4, #103]	@ unaligned
 500 0036 C4F86B30 		str	r3, [r4, #107]	@ unaligned
 501 003a C4F86F30 		str	r3, [r4, #111]	@ unaligned
 288:Middlewares/ST/STM32_USB_Host_Library/Class/MSC/Src/usbh_msc_scsi.c ****       MSC_Handle->hbot.cbw.field.CB[1] = (lun << 5);
 502              		.loc 1 288 7 is_stmt 1 view .LVU173
 288:Middlewares/ST/STM32_USB_Host_Library/Class/MSC/Src/usbh_msc_scsi.c ****       MSC_Handle->hbot.cbw.field.CB[1] = (lun << 5);
 503              		.loc 1 288 40 is_stmt 0 view .LVU174
 504 003e 0323     		movs	r3, #3
 505 0040 84F86330 		strb	r3, [r4, #99]
 289:Middlewares/ST/STM32_USB_Host_Library/Class/MSC/Src/usbh_msc_scsi.c ****       MSC_Handle->hbot.cbw.field.CB[2] = 0U;
 506              		.loc 1 289 7 is_stmt 1 view .LVU175
 289:Middlewares/ST/STM32_USB_Host_Library/Class/MSC/Src/usbh_msc_scsi.c ****       MSC_Handle->hbot.cbw.field.CB[2] = 0U;
 507              		.loc 1 289 47 is_stmt 0 view .LVU176
 508 0044 4901     		lsls	r1, r1, #5
 509              	.LVL40:
 289:Middlewares/ST/STM32_USB_Host_Library/Class/MSC/Src/usbh_msc_scsi.c ****       MSC_Handle->hbot.cbw.field.CB[2] = 0U;
 510              		.loc 1 289 40 view .LVU177
 511 0046 84F86410 		strb	r1, [r4, #100]
 290:Middlewares/ST/STM32_USB_Host_Library/Class/MSC/Src/usbh_msc_scsi.c ****       MSC_Handle->hbot.cbw.field.CB[3] = 0U;
 512              		.loc 1 290 7 is_stmt 1 view .LVU178
 291:Middlewares/ST/STM32_USB_Host_Library/Class/MSC/Src/usbh_msc_scsi.c ****       MSC_Handle->hbot.cbw.field.CB[4] = DATA_LEN_REQUEST_SENSE;
 513              		.loc 1 291 7 view .LVU179
 292:Middlewares/ST/STM32_USB_Host_Library/Class/MSC/Src/usbh_msc_scsi.c ****       MSC_Handle->hbot.cbw.field.CB[5] = 0U;
 514              		.loc 1 292 7 view .LVU180
ARM GAS  C:\Users\benny\AppData\Local\Temp\ccucGPrV.s 			page 18


 292:Middlewares/ST/STM32_USB_Host_Library/Class/MSC/Src/usbh_msc_scsi.c ****       MSC_Handle->hbot.cbw.field.CB[5] = 0U;
 515              		.loc 1 292 40 is_stmt 0 view .LVU181
 516 004a 84F86720 		strb	r2, [r4, #103]
 293:Middlewares/ST/STM32_USB_Host_Library/Class/MSC/Src/usbh_msc_scsi.c **** 
 517              		.loc 1 293 7 is_stmt 1 view .LVU182
 295:Middlewares/ST/STM32_USB_Host_Library/Class/MSC/Src/usbh_msc_scsi.c ****       MSC_Handle->hbot.cmd_state = BOT_CMD_WAIT;
 518              		.loc 1 295 7 view .LVU183
 295:Middlewares/ST/STM32_USB_Host_Library/Class/MSC/Src/usbh_msc_scsi.c ****       MSC_Handle->hbot.cmd_state = BOT_CMD_WAIT;
 519              		.loc 1 295 30 is_stmt 0 view .LVU184
 520 004e 0123     		movs	r3, #1
 521 0050 84F85030 		strb	r3, [r4, #80]
 296:Middlewares/ST/STM32_USB_Host_Library/Class/MSC/Src/usbh_msc_scsi.c ****       MSC_Handle->hbot.pbuf = (uint8_t *)(void *)MSC_Handle->hbot.data;
 522              		.loc 1 296 7 is_stmt 1 view .LVU185
 296:Middlewares/ST/STM32_USB_Host_Library/Class/MSC/Src/usbh_msc_scsi.c ****       MSC_Handle->hbot.pbuf = (uint8_t *)(void *)MSC_Handle->hbot.data;
 523              		.loc 1 296 34 is_stmt 0 view .LVU186
 524 0054 0223     		movs	r3, #2
 525 0056 84F85230 		strb	r3, [r4, #82]
 297:Middlewares/ST/STM32_USB_Host_Library/Class/MSC/Src/usbh_msc_scsi.c ****       error = USBH_BUSY;
 526              		.loc 1 297 7 is_stmt 1 view .LVU187
 297:Middlewares/ST/STM32_USB_Host_Library/Class/MSC/Src/usbh_msc_scsi.c ****       error = USBH_BUSY;
 527              		.loc 1 297 50 is_stmt 0 view .LVU188
 528 005a 04F11003 		add	r3, r4, #16
 297:Middlewares/ST/STM32_USB_Host_Library/Class/MSC/Src/usbh_msc_scsi.c ****       error = USBH_BUSY;
 529              		.loc 1 297 29 view .LVU189
 530 005e C4F88C30 		str	r3, [r4, #140]
 298:Middlewares/ST/STM32_USB_Host_Library/Class/MSC/Src/usbh_msc_scsi.c ****       break;
 531              		.loc 1 298 7 is_stmt 1 view .LVU190
 532              	.LVL41:
 299:Middlewares/ST/STM32_USB_Host_Library/Class/MSC/Src/usbh_msc_scsi.c **** 
 533              		.loc 1 299 7 view .LVU191
 534 0062 DAE7     		b	.L21
 535              	.LVL42:
 536              	.L20:
 303:Middlewares/ST/STM32_USB_Host_Library/Class/MSC/Src/usbh_msc_scsi.c **** 
 537              		.loc 1 303 7 view .LVU192
 303:Middlewares/ST/STM32_USB_Host_Library/Class/MSC/Src/usbh_msc_scsi.c **** 
 538              		.loc 1 303 15 is_stmt 0 view .LVU193
 539 0064 1846     		mov	r0, r3
 540 0066 FFF7FEFF 		bl	USBH_MSC_BOT_Process
 541              	.LVL43:
 305:Middlewares/ST/STM32_USB_Host_Library/Class/MSC/Src/usbh_msc_scsi.c ****       {
 542              		.loc 1 305 7 is_stmt 1 view .LVU194
 305:Middlewares/ST/STM32_USB_Host_Library/Class/MSC/Src/usbh_msc_scsi.c ****       {
 543              		.loc 1 305 10 is_stmt 0 view .LVU195
 544 006a 0028     		cmp	r0, #0
 545 006c D5D1     		bne	.L21
 307:Middlewares/ST/STM32_USB_Host_Library/Class/MSC/Src/usbh_msc_scsi.c ****         sense_data->asc  = MSC_Handle->hbot.pbuf[12];
 546              		.loc 1 307 9 is_stmt 1 view .LVU196
 307:Middlewares/ST/STM32_USB_Host_Library/Class/MSC/Src/usbh_msc_scsi.c ****         sense_data->asc  = MSC_Handle->hbot.pbuf[12];
 547              		.loc 1 307 44 is_stmt 0 view .LVU197
 548 006e D4F88C30 		ldr	r3, [r4, #140]
 307:Middlewares/ST/STM32_USB_Host_Library/Class/MSC/Src/usbh_msc_scsi.c ****         sense_data->asc  = MSC_Handle->hbot.pbuf[12];
 549              		.loc 1 307 49 view .LVU198
 550 0072 9B78     		ldrb	r3, [r3, #2]	@ zero_extendqisi2
 307:Middlewares/ST/STM32_USB_Host_Library/Class/MSC/Src/usbh_msc_scsi.c ****         sense_data->asc  = MSC_Handle->hbot.pbuf[12];
 551              		.loc 1 307 53 view .LVU199
 552 0074 03F00F03 		and	r3, r3, #15
ARM GAS  C:\Users\benny\AppData\Local\Temp\ccucGPrV.s 			page 19


 307:Middlewares/ST/STM32_USB_Host_Library/Class/MSC/Src/usbh_msc_scsi.c ****         sense_data->asc  = MSC_Handle->hbot.pbuf[12];
 553              		.loc 1 307 26 view .LVU200
 554 0078 2B70     		strb	r3, [r5]
 308:Middlewares/ST/STM32_USB_Host_Library/Class/MSC/Src/usbh_msc_scsi.c ****         sense_data->ascq = MSC_Handle->hbot.pbuf[13];
 555              		.loc 1 308 9 is_stmt 1 view .LVU201
 308:Middlewares/ST/STM32_USB_Host_Library/Class/MSC/Src/usbh_msc_scsi.c ****         sense_data->ascq = MSC_Handle->hbot.pbuf[13];
 556              		.loc 1 308 44 is_stmt 0 view .LVU202
 557 007a D4F88C30 		ldr	r3, [r4, #140]
 308:Middlewares/ST/STM32_USB_Host_Library/Class/MSC/Src/usbh_msc_scsi.c ****         sense_data->ascq = MSC_Handle->hbot.pbuf[13];
 558              		.loc 1 308 26 view .LVU203
 559 007e 1B7B     		ldrb	r3, [r3, #12]	@ zero_extendqisi2
 560 0080 6B70     		strb	r3, [r5, #1]
 309:Middlewares/ST/STM32_USB_Host_Library/Class/MSC/Src/usbh_msc_scsi.c **** 
 561              		.loc 1 309 9 is_stmt 1 view .LVU204
 309:Middlewares/ST/STM32_USB_Host_Library/Class/MSC/Src/usbh_msc_scsi.c **** 
 562              		.loc 1 309 44 is_stmt 0 view .LVU205
 563 0082 D4F88C20 		ldr	r2, [r4, #140]
 309:Middlewares/ST/STM32_USB_Host_Library/Class/MSC/Src/usbh_msc_scsi.c **** 
 564              		.loc 1 309 26 view .LVU206
 565 0086 527B     		ldrb	r2, [r2, #13]	@ zero_extendqisi2
 566 0088 AA70     		strb	r2, [r5, #2]
 311:Middlewares/ST/STM32_USB_Host_Library/Class/MSC/Src/usbh_msc_scsi.c ****         {
 567              		.loc 1 311 9 is_stmt 1 view .LVU207
 311:Middlewares/ST/STM32_USB_Host_Library/Class/MSC/Src/usbh_msc_scsi.c ****         {
 568              		.loc 1 311 12 is_stmt 0 view .LVU208
 569 008a 3A2B     		cmp	r3, #58
 570 008c C5D1     		bne	.L21
 314:Middlewares/ST/STM32_USB_Host_Library/Class/MSC/Src/usbh_msc_scsi.c ****         }
 571              		.loc 1 314 17 view .LVU209
 572 008e 0420     		movs	r0, #4
 573              	.LVL44:
 314:Middlewares/ST/STM32_USB_Host_Library/Class/MSC/Src/usbh_msc_scsi.c ****         }
 574              		.loc 1 314 17 view .LVU210
 575 0090 C3E7     		b	.L21
 576              		.cfi_endproc
 577              	.LFE147:
 579              		.section	.text.USBH_MSC_SCSI_Write,"ax",%progbits
 580              		.align	1
 581              		.global	USBH_MSC_SCSI_Write
 582              		.syntax unified
 583              		.thumb
 584              		.thumb_func
 586              	USBH_MSC_SCSI_Write:
 587              	.LVL45:
 588              	.LFB148:
 326:Middlewares/ST/STM32_USB_Host_Library/Class/MSC/Src/usbh_msc_scsi.c **** 
 327:Middlewares/ST/STM32_USB_Host_Library/Class/MSC/Src/usbh_msc_scsi.c **** /**
 328:Middlewares/ST/STM32_USB_Host_Library/Class/MSC/Src/usbh_msc_scsi.c ****   * @brief  USBH_MSC_SCSI_Write
 329:Middlewares/ST/STM32_USB_Host_Library/Class/MSC/Src/usbh_msc_scsi.c ****   *         Issue write10 command.
 330:Middlewares/ST/STM32_USB_Host_Library/Class/MSC/Src/usbh_msc_scsi.c ****   * @param  phost: Host handle
 331:Middlewares/ST/STM32_USB_Host_Library/Class/MSC/Src/usbh_msc_scsi.c ****   * @param  lun: Logical Unit Number
 332:Middlewares/ST/STM32_USB_Host_Library/Class/MSC/Src/usbh_msc_scsi.c ****   * @param  address: sector address
 333:Middlewares/ST/STM32_USB_Host_Library/Class/MSC/Src/usbh_msc_scsi.c ****   * @param  pbuf: pointer to data
 334:Middlewares/ST/STM32_USB_Host_Library/Class/MSC/Src/usbh_msc_scsi.c ****   * @param  length: number of sector to write
 335:Middlewares/ST/STM32_USB_Host_Library/Class/MSC/Src/usbh_msc_scsi.c ****   * @retval USBH Status
 336:Middlewares/ST/STM32_USB_Host_Library/Class/MSC/Src/usbh_msc_scsi.c ****   */
 337:Middlewares/ST/STM32_USB_Host_Library/Class/MSC/Src/usbh_msc_scsi.c **** USBH_StatusTypeDef USBH_MSC_SCSI_Write(USBH_HandleTypeDef *phost,
ARM GAS  C:\Users\benny\AppData\Local\Temp\ccucGPrV.s 			page 20


 338:Middlewares/ST/STM32_USB_Host_Library/Class/MSC/Src/usbh_msc_scsi.c ****                                        uint8_t lun,
 339:Middlewares/ST/STM32_USB_Host_Library/Class/MSC/Src/usbh_msc_scsi.c ****                                        uint32_t address,
 340:Middlewares/ST/STM32_USB_Host_Library/Class/MSC/Src/usbh_msc_scsi.c ****                                        uint8_t *pbuf,
 341:Middlewares/ST/STM32_USB_Host_Library/Class/MSC/Src/usbh_msc_scsi.c ****                                        uint32_t length)
 342:Middlewares/ST/STM32_USB_Host_Library/Class/MSC/Src/usbh_msc_scsi.c **** {
 589              		.loc 1 342 1 is_stmt 1 view -0
 590              		.cfi_startproc
 591              		@ args = 4, pretend = 0, frame = 0
 592              		@ frame_needed = 0, uses_anonymous_args = 0
 593              		.loc 1 342 1 is_stmt 0 view .LVU212
 594 0000 38B5     		push	{r3, r4, r5, lr}
 595              	.LCFI4:
 596              		.cfi_def_cfa_offset 16
 597              		.cfi_offset 3, -16
 598              		.cfi_offset 4, -12
 599              		.cfi_offset 5, -8
 600              		.cfi_offset 14, -4
 601 0002 8446     		mov	ip, r0
 343:Middlewares/ST/STM32_USB_Host_Library/Class/MSC/Src/usbh_msc_scsi.c ****   USBH_StatusTypeDef    error = USBH_FAIL;
 602              		.loc 1 343 3 is_stmt 1 view .LVU213
 603              	.LVL46:
 344:Middlewares/ST/STM32_USB_Host_Library/Class/MSC/Src/usbh_msc_scsi.c **** 
 345:Middlewares/ST/STM32_USB_Host_Library/Class/MSC/Src/usbh_msc_scsi.c ****   MSC_HandleTypeDef *MSC_Handle = (MSC_HandleTypeDef *) phost->pActiveClass->pData;
 604              		.loc 1 345 3 view .LVU214
 605              		.loc 1 345 62 is_stmt 0 view .LVU215
 606 0004 D0F84C04 		ldr	r0, [r0, #1100]
 607              	.LVL47:
 608              		.loc 1 345 22 view .LVU216
 609 0008 C469     		ldr	r4, [r0, #28]
 610              	.LVL48:
 346:Middlewares/ST/STM32_USB_Host_Library/Class/MSC/Src/usbh_msc_scsi.c **** 
 347:Middlewares/ST/STM32_USB_Host_Library/Class/MSC/Src/usbh_msc_scsi.c ****   switch (MSC_Handle->hbot.cmd_state)
 611              		.loc 1 347 3 is_stmt 1 view .LVU217
 612              		.loc 1 347 27 is_stmt 0 view .LVU218
 613 000a 94F85200 		ldrb	r0, [r4, #82]	@ zero_extendqisi2
 614              		.loc 1 347 3 view .LVU219
 615 000e 0128     		cmp	r0, #1
 616 0010 03D0     		beq	.L25
 617 0012 0228     		cmp	r0, #2
 618 0014 3AD0     		beq	.L26
 619 0016 0220     		movs	r0, #2
 620              	.LVL49:
 621              	.L27:
 348:Middlewares/ST/STM32_USB_Host_Library/Class/MSC/Src/usbh_msc_scsi.c ****   {
 349:Middlewares/ST/STM32_USB_Host_Library/Class/MSC/Src/usbh_msc_scsi.c ****     case BOT_CMD_SEND:
 350:Middlewares/ST/STM32_USB_Host_Library/Class/MSC/Src/usbh_msc_scsi.c **** 
 351:Middlewares/ST/STM32_USB_Host_Library/Class/MSC/Src/usbh_msc_scsi.c ****       /* Prepare the CBW and relevant field */
 352:Middlewares/ST/STM32_USB_Host_Library/Class/MSC/Src/usbh_msc_scsi.c ****       MSC_Handle->hbot.cbw.field.DataTransferLength = length * MSC_Handle->unit[lun].capacity.block
 353:Middlewares/ST/STM32_USB_Host_Library/Class/MSC/Src/usbh_msc_scsi.c ****       MSC_Handle->hbot.cbw.field.Flags = USB_EP_DIR_OUT;
 354:Middlewares/ST/STM32_USB_Host_Library/Class/MSC/Src/usbh_msc_scsi.c ****       MSC_Handle->hbot.cbw.field.CBLength = CBW_LENGTH;
 355:Middlewares/ST/STM32_USB_Host_Library/Class/MSC/Src/usbh_msc_scsi.c **** 
 356:Middlewares/ST/STM32_USB_Host_Library/Class/MSC/Src/usbh_msc_scsi.c ****       (void)USBH_memset(MSC_Handle->hbot.cbw.field.CB, 0, CBW_CB_LENGTH);
 357:Middlewares/ST/STM32_USB_Host_Library/Class/MSC/Src/usbh_msc_scsi.c ****       MSC_Handle->hbot.cbw.field.CB[0] = OPCODE_WRITE10;
 358:Middlewares/ST/STM32_USB_Host_Library/Class/MSC/Src/usbh_msc_scsi.c **** 
 359:Middlewares/ST/STM32_USB_Host_Library/Class/MSC/Src/usbh_msc_scsi.c ****       /* Logical block address */
 360:Middlewares/ST/STM32_USB_Host_Library/Class/MSC/Src/usbh_msc_scsi.c ****       MSC_Handle->hbot.cbw.field.CB[2] = (((uint8_t *)(void *)&address)[3]);
 361:Middlewares/ST/STM32_USB_Host_Library/Class/MSC/Src/usbh_msc_scsi.c ****       MSC_Handle->hbot.cbw.field.CB[3] = (((uint8_t *)(void *)&address)[2]);
ARM GAS  C:\Users\benny\AppData\Local\Temp\ccucGPrV.s 			page 21


 362:Middlewares/ST/STM32_USB_Host_Library/Class/MSC/Src/usbh_msc_scsi.c ****       MSC_Handle->hbot.cbw.field.CB[4] = (((uint8_t *)(void *)&address)[1]);
 363:Middlewares/ST/STM32_USB_Host_Library/Class/MSC/Src/usbh_msc_scsi.c ****       MSC_Handle->hbot.cbw.field.CB[5] = (((uint8_t *)(void *)&address)[0]);
 364:Middlewares/ST/STM32_USB_Host_Library/Class/MSC/Src/usbh_msc_scsi.c **** 
 365:Middlewares/ST/STM32_USB_Host_Library/Class/MSC/Src/usbh_msc_scsi.c **** 
 366:Middlewares/ST/STM32_USB_Host_Library/Class/MSC/Src/usbh_msc_scsi.c ****       /*Transfer length */
 367:Middlewares/ST/STM32_USB_Host_Library/Class/MSC/Src/usbh_msc_scsi.c ****       MSC_Handle->hbot.cbw.field.CB[7] = (((uint8_t *)(void *)&length)[1]);
 368:Middlewares/ST/STM32_USB_Host_Library/Class/MSC/Src/usbh_msc_scsi.c ****       MSC_Handle->hbot.cbw.field.CB[8] = (((uint8_t *)(void *)&length)[0]);
 369:Middlewares/ST/STM32_USB_Host_Library/Class/MSC/Src/usbh_msc_scsi.c **** 
 370:Middlewares/ST/STM32_USB_Host_Library/Class/MSC/Src/usbh_msc_scsi.c **** 
 371:Middlewares/ST/STM32_USB_Host_Library/Class/MSC/Src/usbh_msc_scsi.c ****       MSC_Handle->hbot.state = BOT_SEND_CBW;
 372:Middlewares/ST/STM32_USB_Host_Library/Class/MSC/Src/usbh_msc_scsi.c ****       MSC_Handle->hbot.cmd_state = BOT_CMD_WAIT;
 373:Middlewares/ST/STM32_USB_Host_Library/Class/MSC/Src/usbh_msc_scsi.c ****       MSC_Handle->hbot.pbuf = pbuf;
 374:Middlewares/ST/STM32_USB_Host_Library/Class/MSC/Src/usbh_msc_scsi.c ****       error = USBH_BUSY;
 375:Middlewares/ST/STM32_USB_Host_Library/Class/MSC/Src/usbh_msc_scsi.c ****       break;
 376:Middlewares/ST/STM32_USB_Host_Library/Class/MSC/Src/usbh_msc_scsi.c **** 
 377:Middlewares/ST/STM32_USB_Host_Library/Class/MSC/Src/usbh_msc_scsi.c ****     case BOT_CMD_WAIT:
 378:Middlewares/ST/STM32_USB_Host_Library/Class/MSC/Src/usbh_msc_scsi.c ****       error = USBH_MSC_BOT_Process(phost, lun);
 379:Middlewares/ST/STM32_USB_Host_Library/Class/MSC/Src/usbh_msc_scsi.c ****       break;
 380:Middlewares/ST/STM32_USB_Host_Library/Class/MSC/Src/usbh_msc_scsi.c **** 
 381:Middlewares/ST/STM32_USB_Host_Library/Class/MSC/Src/usbh_msc_scsi.c ****     default:
 382:Middlewares/ST/STM32_USB_Host_Library/Class/MSC/Src/usbh_msc_scsi.c ****       break;
 383:Middlewares/ST/STM32_USB_Host_Library/Class/MSC/Src/usbh_msc_scsi.c ****   }
 384:Middlewares/ST/STM32_USB_Host_Library/Class/MSC/Src/usbh_msc_scsi.c **** 
 385:Middlewares/ST/STM32_USB_Host_Library/Class/MSC/Src/usbh_msc_scsi.c ****   return error;
 622              		.loc 1 385 3 is_stmt 1 view .LVU220
 386:Middlewares/ST/STM32_USB_Host_Library/Class/MSC/Src/usbh_msc_scsi.c **** }
 623              		.loc 1 386 1 is_stmt 0 view .LVU221
 624 0018 38BD     		pop	{r3, r4, r5, pc}
 625              	.LVL50:
 626              	.L25:
 352:Middlewares/ST/STM32_USB_Host_Library/Class/MSC/Src/usbh_msc_scsi.c ****       MSC_Handle->hbot.cbw.field.Flags = USB_EP_DIR_OUT;
 627              		.loc 1 352 7 is_stmt 1 view .LVU222
 352:Middlewares/ST/STM32_USB_Host_Library/Class/MSC/Src/usbh_msc_scsi.c ****       MSC_Handle->hbot.cbw.field.Flags = USB_EP_DIR_OUT;
 628              		.loc 1 352 94 is_stmt 0 view .LVU223
 629 001a 4FF0340C 		mov	ip, #52
 630              	.LVL51:
 352:Middlewares/ST/STM32_USB_Host_Library/Class/MSC/Src/usbh_msc_scsi.c ****       MSC_Handle->hbot.cbw.field.Flags = USB_EP_DIR_OUT;
 631              		.loc 1 352 94 view .LVU224
 632 001e 0CFB0141 		mla	r1, ip, r1, r4
 633              	.LVL52:
 352:Middlewares/ST/STM32_USB_Host_Library/Class/MSC/Src/usbh_msc_scsi.c ****       MSC_Handle->hbot.cbw.field.Flags = USB_EP_DIR_OUT;
 634              		.loc 1 352 94 view .LVU225
 635 0022 B1F89810 		ldrh	r1, [r1, #152]
 352:Middlewares/ST/STM32_USB_Host_Library/Class/MSC/Src/usbh_msc_scsi.c ****       MSC_Handle->hbot.cbw.field.Flags = USB_EP_DIR_OUT;
 636              		.loc 1 352 62 view .LVU226
 637 0026 049D     		ldr	r5, [sp, #16]
 638 0028 05FB01F1 		mul	r1, r5, r1
 352:Middlewares/ST/STM32_USB_Host_Library/Class/MSC/Src/usbh_msc_scsi.c ****       MSC_Handle->hbot.cbw.field.Flags = USB_EP_DIR_OUT;
 639              		.loc 1 352 53 view .LVU227
 640 002c E165     		str	r1, [r4, #92]
 353:Middlewares/ST/STM32_USB_Host_Library/Class/MSC/Src/usbh_msc_scsi.c ****       MSC_Handle->hbot.cbw.field.CBLength = CBW_LENGTH;
 641              		.loc 1 353 7 is_stmt 1 view .LVU228
 353:Middlewares/ST/STM32_USB_Host_Library/Class/MSC/Src/usbh_msc_scsi.c ****       MSC_Handle->hbot.cbw.field.CBLength = CBW_LENGTH;
 642              		.loc 1 353 40 is_stmt 0 view .LVU229
 643 002e 0021     		movs	r1, #0
 644 0030 84F86010 		strb	r1, [r4, #96]
 354:Middlewares/ST/STM32_USB_Host_Library/Class/MSC/Src/usbh_msc_scsi.c **** 
ARM GAS  C:\Users\benny\AppData\Local\Temp\ccucGPrV.s 			page 22


 645              		.loc 1 354 7 is_stmt 1 view .LVU230
 354:Middlewares/ST/STM32_USB_Host_Library/Class/MSC/Src/usbh_msc_scsi.c **** 
 646              		.loc 1 354 43 is_stmt 0 view .LVU231
 647 0034 4FF00A0C 		mov	ip, #10
 648 0038 84F862C0 		strb	ip, [r4, #98]
 356:Middlewares/ST/STM32_USB_Host_Library/Class/MSC/Src/usbh_msc_scsi.c ****       MSC_Handle->hbot.cbw.field.CB[0] = OPCODE_WRITE10;
 649              		.loc 1 356 7 is_stmt 1 view .LVU232
 356:Middlewares/ST/STM32_USB_Host_Library/Class/MSC/Src/usbh_msc_scsi.c ****       MSC_Handle->hbot.cbw.field.CB[0] = OPCODE_WRITE10;
 650              		.loc 1 356 13 is_stmt 0 view .LVU233
 651 003c C4F86310 		str	r1, [r4, #99]	@ unaligned
 652 0040 C4F86710 		str	r1, [r4, #103]	@ unaligned
 653 0044 C4F86B10 		str	r1, [r4, #107]	@ unaligned
 654 0048 C4F86F10 		str	r1, [r4, #111]	@ unaligned
 357:Middlewares/ST/STM32_USB_Host_Library/Class/MSC/Src/usbh_msc_scsi.c **** 
 655              		.loc 1 357 7 is_stmt 1 view .LVU234
 357:Middlewares/ST/STM32_USB_Host_Library/Class/MSC/Src/usbh_msc_scsi.c **** 
 656              		.loc 1 357 40 is_stmt 0 view .LVU235
 657 004c 2A21     		movs	r1, #42
 658 004e 84F86310 		strb	r1, [r4, #99]
 360:Middlewares/ST/STM32_USB_Host_Library/Class/MSC/Src/usbh_msc_scsi.c ****       MSC_Handle->hbot.cbw.field.CB[3] = (((uint8_t *)(void *)&address)[2]);
 659              		.loc 1 360 7 is_stmt 1 view .LVU236
 360:Middlewares/ST/STM32_USB_Host_Library/Class/MSC/Src/usbh_msc_scsi.c ****       MSC_Handle->hbot.cbw.field.CB[3] = (((uint8_t *)(void *)&address)[2]);
 660              		.loc 1 360 40 is_stmt 0 view .LVU237
 661 0052 C2F30761 		ubfx	r1, r2, #24, #8
 662 0056 84F86510 		strb	r1, [r4, #101]
 361:Middlewares/ST/STM32_USB_Host_Library/Class/MSC/Src/usbh_msc_scsi.c ****       MSC_Handle->hbot.cbw.field.CB[4] = (((uint8_t *)(void *)&address)[1]);
 663              		.loc 1 361 7 is_stmt 1 view .LVU238
 361:Middlewares/ST/STM32_USB_Host_Library/Class/MSC/Src/usbh_msc_scsi.c ****       MSC_Handle->hbot.cbw.field.CB[4] = (((uint8_t *)(void *)&address)[1]);
 664              		.loc 1 361 40 is_stmt 0 view .LVU239
 665 005a C2F30741 		ubfx	r1, r2, #16, #8
 666 005e 84F86610 		strb	r1, [r4, #102]
 362:Middlewares/ST/STM32_USB_Host_Library/Class/MSC/Src/usbh_msc_scsi.c ****       MSC_Handle->hbot.cbw.field.CB[5] = (((uint8_t *)(void *)&address)[0]);
 667              		.loc 1 362 7 is_stmt 1 view .LVU240
 362:Middlewares/ST/STM32_USB_Host_Library/Class/MSC/Src/usbh_msc_scsi.c ****       MSC_Handle->hbot.cbw.field.CB[5] = (((uint8_t *)(void *)&address)[0]);
 668              		.loc 1 362 40 is_stmt 0 view .LVU241
 669 0062 C2F30721 		ubfx	r1, r2, #8, #8
 670 0066 84F86710 		strb	r1, [r4, #103]
 363:Middlewares/ST/STM32_USB_Host_Library/Class/MSC/Src/usbh_msc_scsi.c **** 
 671              		.loc 1 363 7 is_stmt 1 view .LVU242
 363:Middlewares/ST/STM32_USB_Host_Library/Class/MSC/Src/usbh_msc_scsi.c **** 
 672              		.loc 1 363 40 is_stmt 0 view .LVU243
 673 006a 84F86820 		strb	r2, [r4, #104]
 367:Middlewares/ST/STM32_USB_Host_Library/Class/MSC/Src/usbh_msc_scsi.c ****       MSC_Handle->hbot.cbw.field.CB[8] = (((uint8_t *)(void *)&length)[0]);
 674              		.loc 1 367 7 is_stmt 1 view .LVU244
 367:Middlewares/ST/STM32_USB_Host_Library/Class/MSC/Src/usbh_msc_scsi.c ****       MSC_Handle->hbot.cbw.field.CB[8] = (((uint8_t *)(void *)&length)[0]);
 675              		.loc 1 367 40 is_stmt 0 view .LVU245
 676 006e C5F30722 		ubfx	r2, r5, #8, #8
 677              	.LVL53:
 367:Middlewares/ST/STM32_USB_Host_Library/Class/MSC/Src/usbh_msc_scsi.c ****       MSC_Handle->hbot.cbw.field.CB[8] = (((uint8_t *)(void *)&length)[0]);
 678              		.loc 1 367 40 view .LVU246
 679 0072 84F86A20 		strb	r2, [r4, #106]
 368:Middlewares/ST/STM32_USB_Host_Library/Class/MSC/Src/usbh_msc_scsi.c **** 
 680              		.loc 1 368 7 is_stmt 1 view .LVU247
 368:Middlewares/ST/STM32_USB_Host_Library/Class/MSC/Src/usbh_msc_scsi.c **** 
 681              		.loc 1 368 40 is_stmt 0 view .LVU248
 682 0076 84F86B50 		strb	r5, [r4, #107]
 371:Middlewares/ST/STM32_USB_Host_Library/Class/MSC/Src/usbh_msc_scsi.c ****       MSC_Handle->hbot.cmd_state = BOT_CMD_WAIT;
ARM GAS  C:\Users\benny\AppData\Local\Temp\ccucGPrV.s 			page 23


 683              		.loc 1 371 7 is_stmt 1 view .LVU249
 371:Middlewares/ST/STM32_USB_Host_Library/Class/MSC/Src/usbh_msc_scsi.c ****       MSC_Handle->hbot.cmd_state = BOT_CMD_WAIT;
 684              		.loc 1 371 30 is_stmt 0 view .LVU250
 685 007a 0122     		movs	r2, #1
 686 007c 84F85020 		strb	r2, [r4, #80]
 372:Middlewares/ST/STM32_USB_Host_Library/Class/MSC/Src/usbh_msc_scsi.c ****       MSC_Handle->hbot.pbuf = pbuf;
 687              		.loc 1 372 7 is_stmt 1 view .LVU251
 372:Middlewares/ST/STM32_USB_Host_Library/Class/MSC/Src/usbh_msc_scsi.c ****       MSC_Handle->hbot.pbuf = pbuf;
 688              		.loc 1 372 34 is_stmt 0 view .LVU252
 689 0080 0222     		movs	r2, #2
 690 0082 84F85220 		strb	r2, [r4, #82]
 373:Middlewares/ST/STM32_USB_Host_Library/Class/MSC/Src/usbh_msc_scsi.c ****       error = USBH_BUSY;
 691              		.loc 1 373 7 is_stmt 1 view .LVU253
 373:Middlewares/ST/STM32_USB_Host_Library/Class/MSC/Src/usbh_msc_scsi.c ****       error = USBH_BUSY;
 692              		.loc 1 373 29 is_stmt 0 view .LVU254
 693 0086 C4F88C30 		str	r3, [r4, #140]
 374:Middlewares/ST/STM32_USB_Host_Library/Class/MSC/Src/usbh_msc_scsi.c ****       break;
 694              		.loc 1 374 7 is_stmt 1 view .LVU255
 695              	.LVL54:
 375:Middlewares/ST/STM32_USB_Host_Library/Class/MSC/Src/usbh_msc_scsi.c **** 
 696              		.loc 1 375 7 view .LVU256
 697 008a C5E7     		b	.L27
 698              	.LVL55:
 699              	.L26:
 378:Middlewares/ST/STM32_USB_Host_Library/Class/MSC/Src/usbh_msc_scsi.c ****       break;
 700              		.loc 1 378 7 view .LVU257
 378:Middlewares/ST/STM32_USB_Host_Library/Class/MSC/Src/usbh_msc_scsi.c ****       break;
 701              		.loc 1 378 15 is_stmt 0 view .LVU258
 702 008c 6046     		mov	r0, ip
 703 008e FFF7FEFF 		bl	USBH_MSC_BOT_Process
 704              	.LVL56:
 379:Middlewares/ST/STM32_USB_Host_Library/Class/MSC/Src/usbh_msc_scsi.c **** 
 705              		.loc 1 379 7 is_stmt 1 view .LVU259
 706 0092 C1E7     		b	.L27
 707              		.cfi_endproc
 708              	.LFE148:
 710              		.section	.text.USBH_MSC_SCSI_Read,"ax",%progbits
 711              		.align	1
 712              		.global	USBH_MSC_SCSI_Read
 713              		.syntax unified
 714              		.thumb
 715              		.thumb_func
 717              	USBH_MSC_SCSI_Read:
 718              	.LVL57:
 719              	.LFB149:
 387:Middlewares/ST/STM32_USB_Host_Library/Class/MSC/Src/usbh_msc_scsi.c **** 
 388:Middlewares/ST/STM32_USB_Host_Library/Class/MSC/Src/usbh_msc_scsi.c **** /**
 389:Middlewares/ST/STM32_USB_Host_Library/Class/MSC/Src/usbh_msc_scsi.c ****   * @brief  USBH_MSC_SCSI_Read
 390:Middlewares/ST/STM32_USB_Host_Library/Class/MSC/Src/usbh_msc_scsi.c ****   *         Issue Read10 command.
 391:Middlewares/ST/STM32_USB_Host_Library/Class/MSC/Src/usbh_msc_scsi.c ****   * @param  phost: Host handle
 392:Middlewares/ST/STM32_USB_Host_Library/Class/MSC/Src/usbh_msc_scsi.c ****   * @param  lun: Logical Unit Number
 393:Middlewares/ST/STM32_USB_Host_Library/Class/MSC/Src/usbh_msc_scsi.c ****   * @param  address: sector address
 394:Middlewares/ST/STM32_USB_Host_Library/Class/MSC/Src/usbh_msc_scsi.c ****   * @param  pbuf: pointer to data
 395:Middlewares/ST/STM32_USB_Host_Library/Class/MSC/Src/usbh_msc_scsi.c ****   * @param  length: number of sector to read
 396:Middlewares/ST/STM32_USB_Host_Library/Class/MSC/Src/usbh_msc_scsi.c ****   * @retval USBH Status
 397:Middlewares/ST/STM32_USB_Host_Library/Class/MSC/Src/usbh_msc_scsi.c ****   */
 398:Middlewares/ST/STM32_USB_Host_Library/Class/MSC/Src/usbh_msc_scsi.c **** USBH_StatusTypeDef USBH_MSC_SCSI_Read(USBH_HandleTypeDef *phost,
ARM GAS  C:\Users\benny\AppData\Local\Temp\ccucGPrV.s 			page 24


 399:Middlewares/ST/STM32_USB_Host_Library/Class/MSC/Src/usbh_msc_scsi.c ****                                       uint8_t lun,
 400:Middlewares/ST/STM32_USB_Host_Library/Class/MSC/Src/usbh_msc_scsi.c ****                                       uint32_t address,
 401:Middlewares/ST/STM32_USB_Host_Library/Class/MSC/Src/usbh_msc_scsi.c ****                                       uint8_t *pbuf,
 402:Middlewares/ST/STM32_USB_Host_Library/Class/MSC/Src/usbh_msc_scsi.c ****                                       uint32_t length)
 403:Middlewares/ST/STM32_USB_Host_Library/Class/MSC/Src/usbh_msc_scsi.c **** {
 720              		.loc 1 403 1 view -0
 721              		.cfi_startproc
 722              		@ args = 4, pretend = 0, frame = 0
 723              		@ frame_needed = 0, uses_anonymous_args = 0
 724              		.loc 1 403 1 is_stmt 0 view .LVU261
 725 0000 38B5     		push	{r3, r4, r5, lr}
 726              	.LCFI5:
 727              		.cfi_def_cfa_offset 16
 728              		.cfi_offset 3, -16
 729              		.cfi_offset 4, -12
 730              		.cfi_offset 5, -8
 731              		.cfi_offset 14, -4
 732 0002 8446     		mov	ip, r0
 404:Middlewares/ST/STM32_USB_Host_Library/Class/MSC/Src/usbh_msc_scsi.c ****   USBH_StatusTypeDef error = USBH_FAIL;
 733              		.loc 1 404 3 is_stmt 1 view .LVU262
 734              	.LVL58:
 405:Middlewares/ST/STM32_USB_Host_Library/Class/MSC/Src/usbh_msc_scsi.c ****   MSC_HandleTypeDef *MSC_Handle = (MSC_HandleTypeDef *) phost->pActiveClass->pData;
 735              		.loc 1 405 3 view .LVU263
 736              		.loc 1 405 62 is_stmt 0 view .LVU264
 737 0004 D0F84C04 		ldr	r0, [r0, #1100]
 738              	.LVL59:
 739              		.loc 1 405 22 view .LVU265
 740 0008 C469     		ldr	r4, [r0, #28]
 741              	.LVL60:
 406:Middlewares/ST/STM32_USB_Host_Library/Class/MSC/Src/usbh_msc_scsi.c **** 
 407:Middlewares/ST/STM32_USB_Host_Library/Class/MSC/Src/usbh_msc_scsi.c ****   switch (MSC_Handle->hbot.cmd_state)
 742              		.loc 1 407 3 is_stmt 1 view .LVU266
 743              		.loc 1 407 27 is_stmt 0 view .LVU267
 744 000a 94F85200 		ldrb	r0, [r4, #82]	@ zero_extendqisi2
 745              		.loc 1 407 3 view .LVU268
 746 000e 0128     		cmp	r0, #1
 747 0010 03D0     		beq	.L30
 748 0012 0228     		cmp	r0, #2
 749 0014 3AD0     		beq	.L31
 750 0016 0220     		movs	r0, #2
 751              	.LVL61:
 752              	.L32:
 408:Middlewares/ST/STM32_USB_Host_Library/Class/MSC/Src/usbh_msc_scsi.c ****   {
 409:Middlewares/ST/STM32_USB_Host_Library/Class/MSC/Src/usbh_msc_scsi.c ****     case BOT_CMD_SEND:
 410:Middlewares/ST/STM32_USB_Host_Library/Class/MSC/Src/usbh_msc_scsi.c **** 
 411:Middlewares/ST/STM32_USB_Host_Library/Class/MSC/Src/usbh_msc_scsi.c ****       /* Prepare the CBW and relevant field */
 412:Middlewares/ST/STM32_USB_Host_Library/Class/MSC/Src/usbh_msc_scsi.c ****       MSC_Handle->hbot.cbw.field.DataTransferLength = length * MSC_Handle->unit[lun].capacity.block
 413:Middlewares/ST/STM32_USB_Host_Library/Class/MSC/Src/usbh_msc_scsi.c ****       MSC_Handle->hbot.cbw.field.Flags = USB_EP_DIR_IN;
 414:Middlewares/ST/STM32_USB_Host_Library/Class/MSC/Src/usbh_msc_scsi.c ****       MSC_Handle->hbot.cbw.field.CBLength = CBW_LENGTH;
 415:Middlewares/ST/STM32_USB_Host_Library/Class/MSC/Src/usbh_msc_scsi.c **** 
 416:Middlewares/ST/STM32_USB_Host_Library/Class/MSC/Src/usbh_msc_scsi.c ****       (void)USBH_memset(MSC_Handle->hbot.cbw.field.CB, 0, CBW_CB_LENGTH);
 417:Middlewares/ST/STM32_USB_Host_Library/Class/MSC/Src/usbh_msc_scsi.c ****       MSC_Handle->hbot.cbw.field.CB[0] = OPCODE_READ10;
 418:Middlewares/ST/STM32_USB_Host_Library/Class/MSC/Src/usbh_msc_scsi.c **** 
 419:Middlewares/ST/STM32_USB_Host_Library/Class/MSC/Src/usbh_msc_scsi.c ****       /* Logical block address */
 420:Middlewares/ST/STM32_USB_Host_Library/Class/MSC/Src/usbh_msc_scsi.c ****       MSC_Handle->hbot.cbw.field.CB[2] = (((uint8_t *)(void *)&address)[3]);
 421:Middlewares/ST/STM32_USB_Host_Library/Class/MSC/Src/usbh_msc_scsi.c ****       MSC_Handle->hbot.cbw.field.CB[3] = (((uint8_t *)(void *)&address)[2]);
 422:Middlewares/ST/STM32_USB_Host_Library/Class/MSC/Src/usbh_msc_scsi.c ****       MSC_Handle->hbot.cbw.field.CB[4] = (((uint8_t *)(void *)&address)[1]);
ARM GAS  C:\Users\benny\AppData\Local\Temp\ccucGPrV.s 			page 25


 423:Middlewares/ST/STM32_USB_Host_Library/Class/MSC/Src/usbh_msc_scsi.c ****       MSC_Handle->hbot.cbw.field.CB[5] = (((uint8_t *)(void *)&address)[0]);
 424:Middlewares/ST/STM32_USB_Host_Library/Class/MSC/Src/usbh_msc_scsi.c **** 
 425:Middlewares/ST/STM32_USB_Host_Library/Class/MSC/Src/usbh_msc_scsi.c **** 
 426:Middlewares/ST/STM32_USB_Host_Library/Class/MSC/Src/usbh_msc_scsi.c ****       /* Transfer length */
 427:Middlewares/ST/STM32_USB_Host_Library/Class/MSC/Src/usbh_msc_scsi.c ****       MSC_Handle->hbot.cbw.field.CB[7] = (((uint8_t *)(void *)&length)[1]);
 428:Middlewares/ST/STM32_USB_Host_Library/Class/MSC/Src/usbh_msc_scsi.c ****       MSC_Handle->hbot.cbw.field.CB[8] = (((uint8_t *)(void *)&length)[0]);
 429:Middlewares/ST/STM32_USB_Host_Library/Class/MSC/Src/usbh_msc_scsi.c **** 
 430:Middlewares/ST/STM32_USB_Host_Library/Class/MSC/Src/usbh_msc_scsi.c **** 
 431:Middlewares/ST/STM32_USB_Host_Library/Class/MSC/Src/usbh_msc_scsi.c ****       MSC_Handle->hbot.state = BOT_SEND_CBW;
 432:Middlewares/ST/STM32_USB_Host_Library/Class/MSC/Src/usbh_msc_scsi.c ****       MSC_Handle->hbot.cmd_state = BOT_CMD_WAIT;
 433:Middlewares/ST/STM32_USB_Host_Library/Class/MSC/Src/usbh_msc_scsi.c ****       MSC_Handle->hbot.pbuf = pbuf;
 434:Middlewares/ST/STM32_USB_Host_Library/Class/MSC/Src/usbh_msc_scsi.c ****       error = USBH_BUSY;
 435:Middlewares/ST/STM32_USB_Host_Library/Class/MSC/Src/usbh_msc_scsi.c ****       break;
 436:Middlewares/ST/STM32_USB_Host_Library/Class/MSC/Src/usbh_msc_scsi.c **** 
 437:Middlewares/ST/STM32_USB_Host_Library/Class/MSC/Src/usbh_msc_scsi.c ****     case BOT_CMD_WAIT:
 438:Middlewares/ST/STM32_USB_Host_Library/Class/MSC/Src/usbh_msc_scsi.c ****       error = USBH_MSC_BOT_Process(phost, lun);
 439:Middlewares/ST/STM32_USB_Host_Library/Class/MSC/Src/usbh_msc_scsi.c ****       break;
 440:Middlewares/ST/STM32_USB_Host_Library/Class/MSC/Src/usbh_msc_scsi.c **** 
 441:Middlewares/ST/STM32_USB_Host_Library/Class/MSC/Src/usbh_msc_scsi.c ****     default:
 442:Middlewares/ST/STM32_USB_Host_Library/Class/MSC/Src/usbh_msc_scsi.c ****       break;
 443:Middlewares/ST/STM32_USB_Host_Library/Class/MSC/Src/usbh_msc_scsi.c ****   }
 444:Middlewares/ST/STM32_USB_Host_Library/Class/MSC/Src/usbh_msc_scsi.c **** 
 445:Middlewares/ST/STM32_USB_Host_Library/Class/MSC/Src/usbh_msc_scsi.c ****   return error;
 753              		.loc 1 445 3 is_stmt 1 view .LVU269
 446:Middlewares/ST/STM32_USB_Host_Library/Class/MSC/Src/usbh_msc_scsi.c **** }
 754              		.loc 1 446 1 is_stmt 0 view .LVU270
 755 0018 38BD     		pop	{r3, r4, r5, pc}
 756              	.LVL62:
 757              	.L30:
 412:Middlewares/ST/STM32_USB_Host_Library/Class/MSC/Src/usbh_msc_scsi.c ****       MSC_Handle->hbot.cbw.field.Flags = USB_EP_DIR_IN;
 758              		.loc 1 412 7 is_stmt 1 view .LVU271
 412:Middlewares/ST/STM32_USB_Host_Library/Class/MSC/Src/usbh_msc_scsi.c ****       MSC_Handle->hbot.cbw.field.Flags = USB_EP_DIR_IN;
 759              		.loc 1 412 94 is_stmt 0 view .LVU272
 760 001a 4FF0340C 		mov	ip, #52
 761              	.LVL63:
 412:Middlewares/ST/STM32_USB_Host_Library/Class/MSC/Src/usbh_msc_scsi.c ****       MSC_Handle->hbot.cbw.field.Flags = USB_EP_DIR_IN;
 762              		.loc 1 412 94 view .LVU273
 763 001e 0CFB0141 		mla	r1, ip, r1, r4
 764              	.LVL64:
 412:Middlewares/ST/STM32_USB_Host_Library/Class/MSC/Src/usbh_msc_scsi.c ****       MSC_Handle->hbot.cbw.field.Flags = USB_EP_DIR_IN;
 765              		.loc 1 412 94 view .LVU274
 766 0022 B1F89810 		ldrh	r1, [r1, #152]
 412:Middlewares/ST/STM32_USB_Host_Library/Class/MSC/Src/usbh_msc_scsi.c ****       MSC_Handle->hbot.cbw.field.Flags = USB_EP_DIR_IN;
 767              		.loc 1 412 62 view .LVU275
 768 0026 049D     		ldr	r5, [sp, #16]
 769 0028 05FB01F1 		mul	r1, r5, r1
 412:Middlewares/ST/STM32_USB_Host_Library/Class/MSC/Src/usbh_msc_scsi.c ****       MSC_Handle->hbot.cbw.field.Flags = USB_EP_DIR_IN;
 770              		.loc 1 412 53 view .LVU276
 771 002c E165     		str	r1, [r4, #92]
 413:Middlewares/ST/STM32_USB_Host_Library/Class/MSC/Src/usbh_msc_scsi.c ****       MSC_Handle->hbot.cbw.field.CBLength = CBW_LENGTH;
 772              		.loc 1 413 7 is_stmt 1 view .LVU277
 413:Middlewares/ST/STM32_USB_Host_Library/Class/MSC/Src/usbh_msc_scsi.c ****       MSC_Handle->hbot.cbw.field.CBLength = CBW_LENGTH;
 773              		.loc 1 413 40 is_stmt 0 view .LVU278
 774 002e 8021     		movs	r1, #128
 775 0030 84F86010 		strb	r1, [r4, #96]
 414:Middlewares/ST/STM32_USB_Host_Library/Class/MSC/Src/usbh_msc_scsi.c **** 
 776              		.loc 1 414 7 is_stmt 1 view .LVU279
ARM GAS  C:\Users\benny\AppData\Local\Temp\ccucGPrV.s 			page 26


 414:Middlewares/ST/STM32_USB_Host_Library/Class/MSC/Src/usbh_msc_scsi.c **** 
 777              		.loc 1 414 43 is_stmt 0 view .LVU280
 778 0034 0A21     		movs	r1, #10
 779 0036 84F86210 		strb	r1, [r4, #98]
 416:Middlewares/ST/STM32_USB_Host_Library/Class/MSC/Src/usbh_msc_scsi.c ****       MSC_Handle->hbot.cbw.field.CB[0] = OPCODE_READ10;
 780              		.loc 1 416 7 is_stmt 1 view .LVU281
 416:Middlewares/ST/STM32_USB_Host_Library/Class/MSC/Src/usbh_msc_scsi.c ****       MSC_Handle->hbot.cbw.field.CB[0] = OPCODE_READ10;
 781              		.loc 1 416 13 is_stmt 0 view .LVU282
 782 003a 0021     		movs	r1, #0
 783 003c C4F86310 		str	r1, [r4, #99]	@ unaligned
 784 0040 C4F86710 		str	r1, [r4, #103]	@ unaligned
 785 0044 C4F86B10 		str	r1, [r4, #107]	@ unaligned
 786 0048 C4F86F10 		str	r1, [r4, #111]	@ unaligned
 417:Middlewares/ST/STM32_USB_Host_Library/Class/MSC/Src/usbh_msc_scsi.c **** 
 787              		.loc 1 417 7 is_stmt 1 view .LVU283
 417:Middlewares/ST/STM32_USB_Host_Library/Class/MSC/Src/usbh_msc_scsi.c **** 
 788              		.loc 1 417 40 is_stmt 0 view .LVU284
 789 004c 2821     		movs	r1, #40
 790 004e 84F86310 		strb	r1, [r4, #99]
 420:Middlewares/ST/STM32_USB_Host_Library/Class/MSC/Src/usbh_msc_scsi.c ****       MSC_Handle->hbot.cbw.field.CB[3] = (((uint8_t *)(void *)&address)[2]);
 791              		.loc 1 420 7 is_stmt 1 view .LVU285
 420:Middlewares/ST/STM32_USB_Host_Library/Class/MSC/Src/usbh_msc_scsi.c ****       MSC_Handle->hbot.cbw.field.CB[3] = (((uint8_t *)(void *)&address)[2]);
 792              		.loc 1 420 40 is_stmt 0 view .LVU286
 793 0052 C2F30761 		ubfx	r1, r2, #24, #8
 794 0056 84F86510 		strb	r1, [r4, #101]
 421:Middlewares/ST/STM32_USB_Host_Library/Class/MSC/Src/usbh_msc_scsi.c ****       MSC_Handle->hbot.cbw.field.CB[4] = (((uint8_t *)(void *)&address)[1]);
 795              		.loc 1 421 7 is_stmt 1 view .LVU287
 421:Middlewares/ST/STM32_USB_Host_Library/Class/MSC/Src/usbh_msc_scsi.c ****       MSC_Handle->hbot.cbw.field.CB[4] = (((uint8_t *)(void *)&address)[1]);
 796              		.loc 1 421 40 is_stmt 0 view .LVU288
 797 005a C2F30741 		ubfx	r1, r2, #16, #8
 798 005e 84F86610 		strb	r1, [r4, #102]
 422:Middlewares/ST/STM32_USB_Host_Library/Class/MSC/Src/usbh_msc_scsi.c ****       MSC_Handle->hbot.cbw.field.CB[5] = (((uint8_t *)(void *)&address)[0]);
 799              		.loc 1 422 7 is_stmt 1 view .LVU289
 422:Middlewares/ST/STM32_USB_Host_Library/Class/MSC/Src/usbh_msc_scsi.c ****       MSC_Handle->hbot.cbw.field.CB[5] = (((uint8_t *)(void *)&address)[0]);
 800              		.loc 1 422 40 is_stmt 0 view .LVU290
 801 0062 C2F30721 		ubfx	r1, r2, #8, #8
 802 0066 84F86710 		strb	r1, [r4, #103]
 423:Middlewares/ST/STM32_USB_Host_Library/Class/MSC/Src/usbh_msc_scsi.c **** 
 803              		.loc 1 423 7 is_stmt 1 view .LVU291
 423:Middlewares/ST/STM32_USB_Host_Library/Class/MSC/Src/usbh_msc_scsi.c **** 
 804              		.loc 1 423 40 is_stmt 0 view .LVU292
 805 006a 84F86820 		strb	r2, [r4, #104]
 427:Middlewares/ST/STM32_USB_Host_Library/Class/MSC/Src/usbh_msc_scsi.c ****       MSC_Handle->hbot.cbw.field.CB[8] = (((uint8_t *)(void *)&length)[0]);
 806              		.loc 1 427 7 is_stmt 1 view .LVU293
 427:Middlewares/ST/STM32_USB_Host_Library/Class/MSC/Src/usbh_msc_scsi.c ****       MSC_Handle->hbot.cbw.field.CB[8] = (((uint8_t *)(void *)&length)[0]);
 807              		.loc 1 427 40 is_stmt 0 view .LVU294
 808 006e C5F30722 		ubfx	r2, r5, #8, #8
 809              	.LVL65:
 427:Middlewares/ST/STM32_USB_Host_Library/Class/MSC/Src/usbh_msc_scsi.c ****       MSC_Handle->hbot.cbw.field.CB[8] = (((uint8_t *)(void *)&length)[0]);
 810              		.loc 1 427 40 view .LVU295
 811 0072 84F86A20 		strb	r2, [r4, #106]
 428:Middlewares/ST/STM32_USB_Host_Library/Class/MSC/Src/usbh_msc_scsi.c **** 
 812              		.loc 1 428 7 is_stmt 1 view .LVU296
 428:Middlewares/ST/STM32_USB_Host_Library/Class/MSC/Src/usbh_msc_scsi.c **** 
 813              		.loc 1 428 40 is_stmt 0 view .LVU297
 814 0076 84F86B50 		strb	r5, [r4, #107]
 431:Middlewares/ST/STM32_USB_Host_Library/Class/MSC/Src/usbh_msc_scsi.c ****       MSC_Handle->hbot.cmd_state = BOT_CMD_WAIT;
ARM GAS  C:\Users\benny\AppData\Local\Temp\ccucGPrV.s 			page 27


 815              		.loc 1 431 7 is_stmt 1 view .LVU298
 431:Middlewares/ST/STM32_USB_Host_Library/Class/MSC/Src/usbh_msc_scsi.c ****       MSC_Handle->hbot.cmd_state = BOT_CMD_WAIT;
 816              		.loc 1 431 30 is_stmt 0 view .LVU299
 817 007a 0122     		movs	r2, #1
 818 007c 84F85020 		strb	r2, [r4, #80]
 432:Middlewares/ST/STM32_USB_Host_Library/Class/MSC/Src/usbh_msc_scsi.c ****       MSC_Handle->hbot.pbuf = pbuf;
 819              		.loc 1 432 7 is_stmt 1 view .LVU300
 432:Middlewares/ST/STM32_USB_Host_Library/Class/MSC/Src/usbh_msc_scsi.c ****       MSC_Handle->hbot.pbuf = pbuf;
 820              		.loc 1 432 34 is_stmt 0 view .LVU301
 821 0080 0222     		movs	r2, #2
 822 0082 84F85220 		strb	r2, [r4, #82]
 433:Middlewares/ST/STM32_USB_Host_Library/Class/MSC/Src/usbh_msc_scsi.c ****       error = USBH_BUSY;
 823              		.loc 1 433 7 is_stmt 1 view .LVU302
 433:Middlewares/ST/STM32_USB_Host_Library/Class/MSC/Src/usbh_msc_scsi.c ****       error = USBH_BUSY;
 824              		.loc 1 433 29 is_stmt 0 view .LVU303
 825 0086 C4F88C30 		str	r3, [r4, #140]
 434:Middlewares/ST/STM32_USB_Host_Library/Class/MSC/Src/usbh_msc_scsi.c ****       break;
 826              		.loc 1 434 7 is_stmt 1 view .LVU304
 827              	.LVL66:
 435:Middlewares/ST/STM32_USB_Host_Library/Class/MSC/Src/usbh_msc_scsi.c **** 
 828              		.loc 1 435 7 view .LVU305
 829 008a C5E7     		b	.L32
 830              	.LVL67:
 831              	.L31:
 438:Middlewares/ST/STM32_USB_Host_Library/Class/MSC/Src/usbh_msc_scsi.c ****       break;
 832              		.loc 1 438 7 view .LVU306
 438:Middlewares/ST/STM32_USB_Host_Library/Class/MSC/Src/usbh_msc_scsi.c ****       break;
 833              		.loc 1 438 15 is_stmt 0 view .LVU307
 834 008c 6046     		mov	r0, ip
 835 008e FFF7FEFF 		bl	USBH_MSC_BOT_Process
 836              	.LVL68:
 439:Middlewares/ST/STM32_USB_Host_Library/Class/MSC/Src/usbh_msc_scsi.c **** 
 837              		.loc 1 439 7 is_stmt 1 view .LVU308
 838 0092 C1E7     		b	.L32
 839              		.cfi_endproc
 840              	.LFE149:
 842              		.text
 843              	.Letext0:
 844              		.file 2 "C:\\ST\\STM32CubeCLT_1.17.0\\GNU-tools-for-STM32\\bin/../lib/gcc/arm-none-eabi/12.3.1/../
 845              		.file 3 "C:\\ST\\STM32CubeCLT_1.17.0\\GNU-tools-for-STM32\\bin/../lib/gcc/arm-none-eabi/12.3.1/inc
 846              		.file 4 "C:\\ST\\STM32CubeCLT_1.17.0\\GNU-tools-for-STM32\\bin/../lib/gcc/arm-none-eabi/12.3.1/../
 847              		.file 5 "Middlewares/ST/STM32_USB_Host_Library/Core/Inc/usbh_def.h"
 848              		.file 6 "Middlewares/ST/STM32_USB_Host_Library/Class/MSC/Inc/usbh_msc_bot.h"
 849              		.file 7 "Middlewares/ST/STM32_USB_Host_Library/Class/MSC/Inc/usbh_msc_scsi.h"
 850              		.file 8 "Middlewares/ST/STM32_USB_Host_Library/Class/MSC/Inc/usbh_msc.h"
 851              		.file 9 "C:\\ST\\STM32CubeCLT_1.17.0\\GNU-tools-for-STM32\\bin/../lib/gcc/arm-none-eabi/12.3.1/../
 852              		.file 10 "<built-in>"
ARM GAS  C:\Users\benny\AppData\Local\Temp\ccucGPrV.s 			page 28

