ARM GAS  C:\Users\benny\AppData\Local\Temp\ccL0Unug.s 			page 1


   1              		.cpu cortex-m7
   2              		.arch armv7e-m
   3              		.fpu fpv5-sp-d16
   4              		.eabi_attribute 27, 1
   5              		.eabi_attribute 28, 1
   6              		.eabi_attribute 20, 1
   7              		.eabi_attribute 21, 1
   8              		.eabi_attribute 23, 3
   9              		.eabi_attribute 24, 1
  10              		.eabi_attribute 25, 1
  11              		.eabi_attribute 26, 1
  12              		.eabi_attribute 30, 1
  13              		.eabi_attribute 34, 1
  14              		.eabi_attribute 18, 4
  15              		.file	"usbh_platform.c"
  16              		.text
  17              	.Ltext0:
  18              		.cfi_sections	.debug_frame
  19              		.file 1 "USB_HOST/Target/usbh_platform.c"
  20              		.section	.text.MX_DriverVbusFS,"ax",%progbits
  21              		.align	1
  22              		.global	MX_DriverVbusFS
  23              		.syntax unified
  24              		.thumb
  25              		.thumb_func
  27              	MX_DriverVbusFS:
  28              	.LVL0:
  29              	.LFB141:
   1:USB_HOST/Target/usbh_platform.c **** /* USER CODE BEGIN Header */
   2:USB_HOST/Target/usbh_platform.c **** /**
   3:USB_HOST/Target/usbh_platform.c ****   ******************************************************************************
   4:USB_HOST/Target/usbh_platform.c ****   * @file           : usbh_platform.c
   5:USB_HOST/Target/usbh_platform.c **** 
   6:USB_HOST/Target/usbh_platform.c ****   * @brief          : This file implements the USB platform
   7:USB_HOST/Target/usbh_platform.c ****   ******************************************************************************
   8:USB_HOST/Target/usbh_platform.c ****   * @attention
   9:USB_HOST/Target/usbh_platform.c ****   *
  10:USB_HOST/Target/usbh_platform.c ****   * Copyright (c) 2024 STMicroelectronics.
  11:USB_HOST/Target/usbh_platform.c ****   * All rights reserved.
  12:USB_HOST/Target/usbh_platform.c ****   *
  13:USB_HOST/Target/usbh_platform.c ****   * This software is licensed under terms that can be found in the LICENSE file
  14:USB_HOST/Target/usbh_platform.c ****   * in the root directory of this software component.
  15:USB_HOST/Target/usbh_platform.c ****   * If no LICENSE file comes with this software, it is provided AS-IS.
  16:USB_HOST/Target/usbh_platform.c ****   *
  17:USB_HOST/Target/usbh_platform.c ****   ******************************************************************************
  18:USB_HOST/Target/usbh_platform.c ****   */
  19:USB_HOST/Target/usbh_platform.c **** /* USER CODE END Header */
  20:USB_HOST/Target/usbh_platform.c **** 
  21:USB_HOST/Target/usbh_platform.c **** /* Includes ------------------------------------------------------------------*/
  22:USB_HOST/Target/usbh_platform.c **** #include "usbh_platform.h"
  23:USB_HOST/Target/usbh_platform.c **** 
  24:USB_HOST/Target/usbh_platform.c **** /* USER CODE BEGIN INCLUDE */
  25:USB_HOST/Target/usbh_platform.c **** 
  26:USB_HOST/Target/usbh_platform.c **** /* USER CODE END INCLUDE */
  27:USB_HOST/Target/usbh_platform.c **** 
  28:USB_HOST/Target/usbh_platform.c **** /**
  29:USB_HOST/Target/usbh_platform.c ****   * @brief  Drive VBUS.
ARM GAS  C:\Users\benny\AppData\Local\Temp\ccL0Unug.s 			page 2


  30:USB_HOST/Target/usbh_platform.c ****   * @param  state : VBUS state
  31:USB_HOST/Target/usbh_platform.c ****   *          This parameter can be one of the these values:
  32:USB_HOST/Target/usbh_platform.c ****   *           - 1 : VBUS Active
  33:USB_HOST/Target/usbh_platform.c ****   *           - 0 : VBUS Inactive
  34:USB_HOST/Target/usbh_platform.c ****   */
  35:USB_HOST/Target/usbh_platform.c **** void MX_DriverVbusFS(uint8_t state)
  36:USB_HOST/Target/usbh_platform.c **** {
  30              		.loc 1 36 1 view -0
  31              		.cfi_startproc
  32              		@ args = 0, pretend = 0, frame = 0
  33              		@ frame_needed = 0, uses_anonymous_args = 0
  34              		.loc 1 36 1 is_stmt 0 view .LVU1
  35 0000 08B5     		push	{r3, lr}
  36              	.LCFI0:
  37              		.cfi_def_cfa_offset 8
  38              		.cfi_offset 3, -8
  39              		.cfi_offset 14, -4
  37:USB_HOST/Target/usbh_platform.c ****   uint8_t data = state;
  40              		.loc 1 37 3 is_stmt 1 view .LVU2
  41              	.LVL1:
  38:USB_HOST/Target/usbh_platform.c ****   /* USER CODE BEGIN PREPARE_GPIO_DATA_VBUS_FS */
  39:USB_HOST/Target/usbh_platform.c ****   if(state == 0)
  42              		.loc 1 39 3 view .LVU3
  43              		.loc 1 39 5 is_stmt 0 view .LVU4
  44 0002 0246     		mov	r2, r0
  45 0004 00B1     		cbz	r0, .L2
  40:USB_HOST/Target/usbh_platform.c ****   {
  41:USB_HOST/Target/usbh_platform.c ****     /* Drive high Charge pump */
  42:USB_HOST/Target/usbh_platform.c ****     data = GPIO_PIN_RESET;
  43:USB_HOST/Target/usbh_platform.c ****   }
  44:USB_HOST/Target/usbh_platform.c ****   else
  45:USB_HOST/Target/usbh_platform.c ****   {
  46:USB_HOST/Target/usbh_platform.c ****     /* Drive low Charge pump */
  47:USB_HOST/Target/usbh_platform.c ****     data = GPIO_PIN_SET;
  46              		.loc 1 47 10 view .LVU5
  47 0006 0122     		movs	r2, #1
  48              	.L2:
  49              	.LVL2:
  48:USB_HOST/Target/usbh_platform.c ****   }
  49:USB_HOST/Target/usbh_platform.c ****   /* USER CODE END PREPARE_GPIO_DATA_VBUS_FS */
  50:USB_HOST/Target/usbh_platform.c ****   HAL_GPIO_WritePin(GPIOG,GPIO_PIN_8,(GPIO_PinState)data);
  50              		.loc 1 50 3 is_stmt 1 view .LVU6
  51 0008 4FF48071 		mov	r1, #256
  52 000c 0148     		ldr	r0, .L5
  53              	.LVL3:
  54              		.loc 1 50 3 is_stmt 0 view .LVU7
  55 000e FFF7FEFF 		bl	HAL_GPIO_WritePin
  56              	.LVL4:
  51:USB_HOST/Target/usbh_platform.c **** }
  57              		.loc 1 51 1 view .LVU8
  58 0012 08BD     		pop	{r3, pc}
  59              	.L6:
  60              		.align	2
  61              	.L5:
  62 0014 00180240 		.word	1073879040
  63              		.cfi_endproc
  64              	.LFE141:
ARM GAS  C:\Users\benny\AppData\Local\Temp\ccL0Unug.s 			page 3


  66              		.section	.text.MX_DriverVbusHS,"ax",%progbits
  67              		.align	1
  68              		.global	MX_DriverVbusHS
  69              		.syntax unified
  70              		.thumb
  71              		.thumb_func
  73              	MX_DriverVbusHS:
  74              	.LVL5:
  75              	.LFB142:
  52:USB_HOST/Target/usbh_platform.c **** 
  53:USB_HOST/Target/usbh_platform.c **** /**
  54:USB_HOST/Target/usbh_platform.c ****   * @brief  Drive VBUS.
  55:USB_HOST/Target/usbh_platform.c ****   * @param  state : VBUS state
  56:USB_HOST/Target/usbh_platform.c ****   *          This parameter can be one of the these values:
  57:USB_HOST/Target/usbh_platform.c ****   *          - 1 : VBUS Active
  58:USB_HOST/Target/usbh_platform.c ****   *          - 0 : VBUS Inactive
  59:USB_HOST/Target/usbh_platform.c ****   */
  60:USB_HOST/Target/usbh_platform.c **** void MX_DriverVbusHS(uint8_t state)
  61:USB_HOST/Target/usbh_platform.c **** {
  76              		.loc 1 61 1 is_stmt 1 view -0
  77              		.cfi_startproc
  78              		@ args = 0, pretend = 0, frame = 0
  79              		@ frame_needed = 0, uses_anonymous_args = 0
  80              		.loc 1 61 1 is_stmt 0 view .LVU10
  81 0000 08B5     		push	{r3, lr}
  82              	.LCFI1:
  83              		.cfi_def_cfa_offset 8
  84              		.cfi_offset 3, -8
  85              		.cfi_offset 14, -4
  62:USB_HOST/Target/usbh_platform.c ****   uint8_t data = state;
  86              		.loc 1 62 3 is_stmt 1 view .LVU11
  87              	.LVL6:
  63:USB_HOST/Target/usbh_platform.c ****   /* USER CODE BEGIN PREPARE_GPIO_DATA_VBUS_HS */
  64:USB_HOST/Target/usbh_platform.c ****   if(state == 0)
  88              		.loc 1 64 3 view .LVU12
  89              		.loc 1 64 5 is_stmt 0 view .LVU13
  90 0002 30B9     		cbnz	r0, .L9
  65:USB_HOST/Target/usbh_platform.c ****   {
  66:USB_HOST/Target/usbh_platform.c ****     /* Drive high Charge pump */
  67:USB_HOST/Target/usbh_platform.c ****     data = GPIO_PIN_SET;
  91              		.loc 1 67 10 view .LVU14
  92 0004 0122     		movs	r2, #1
  93              	.L8:
  94              	.LVL7:
  68:USB_HOST/Target/usbh_platform.c ****   }
  69:USB_HOST/Target/usbh_platform.c ****   else
  70:USB_HOST/Target/usbh_platform.c ****   {
  71:USB_HOST/Target/usbh_platform.c ****     /* Drive low Charge pump */
  72:USB_HOST/Target/usbh_platform.c ****     data = GPIO_PIN_RESET;
  73:USB_HOST/Target/usbh_platform.c ****   }
  74:USB_HOST/Target/usbh_platform.c ****   /* USER CODE END PREPARE_GPIO_DATA_VBUS_HS */
  75:USB_HOST/Target/usbh_platform.c ****   HAL_GPIO_WritePin(GPIOH,GPIO_PIN_12,(GPIO_PinState)data);
  95              		.loc 1 75 3 is_stmt 1 view .LVU15
  96 0006 4FF48051 		mov	r1, #4096
  97 000a 0348     		ldr	r0, .L11
  98              	.LVL8:
  99              		.loc 1 75 3 is_stmt 0 view .LVU16
ARM GAS  C:\Users\benny\AppData\Local\Temp\ccL0Unug.s 			page 4


 100 000c FFF7FEFF 		bl	HAL_GPIO_WritePin
 101              	.LVL9:
  76:USB_HOST/Target/usbh_platform.c **** }
 102              		.loc 1 76 1 view .LVU17
 103 0010 08BD     		pop	{r3, pc}
 104              	.LVL10:
 105              	.L9:
  72:USB_HOST/Target/usbh_platform.c ****   }
 106              		.loc 1 72 10 view .LVU18
 107 0012 0022     		movs	r2, #0
 108 0014 F7E7     		b	.L8
 109              	.L12:
 110 0016 00BF     		.align	2
 111              	.L11:
 112 0018 001C0240 		.word	1073880064
 113              		.cfi_endproc
 114              	.LFE142:
 116              		.text
 117              	.Letext0:
 118              		.file 2 "C:\\ST\\STM32CubeCLT_1.17.0\\GNU-tools-for-STM32\\bin/../lib/gcc/arm-none-eabi/12.3.1/../
 119              		.file 3 "C:\\ST\\STM32CubeCLT_1.17.0\\GNU-tools-for-STM32\\bin/../lib/gcc/arm-none-eabi/12.3.1/../
 120              		.file 4 "Drivers/CMSIS/Device/ST/STM32F7xx/Include/stm32f723xx.h"
 121              		.file 5 "Drivers/STM32F7xx_HAL_Driver/Inc/stm32f7xx_hal_gpio.h"
ARM GAS  C:\Users\benny\AppData\Local\Temp\ccL0Unug.s 			page 5

